ARM GAS  C:\Users\ikui753\AppData\Local\Temp\ccVlsKNB.s 			page 1


   1              		.syntax unified
   2              		.cpu cortex-m3
   3              		.fpu softvfp
   4              		.eabi_attribute 20, 1
   5              		.eabi_attribute 21, 1
   6              		.eabi_attribute 23, 3
   7              		.eabi_attribute 24, 1
   8              		.eabi_attribute 25, 1
   9              		.eabi_attribute 26, 1
  10              		.eabi_attribute 30, 6
  11              		.eabi_attribute 34, 1
  12              		.eabi_attribute 18, 4
  13              		.thumb
  14              		.syntax unified
  15              		.file	"arraylist.c"
  16              		.text
  17              	.Ltext0:
  18              		.cfi_sections	.debug_frame
  19              		.section	.rodata
  20              		.align	2
  21              	.LC0:
  22 0000 6E65775F 		.ascii	"new_list->body\000"
  22      6C697374 
  22      2D3E626F 
  22      647900
  23 000f 00       		.align	2
  24              	.LC1:
  25 0010 61727261 		.ascii	"arraylist.c\000"
  25      796C6973 
  25      742E6300 
  26              		.section	.text.arraylist_create,"ax",%progbits
  27              		.align	2
  28              		.global	arraylist_create
  29              		.thumb
  30              		.thumb_func
  31              		.type	arraylist_create, %function
  32              	arraylist_create:
  33              	.LFB0:
  34              		.file 1 "arraylist.c"
   1:arraylist.c   **** /**
   2:arraylist.c   ****  * Arraylist implementation
   3:arraylist.c   ****  * (c) 2011 @marekweb
   4:arraylist.c   ****  *
   5:arraylist.c   ****  * Uses dynamic extensible arrays.
   6:arraylist.c   ****  */
   7:arraylist.c   **** // ARRAYLIST IMPLEMENTATION FROM https://github.com/marekweb/datastructs-c // @marekweb
   8:arraylist.c   **** #include <stdlib.h>
   9:arraylist.c   **** #include <string.h>
  10:arraylist.c   **** #include <assert.h>
  11:arraylist.c   **** #include "arraylist.h"
  12:arraylist.c   **** 
  13:arraylist.c   **** /*
  14:arraylist.c   ****  * Interface section used for `makeheaders`.
  15:arraylist.c   ****  */
  16:arraylist.c   **** #if INTERFACE
  17:arraylist.c   **** 
  18:arraylist.c   **** struct arraylist {
ARM GAS  C:\Users\ikui753\AppData\Local\Temp\ccVlsKNB.s 			page 2


  19:arraylist.c   **** 	unsigned int size; // Count of items currently in list
  20:arraylist.c   **** 	unsigned int capacity; // Allocated memory size, in items
  21:arraylist.c   **** 	void** body; // Pointer to allocated memory for items (of size capacity * sizeof(void*))
  22:arraylist.c   **** };
  23:arraylist.c   **** 
  24:arraylist.c   **** /**
  25:arraylist.c   ****  * Iterates over a list, using the provided `unsigned int index` and `void* item`
  26:arraylist.c   ****  * variables as containers.
  27:arraylist.c   ****  */
  28:arraylist.c   **** #define arraylist_iterate(l, index, item) \
  29:arraylist.c   **** 	for (index = 0, item = l->body[0]; index < l->size; item = l->body[++index])
  30:arraylist.c   **** 
  31:arraylist.c   **** #endif
  32:arraylist.c   **** 
  33:arraylist.c   **** // Initial capacity of the arraylist
  34:arraylist.c   **** #define ARRAYLIST_INITIAL_CAPACITY 4
  35:arraylist.c   **** 
  36:arraylist.c   **** /**
  37:arraylist.c   ****  * Macro to shift a section of memory by an offset, used when inserting or removing items.
  38:arraylist.c   ****  */
  39:arraylist.c   **** #define arraylist_memshift(s, offset, length) memmove((s) + (offset), (s), (length)* sizeof(s));
  40:arraylist.c   **** 
  41:arraylist.c   **** /**
  42:arraylist.c   ****  * Create a new, empty arraylist.
  43:arraylist.c   ****  */
  44:arraylist.c   **** arraylist* arraylist_create()
  45:arraylist.c   **** {
  35              		.loc 1 45 0
  36              		.cfi_startproc
  37              		@ args = 0, pretend = 0, frame = 8
  38              		@ frame_needed = 1, uses_anonymous_args = 0
  39 0000 80B5     		push	{r7, lr}
  40              		.cfi_def_cfa_offset 8
  41              		.cfi_offset 7, -8
  42              		.cfi_offset 14, -4
  43 0002 82B0     		sub	sp, sp, #8
  44              		.cfi_def_cfa_offset 16
  45 0004 00AF     		add	r7, sp, #0
  46              		.cfi_def_cfa_register 7
  46:arraylist.c   **** 	arraylist* new_list = malloc(sizeof(arraylist));
  47              		.loc 1 46 0
  48 0006 0C20     		movs	r0, #12
  49 0008 FFF7FEFF 		bl	malloc
  50 000c 0346     		mov	r3, r0
  51 000e 7B60     		str	r3, [r7, #4]
  47:arraylist.c   **** 	new_list->size = 0;
  52              		.loc 1 47 0
  53 0010 7B68     		ldr	r3, [r7, #4]
  54 0012 0022     		movs	r2, #0
  55 0014 1A60     		str	r2, [r3]
  48:arraylist.c   **** 	// Allocate the array
  49:arraylist.c   **** 	new_list->body = malloc(sizeof(void*) * ARRAYLIST_INITIAL_CAPACITY);
  56              		.loc 1 49 0
  57 0016 1020     		movs	r0, #16
  58 0018 FFF7FEFF 		bl	malloc
  59 001c 0346     		mov	r3, r0
  60 001e 1A46     		mov	r2, r3
ARM GAS  C:\Users\ikui753\AppData\Local\Temp\ccVlsKNB.s 			page 3


  61 0020 7B68     		ldr	r3, [r7, #4]
  62 0022 9A60     		str	r2, [r3, #8]
  50:arraylist.c   **** 	assert(new_list->body);
  63              		.loc 1 50 0
  64 0024 7B68     		ldr	r3, [r7, #4]
  65 0026 9B68     		ldr	r3, [r3, #8]
  66 0028 002B     		cmp	r3, #0
  67 002a 05D1     		bne	.L2
  68              		.loc 1 50 0 is_stmt 0 discriminator 1
  69 002c 064B     		ldr	r3, .L4
  70 002e 074A     		ldr	r2, .L4+4
  71 0030 3221     		movs	r1, #50
  72 0032 0748     		ldr	r0, .L4+8
  73 0034 FFF7FEFF 		bl	__assert_func
  74              	.L2:
  51:arraylist.c   **** 	new_list->capacity = ARRAYLIST_INITIAL_CAPACITY;
  75              		.loc 1 51 0 is_stmt 1
  76 0038 7B68     		ldr	r3, [r7, #4]
  77 003a 0422     		movs	r2, #4
  78 003c 5A60     		str	r2, [r3, #4]
  52:arraylist.c   **** 	return new_list;
  79              		.loc 1 52 0
  80 003e 7B68     		ldr	r3, [r7, #4]
  53:arraylist.c   **** }
  81              		.loc 1 53 0
  82 0040 1846     		mov	r0, r3
  83 0042 0837     		adds	r7, r7, #8
  84              		.cfi_def_cfa_offset 8
  85 0044 BD46     		mov	sp, r7
  86              		.cfi_def_cfa_register 13
  87              		@ sp needed
  88 0046 80BD     		pop	{r7, pc}
  89              	.L5:
  90              		.align	2
  91              	.L4:
  92 0048 00000000 		.word	.LC0
  93 004c 68000000 		.word	__func__.4652
  94 0050 10000000 		.word	.LC1
  95              		.cfi_endproc
  96              	.LFE0:
  97              		.size	arraylist_create, .-arraylist_create
  98              		.section	.rodata
  99              		.align	2
 100              	.LC2:
 101 001c 73697A65 		.ascii	"size > 0\000"
 101      203E2030 
 101      00
 102 0025 000000   		.align	2
 103              	.LC3:
 104 0028 6C2D3E62 		.ascii	"l->body\000"
 104      6F647900 
 105              		.section	.text.arraylist_allocate,"ax",%progbits
 106              		.align	2
 107              		.global	arraylist_allocate
 108              		.thumb
 109              		.thumb_func
 110              		.type	arraylist_allocate, %function
ARM GAS  C:\Users\ikui753\AppData\Local\Temp\ccVlsKNB.s 			page 4


 111              	arraylist_allocate:
 112              	.LFB1:
  54:arraylist.c   **** 
  55:arraylist.c   **** /**
  56:arraylist.c   ****  * Allocate sufficient array capacity for at least `size` elements.
  57:arraylist.c   ****  */
  58:arraylist.c   **** void arraylist_allocate(arraylist* l, unsigned int size)
  59:arraylist.c   **** {
 113              		.loc 1 59 0
 114              		.cfi_startproc
 115              		@ args = 0, pretend = 0, frame = 16
 116              		@ frame_needed = 1, uses_anonymous_args = 0
 117 0000 80B5     		push	{r7, lr}
 118              		.cfi_def_cfa_offset 8
 119              		.cfi_offset 7, -8
 120              		.cfi_offset 14, -4
 121 0002 84B0     		sub	sp, sp, #16
 122              		.cfi_def_cfa_offset 24
 123 0004 00AF     		add	r7, sp, #0
 124              		.cfi_def_cfa_register 7
 125 0006 7860     		str	r0, [r7, #4]
 126 0008 3960     		str	r1, [r7]
  60:arraylist.c   **** 	assert(size > 0);
 127              		.loc 1 60 0
 128 000a 3B68     		ldr	r3, [r7]
 129 000c 002B     		cmp	r3, #0
 130 000e 05D1     		bne	.L7
 131              		.loc 1 60 0 is_stmt 0 discriminator 1
 132 0010 184B     		ldr	r3, .L13
 133 0012 194A     		ldr	r2, .L13+4
 134 0014 3C21     		movs	r1, #60
 135 0016 1948     		ldr	r0, .L13+8
 136 0018 FFF7FEFF 		bl	__assert_func
 137              	.L7:
  61:arraylist.c   **** 	if (size > l->capacity) {
 138              		.loc 1 61 0 is_stmt 1
 139 001c 7B68     		ldr	r3, [r7, #4]
 140 001e 5A68     		ldr	r2, [r3, #4]
 141 0020 3B68     		ldr	r3, [r7]
 142 0022 9A42     		cmp	r2, r3
 143 0024 22D2     		bcs	.L12
 144              	.LBB2:
  62:arraylist.c   **** 		unsigned int new_capacity = l->capacity;
 145              		.loc 1 62 0
 146 0026 7B68     		ldr	r3, [r7, #4]
 147 0028 5B68     		ldr	r3, [r3, #4]
 148 002a FB60     		str	r3, [r7, #12]
  63:arraylist.c   **** 		while (new_capacity < size) {
 149              		.loc 1 63 0
 150 002c 02E0     		b	.L9
 151              	.L10:
  64:arraylist.c   **** 			new_capacity *= 2;
 152              		.loc 1 64 0
 153 002e FB68     		ldr	r3, [r7, #12]
 154 0030 5B00     		lsls	r3, r3, #1
 155 0032 FB60     		str	r3, [r7, #12]
 156              	.L9:
ARM GAS  C:\Users\ikui753\AppData\Local\Temp\ccVlsKNB.s 			page 5


  63:arraylist.c   **** 		while (new_capacity < size) {
 157              		.loc 1 63 0
 158 0034 FA68     		ldr	r2, [r7, #12]
 159 0036 3B68     		ldr	r3, [r7]
 160 0038 9A42     		cmp	r2, r3
 161 003a F8D3     		bcc	.L10
  65:arraylist.c   **** 		}
  66:arraylist.c   **** 		l->body = realloc(l->body, sizeof(void*) * new_capacity);
 162              		.loc 1 66 0
 163 003c 7B68     		ldr	r3, [r7, #4]
 164 003e 9A68     		ldr	r2, [r3, #8]
 165 0040 FB68     		ldr	r3, [r7, #12]
 166 0042 9B00     		lsls	r3, r3, #2
 167 0044 1946     		mov	r1, r3
 168 0046 1046     		mov	r0, r2
 169 0048 FFF7FEFF 		bl	realloc
 170 004c 0246     		mov	r2, r0
 171 004e 7B68     		ldr	r3, [r7, #4]
 172 0050 9A60     		str	r2, [r3, #8]
  67:arraylist.c   **** 		assert(l->body);
 173              		.loc 1 67 0
 174 0052 7B68     		ldr	r3, [r7, #4]
 175 0054 9B68     		ldr	r3, [r3, #8]
 176 0056 002B     		cmp	r3, #0
 177 0058 05D1     		bne	.L11
 178              		.loc 1 67 0 is_stmt 0 discriminator 1
 179 005a 094B     		ldr	r3, .L13+12
 180 005c 064A     		ldr	r2, .L13+4
 181 005e 4321     		movs	r1, #67
 182 0060 0648     		ldr	r0, .L13+8
 183 0062 FFF7FEFF 		bl	__assert_func
 184              	.L11:
  68:arraylist.c   **** 		l->capacity = new_capacity;
 185              		.loc 1 68 0 is_stmt 1
 186 0066 7B68     		ldr	r3, [r7, #4]
 187 0068 FA68     		ldr	r2, [r7, #12]
 188 006a 5A60     		str	r2, [r3, #4]
 189              	.L12:
 190              	.LBE2:
  69:arraylist.c   **** 	}
  70:arraylist.c   **** }
 191              		.loc 1 70 0
 192 006c 00BF     		nop
 193 006e 1037     		adds	r7, r7, #16
 194              		.cfi_def_cfa_offset 8
 195 0070 BD46     		mov	sp, r7
 196              		.cfi_def_cfa_register 13
 197              		@ sp needed
 198 0072 80BD     		pop	{r7, pc}
 199              	.L14:
 200              		.align	2
 201              	.L13:
 202 0074 1C000000 		.word	.LC2
 203 0078 7C000000 		.word	__func__.4657
 204 007c 10000000 		.word	.LC1
 205 0080 28000000 		.word	.LC3
 206              		.cfi_endproc
ARM GAS  C:\Users\ikui753\AppData\Local\Temp\ccVlsKNB.s 			page 6


 207              	.LFE1:
 208              		.size	arraylist_allocate, .-arraylist_allocate
 209              		.section	.text.arraylist_size,"ax",%progbits
 210              		.align	2
 211              		.global	arraylist_size
 212              		.thumb
 213              		.thumb_func
 214              		.type	arraylist_size, %function
 215              	arraylist_size:
 216              	.LFB2:
  71:arraylist.c   **** 
  72:arraylist.c   **** /** 
  73:arraylist.c   ****  * Return the number of items contained in the list.
  74:arraylist.c   ****  */
  75:arraylist.c   **** extern inline unsigned int arraylist_size(arraylist*l) {
 217              		.loc 1 75 0
 218              		.cfi_startproc
 219              		@ args = 0, pretend = 0, frame = 8
 220              		@ frame_needed = 1, uses_anonymous_args = 0
 221              		@ link register save eliminated.
 222 0000 80B4     		push	{r7}
 223              		.cfi_def_cfa_offset 4
 224              		.cfi_offset 7, -4
 225 0002 83B0     		sub	sp, sp, #12
 226              		.cfi_def_cfa_offset 16
 227 0004 00AF     		add	r7, sp, #0
 228              		.cfi_def_cfa_register 7
 229 0006 7860     		str	r0, [r7, #4]
  76:arraylist.c   **** 	return l->size;
 230              		.loc 1 76 0
 231 0008 7B68     		ldr	r3, [r7, #4]
 232 000a 1B68     		ldr	r3, [r3]
  77:arraylist.c   **** }
 233              		.loc 1 77 0
 234 000c 1846     		mov	r0, r3
 235 000e 0C37     		adds	r7, r7, #12
 236              		.cfi_def_cfa_offset 4
 237 0010 BD46     		mov	sp, r7
 238              		.cfi_def_cfa_register 13
 239              		@ sp needed
 240 0012 80BC     		pop	{r7}
 241              		.cfi_restore 7
 242              		.cfi_def_cfa_offset 0
 243 0014 7047     		bx	lr
 244              		.cfi_endproc
 245              	.LFE2:
 246              		.size	arraylist_size, .-arraylist_size
 247 0016 00BF     		.section	.text.arraylist_add,"ax",%progbits
 248              		.align	2
 249              		.global	arraylist_add
 250              		.thumb
 251              		.thumb_func
 252              		.type	arraylist_add, %function
 253              	arraylist_add:
 254              	.LFB3:
  78:arraylist.c   **** 
  79:arraylist.c   **** /**
ARM GAS  C:\Users\ikui753\AppData\Local\Temp\ccVlsKNB.s 			page 7


  80:arraylist.c   ****  * Add item at the end of the list.
  81:arraylist.c   ****  */
  82:arraylist.c   **** void arraylist_add(arraylist* l, void* item)
  83:arraylist.c   **** {
 255              		.loc 1 83 0
 256              		.cfi_startproc
 257              		@ args = 0, pretend = 0, frame = 8
 258              		@ frame_needed = 1, uses_anonymous_args = 0
 259 0000 80B5     		push	{r7, lr}
 260              		.cfi_def_cfa_offset 8
 261              		.cfi_offset 7, -8
 262              		.cfi_offset 14, -4
 263 0002 82B0     		sub	sp, sp, #8
 264              		.cfi_def_cfa_offset 16
 265 0004 00AF     		add	r7, sp, #0
 266              		.cfi_def_cfa_register 7
 267 0006 7860     		str	r0, [r7, #4]
 268 0008 3960     		str	r1, [r7]
  84:arraylist.c   **** 	arraylist_allocate(l, l->size + 1);
 269              		.loc 1 84 0
 270 000a 7B68     		ldr	r3, [r7, #4]
 271 000c 1B68     		ldr	r3, [r3]
 272 000e 0133     		adds	r3, r3, #1
 273 0010 1946     		mov	r1, r3
 274 0012 7868     		ldr	r0, [r7, #4]
 275 0014 FFF7FEFF 		bl	arraylist_allocate
  85:arraylist.c   **** 	l->body[l->size++] = item;
 276              		.loc 1 85 0
 277 0018 7B68     		ldr	r3, [r7, #4]
 278 001a 9A68     		ldr	r2, [r3, #8]
 279 001c 7B68     		ldr	r3, [r7, #4]
 280 001e 1B68     		ldr	r3, [r3]
 281 0020 581C     		adds	r0, r3, #1
 282 0022 7968     		ldr	r1, [r7, #4]
 283 0024 0860     		str	r0, [r1]
 284 0026 9B00     		lsls	r3, r3, #2
 285 0028 1344     		add	r3, r3, r2
 286 002a 3A68     		ldr	r2, [r7]
 287 002c 1A60     		str	r2, [r3]
  86:arraylist.c   **** }
 288              		.loc 1 86 0
 289 002e 00BF     		nop
 290 0030 0837     		adds	r7, r7, #8
 291              		.cfi_def_cfa_offset 8
 292 0032 BD46     		mov	sp, r7
 293              		.cfi_def_cfa_register 13
 294              		@ sp needed
 295 0034 80BD     		pop	{r7, pc}
 296              		.cfi_endproc
 297              	.LFE3:
 298              		.size	arraylist_add, .-arraylist_add
 299 0036 00BF     		.section	.rodata
 300              		.align	2
 301              	.LC4:
 302 0030 6C2D3E73 		.ascii	"l->size > 0\000"
 302      697A6520 
 302      3E203000 
ARM GAS  C:\Users\ikui753\AppData\Local\Temp\ccVlsKNB.s 			page 8


 303              		.section	.text.arraylist_pop,"ax",%progbits
 304              		.align	2
 305              		.global	arraylist_pop
 306              		.thumb
 307              		.thumb_func
 308              		.type	arraylist_pop, %function
 309              	arraylist_pop:
 310              	.LFB4:
  87:arraylist.c   **** 
  88:arraylist.c   **** /**
  89:arraylist.c   ****  * Pop (remove and return) an item off the end of the list.
  90:arraylist.c   ****  */
  91:arraylist.c   **** void* arraylist_pop(arraylist* l)
  92:arraylist.c   **** {
 311              		.loc 1 92 0
 312              		.cfi_startproc
 313              		@ args = 0, pretend = 0, frame = 8
 314              		@ frame_needed = 1, uses_anonymous_args = 0
 315 0000 80B5     		push	{r7, lr}
 316              		.cfi_def_cfa_offset 8
 317              		.cfi_offset 7, -8
 318              		.cfi_offset 14, -4
 319 0002 82B0     		sub	sp, sp, #8
 320              		.cfi_def_cfa_offset 16
 321 0004 00AF     		add	r7, sp, #0
 322              		.cfi_def_cfa_register 7
 323 0006 7860     		str	r0, [r7, #4]
  93:arraylist.c   **** 	assert(l->size > 0);
 324              		.loc 1 93 0
 325 0008 7B68     		ldr	r3, [r7, #4]
 326 000a 1B68     		ldr	r3, [r3]
 327 000c 002B     		cmp	r3, #0
 328 000e 05D1     		bne	.L19
 329              		.loc 1 93 0 is_stmt 0 discriminator 1
 330 0010 0A4B     		ldr	r3, .L21
 331 0012 0B4A     		ldr	r2, .L21+4
 332 0014 5D21     		movs	r1, #93
 333 0016 0B48     		ldr	r0, .L21+8
 334 0018 FFF7FEFF 		bl	__assert_func
 335              	.L19:
  94:arraylist.c   **** 	return l->body[--l->size];
 336              		.loc 1 94 0 is_stmt 1
 337 001c 7B68     		ldr	r3, [r7, #4]
 338 001e 9A68     		ldr	r2, [r3, #8]
 339 0020 7B68     		ldr	r3, [r7, #4]
 340 0022 1B68     		ldr	r3, [r3]
 341 0024 591E     		subs	r1, r3, #1
 342 0026 7B68     		ldr	r3, [r7, #4]
 343 0028 1960     		str	r1, [r3]
 344 002a 7B68     		ldr	r3, [r7, #4]
 345 002c 1B68     		ldr	r3, [r3]
 346 002e 9B00     		lsls	r3, r3, #2
 347 0030 1344     		add	r3, r3, r2
 348 0032 1B68     		ldr	r3, [r3]
  95:arraylist.c   **** }
 349              		.loc 1 95 0
 350 0034 1846     		mov	r0, r3
ARM GAS  C:\Users\ikui753\AppData\Local\Temp\ccVlsKNB.s 			page 9


 351 0036 0837     		adds	r7, r7, #8
 352              		.cfi_def_cfa_offset 8
 353 0038 BD46     		mov	sp, r7
 354              		.cfi_def_cfa_register 13
 355              		@ sp needed
 356 003a 80BD     		pop	{r7, pc}
 357              	.L22:
 358              		.align	2
 359              	.L21:
 360 003c 30000000 		.word	.LC4
 361 0040 90000000 		.word	__func__.4672
 362 0044 10000000 		.word	.LC1
 363              		.cfi_endproc
 364              	.LFE4:
 365              		.size	arraylist_pop, .-arraylist_pop
 366              		.section	.rodata
 367              		.align	2
 368              	.LC5:
 369 003c 696E6465 		.ascii	"index < l->size\000"
 369      78203C20 
 369      6C2D3E73 
 369      697A6500 
 370              		.section	.text.arraylist_get,"ax",%progbits
 371              		.align	2
 372              		.global	arraylist_get
 373              		.thumb
 374              		.thumb_func
 375              		.type	arraylist_get, %function
 376              	arraylist_get:
 377              	.LFB5:
  96:arraylist.c   **** 
  97:arraylist.c   **** /**
  98:arraylist.c   ****  * Return item located at index.
  99:arraylist.c   ****  */
 100:arraylist.c   **** void* arraylist_get(arraylist* l, unsigned int index)
 101:arraylist.c   **** {
 378              		.loc 1 101 0
 379              		.cfi_startproc
 380              		@ args = 0, pretend = 0, frame = 8
 381              		@ frame_needed = 1, uses_anonymous_args = 0
 382 0000 80B5     		push	{r7, lr}
 383              		.cfi_def_cfa_offset 8
 384              		.cfi_offset 7, -8
 385              		.cfi_offset 14, -4
 386 0002 82B0     		sub	sp, sp, #8
 387              		.cfi_def_cfa_offset 16
 388 0004 00AF     		add	r7, sp, #0
 389              		.cfi_def_cfa_register 7
 390 0006 7860     		str	r0, [r7, #4]
 391 0008 3960     		str	r1, [r7]
 102:arraylist.c   **** 	assert(index < l->size);
 392              		.loc 1 102 0
 393 000a 7B68     		ldr	r3, [r7, #4]
 394 000c 1A68     		ldr	r2, [r3]
 395 000e 3B68     		ldr	r3, [r7]
 396 0010 9A42     		cmp	r2, r3
 397 0012 05D8     		bhi	.L24
ARM GAS  C:\Users\ikui753\AppData\Local\Temp\ccVlsKNB.s 			page 10


 398              		.loc 1 102 0 is_stmt 0 discriminator 1
 399 0014 074B     		ldr	r3, .L26
 400 0016 084A     		ldr	r2, .L26+4
 401 0018 6621     		movs	r1, #102
 402 001a 0848     		ldr	r0, .L26+8
 403 001c FFF7FEFF 		bl	__assert_func
 404              	.L24:
 103:arraylist.c   **** 	return l->body[index];
 405              		.loc 1 103 0 is_stmt 1
 406 0020 7B68     		ldr	r3, [r7, #4]
 407 0022 9A68     		ldr	r2, [r3, #8]
 408 0024 3B68     		ldr	r3, [r7]
 409 0026 9B00     		lsls	r3, r3, #2
 410 0028 1344     		add	r3, r3, r2
 411 002a 1B68     		ldr	r3, [r3]
 104:arraylist.c   **** }
 412              		.loc 1 104 0
 413 002c 1846     		mov	r0, r3
 414 002e 0837     		adds	r7, r7, #8
 415              		.cfi_def_cfa_offset 8
 416 0030 BD46     		mov	sp, r7
 417              		.cfi_def_cfa_register 13
 418              		@ sp needed
 419 0032 80BD     		pop	{r7, pc}
 420              	.L27:
 421              		.align	2
 422              	.L26:
 423 0034 3C000000 		.word	.LC5
 424 0038 A0000000 		.word	__func__.4677
 425 003c 10000000 		.word	.LC1
 426              		.cfi_endproc
 427              	.LFE5:
 428              		.size	arraylist_get, .-arraylist_get
 429              		.section	.text.arraylist_set,"ax",%progbits
 430              		.align	2
 431              		.global	arraylist_set
 432              		.thumb
 433              		.thumb_func
 434              		.type	arraylist_set, %function
 435              	arraylist_set:
 436              	.LFB6:
 105:arraylist.c   **** 
 106:arraylist.c   **** /**
 107:arraylist.c   ****  * Replace item at index with given value.
 108:arraylist.c   ****  */
 109:arraylist.c   **** void arraylist_set(arraylist* l, unsigned int index, void* value)
 110:arraylist.c   **** {
 437              		.loc 1 110 0
 438              		.cfi_startproc
 439              		@ args = 0, pretend = 0, frame = 16
 440              		@ frame_needed = 1, uses_anonymous_args = 0
 441 0000 80B5     		push	{r7, lr}
 442              		.cfi_def_cfa_offset 8
 443              		.cfi_offset 7, -8
 444              		.cfi_offset 14, -4
 445 0002 84B0     		sub	sp, sp, #16
 446              		.cfi_def_cfa_offset 24
ARM GAS  C:\Users\ikui753\AppData\Local\Temp\ccVlsKNB.s 			page 11


 447 0004 00AF     		add	r7, sp, #0
 448              		.cfi_def_cfa_register 7
 449 0006 F860     		str	r0, [r7, #12]
 450 0008 B960     		str	r1, [r7, #8]
 451 000a 7A60     		str	r2, [r7, #4]
 111:arraylist.c   **** 	assert(index < l->size);
 452              		.loc 1 111 0
 453 000c FB68     		ldr	r3, [r7, #12]
 454 000e 1A68     		ldr	r2, [r3]
 455 0010 BB68     		ldr	r3, [r7, #8]
 456 0012 9A42     		cmp	r2, r3
 457 0014 05D8     		bhi	.L29
 458              		.loc 1 111 0 is_stmt 0 discriminator 1
 459 0016 084B     		ldr	r3, .L30
 460 0018 084A     		ldr	r2, .L30+4
 461 001a 6F21     		movs	r1, #111
 462 001c 0848     		ldr	r0, .L30+8
 463 001e FFF7FEFF 		bl	__assert_func
 464              	.L29:
 112:arraylist.c   **** 	l->body[index] = value;
 465              		.loc 1 112 0 is_stmt 1
 466 0022 FB68     		ldr	r3, [r7, #12]
 467 0024 9A68     		ldr	r2, [r3, #8]
 468 0026 BB68     		ldr	r3, [r7, #8]
 469 0028 9B00     		lsls	r3, r3, #2
 470 002a 1344     		add	r3, r3, r2
 471 002c 7A68     		ldr	r2, [r7, #4]
 472 002e 1A60     		str	r2, [r3]
 113:arraylist.c   **** }
 473              		.loc 1 113 0
 474 0030 00BF     		nop
 475 0032 1037     		adds	r7, r7, #16
 476              		.cfi_def_cfa_offset 8
 477 0034 BD46     		mov	sp, r7
 478              		.cfi_def_cfa_register 13
 479              		@ sp needed
 480 0036 80BD     		pop	{r7, pc}
 481              	.L31:
 482              		.align	2
 483              	.L30:
 484 0038 3C000000 		.word	.LC5
 485 003c B0000000 		.word	__func__.4683
 486 0040 10000000 		.word	.LC1
 487              		.cfi_endproc
 488              	.LFE6:
 489              		.size	arraylist_set, .-arraylist_set
 490              		.section	.text.arraylist_insert,"ax",%progbits
 491              		.align	2
 492              		.global	arraylist_insert
 493              		.thumb
 494              		.thumb_func
 495              		.type	arraylist_insert, %function
 496              	arraylist_insert:
 497              	.LFB7:
 114:arraylist.c   **** 
 115:arraylist.c   **** /**
 116:arraylist.c   ****  * Insert item at index, shifting the following items by one spot.
ARM GAS  C:\Users\ikui753\AppData\Local\Temp\ccVlsKNB.s 			page 12


 117:arraylist.c   ****  */
 118:arraylist.c   **** void arraylist_insert(arraylist* l, unsigned int index, void* value)
 119:arraylist.c   **** {
 498              		.loc 1 119 0
 499              		.cfi_startproc
 500              		@ args = 0, pretend = 0, frame = 16
 501              		@ frame_needed = 1, uses_anonymous_args = 0
 502 0000 80B5     		push	{r7, lr}
 503              		.cfi_def_cfa_offset 8
 504              		.cfi_offset 7, -8
 505              		.cfi_offset 14, -4
 506 0002 84B0     		sub	sp, sp, #16
 507              		.cfi_def_cfa_offset 24
 508 0004 00AF     		add	r7, sp, #0
 509              		.cfi_def_cfa_register 7
 510 0006 F860     		str	r0, [r7, #12]
 511 0008 B960     		str	r1, [r7, #8]
 512 000a 7A60     		str	r2, [r7, #4]
 120:arraylist.c   **** 	// Reallocate, if needed
 121:arraylist.c   **** 	arraylist_allocate(l, l->size + 1);
 513              		.loc 1 121 0
 514 000c FB68     		ldr	r3, [r7, #12]
 515 000e 1B68     		ldr	r3, [r3]
 516 0010 0133     		adds	r3, r3, #1
 517 0012 1946     		mov	r1, r3
 518 0014 F868     		ldr	r0, [r7, #12]
 519 0016 FFF7FEFF 		bl	arraylist_allocate
 122:arraylist.c   **** 
 123:arraylist.c   **** 	// Move data to create a spot for the new value
 124:arraylist.c   **** 	arraylist_memshift(l->body + index, 1, l->size - index);
 520              		.loc 1 124 0
 521 001a FB68     		ldr	r3, [r7, #12]
 522 001c 9A68     		ldr	r2, [r3, #8]
 523 001e BB68     		ldr	r3, [r7, #8]
 524 0020 0133     		adds	r3, r3, #1
 525 0022 9B00     		lsls	r3, r3, #2
 526 0024 D018     		adds	r0, r2, r3
 527 0026 FB68     		ldr	r3, [r7, #12]
 528 0028 9A68     		ldr	r2, [r3, #8]
 529 002a BB68     		ldr	r3, [r7, #8]
 530 002c 9B00     		lsls	r3, r3, #2
 531 002e D118     		adds	r1, r2, r3
 532 0030 FB68     		ldr	r3, [r7, #12]
 533 0032 1A68     		ldr	r2, [r3]
 534 0034 BB68     		ldr	r3, [r7, #8]
 535 0036 D31A     		subs	r3, r2, r3
 536 0038 9B00     		lsls	r3, r3, #2
 537 003a 1A46     		mov	r2, r3
 538 003c FFF7FEFF 		bl	memmove
 125:arraylist.c   **** 	l->body[index] = value;
 539              		.loc 1 125 0
 540 0040 FB68     		ldr	r3, [r7, #12]
 541 0042 9A68     		ldr	r2, [r3, #8]
 542 0044 BB68     		ldr	r3, [r7, #8]
 543 0046 9B00     		lsls	r3, r3, #2
 544 0048 1344     		add	r3, r3, r2
 545 004a 7A68     		ldr	r2, [r7, #4]
ARM GAS  C:\Users\ikui753\AppData\Local\Temp\ccVlsKNB.s 			page 13


 546 004c 1A60     		str	r2, [r3]
 126:arraylist.c   **** 	l->size++;
 547              		.loc 1 126 0
 548 004e FB68     		ldr	r3, [r7, #12]
 549 0050 1B68     		ldr	r3, [r3]
 550 0052 5A1C     		adds	r2, r3, #1
 551 0054 FB68     		ldr	r3, [r7, #12]
 552 0056 1A60     		str	r2, [r3]
 127:arraylist.c   **** }
 553              		.loc 1 127 0
 554 0058 00BF     		nop
 555 005a 1037     		adds	r7, r7, #16
 556              		.cfi_def_cfa_offset 8
 557 005c BD46     		mov	sp, r7
 558              		.cfi_def_cfa_register 13
 559              		@ sp needed
 560 005e 80BD     		pop	{r7, pc}
 561              		.cfi_endproc
 562              	.LFE7:
 563              		.size	arraylist_insert, .-arraylist_insert
 564              		.section	.text.arraylist_remove,"ax",%progbits
 565              		.align	2
 566              		.global	arraylist_remove
 567              		.thumb
 568              		.thumb_func
 569              		.type	arraylist_remove, %function
 570              	arraylist_remove:
 571              	.LFB8:
 128:arraylist.c   **** 
 129:arraylist.c   **** /**
 130:arraylist.c   ****  * Remove the item at index, shifting the following items back by one spot.
 131:arraylist.c   ****  */
 132:arraylist.c   **** void* arraylist_remove(arraylist* l, unsigned int index)
 133:arraylist.c   **** {
 572              		.loc 1 133 0
 573              		.cfi_startproc
 574              		@ args = 0, pretend = 0, frame = 16
 575              		@ frame_needed = 1, uses_anonymous_args = 0
 576 0000 80B5     		push	{r7, lr}
 577              		.cfi_def_cfa_offset 8
 578              		.cfi_offset 7, -8
 579              		.cfi_offset 14, -4
 580 0002 84B0     		sub	sp, sp, #16
 581              		.cfi_def_cfa_offset 24
 582 0004 00AF     		add	r7, sp, #0
 583              		.cfi_def_cfa_register 7
 584 0006 7860     		str	r0, [r7, #4]
 585 0008 3960     		str	r1, [r7]
 134:arraylist.c   **** 	void* value = l->body[index];
 586              		.loc 1 134 0
 587 000a 7B68     		ldr	r3, [r7, #4]
 588 000c 9A68     		ldr	r2, [r3, #8]
 589 000e 3B68     		ldr	r3, [r7]
 590 0010 9B00     		lsls	r3, r3, #2
 591 0012 1344     		add	r3, r3, r2
 592 0014 1B68     		ldr	r3, [r3]
 593 0016 FB60     		str	r3, [r7, #12]
ARM GAS  C:\Users\ikui753\AppData\Local\Temp\ccVlsKNB.s 			page 14


 135:arraylist.c   **** 	arraylist_memshift(l->body + index + 1, -1, l->size - index);
 594              		.loc 1 135 0
 595 0018 7B68     		ldr	r3, [r7, #4]
 596 001a 9A68     		ldr	r2, [r3, #8]
 597 001c 3B68     		ldr	r3, [r7]
 598 001e 9B00     		lsls	r3, r3, #2
 599 0020 D018     		adds	r0, r2, r3
 600 0022 7B68     		ldr	r3, [r7, #4]
 601 0024 9A68     		ldr	r2, [r3, #8]
 602 0026 3B68     		ldr	r3, [r7]
 603 0028 0133     		adds	r3, r3, #1
 604 002a 9B00     		lsls	r3, r3, #2
 605 002c D118     		adds	r1, r2, r3
 606 002e 7B68     		ldr	r3, [r7, #4]
 607 0030 1A68     		ldr	r2, [r3]
 608 0032 3B68     		ldr	r3, [r7]
 609 0034 D31A     		subs	r3, r2, r3
 610 0036 9B00     		lsls	r3, r3, #2
 611 0038 1A46     		mov	r2, r3
 612 003a FFF7FEFF 		bl	memmove
 136:arraylist.c   **** 	l->size--;
 613              		.loc 1 136 0
 614 003e 7B68     		ldr	r3, [r7, #4]
 615 0040 1B68     		ldr	r3, [r3]
 616 0042 5A1E     		subs	r2, r3, #1
 617 0044 7B68     		ldr	r3, [r7, #4]
 618 0046 1A60     		str	r2, [r3]
 137:arraylist.c   **** 	return value;
 619              		.loc 1 137 0
 620 0048 FB68     		ldr	r3, [r7, #12]
 138:arraylist.c   **** }
 621              		.loc 1 138 0
 622 004a 1846     		mov	r0, r3
 623 004c 1037     		adds	r7, r7, #16
 624              		.cfi_def_cfa_offset 8
 625 004e BD46     		mov	sp, r7
 626              		.cfi_def_cfa_register 13
 627              		@ sp needed
 628 0050 80BD     		pop	{r7, pc}
 629              		.cfi_endproc
 630              	.LFE8:
 631              		.size	arraylist_remove, .-arraylist_remove
 632 0052 00BF     		.section	.text.arraylist_clear,"ax",%progbits
 633              		.align	2
 634              		.global	arraylist_clear
 635              		.thumb
 636              		.thumb_func
 637              		.type	arraylist_clear, %function
 638              	arraylist_clear:
 639              	.LFB9:
 139:arraylist.c   **** 
 140:arraylist.c   **** /**
 141:arraylist.c   ****  * Clear list of all items.
 142:arraylist.c   ****  */
 143:arraylist.c   **** void arraylist_clear(arraylist* l)
 144:arraylist.c   **** {
 640              		.loc 1 144 0
ARM GAS  C:\Users\ikui753\AppData\Local\Temp\ccVlsKNB.s 			page 15


 641              		.cfi_startproc
 642              		@ args = 0, pretend = 0, frame = 8
 643              		@ frame_needed = 1, uses_anonymous_args = 0
 644              		@ link register save eliminated.
 645 0000 80B4     		push	{r7}
 646              		.cfi_def_cfa_offset 4
 647              		.cfi_offset 7, -4
 648 0002 83B0     		sub	sp, sp, #12
 649              		.cfi_def_cfa_offset 16
 650 0004 00AF     		add	r7, sp, #0
 651              		.cfi_def_cfa_register 7
 652 0006 7860     		str	r0, [r7, #4]
 145:arraylist.c   **** 	l->size = 0;
 653              		.loc 1 145 0
 654 0008 7B68     		ldr	r3, [r7, #4]
 655 000a 0022     		movs	r2, #0
 656 000c 1A60     		str	r2, [r3]
 146:arraylist.c   **** }
 657              		.loc 1 146 0
 658 000e 00BF     		nop
 659 0010 0C37     		adds	r7, r7, #12
 660              		.cfi_def_cfa_offset 4
 661 0012 BD46     		mov	sp, r7
 662              		.cfi_def_cfa_register 13
 663              		@ sp needed
 664 0014 80BC     		pop	{r7}
 665              		.cfi_restore 7
 666              		.cfi_def_cfa_offset 0
 667 0016 7047     		bx	lr
 668              		.cfi_endproc
 669              	.LFE9:
 670              		.size	arraylist_clear, .-arraylist_clear
 671              		.section	.rodata
 672              		.align	2
 673              	.LC6:
 674 004c 696E6465 		.ascii	"index + length <= l->size\000"
 674      78202B20 
 674      6C656E67 
 674      7468203C 
 674      3D206C2D 
 675              		.section	.text.arraylist_slice,"ax",%progbits
 676              		.align	2
 677              		.global	arraylist_slice
 678              		.thumb
 679              		.thumb_func
 680              		.type	arraylist_slice, %function
 681              	arraylist_slice:
 682              	.LFB10:
 147:arraylist.c   **** 
 148:arraylist.c   **** /**
 149:arraylist.c   ****  * Return a slice of the list (of given length starting at index) as a new arraylist.
 150:arraylist.c   ****  */
 151:arraylist.c   **** arraylist* arraylist_slice(arraylist* l, unsigned int index, unsigned int length)
 152:arraylist.c   **** {
 683              		.loc 1 152 0
 684              		.cfi_startproc
 685              		@ args = 0, pretend = 0, frame = 24
ARM GAS  C:\Users\ikui753\AppData\Local\Temp\ccVlsKNB.s 			page 16


 686              		@ frame_needed = 1, uses_anonymous_args = 0
 687 0000 80B5     		push	{r7, lr}
 688              		.cfi_def_cfa_offset 8
 689              		.cfi_offset 7, -8
 690              		.cfi_offset 14, -4
 691 0002 86B0     		sub	sp, sp, #24
 692              		.cfi_def_cfa_offset 32
 693 0004 00AF     		add	r7, sp, #0
 694              		.cfi_def_cfa_register 7
 695 0006 F860     		str	r0, [r7, #12]
 696 0008 B960     		str	r1, [r7, #8]
 697 000a 7A60     		str	r2, [r7, #4]
 153:arraylist.c   **** 	assert(index + length <= l->size);
 698              		.loc 1 153 0
 699 000c BA68     		ldr	r2, [r7, #8]
 700 000e 7B68     		ldr	r3, [r7, #4]
 701 0010 1A44     		add	r2, r2, r3
 702 0012 FB68     		ldr	r3, [r7, #12]
 703 0014 1B68     		ldr	r3, [r3]
 704 0016 9A42     		cmp	r2, r3
 705 0018 05D9     		bls	.L37
 706              		.loc 1 153 0 is_stmt 0 discriminator 1
 707 001a 104B     		ldr	r3, .L39
 708 001c 104A     		ldr	r2, .L39+4
 709 001e 9921     		movs	r1, #153
 710 0020 1048     		ldr	r0, .L39+8
 711 0022 FFF7FEFF 		bl	__assert_func
 712              	.L37:
 154:arraylist.c   **** 	arraylist* new_list = arraylist_create();
 713              		.loc 1 154 0 is_stmt 1
 714 0026 FFF7FEFF 		bl	arraylist_create
 715 002a 7861     		str	r0, [r7, #20]
 155:arraylist.c   **** 	arraylist_allocate(new_list, length);
 716              		.loc 1 155 0
 717 002c 7968     		ldr	r1, [r7, #4]
 718 002e 7869     		ldr	r0, [r7, #20]
 719 0030 FFF7FEFF 		bl	arraylist_allocate
 156:arraylist.c   **** 	memmove(new_list->body, l->body + index, length * sizeof(void*));
 720              		.loc 1 156 0
 721 0034 7B69     		ldr	r3, [r7, #20]
 722 0036 9868     		ldr	r0, [r3, #8]
 723 0038 FB68     		ldr	r3, [r7, #12]
 724 003a 9A68     		ldr	r2, [r3, #8]
 725 003c BB68     		ldr	r3, [r7, #8]
 726 003e 9B00     		lsls	r3, r3, #2
 727 0040 D118     		adds	r1, r2, r3
 728 0042 7B68     		ldr	r3, [r7, #4]
 729 0044 9B00     		lsls	r3, r3, #2
 730 0046 1A46     		mov	r2, r3
 731 0048 FFF7FEFF 		bl	memmove
 157:arraylist.c   **** 	new_list->size = length;
 732              		.loc 1 157 0
 733 004c 7B69     		ldr	r3, [r7, #20]
 734 004e 7A68     		ldr	r2, [r7, #4]
 735 0050 1A60     		str	r2, [r3]
 158:arraylist.c   **** 	return new_list;
 736              		.loc 1 158 0
ARM GAS  C:\Users\ikui753\AppData\Local\Temp\ccVlsKNB.s 			page 17


 737 0052 7B69     		ldr	r3, [r7, #20]
 159:arraylist.c   **** }
 738              		.loc 1 159 0
 739 0054 1846     		mov	r0, r3
 740 0056 1837     		adds	r7, r7, #24
 741              		.cfi_def_cfa_offset 8
 742 0058 BD46     		mov	sp, r7
 743              		.cfi_def_cfa_register 13
 744              		@ sp needed
 745 005a 80BD     		pop	{r7, pc}
 746              	.L40:
 747              		.align	2
 748              	.L39:
 749 005c 4C000000 		.word	.LC6
 750 0060 C0000000 		.word	__func__.4702
 751 0064 10000000 		.word	.LC1
 752              		.cfi_endproc
 753              	.LFE10:
 754              		.size	arraylist_slice, .-arraylist_slice
 755              		.section	.text.arraylist_slice_end,"ax",%progbits
 756              		.align	2
 757              		.global	arraylist_slice_end
 758              		.thumb
 759              		.thumb_func
 760              		.type	arraylist_slice_end, %function
 761              	arraylist_slice_end:
 762              	.LFB11:
 160:arraylist.c   **** 
 161:arraylist.c   **** /**
 162:arraylist.c   ****  * Return a slice of the list (from index to the end) as a new arraylist.
 163:arraylist.c   ****  */
 164:arraylist.c   **** arraylist* arraylist_slice_end(arraylist* l, unsigned int index)
 165:arraylist.c   **** {
 763              		.loc 1 165 0
 764              		.cfi_startproc
 765              		@ args = 0, pretend = 0, frame = 8
 766              		@ frame_needed = 1, uses_anonymous_args = 0
 767 0000 80B5     		push	{r7, lr}
 768              		.cfi_def_cfa_offset 8
 769              		.cfi_offset 7, -8
 770              		.cfi_offset 14, -4
 771 0002 82B0     		sub	sp, sp, #8
 772              		.cfi_def_cfa_offset 16
 773 0004 00AF     		add	r7, sp, #0
 774              		.cfi_def_cfa_register 7
 775 0006 7860     		str	r0, [r7, #4]
 776 0008 3960     		str	r1, [r7]
 166:arraylist.c   **** 	return arraylist_slice(l, index, l->size - index);
 777              		.loc 1 166 0
 778 000a 7B68     		ldr	r3, [r7, #4]
 779 000c 1A68     		ldr	r2, [r3]
 780 000e 3B68     		ldr	r3, [r7]
 781 0010 D31A     		subs	r3, r2, r3
 782 0012 1A46     		mov	r2, r3
 783 0014 3968     		ldr	r1, [r7]
 784 0016 7868     		ldr	r0, [r7, #4]
 785 0018 FFF7FEFF 		bl	arraylist_slice
ARM GAS  C:\Users\ikui753\AppData\Local\Temp\ccVlsKNB.s 			page 18


 786 001c 0346     		mov	r3, r0
 167:arraylist.c   **** }
 787              		.loc 1 167 0
 788 001e 1846     		mov	r0, r3
 789 0020 0837     		adds	r7, r7, #8
 790              		.cfi_def_cfa_offset 8
 791 0022 BD46     		mov	sp, r7
 792              		.cfi_def_cfa_register 13
 793              		@ sp needed
 794 0024 80BD     		pop	{r7, pc}
 795              		.cfi_endproc
 796              	.LFE11:
 797              		.size	arraylist_slice_end, .-arraylist_slice_end
 798 0026 00BF     		.section	.text.arraylist_copy,"ax",%progbits
 799              		.align	2
 800              		.global	arraylist_copy
 801              		.thumb
 802              		.thumb_func
 803              		.type	arraylist_copy, %function
 804              	arraylist_copy:
 805              	.LFB12:
 168:arraylist.c   **** 
 169:arraylist.c   **** /**
 170:arraylist.c   ****  * Return a copy of the arraylist.
 171:arraylist.c   ****  */
 172:arraylist.c   **** arraylist* arraylist_copy(arraylist* l)
 173:arraylist.c   **** {
 806              		.loc 1 173 0
 807              		.cfi_startproc
 808              		@ args = 0, pretend = 0, frame = 8
 809              		@ frame_needed = 1, uses_anonymous_args = 0
 810 0000 80B5     		push	{r7, lr}
 811              		.cfi_def_cfa_offset 8
 812              		.cfi_offset 7, -8
 813              		.cfi_offset 14, -4
 814 0002 82B0     		sub	sp, sp, #8
 815              		.cfi_def_cfa_offset 16
 816 0004 00AF     		add	r7, sp, #0
 817              		.cfi_def_cfa_register 7
 818 0006 7860     		str	r0, [r7, #4]
 174:arraylist.c   **** 	return arraylist_slice_end(l, 0);
 819              		.loc 1 174 0
 820 0008 0021     		movs	r1, #0
 821 000a 7868     		ldr	r0, [r7, #4]
 822 000c FFF7FEFF 		bl	arraylist_slice_end
 823 0010 0346     		mov	r3, r0
 175:arraylist.c   **** }
 824              		.loc 1 175 0
 825 0012 1846     		mov	r0, r3
 826 0014 0837     		adds	r7, r7, #8
 827              		.cfi_def_cfa_offset 8
 828 0016 BD46     		mov	sp, r7
 829              		.cfi_def_cfa_register 13
 830              		@ sp needed
 831 0018 80BD     		pop	{r7, pc}
 832              		.cfi_endproc
 833              	.LFE12:
ARM GAS  C:\Users\ikui753\AppData\Local\Temp\ccVlsKNB.s 			page 19


 834              		.size	arraylist_copy, .-arraylist_copy
 835 001a 00BF     		.section	.text.arraylist_join,"ax",%progbits
 836              		.align	2
 837              		.global	arraylist_join
 838              		.thumb
 839              		.thumb_func
 840              		.type	arraylist_join, %function
 841              	arraylist_join:
 842              	.LFB13:
 176:arraylist.c   **** 
 177:arraylist.c   **** /**
 178:arraylist.c   ****  * Append a list onto another, in-place.
 179:arraylist.c   ****  */
 180:arraylist.c   **** void arraylist_join(arraylist* l, arraylist* source)
 181:arraylist.c   **** {
 843              		.loc 1 181 0
 844              		.cfi_startproc
 845              		@ args = 0, pretend = 0, frame = 8
 846              		@ frame_needed = 1, uses_anonymous_args = 0
 847 0000 80B5     		push	{r7, lr}
 848              		.cfi_def_cfa_offset 8
 849              		.cfi_offset 7, -8
 850              		.cfi_offset 14, -4
 851 0002 82B0     		sub	sp, sp, #8
 852              		.cfi_def_cfa_offset 16
 853 0004 00AF     		add	r7, sp, #0
 854              		.cfi_def_cfa_register 7
 855 0006 7860     		str	r0, [r7, #4]
 856 0008 3960     		str	r1, [r7]
 182:arraylist.c   **** 	arraylist_splice(l, source, l->size);
 857              		.loc 1 182 0
 858 000a 7B68     		ldr	r3, [r7, #4]
 859 000c 1B68     		ldr	r3, [r3]
 860 000e 1A46     		mov	r2, r3
 861 0010 3968     		ldr	r1, [r7]
 862 0012 7868     		ldr	r0, [r7, #4]
 863 0014 FFF7FEFF 		bl	arraylist_splice
 183:arraylist.c   **** }
 864              		.loc 1 183 0
 865 0018 00BF     		nop
 866 001a 0837     		adds	r7, r7, #8
 867              		.cfi_def_cfa_offset 8
 868 001c BD46     		mov	sp, r7
 869              		.cfi_def_cfa_register 13
 870              		@ sp needed
 871 001e 80BD     		pop	{r7, pc}
 872              		.cfi_endproc
 873              	.LFE13:
 874              		.size	arraylist_join, .-arraylist_join
 875              		.section	.text.arraylist_splice,"ax",%progbits
 876              		.align	2
 877              		.global	arraylist_splice
 878              		.thumb
 879              		.thumb_func
 880              		.type	arraylist_splice, %function
 881              	arraylist_splice:
 882              	.LFB14:
ARM GAS  C:\Users\ikui753\AppData\Local\Temp\ccVlsKNB.s 			page 20


 184:arraylist.c   **** 
 185:arraylist.c   **** /**
 186:arraylist.c   ****  * Insert a list into another at the given index, in-place.
 187:arraylist.c   ****  */
 188:arraylist.c   **** void arraylist_splice(arraylist* l, arraylist* source, unsigned int index)
 189:arraylist.c   **** {
 883              		.loc 1 189 0
 884              		.cfi_startproc
 885              		@ args = 0, pretend = 0, frame = 16
 886              		@ frame_needed = 1, uses_anonymous_args = 0
 887 0000 80B5     		push	{r7, lr}
 888              		.cfi_def_cfa_offset 8
 889              		.cfi_offset 7, -8
 890              		.cfi_offset 14, -4
 891 0002 84B0     		sub	sp, sp, #16
 892              		.cfi_def_cfa_offset 24
 893 0004 00AF     		add	r7, sp, #0
 894              		.cfi_def_cfa_register 7
 895 0006 F860     		str	r0, [r7, #12]
 896 0008 B960     		str	r1, [r7, #8]
 897 000a 7A60     		str	r2, [r7, #4]
 190:arraylist.c   **** 	// Reallocate, if needed
 191:arraylist.c   **** 	arraylist_allocate(l, l->size + source->size);
 898              		.loc 1 191 0
 899 000c FB68     		ldr	r3, [r7, #12]
 900 000e 1A68     		ldr	r2, [r3]
 901 0010 BB68     		ldr	r3, [r7, #8]
 902 0012 1B68     		ldr	r3, [r3]
 903 0014 1344     		add	r3, r3, r2
 904 0016 1946     		mov	r1, r3
 905 0018 F868     		ldr	r0, [r7, #12]
 906 001a FFF7FEFF 		bl	arraylist_allocate
 192:arraylist.c   **** 
 193:arraylist.c   **** 	// Move data to the right
 194:arraylist.c   **** 	arraylist_memshift(l->body + index, source->size, l->size - index);
 907              		.loc 1 194 0
 908 001e FB68     		ldr	r3, [r7, #12]
 909 0020 9A68     		ldr	r2, [r3, #8]
 910 0022 BB68     		ldr	r3, [r7, #8]
 911 0024 1968     		ldr	r1, [r3]
 912 0026 7B68     		ldr	r3, [r7, #4]
 913 0028 0B44     		add	r3, r3, r1
 914 002a 9B00     		lsls	r3, r3, #2
 915 002c D018     		adds	r0, r2, r3
 916 002e FB68     		ldr	r3, [r7, #12]
 917 0030 9A68     		ldr	r2, [r3, #8]
 918 0032 7B68     		ldr	r3, [r7, #4]
 919 0034 9B00     		lsls	r3, r3, #2
 920 0036 D118     		adds	r1, r2, r3
 921 0038 FB68     		ldr	r3, [r7, #12]
 922 003a 1A68     		ldr	r2, [r3]
 923 003c 7B68     		ldr	r3, [r7, #4]
 924 003e D31A     		subs	r3, r2, r3
 925 0040 9B00     		lsls	r3, r3, #2
 926 0042 1A46     		mov	r2, r3
 927 0044 FFF7FEFF 		bl	memmove
 195:arraylist.c   **** 
ARM GAS  C:\Users\ikui753\AppData\Local\Temp\ccVlsKNB.s 			page 21


 196:arraylist.c   **** 	// Copy the data over
 197:arraylist.c   **** 	memmove(l->body + index, source->body, source->size * sizeof(void*));
 928              		.loc 1 197 0
 929 0048 FB68     		ldr	r3, [r7, #12]
 930 004a 9A68     		ldr	r2, [r3, #8]
 931 004c 7B68     		ldr	r3, [r7, #4]
 932 004e 9B00     		lsls	r3, r3, #2
 933 0050 D018     		adds	r0, r2, r3
 934 0052 BB68     		ldr	r3, [r7, #8]
 935 0054 9968     		ldr	r1, [r3, #8]
 936 0056 BB68     		ldr	r3, [r7, #8]
 937 0058 1B68     		ldr	r3, [r3]
 938 005a 9B00     		lsls	r3, r3, #2
 939 005c 1A46     		mov	r2, r3
 940 005e FFF7FEFF 		bl	memmove
 198:arraylist.c   **** 	l->size += source->size;
 941              		.loc 1 198 0
 942 0062 FB68     		ldr	r3, [r7, #12]
 943 0064 1A68     		ldr	r2, [r3]
 944 0066 BB68     		ldr	r3, [r7, #8]
 945 0068 1B68     		ldr	r3, [r3]
 946 006a 1A44     		add	r2, r2, r3
 947 006c FB68     		ldr	r3, [r7, #12]
 948 006e 1A60     		str	r2, [r3]
 199:arraylist.c   **** }
 949              		.loc 1 199 0
 950 0070 00BF     		nop
 951 0072 1037     		adds	r7, r7, #16
 952              		.cfi_def_cfa_offset 8
 953 0074 BD46     		mov	sp, r7
 954              		.cfi_def_cfa_register 13
 955              		@ sp needed
 956 0076 80BD     		pop	{r7, pc}
 957              		.cfi_endproc
 958              	.LFE14:
 959              		.size	arraylist_splice, .-arraylist_splice
 960              		.section	.text.arraylist_destroy,"ax",%progbits
 961              		.align	2
 962              		.global	arraylist_destroy
 963              		.thumb
 964              		.thumb_func
 965              		.type	arraylist_destroy, %function
 966              	arraylist_destroy:
 967              	.LFB15:
 200:arraylist.c   **** 
 201:arraylist.c   **** void arraylist_destroy(arraylist* l)
 202:arraylist.c   **** {
 968              		.loc 1 202 0
 969              		.cfi_startproc
 970              		@ args = 0, pretend = 0, frame = 8
 971              		@ frame_needed = 1, uses_anonymous_args = 0
 972 0000 80B5     		push	{r7, lr}
 973              		.cfi_def_cfa_offset 8
 974              		.cfi_offset 7, -8
 975              		.cfi_offset 14, -4
 976 0002 82B0     		sub	sp, sp, #8
 977              		.cfi_def_cfa_offset 16
ARM GAS  C:\Users\ikui753\AppData\Local\Temp\ccVlsKNB.s 			page 22


 978 0004 00AF     		add	r7, sp, #0
 979              		.cfi_def_cfa_register 7
 980 0006 7860     		str	r0, [r7, #4]
 203:arraylist.c   **** 	free(l->body);
 981              		.loc 1 203 0
 982 0008 7B68     		ldr	r3, [r7, #4]
 983 000a 9B68     		ldr	r3, [r3, #8]
 984 000c 1846     		mov	r0, r3
 985 000e FFF7FEFF 		bl	free
 204:arraylist.c   **** 	free(l);
 986              		.loc 1 204 0
 987 0012 7868     		ldr	r0, [r7, #4]
 988 0014 FFF7FEFF 		bl	free
 205:arraylist.c   **** }
 989              		.loc 1 205 0
 990 0018 00BF     		nop
 991 001a 0837     		adds	r7, r7, #8
 992              		.cfi_def_cfa_offset 8
 993 001c BD46     		mov	sp, r7
 994              		.cfi_def_cfa_register 13
 995              		@ sp needed
 996 001e 80BD     		pop	{r7, pc}
 997              		.cfi_endproc
 998              	.LFE15:
 999              		.size	arraylist_destroy, .-arraylist_destroy
 1000              		.section	.rodata
 1001 0066 0000     		.align	2
 1002              		.type	__func__.4652, %object
 1003              		.size	__func__.4652, 17
 1004              	__func__.4652:
 1005 0068 61727261 		.ascii	"arraylist_create\000"
 1005      796C6973 
 1005      745F6372 
 1005      65617465 
 1005      00
 1006 0079 000000   		.align	2
 1007              		.type	__func__.4657, %object
 1008              		.size	__func__.4657, 19
 1009              	__func__.4657:
 1010 007c 61727261 		.ascii	"arraylist_allocate\000"
 1010      796C6973 
 1010      745F616C 
 1010      6C6F6361 
 1010      746500
 1011 008f 00       		.align	2
 1012              		.type	__func__.4672, %object
 1013              		.size	__func__.4672, 14
 1014              	__func__.4672:
 1015 0090 61727261 		.ascii	"arraylist_pop\000"
 1015      796C6973 
 1015      745F706F 
 1015      7000
 1016 009e 0000     		.align	2
 1017              		.type	__func__.4677, %object
 1018              		.size	__func__.4677, 14
 1019              	__func__.4677:
 1020 00a0 61727261 		.ascii	"arraylist_get\000"
ARM GAS  C:\Users\ikui753\AppData\Local\Temp\ccVlsKNB.s 			page 23


 1020      796C6973 
 1020      745F6765 
 1020      7400
 1021 00ae 0000     		.align	2
 1022              		.type	__func__.4683, %object
 1023              		.size	__func__.4683, 14
 1024              	__func__.4683:
 1025 00b0 61727261 		.ascii	"arraylist_set\000"
 1025      796C6973 
 1025      745F7365 
 1025      7400
 1026 00be 0000     		.align	2
 1027              		.type	__func__.4702, %object
 1028              		.size	__func__.4702, 16
 1029              	__func__.4702:
 1030 00c0 61727261 		.ascii	"arraylist_slice\000"
 1030      796C6973 
 1030      745F736C 
 1030      69636500 
 1031              		.text
 1032              	.Letext0:
 1033              		.file 2 "arraylist.h"