ARM GAS  C:\Users\ikui753\AppData\Local\Temp\ccMBzjHX.s 			page 1


   1              		.syntax unified
   2              		.cpu cortex-m3
   3              		.fpu softvfp
   4              		.eabi_attribute 20, 1
   5              		.eabi_attribute 21, 1
   6              		.eabi_attribute 23, 3
   7              		.eabi_attribute 24, 1
   8              		.eabi_attribute 25, 1
   9              		.eabi_attribute 26, 1
  10              		.eabi_attribute 30, 6
  11              		.eabi_attribute 34, 1
  12              		.eabi_attribute 18, 4
  13              		.thumb
  14              		.syntax unified
  15              		.file	"main.c"
  16              		.text
  17              	.Ltext0:
  18              		.cfi_sections	.debug_frame
  19              		.global	ts
  20              		.bss
  21              		.type	ts, %object
  22              		.size	ts, 1
  23              	ts:
  24 0000 00       		.space	1
  25              		.global	ts_enc
  26 0001 00       		.align	1
  27              		.type	ts_enc, %object
  28              		.size	ts_enc, 2
  29              	ts_enc:
  30 0002 0000     		.space	2
  31              		.global	ts_update
  32              		.align	1
  33              		.type	ts_update, %object
  34              		.size	ts_update, 2
  35              	ts_update:
  36 0004 0000     		.space	2
  37              		.global	ts_speed
  38              		.align	1
  39              		.type	ts_speed, %object
  40              		.size	ts_speed, 2
  41              	ts_speed:
  42 0006 0000     		.space	2
  43              		.global	ts_display
  44              		.align	1
  45              		.type	ts_display, %object
  46              		.size	ts_display, 2
  47              	ts_display:
  48 0008 0000     		.space	2
  49              		.global	flag_ts_enc
  50              		.type	flag_ts_enc, %object
  51              		.size	flag_ts_enc, 1
  52              	flag_ts_enc:
  53 000a 00       		.space	1
  54              		.global	flag_ts_update
  55              		.type	flag_ts_update, %object
  56              		.size	flag_ts_update, 1
  57              	flag_ts_update:
ARM GAS  C:\Users\ikui753\AppData\Local\Temp\ccMBzjHX.s 			page 2


  58 000b 00       		.space	1
  59              		.global	flag_ts_speed
  60              		.type	flag_ts_speed, %object
  61              		.size	flag_ts_speed, 1
  62              	flag_ts_speed:
  63 000c 00       		.space	1
  64              		.global	flag_ts_display
  65              		.type	flag_ts_display, %object
  66              		.size	flag_ts_display, 1
  67              	flag_ts_display:
  68 000d 00       		.space	1
  69              		.global	flag_rx
  70              		.type	flag_rx, %object
  71              		.size	flag_rx, 1
  72              	flag_rx:
  73 000e 00       		.space	1
  74              		.global	flag_packet
  75              		.type	flag_packet, %object
  76              		.size	flag_packet, 1
  77              	flag_packet:
  78 000f 00       		.space	1
  79              		.global	flag_KB_string
  80              		.type	flag_KB_string, %object
  81              		.size	flag_KB_string, 1
  82              	flag_KB_string:
  83 0010 00       		.space	1
  84              		.global	dataready_flag
  85              		.type	dataready_flag, %object
  86              		.size	dataready_flag, 1
  87              	dataready_flag:
  88 0011 00       		.space	1
  89              		.global	flag_rf_transmission_active
  90              		.data
  91              		.type	flag_rf_transmission_active, %object
  92              		.size	flag_rf_transmission_active, 1
  93              	flag_rf_transmission_active:
  94 0000 0A       		.byte	10
  95              		.global	displaystring
  96 0001 000000   		.align	2
  97              		.type	displaystring, %object
  98              		.size	displaystring, 64
  99              	displaystring:
 100 0004 43533330 		.ascii	"CS301 2016\012\015\000"
 100      31203230 
 100      31360A0D 
 100      00
 101 0011 00000000 		.space	51
 101      00000000 
 101      00000000 
 101      00000000 
 101      00000000 
 102              		.comm	line,64,4
 103              		.comm	entry,64,4
 104              		.comm	usbBuffer,64,4
 105              		.comm	system_state,32,4
 106              		.section	.rodata
 107              		.align	2
ARM GAS  C:\Users\ikui753\AppData\Local\Temp\ccMBzjHX.s 			page 3


 108              	.LC1:
 109 0000 7200     		.ascii	"r\000"
 110 0002 0000     		.align	2
 111              	.LC2:
 112 0004 4572726F 		.ascii	"Error opening file\000"
 112      72206F70 
 112      656E696E 
 112      67206669 
 112      6C6500
 113              		.section	.text.readMap,"ax",%progbits
 114              		.align	2
 115              		.global	readMap
 116              		.thumb
 117              		.thumb_func
 118              		.type	readMap, %function
 119              	readMap:
 120              	.LFB64:
 121              		.file 1 "pathfinding.h"
   1:pathfinding.h **** /* ========================================
   2:pathfinding.h ****  *
   3:pathfinding.h ****  * Copyright YOUR COMPANY, THE YEAR
   4:pathfinding.h ****  * All Rights Reserved
   5:pathfinding.h ****  * UNPUBLISHED, LICENSED SOFTWARE.
   6:pathfinding.h ****  *
   7:pathfinding.h ****  * CONFIDENTIAL AND PROPRIETARY INFORMATION
   8:pathfinding.h ****  * WHICH IS THE PROPERTY OF your company.
   9:pathfinding.h ****  *
  10:pathfinding.h ****  * ========================================
  11:pathfinding.h **** */
  12:pathfinding.h **** #include <stdio.h>
  13:pathfinding.h **** #include <stdlib.h>
  14:pathfinding.h **** #include <time.h>
  15:pathfinding.h **** #include <stdbool.h>
  16:pathfinding.h **** 
  17:pathfinding.h **** #define MAX_ROWS 15
  18:pathfinding.h **** #define MAX_COLS 19
  19:pathfinding.h **** #define ARRAY_LENGTH(arr) (sizeof(arr) / sizeof((arr)[0]))
  20:pathfinding.h **** 
  21:pathfinding.h **** 
  22:pathfinding.h **** // MAP INITIALISATION CODE
  23:pathfinding.h **** void readMap(char *filePath, char map[MAX_ROWS][MAX_COLS]) {
 122              		.loc 1 23 0
 123              		.cfi_startproc
 124              		@ args = 0, pretend = 0, frame = 24
 125              		@ frame_needed = 1, uses_anonymous_args = 0
 126 0000 80B5     		push	{r7, lr}
 127              		.cfi_def_cfa_offset 8
 128              		.cfi_offset 7, -8
 129              		.cfi_offset 14, -4
 130 0002 86B0     		sub	sp, sp, #24
 131              		.cfi_def_cfa_offset 32
 132 0004 00AF     		add	r7, sp, #0
 133              		.cfi_def_cfa_register 7
 134 0006 7860     		str	r0, [r7, #4]
 135 0008 3960     		str	r1, [r7]
  24:pathfinding.h ****     FILE *file = fopen(filePath, "r");
 136              		.loc 1 24 0
ARM GAS  C:\Users\ikui753\AppData\Local\Temp\ccMBzjHX.s 			page 4


 137 000a 2149     		ldr	r1, .L11
 138 000c 7868     		ldr	r0, [r7, #4]
 139 000e FFF7FEFF 		bl	fopen
 140 0012 B860     		str	r0, [r7, #8]
  25:pathfinding.h **** 
  26:pathfinding.h ****     if (file == NULL) {
 141              		.loc 1 26 0
 142 0014 BB68     		ldr	r3, [r7, #8]
 143 0016 002B     		cmp	r3, #0
 144 0018 05D1     		bne	.L2
  27:pathfinding.h ****         perror("Error opening file");
 145              		.loc 1 27 0
 146 001a 1E48     		ldr	r0, .L11+4
 147 001c FFF7FEFF 		bl	perror
  28:pathfinding.h ****         exit(1); // Exit the program if file opening fails
 148              		.loc 1 28 0
 149 0020 0120     		movs	r0, #1
 150 0022 FFF7FEFF 		bl	exit
 151              	.L2:
 152              	.LBB2:
  29:pathfinding.h ****     }
  30:pathfinding.h **** 
  31:pathfinding.h ****     // Read the file and populate the array
  32:pathfinding.h ****     for (int i = 0; i < MAX_ROWS; i++) {
 153              		.loc 1 32 0
 154 0026 0023     		movs	r3, #0
 155 0028 7B61     		str	r3, [r7, #20]
 156 002a 28E0     		b	.L3
 157              	.L9:
 158              	.LBB3:
  33:pathfinding.h ****         for (int j = 0; j < MAX_COLS; j++) {
 159              		.loc 1 33 0
 160 002c 0023     		movs	r3, #0
 161 002e 3B61     		str	r3, [r7, #16]
 162 0030 1FE0     		b	.L4
 163              	.L8:
 164              	.LBB4:
  34:pathfinding.h ****             char c = fgetc(file);
 165              		.loc 1 34 0
 166 0032 B868     		ldr	r0, [r7, #8]
 167 0034 FFF7FEFF 		bl	fgetc
 168 0038 0346     		mov	r3, r0
 169 003a FB73     		strb	r3, [r7, #15]
  35:pathfinding.h ****             while (c != '0' && c != '1' && c != EOF) {
 170              		.loc 1 35 0
 171 003c 04E0     		b	.L5
 172              	.L7:
  36:pathfinding.h ****                 c = fgetc(file);
 173              		.loc 1 36 0
 174 003e B868     		ldr	r0, [r7, #8]
 175 0040 FFF7FEFF 		bl	fgetc
 176 0044 0346     		mov	r3, r0
 177 0046 FB73     		strb	r3, [r7, #15]
 178              	.L5:
  35:pathfinding.h ****             while (c != '0' && c != '1' && c != EOF) {
 179              		.loc 1 35 0
 180 0048 FB7B     		ldrb	r3, [r7, #15]	@ zero_extendqisi2
ARM GAS  C:\Users\ikui753\AppData\Local\Temp\ccMBzjHX.s 			page 5


 181 004a 302B     		cmp	r3, #48
 182 004c 02D0     		beq	.L6
  35:pathfinding.h ****             while (c != '0' && c != '1' && c != EOF) {
 183              		.loc 1 35 0 is_stmt 0 discriminator 1
 184 004e FB7B     		ldrb	r3, [r7, #15]	@ zero_extendqisi2
 185 0050 312B     		cmp	r3, #49
 186 0052 F4D1     		bne	.L7
 187              	.L6:
  37:pathfinding.h ****             }
  38:pathfinding.h ****             if (c == EOF) {
  39:pathfinding.h ****                 fclose(file);
  40:pathfinding.h ****                 return; // Exit the function if end of file is reached
  41:pathfinding.h ****             }
  42:pathfinding.h ****             map[i][j] = c;
 188              		.loc 1 42 0 is_stmt 1 discriminator 2
 189 0054 7A69     		ldr	r2, [r7, #20]
 190 0056 1346     		mov	r3, r2
 191 0058 DB00     		lsls	r3, r3, #3
 192 005a 1344     		add	r3, r3, r2
 193 005c 5B00     		lsls	r3, r3, #1
 194 005e 1344     		add	r3, r3, r2
 195 0060 3A68     		ldr	r2, [r7]
 196 0062 1A44     		add	r2, r2, r3
 197 0064 3B69     		ldr	r3, [r7, #16]
 198 0066 1344     		add	r3, r3, r2
 199 0068 FA7B     		ldrb	r2, [r7, #15]
 200 006a 1A70     		strb	r2, [r3]
 201              	.LBE4:
  33:pathfinding.h ****             char c = fgetc(file);
 202              		.loc 1 33 0 discriminator 2
 203 006c 3B69     		ldr	r3, [r7, #16]
 204 006e 0133     		adds	r3, r3, #1
 205 0070 3B61     		str	r3, [r7, #16]
 206              	.L4:
  33:pathfinding.h ****             char c = fgetc(file);
 207              		.loc 1 33 0 is_stmt 0 discriminator 1
 208 0072 3B69     		ldr	r3, [r7, #16]
 209 0074 122B     		cmp	r3, #18
 210 0076 DCDD     		ble	.L8
 211              	.LBE3:
  32:pathfinding.h ****         for (int j = 0; j < MAX_COLS; j++) {
 212              		.loc 1 32 0 is_stmt 1 discriminator 2
 213 0078 7B69     		ldr	r3, [r7, #20]
 214 007a 0133     		adds	r3, r3, #1
 215 007c 7B61     		str	r3, [r7, #20]
 216              	.L3:
  32:pathfinding.h ****         for (int j = 0; j < MAX_COLS; j++) {
 217              		.loc 1 32 0 is_stmt 0 discriminator 1
 218 007e 7B69     		ldr	r3, [r7, #20]
 219 0080 0E2B     		cmp	r3, #14
 220 0082 D3DD     		ble	.L9
 221              	.LBE2:
  43:pathfinding.h ****         }
  44:pathfinding.h ****     }
  45:pathfinding.h **** 
  46:pathfinding.h ****     fclose(file); // Close text file
 222              		.loc 1 46 0 is_stmt 1
ARM GAS  C:\Users\ikui753\AppData\Local\Temp\ccMBzjHX.s 			page 6


 223 0084 B868     		ldr	r0, [r7, #8]
 224 0086 FFF7FEFF 		bl	fclose
  47:pathfinding.h **** }
 225              		.loc 1 47 0
 226 008a 1837     		adds	r7, r7, #24
 227              		.cfi_def_cfa_offset 8
 228 008c BD46     		mov	sp, r7
 229              		.cfi_def_cfa_register 13
 230              		@ sp needed
 231 008e 80BD     		pop	{r7, pc}
 232              	.L12:
 233              		.align	2
 234              	.L11:
 235 0090 00000000 		.word	.LC1
 236 0094 04000000 		.word	.LC2
 237              		.cfi_endproc
 238              	.LFE64:
 239              		.size	readMap, .-readMap
 240              		.section	.text.printMap,"ax",%progbits
 241              		.align	2
 242              		.global	printMap
 243              		.thumb
 244              		.thumb_func
 245              		.type	printMap, %function
 246              	printMap:
 247              	.LFB65:
  48:pathfinding.h **** 
  49:pathfinding.h **** void printMap(char map[MAX_ROWS][MAX_COLS]) {
 248              		.loc 1 49 0
 249              		.cfi_startproc
 250              		@ args = 0, pretend = 0, frame = 16
 251              		@ frame_needed = 1, uses_anonymous_args = 0
 252 0000 80B5     		push	{r7, lr}
 253              		.cfi_def_cfa_offset 8
 254              		.cfi_offset 7, -8
 255              		.cfi_offset 14, -4
 256 0002 84B0     		sub	sp, sp, #16
 257              		.cfi_def_cfa_offset 24
 258 0004 00AF     		add	r7, sp, #0
 259              		.cfi_def_cfa_register 7
 260 0006 7860     		str	r0, [r7, #4]
 261              	.LBB5:
  50:pathfinding.h ****     // Print the map in a grid format
  51:pathfinding.h ****     for (int i = 0; i < MAX_ROWS; i++) {
 262              		.loc 1 51 0
 263 0008 0023     		movs	r3, #0
 264 000a FB60     		str	r3, [r7, #12]
 265 000c 1CE0     		b	.L14
 266              	.L17:
 267              	.LBB6:
  52:pathfinding.h ****         for (int j = 0; j < MAX_COLS; j++) {
 268              		.loc 1 52 0
 269 000e 0023     		movs	r3, #0
 270 0010 BB60     		str	r3, [r7, #8]
 271 0012 10E0     		b	.L15
 272              	.L16:
  53:pathfinding.h ****             printf("%c", map[i][j]);
ARM GAS  C:\Users\ikui753\AppData\Local\Temp\ccMBzjHX.s 			page 7


 273              		.loc 1 53 0 discriminator 3
 274 0014 FA68     		ldr	r2, [r7, #12]
 275 0016 1346     		mov	r3, r2
 276 0018 DB00     		lsls	r3, r3, #3
 277 001a 1344     		add	r3, r3, r2
 278 001c 5B00     		lsls	r3, r3, #1
 279 001e 1344     		add	r3, r3, r2
 280 0020 7A68     		ldr	r2, [r7, #4]
 281 0022 1A44     		add	r2, r2, r3
 282 0024 BB68     		ldr	r3, [r7, #8]
 283 0026 1344     		add	r3, r3, r2
 284 0028 1B78     		ldrb	r3, [r3]	@ zero_extendqisi2
 285 002a 1846     		mov	r0, r3
 286 002c FFF7FEFF 		bl	putchar
  52:pathfinding.h ****         for (int j = 0; j < MAX_COLS; j++) {
 287              		.loc 1 52 0 discriminator 3
 288 0030 BB68     		ldr	r3, [r7, #8]
 289 0032 0133     		adds	r3, r3, #1
 290 0034 BB60     		str	r3, [r7, #8]
 291              	.L15:
  52:pathfinding.h ****         for (int j = 0; j < MAX_COLS; j++) {
 292              		.loc 1 52 0 is_stmt 0 discriminator 1
 293 0036 BB68     		ldr	r3, [r7, #8]
 294 0038 122B     		cmp	r3, #18
 295 003a EBDD     		ble	.L16
 296              	.LBE6:
  54:pathfinding.h ****         }
  55:pathfinding.h ****         printf("\n");
 297              		.loc 1 55 0 is_stmt 1 discriminator 2
 298 003c 0A20     		movs	r0, #10
 299 003e FFF7FEFF 		bl	putchar
  51:pathfinding.h ****         for (int j = 0; j < MAX_COLS; j++) {
 300              		.loc 1 51 0 discriminator 2
 301 0042 FB68     		ldr	r3, [r7, #12]
 302 0044 0133     		adds	r3, r3, #1
 303 0046 FB60     		str	r3, [r7, #12]
 304              	.L14:
  51:pathfinding.h ****         for (int j = 0; j < MAX_COLS; j++) {
 305              		.loc 1 51 0 is_stmt 0 discriminator 1
 306 0048 FB68     		ldr	r3, [r7, #12]
 307 004a 0E2B     		cmp	r3, #14
 308 004c DFDD     		ble	.L17
 309              	.LBE5:
  56:pathfinding.h ****     }
  57:pathfinding.h **** }
 310              		.loc 1 57 0 is_stmt 1
 311 004e 00BF     		nop
 312 0050 1037     		adds	r7, r7, #16
 313              		.cfi_def_cfa_offset 8
 314 0052 BD46     		mov	sp, r7
 315              		.cfi_def_cfa_register 13
 316              		@ sp needed
 317 0054 80BD     		pop	{r7, pc}
 318              		.cfi_endproc
 319              	.LFE65:
 320              		.size	printMap, .-printMap
 321 0056 00BF     		.section	.text.getRandomLocation,"ax",%progbits
ARM GAS  C:\Users\ikui753\AppData\Local\Temp\ccMBzjHX.s 			page 8


 322              		.align	2
 323              		.global	getRandomLocation
 324              		.thumb
 325              		.thumb_func
 326              		.type	getRandomLocation, %function
 327              	getRandomLocation:
 328              	.LFB66:
  58:pathfinding.h **** 
  59:pathfinding.h **** struct Location {
  60:pathfinding.h ****     int row;
  61:pathfinding.h ****     int col;
  62:pathfinding.h **** };
  63:pathfinding.h **** 
  64:pathfinding.h **** struct Location getRandomLocation(char map[MAX_ROWS][MAX_COLS]) {
 329              		.loc 1 64 0
 330              		.cfi_startproc
 331              		@ args = 0, pretend = 0, frame = 32
 332              		@ frame_needed = 1, uses_anonymous_args = 0
 333 0000 90B5     		push	{r4, r7, lr}
 334              		.cfi_def_cfa_offset 12
 335              		.cfi_offset 4, -12
 336              		.cfi_offset 7, -8
 337              		.cfi_offset 14, -4
 338 0002 89B0     		sub	sp, sp, #36
 339              		.cfi_def_cfa_offset 48
 340 0004 00AF     		add	r7, sp, #0
 341              		.cfi_def_cfa_register 7
 342 0006 7860     		str	r0, [r7, #4]
 343 0008 3960     		str	r1, [r7]
  65:pathfinding.h ****     struct Location randomLocation;
  66:pathfinding.h ****     int isNotValid = 1; // true
 344              		.loc 1 66 0
 345 000a 0123     		movs	r3, #1
 346 000c FB61     		str	r3, [r7, #28]
  67:pathfinding.h ****     while (isNotValid) {
 347              		.loc 1 67 0
 348 000e 31E0     		b	.L19
 349              	.L20:
 350              	.LBB7:
  68:pathfinding.h ****         int random_row = rand() % MAX_ROWS;
 351              		.loc 1 68 0
 352 0010 FFF7FEFF 		bl	rand
 353 0014 0246     		mov	r2, r0
 354 0016 1F4B     		ldr	r3, .L22
 355 0018 82FB0334 		smull	r3, r4, r2, r3
 356 001c 1319     		adds	r3, r2, r4
 357 001e D910     		asrs	r1, r3, #3
 358 0020 D317     		asrs	r3, r2, #31
 359 0022 C91A     		subs	r1, r1, r3
 360 0024 0B46     		mov	r3, r1
 361 0026 1B01     		lsls	r3, r3, #4
 362 0028 5B1A     		subs	r3, r3, r1
 363 002a D31A     		subs	r3, r2, r3
 364 002c BB61     		str	r3, [r7, #24]
  69:pathfinding.h ****         int random_col = rand() % MAX_COLS; // get random row and column
 365              		.loc 1 69 0
 366 002e FFF7FEFF 		bl	rand
ARM GAS  C:\Users\ikui753\AppData\Local\Temp\ccMBzjHX.s 			page 9


 367 0032 0246     		mov	r2, r0
 368 0034 184B     		ldr	r3, .L22+4
 369 0036 83FB0213 		smull	r1, r3, r3, r2
 370 003a D910     		asrs	r1, r3, #3
 371 003c D317     		asrs	r3, r2, #31
 372 003e C91A     		subs	r1, r1, r3
 373 0040 0B46     		mov	r3, r1
 374 0042 DB00     		lsls	r3, r3, #3
 375 0044 0B44     		add	r3, r3, r1
 376 0046 5B00     		lsls	r3, r3, #1
 377 0048 0B44     		add	r3, r3, r1
 378 004a D31A     		subs	r3, r2, r3
 379 004c 7B61     		str	r3, [r7, #20]
  70:pathfinding.h ****         // check point on map to see if it's a path
  71:pathfinding.h ****         if (map[random_row][random_col] == '0') {
 380              		.loc 1 71 0
 381 004e BA69     		ldr	r2, [r7, #24]
 382 0050 1346     		mov	r3, r2
 383 0052 DB00     		lsls	r3, r3, #3
 384 0054 1344     		add	r3, r3, r2
 385 0056 5B00     		lsls	r3, r3, #1
 386 0058 1344     		add	r3, r3, r2
 387 005a 3A68     		ldr	r2, [r7]
 388 005c 1A44     		add	r2, r2, r3
 389 005e 7B69     		ldr	r3, [r7, #20]
 390 0060 1344     		add	r3, r3, r2
 391 0062 1B78     		ldrb	r3, [r3]	@ zero_extendqisi2
 392 0064 302B     		cmp	r3, #48
 393 0066 05D1     		bne	.L19
  72:pathfinding.h ****             randomLocation.row = random_row;
 394              		.loc 1 72 0
 395 0068 BB69     		ldr	r3, [r7, #24]
 396 006a FB60     		str	r3, [r7, #12]
  73:pathfinding.h ****             randomLocation.col = random_col;
 397              		.loc 1 73 0
 398 006c 7B69     		ldr	r3, [r7, #20]
 399 006e 3B61     		str	r3, [r7, #16]
  74:pathfinding.h ****             isNotValid = 0; // found valid location
 400              		.loc 1 74 0
 401 0070 0023     		movs	r3, #0
 402 0072 FB61     		str	r3, [r7, #28]
 403              	.L19:
 404              	.LBE7:
  67:pathfinding.h ****         int random_row = rand() % MAX_ROWS;
 405              		.loc 1 67 0
 406 0074 FB69     		ldr	r3, [r7, #28]
 407 0076 002B     		cmp	r3, #0
 408 0078 CAD1     		bne	.L20
  75:pathfinding.h ****         }
  76:pathfinding.h ****     }
  77:pathfinding.h ****     return randomLocation;
 409              		.loc 1 77 0
 410 007a 7B68     		ldr	r3, [r7, #4]
 411 007c 1A46     		mov	r2, r3
 412 007e 07F10C03 		add	r3, r7, #12
 413 0082 93E80300 		ldmia	r3, {r0, r1}
 414 0086 82E80300 		stmia	r2, {r0, r1}
ARM GAS  C:\Users\ikui753\AppData\Local\Temp\ccMBzjHX.s 			page 10


  78:pathfinding.h **** }
 415              		.loc 1 78 0
 416 008a 7868     		ldr	r0, [r7, #4]
 417 008c 2437     		adds	r7, r7, #36
 418              		.cfi_def_cfa_offset 12
 419 008e BD46     		mov	sp, r7
 420              		.cfi_def_cfa_register 13
 421              		@ sp needed
 422 0090 90BD     		pop	{r4, r7, pc}
 423              	.L23:
 424 0092 00BF     		.align	2
 425              	.L22:
 426 0094 89888888 		.word	-2004318071
 427 0098 F31ACA6B 		.word	1808407283
 428              		.cfi_endproc
 429              	.LFE66:
 430              		.size	getRandomLocation, .-getRandomLocation
 431              		.global	moves
 432              		.data
 433              		.align	2
 434              		.type	moves, %object
 435              		.size	moves, 32
 436              	moves:
 437 0044 00000000 		.word	0
 438 0048 01000000 		.word	1
 439 004c 00000000 		.word	0
 440 0050 FFFFFFFF 		.word	-1
 441 0054 01000000 		.word	1
 442 0058 00000000 		.word	0
 443 005c FFFFFFFF 		.word	-1
 444 0060 00000000 		.word	0
 445              		.section	.text.isValidMove,"ax",%progbits
 446              		.align	2
 447              		.global	isValidMove
 448              		.thumb
 449              		.thumb_func
 450              		.type	isValidMove, %function
 451              	isValidMove:
 452              	.LFB67:
  79:pathfinding.h **** 
  80:pathfinding.h **** // pathfinding 
  81:pathfinding.h **** struct Location moves[] = { {0, 1}, {0, -1}, {1, 0}, {-1, 0} };
  82:pathfinding.h **** 
  83:pathfinding.h **** bool isValidMove(int r, int c, int rows, int cols, char map[MAX_ROWS][MAX_COLS]) {
 453              		.loc 1 83 0
 454              		.cfi_startproc
 455              		@ args = 4, pretend = 0, frame = 16
 456              		@ frame_needed = 1, uses_anonymous_args = 0
 457              		@ link register save eliminated.
 458 0000 80B4     		push	{r7}
 459              		.cfi_def_cfa_offset 4
 460              		.cfi_offset 7, -4
 461 0002 85B0     		sub	sp, sp, #20
 462              		.cfi_def_cfa_offset 24
 463 0004 00AF     		add	r7, sp, #0
 464              		.cfi_def_cfa_register 7
 465 0006 F860     		str	r0, [r7, #12]
ARM GAS  C:\Users\ikui753\AppData\Local\Temp\ccMBzjHX.s 			page 11


 466 0008 B960     		str	r1, [r7, #8]
 467 000a 7A60     		str	r2, [r7, #4]
 468 000c 3B60     		str	r3, [r7]
  84:pathfinding.h ****     return (r >= 0 && r < rows && c >= 0 && c < cols && map[r][c] == '0');
 469              		.loc 1 84 0
 470 000e FB68     		ldr	r3, [r7, #12]
 471 0010 002B     		cmp	r3, #0
 472 0012 19DB     		blt	.L25
 473              		.loc 1 84 0 is_stmt 0 discriminator 1
 474 0014 FA68     		ldr	r2, [r7, #12]
 475 0016 7B68     		ldr	r3, [r7, #4]
 476 0018 9A42     		cmp	r2, r3
 477 001a 15DA     		bge	.L25
 478              		.loc 1 84 0 discriminator 3
 479 001c BB68     		ldr	r3, [r7, #8]
 480 001e 002B     		cmp	r3, #0
 481 0020 12DB     		blt	.L25
 482              		.loc 1 84 0 discriminator 5
 483 0022 BA68     		ldr	r2, [r7, #8]
 484 0024 3B68     		ldr	r3, [r7]
 485 0026 9A42     		cmp	r2, r3
 486 0028 0EDA     		bge	.L25
 487              		.loc 1 84 0 discriminator 7
 488 002a FA68     		ldr	r2, [r7, #12]
 489 002c 1346     		mov	r3, r2
 490 002e DB00     		lsls	r3, r3, #3
 491 0030 1344     		add	r3, r3, r2
 492 0032 5B00     		lsls	r3, r3, #1
 493 0034 1344     		add	r3, r3, r2
 494 0036 BA69     		ldr	r2, [r7, #24]
 495 0038 1A44     		add	r2, r2, r3
 496 003a BB68     		ldr	r3, [r7, #8]
 497 003c 1344     		add	r3, r3, r2
 498 003e 1B78     		ldrb	r3, [r3]	@ zero_extendqisi2
 499 0040 302B     		cmp	r3, #48
 500 0042 01D1     		bne	.L25
 501              		.loc 1 84 0 discriminator 9
 502 0044 0123     		movs	r3, #1
 503 0046 00E0     		b	.L26
 504              	.L25:
 505              		.loc 1 84 0 discriminator 10
 506 0048 0023     		movs	r3, #0
 507              	.L26:
 508              		.loc 1 84 0 discriminator 12
 509 004a 03F00103 		and	r3, r3, #1
 510 004e DBB2     		uxtb	r3, r3
  85:pathfinding.h **** }
 511              		.loc 1 85 0 is_stmt 1 discriminator 12
 512 0050 1846     		mov	r0, r3
 513 0052 1437     		adds	r7, r7, #20
 514              		.cfi_def_cfa_offset 4
 515 0054 BD46     		mov	sp, r7
 516              		.cfi_def_cfa_register 13
 517              		@ sp needed
 518 0056 80BC     		pop	{r7}
 519              		.cfi_restore 7
 520              		.cfi_def_cfa_offset 0
ARM GAS  C:\Users\ikui753\AppData\Local\Temp\ccMBzjHX.s 			page 12


 521 0058 7047     		bx	lr
 522              		.cfi_endproc
 523              	.LFE67:
 524              		.size	isValidMove, .-isValidMove
 525 005a 00BF     		.section	.text.dijkstra,"ax",%progbits
 526              		.align	2
 527              		.global	dijkstra
 528              		.thumb
 529              		.thumb_func
 530              		.type	dijkstra, %function
 531              	dijkstra:
 532              	.LFB68:
  86:pathfinding.h **** 
  87:pathfinding.h **** // dijkstra's algorithm- changes global map variable
  88:pathfinding.h **** void dijkstra(char map[MAX_ROWS][MAX_COLS], struct Location startlocation, struct Location targetlo
 533              		.loc 1 88 0
 534              		.cfi_startproc
 535              		@ args = 12, pretend = 8, frame = 5808
 536              		@ frame_needed = 1, uses_anonymous_args = 0
 537 0000 82B0     		sub	sp, sp, #8
 538              		.cfi_def_cfa_offset 8
 539 0002 90B5     		push	{r4, r7, lr}
 540              		.cfi_def_cfa_offset 20
 541              		.cfi_offset 4, -20
 542              		.cfi_offset 7, -16
 543              		.cfi_offset 14, -12
 544 0004 ADF5B55D 		sub	sp, sp, #5792
 545              		.cfi_def_cfa_offset 5812
 546 0008 87B0     		sub	sp, sp, #28
 547              		.cfi_def_cfa_offset 5840
 548 000a 02AF     		add	r7, sp, #8
 549              		.cfi_def_cfa 7, 5832
 550 000c 07F11004 		add	r4, r7, #16
 551 0010 043C     		subs	r4, r4, #4
 552 0012 2060     		str	r0, [r4]
 553 0014 07F11000 		add	r0, r7, #16
 554 0018 0C38     		subs	r0, r0, #12
 555 001a 80E80600 		stmia	r0, {r1, r2}
 556 001e 07F5B652 		add	r2, r7, #5824
 557 0022 02F10402 		add	r2, r2, #4
 558 0026 1360     		str	r3, [r2]
 559              	.LBB8:
  89:pathfinding.h **** 
  90:pathfinding.h ****     int visitedMap[MAX_ROWS][MAX_COLS];
  91:pathfinding.h ****     for (int i = 0; i < MAX_ROWS; i++) {
 560              		.loc 1 91 0
 561 0028 0023     		movs	r3, #0
 562 002a 07F5B552 		add	r2, r7, #5792
 563 002e 02F10C02 		add	r2, r2, #12
 564 0032 1360     		str	r3, [r2]
 565 0034 3AE0     		b	.L29
 566              	.L32:
 567              	.LBB9:
  92:pathfinding.h ****         for (int j = 0; j < MAX_COLS; j++) {
 568              		.loc 1 92 0
 569 0036 0023     		movs	r3, #0
 570 0038 07F5B552 		add	r2, r7, #5792
ARM GAS  C:\Users\ikui753\AppData\Local\Temp\ccMBzjHX.s 			page 13


 571 003c 02F10802 		add	r2, r2, #8
 572 0040 1360     		str	r3, [r2]
 573 0042 21E0     		b	.L30
 574              	.L31:
  93:pathfinding.h ****             visitedMap[i][j] = 1; // fill visited array with 1s- mark as unvisited
 575              		.loc 1 93 0 discriminator 3
 576 0044 07F58F51 		add	r1, r7, #4576
 577 0048 01F10C01 		add	r1, r1, #12
 578 004c 07F5B553 		add	r3, r7, #5792
 579 0050 03F10C03 		add	r3, r3, #12
 580 0054 1A68     		ldr	r2, [r3]
 581 0056 1346     		mov	r3, r2
 582 0058 DB00     		lsls	r3, r3, #3
 583 005a 1344     		add	r3, r3, r2
 584 005c 5B00     		lsls	r3, r3, #1
 585 005e 1344     		add	r3, r3, r2
 586 0060 07F5B552 		add	r2, r7, #5792
 587 0064 02F10802 		add	r2, r2, #8
 588 0068 1268     		ldr	r2, [r2]
 589 006a 1344     		add	r3, r3, r2
 590 006c 0122     		movs	r2, #1
 591 006e 41F82320 		str	r2, [r1, r3, lsl #2]
  92:pathfinding.h ****         for (int j = 0; j < MAX_COLS; j++) {
 592              		.loc 1 92 0 discriminator 3
 593 0072 07F5B553 		add	r3, r7, #5792
 594 0076 03F10803 		add	r3, r3, #8
 595 007a 1B68     		ldr	r3, [r3]
 596 007c 0133     		adds	r3, r3, #1
 597 007e 07F5B552 		add	r2, r7, #5792
 598 0082 02F10802 		add	r2, r2, #8
 599 0086 1360     		str	r3, [r2]
 600              	.L30:
  92:pathfinding.h ****         for (int j = 0; j < MAX_COLS; j++) {
 601              		.loc 1 92 0 is_stmt 0 discriminator 1
 602 0088 07F5B553 		add	r3, r7, #5792
 603 008c 03F10803 		add	r3, r3, #8
 604 0090 1B68     		ldr	r3, [r3]
 605 0092 122B     		cmp	r3, #18
 606 0094 D6DD     		ble	.L31
 607              	.LBE9:
  91:pathfinding.h ****         for (int j = 0; j < MAX_COLS; j++) {
 608              		.loc 1 91 0 is_stmt 1 discriminator 2
 609 0096 07F5B553 		add	r3, r7, #5792
 610 009a 03F10C03 		add	r3, r3, #12
 611 009e 1B68     		ldr	r3, [r3]
 612 00a0 0133     		adds	r3, r3, #1
 613 00a2 07F5B552 		add	r2, r7, #5792
 614 00a6 02F10C02 		add	r2, r2, #12
 615 00aa 1360     		str	r3, [r2]
 616              	.L29:
  91:pathfinding.h ****         for (int j = 0; j < MAX_COLS; j++) {
 617              		.loc 1 91 0 is_stmt 0 discriminator 1
 618 00ac 07F5B553 		add	r3, r7, #5792
 619 00b0 03F10C03 		add	r3, r3, #12
 620 00b4 1B68     		ldr	r3, [r3]
 621 00b6 0E2B     		cmp	r3, #14
 622 00b8 BDDD     		ble	.L32
ARM GAS  C:\Users\ikui753\AppData\Local\Temp\ccMBzjHX.s 			page 14


 623              	.LBE8:
  94:pathfinding.h ****         }
  95:pathfinding.h ****     }
  96:pathfinding.h **** 
  97:pathfinding.h ****     struct PriorityQueue {
  98:pathfinding.h ****         struct Location location;
  99:pathfinding.h ****         int distance;
 100:pathfinding.h ****     };
 101:pathfinding.h **** 
 102:pathfinding.h ****     struct PriorityQueue pq[MAX_ROWS * MAX_COLS]; // initialise priority queue
 103:pathfinding.h ****     int pqSize = 0;
 624              		.loc 1 103 0 is_stmt 1
 625 00ba 0023     		movs	r3, #0
 626 00bc 07F5B552 		add	r2, r7, #5792
 627 00c0 02F10402 		add	r2, r2, #4
 628 00c4 1360     		str	r3, [r2]
 629              	.LBB10:
 104:pathfinding.h **** 
 105:pathfinding.h ****     // Initialize distances and paths arrays
 106:pathfinding.h ****     int distances[MAX_ROWS][MAX_COLS]; // array to record distance of each location
 107:pathfinding.h ****     //struct Location paths[MAX_ROWS * MAX_COLS]; // 1d array to record path- each element is a loc
 108:pathfinding.h **** 
 109:pathfinding.h ****     for (int i = 0; i < MAX_ROWS; i++) {
 630              		.loc 1 109 0
 631 00c6 0023     		movs	r3, #0
 632 00c8 07F5B552 		add	r2, r7, #5792
 633 00cc 1360     		str	r3, [r2]
 634 00ce 34E0     		b	.L33
 635              	.L36:
 636              	.LBB11:
 110:pathfinding.h ****         for (int j = 0; j < MAX_COLS; j++) {
 637              		.loc 1 110 0
 638 00d0 0023     		movs	r3, #0
 639 00d2 07F5B452 		add	r2, r7, #5760
 640 00d6 02F11C02 		add	r2, r2, #28
 641 00da 1360     		str	r3, [r2]
 642 00dc 1FE0     		b	.L34
 643              	.L35:
 111:pathfinding.h ****             distances[i][j] = INT_MAX; // initialise distances as infinity
 644              		.loc 1 111 0 discriminator 3
 645 00de 07F13002 		add	r2, r7, #48
 646 00e2 143A     		subs	r2, r2, #20
 647 00e4 07F5B553 		add	r3, r7, #5792
 648 00e8 1968     		ldr	r1, [r3]
 649 00ea 0B46     		mov	r3, r1
 650 00ec DB00     		lsls	r3, r3, #3
 651 00ee 0B44     		add	r3, r3, r1
 652 00f0 5B00     		lsls	r3, r3, #1
 653 00f2 0B44     		add	r3, r3, r1
 654 00f4 07F5B451 		add	r1, r7, #5760
 655 00f8 01F11C01 		add	r1, r1, #28
 656 00fc 0968     		ldr	r1, [r1]
 657 00fe 0B44     		add	r3, r3, r1
 658 0100 6FF00041 		mvn	r1, #-2147483648
 659 0104 42F82310 		str	r1, [r2, r3, lsl #2]
 110:pathfinding.h ****         for (int j = 0; j < MAX_COLS; j++) {
 660              		.loc 1 110 0 discriminator 3
ARM GAS  C:\Users\ikui753\AppData\Local\Temp\ccMBzjHX.s 			page 15


 661 0108 07F5B453 		add	r3, r7, #5760
 662 010c 03F11C03 		add	r3, r3, #28
 663 0110 1B68     		ldr	r3, [r3]
 664 0112 0133     		adds	r3, r3, #1
 665 0114 07F5B452 		add	r2, r7, #5760
 666 0118 02F11C02 		add	r2, r2, #28
 667 011c 1360     		str	r3, [r2]
 668              	.L34:
 110:pathfinding.h ****         for (int j = 0; j < MAX_COLS; j++) {
 669              		.loc 1 110 0 is_stmt 0 discriminator 1
 670 011e 07F5B453 		add	r3, r7, #5760
 671 0122 03F11C03 		add	r3, r3, #28
 672 0126 1B68     		ldr	r3, [r3]
 673 0128 122B     		cmp	r3, #18
 674 012a D8DD     		ble	.L35
 675              	.LBE11:
 109:pathfinding.h ****         for (int j = 0; j < MAX_COLS; j++) {
 676              		.loc 1 109 0 is_stmt 1 discriminator 2
 677 012c 07F5B553 		add	r3, r7, #5792
 678 0130 1B68     		ldr	r3, [r3]
 679 0132 0133     		adds	r3, r3, #1
 680 0134 07F5B552 		add	r2, r7, #5792
 681 0138 1360     		str	r3, [r2]
 682              	.L33:
 109:pathfinding.h ****         for (int j = 0; j < MAX_COLS; j++) {
 683              		.loc 1 109 0 is_stmt 0 discriminator 1
 684 013a 07F5B553 		add	r3, r7, #5792
 685 013e 1B68     		ldr	r3, [r3]
 686 0140 0E2B     		cmp	r3, #14
 687 0142 C5DD     		ble	.L36
 688              	.LBE10:
 112:pathfinding.h ****         }
 113:pathfinding.h ****     }
 114:pathfinding.h **** 
 115:pathfinding.h ****     int stepNum = 0;
 689              		.loc 1 115 0 is_stmt 1
 690 0144 0023     		movs	r3, #0
 691 0146 07F5B452 		add	r2, r7, #5760
 692 014a 02F11802 		add	r2, r2, #24
 693 014e 1360     		str	r3, [r2]
 116:pathfinding.h ****     distances[startlocation.row][startlocation.col] = 0; // initialise distance of startLoc to 0
 694              		.loc 1 116 0
 695 0150 07F11003 		add	r3, r7, #16
 696 0154 0C3B     		subs	r3, r3, #12
 697 0156 1968     		ldr	r1, [r3]
 698 0158 07F11003 		add	r3, r7, #16
 699 015c 0C3B     		subs	r3, r3, #12
 700 015e 5868     		ldr	r0, [r3, #4]
 701 0160 07F13002 		add	r2, r7, #48
 702 0164 143A     		subs	r2, r2, #20
 703 0166 0B46     		mov	r3, r1
 704 0168 DB00     		lsls	r3, r3, #3
 705 016a 0B44     		add	r3, r3, r1
 706 016c 5B00     		lsls	r3, r3, #1
 707 016e 0B44     		add	r3, r3, r1
 708 0170 0344     		add	r3, r3, r0
 709 0172 0021     		movs	r1, #0
ARM GAS  C:\Users\ikui753\AppData\Local\Temp\ccMBzjHX.s 			page 16


 710 0174 42F82310 		str	r1, [r2, r3, lsl #2]
 117:pathfinding.h ****     //paths[stepNum] = startlocation; // add start to path array
 118:pathfinding.h ****     stepNum++; // increment stepNum
 711              		.loc 1 118 0
 712 0178 07F5B453 		add	r3, r7, #5760
 713 017c 03F11803 		add	r3, r3, #24
 714 0180 1B68     		ldr	r3, [r3]
 715 0182 0133     		adds	r3, r3, #1
 716 0184 07F5B452 		add	r2, r7, #5760
 717 0188 02F11802 		add	r2, r2, #24
 718 018c 1360     		str	r3, [r2]
 119:pathfinding.h **** 
 120:pathfinding.h ****     pq[pqSize].location = startlocation; // add startLocation to Priority queue
 719              		.loc 1 120 0
 720 018e 07F59261 		add	r1, r7, #1168
 721 0192 07F5B553 		add	r3, r7, #5792
 722 0196 03F10403 		add	r3, r3, #4
 723 019a 1A68     		ldr	r2, [r3]
 724 019c 1346     		mov	r3, r2
 725 019e 5B00     		lsls	r3, r3, #1
 726 01a0 1344     		add	r3, r3, r2
 727 01a2 9B00     		lsls	r3, r3, #2
 728 01a4 CA18     		adds	r2, r1, r3
 729 01a6 07F11003 		add	r3, r7, #16
 730 01aa 0C3B     		subs	r3, r3, #12
 731 01ac 93E80300 		ldmia	r3, {r0, r1}
 732 01b0 82E80300 		stmia	r2, {r0, r1}
 121:pathfinding.h ****     pq[pqSize].distance = 0; // add startlocation distance to priority queue
 733              		.loc 1 121 0
 734 01b4 07F59261 		add	r1, r7, #1168
 735 01b8 07F5B553 		add	r3, r7, #5792
 736 01bc 03F10403 		add	r3, r3, #4
 737 01c0 1A68     		ldr	r2, [r3]
 738 01c2 1346     		mov	r3, r2
 739 01c4 5B00     		lsls	r3, r3, #1
 740 01c6 1344     		add	r3, r3, r2
 741 01c8 9B00     		lsls	r3, r3, #2
 742 01ca 0B44     		add	r3, r3, r1
 743 01cc 0833     		adds	r3, r3, #8
 744 01ce 0022     		movs	r2, #0
 745 01d0 1A60     		str	r2, [r3]
 122:pathfinding.h ****     pqSize++; // increment pqSize- pq is not empty
 746              		.loc 1 122 0
 747 01d2 07F5B553 		add	r3, r7, #5792
 748 01d6 03F10403 		add	r3, r3, #4
 749 01da 1B68     		ldr	r3, [r3]
 750 01dc 0133     		adds	r3, r3, #1
 751 01de 07F5B552 		add	r2, r7, #5792
 752 01e2 02F10402 		add	r2, r2, #4
 753 01e6 1360     		str	r3, [r2]
 123:pathfinding.h **** 
 124:pathfinding.h ****     while (pqSize > 0) {
 754              		.loc 1 124 0
 755 01e8 EEE1     		b	.L37
 756              	.L47:
 757              	.LBB12:
 125:pathfinding.h ****         int idx = 0;
ARM GAS  C:\Users\ikui753\AppData\Local\Temp\ccMBzjHX.s 			page 17


 758              		.loc 1 125 0
 759 01ea 0023     		movs	r3, #0
 760 01ec 07F5B452 		add	r2, r7, #5760
 761 01f0 02F11402 		add	r2, r2, #20
 762 01f4 1360     		str	r3, [r2]
 763              	.LBB13:
 126:pathfinding.h ****         for (int i = 1; i < pqSize; i++) {
 764              		.loc 1 126 0
 765 01f6 0123     		movs	r3, #1
 766 01f8 07F5B452 		add	r2, r7, #5760
 767 01fc 02F11002 		add	r2, r2, #16
 768 0200 1360     		str	r3, [r2]
 769 0202 32E0     		b	.L38
 770              	.L40:
 127:pathfinding.h ****             if (pq[i].distance < pq[idx].distance) {
 771              		.loc 1 127 0
 772 0204 07F59261 		add	r1, r7, #1168
 773 0208 07F5B453 		add	r3, r7, #5760
 774 020c 03F11003 		add	r3, r3, #16
 775 0210 1A68     		ldr	r2, [r3]
 776 0212 1346     		mov	r3, r2
 777 0214 5B00     		lsls	r3, r3, #1
 778 0216 1344     		add	r3, r3, r2
 779 0218 9B00     		lsls	r3, r3, #2
 780 021a 0B44     		add	r3, r3, r1
 781 021c 0833     		adds	r3, r3, #8
 782 021e 1968     		ldr	r1, [r3]
 783 0220 07F59260 		add	r0, r7, #1168
 784 0224 07F5B453 		add	r3, r7, #5760
 785 0228 03F11403 		add	r3, r3, #20
 786 022c 1A68     		ldr	r2, [r3]
 787 022e 1346     		mov	r3, r2
 788 0230 5B00     		lsls	r3, r3, #1
 789 0232 1344     		add	r3, r3, r2
 790 0234 9B00     		lsls	r3, r3, #2
 791 0236 0344     		add	r3, r3, r0
 792 0238 0833     		adds	r3, r3, #8
 793 023a 1B68     		ldr	r3, [r3]
 794 023c 9942     		cmp	r1, r3
 795 023e 09DA     		bge	.L39
 128:pathfinding.h ****                 idx = i; // find the shortest distance location 
 796              		.loc 1 128 0
 797 0240 07F5B453 		add	r3, r7, #5760
 798 0244 03F11003 		add	r3, r3, #16
 799 0248 1B68     		ldr	r3, [r3]
 800 024a 07F5B452 		add	r2, r7, #5760
 801 024e 02F11402 		add	r2, r2, #20
 802 0252 1360     		str	r3, [r2]
 803              	.L39:
 126:pathfinding.h ****         for (int i = 1; i < pqSize; i++) {
 804              		.loc 1 126 0 discriminator 2
 805 0254 07F5B453 		add	r3, r7, #5760
 806 0258 03F11003 		add	r3, r3, #16
 807 025c 1B68     		ldr	r3, [r3]
 808 025e 0133     		adds	r3, r3, #1
 809 0260 07F5B452 		add	r2, r7, #5760
 810 0264 02F11002 		add	r2, r2, #16
ARM GAS  C:\Users\ikui753\AppData\Local\Temp\ccMBzjHX.s 			page 18


 811 0268 1360     		str	r3, [r2]
 812              	.L38:
 126:pathfinding.h ****         for (int i = 1; i < pqSize; i++) {
 813              		.loc 1 126 0 is_stmt 0 discriminator 1
 814 026a 07F5B453 		add	r3, r7, #5760
 815 026e 03F11003 		add	r3, r3, #16
 816 0272 1A68     		ldr	r2, [r3]
 817 0274 07F5B553 		add	r3, r7, #5792
 818 0278 03F10403 		add	r3, r3, #4
 819 027c 1B68     		ldr	r3, [r3]
 820 027e 9A42     		cmp	r2, r3
 821 0280 C0DB     		blt	.L40
 822              	.LBE13:
 129:pathfinding.h ****             }
 130:pathfinding.h ****         }
 131:pathfinding.h ****         struct PriorityQueue current = pq[idx]; // record current location
 823              		.loc 1 131 0 is_stmt 1
 824 0282 07F11000 		add	r0, r7, #16
 825 0286 07F59261 		add	r1, r7, #1168
 826 028a 07F5B453 		add	r3, r7, #5760
 827 028e 03F11403 		add	r3, r3, #20
 828 0292 1A68     		ldr	r2, [r3]
 829 0294 1346     		mov	r3, r2
 830 0296 5B00     		lsls	r3, r3, #1
 831 0298 1344     		add	r3, r3, r2
 832 029a 9B00     		lsls	r3, r3, #2
 833 029c CA18     		adds	r2, r1, r3
 834 029e 0346     		mov	r3, r0
 835 02a0 07CA     		ldmia	r2, {r0, r1, r2}
 836 02a2 83E80700 		stmia	r3, {r0, r1, r2}
 132:pathfinding.h ****         pq[idx] = pq[pqSize - 1];
 837              		.loc 1 132 0
 838 02a6 07F5B553 		add	r3, r7, #5792
 839 02aa 03F10403 		add	r3, r3, #4
 840 02ae 1B68     		ldr	r3, [r3]
 841 02b0 5A1E     		subs	r2, r3, #1
 842 02b2 07F59260 		add	r0, r7, #1168
 843 02b6 07F5B453 		add	r3, r7, #5760
 844 02ba 03F11403 		add	r3, r3, #20
 845 02be 1968     		ldr	r1, [r3]
 846 02c0 0B46     		mov	r3, r1
 847 02c2 5B00     		lsls	r3, r3, #1
 848 02c4 0B44     		add	r3, r3, r1
 849 02c6 9B00     		lsls	r3, r3, #2
 850 02c8 1844     		add	r0, r0, r3
 851 02ca 07F59261 		add	r1, r7, #1168
 852 02ce 1346     		mov	r3, r2
 853 02d0 5B00     		lsls	r3, r3, #1
 854 02d2 1344     		add	r3, r3, r2
 855 02d4 9B00     		lsls	r3, r3, #2
 856 02d6 CA18     		adds	r2, r1, r3
 857 02d8 0346     		mov	r3, r0
 858 02da 07CA     		ldmia	r2, {r0, r1, r2}
 859 02dc 83E80700 		stmia	r3, {r0, r1, r2}
 133:pathfinding.h ****         pqSize--; // decrement pqSize
 860              		.loc 1 133 0
 861 02e0 07F5B553 		add	r3, r7, #5792
ARM GAS  C:\Users\ikui753\AppData\Local\Temp\ccMBzjHX.s 			page 19


 862 02e4 03F10403 		add	r3, r3, #4
 863 02e8 1B68     		ldr	r3, [r3]
 864 02ea 013B     		subs	r3, r3, #1
 865 02ec 07F5B552 		add	r2, r7, #5792
 866 02f0 02F10402 		add	r2, r2, #4
 867 02f4 1360     		str	r3, [r2]
 134:pathfinding.h **** 
 135:pathfinding.h ****         int row = current.location.row;
 868              		.loc 1 135 0
 869 02f6 07F11003 		add	r3, r7, #16
 870 02fa 1B68     		ldr	r3, [r3]
 871 02fc 07F5B352 		add	r2, r7, #5728
 872 0300 02F11802 		add	r2, r2, #24
 873 0304 1360     		str	r3, [r2]
 136:pathfinding.h ****         int col = current.location.col; // get current location details
 874              		.loc 1 136 0
 875 0306 07F11003 		add	r3, r7, #16
 876 030a 5B68     		ldr	r3, [r3, #4]
 877 030c 07F5B352 		add	r2, r7, #5728
 878 0310 02F11402 		add	r2, r2, #20
 879 0314 1360     		str	r3, [r2]
 137:pathfinding.h **** 
 138:pathfinding.h ****         if (visitedMap[row][col] == 1) {
 880              		.loc 1 138 0
 881 0316 07F58F51 		add	r1, r7, #4576
 882 031a 01F10C01 		add	r1, r1, #12
 883 031e 07F5B353 		add	r3, r7, #5728
 884 0322 03F11803 		add	r3, r3, #24
 885 0326 1A68     		ldr	r2, [r3]
 886 0328 1346     		mov	r3, r2
 887 032a DB00     		lsls	r3, r3, #3
 888 032c 1344     		add	r3, r3, r2
 889 032e 5B00     		lsls	r3, r3, #1
 890 0330 1344     		add	r3, r3, r2
 891 0332 07F5B352 		add	r2, r7, #5728
 892 0336 02F11402 		add	r2, r2, #20
 893 033a 1268     		ldr	r2, [r2]
 894 033c 1344     		add	r3, r3, r2
 895 033e 51F82330 		ldr	r3, [r1, r3, lsl #2]
 896 0342 012B     		cmp	r3, #1
 897 0344 40F04081 		bne	.L37
 139:pathfinding.h ****             visitedMap[row][col] = 0; // mark as visited if unvisited
 898              		.loc 1 139 0
 899 0348 07F58F51 		add	r1, r7, #4576
 900 034c 01F10C01 		add	r1, r1, #12
 901 0350 07F5B353 		add	r3, r7, #5728
 902 0354 03F11803 		add	r3, r3, #24
 903 0358 1A68     		ldr	r2, [r3]
 904 035a 1346     		mov	r3, r2
 905 035c DB00     		lsls	r3, r3, #3
 906 035e 1344     		add	r3, r3, r2
 907 0360 5B00     		lsls	r3, r3, #1
 908 0362 1344     		add	r3, r3, r2
 909 0364 07F5B352 		add	r2, r7, #5728
 910 0368 02F11402 		add	r2, r2, #20
 911 036c 1268     		ldr	r2, [r2]
 912 036e 1344     		add	r3, r3, r2
ARM GAS  C:\Users\ikui753\AppData\Local\Temp\ccMBzjHX.s 			page 20


 913 0370 0022     		movs	r2, #0
 914 0372 41F82320 		str	r2, [r1, r3, lsl #2]
 140:pathfinding.h **** 
 141:pathfinding.h ****             if (row == targetlocation.row && col == targetlocation.col) {
 915              		.loc 1 141 0
 916 0376 07F5B653 		add	r3, r7, #5824
 917 037a 03F10403 		add	r3, r3, #4
 918 037e 1A68     		ldr	r2, [r3]
 919 0380 07F5B353 		add	r3, r7, #5728
 920 0384 03F11803 		add	r3, r3, #24
 921 0388 1B68     		ldr	r3, [r3]
 922 038a 9A42     		cmp	r2, r3
 923 038c 0CD1     		bne	.L42
 924              		.loc 1 141 0 is_stmt 0 discriminator 1
 925 038e 07F5B653 		add	r3, r7, #5824
 926 0392 03F10803 		add	r3, r3, #8
 927 0396 1A68     		ldr	r2, [r3]
 928 0398 07F5B353 		add	r3, r7, #5728
 929 039c 03F11403 		add	r3, r3, #20
 930 03a0 1B68     		ldr	r3, [r3]
 931 03a2 9A42     		cmp	r2, r3
 932 03a4 00F01981 		beq	.L53
 933              	.L42:
 934              	.LBB14:
 142:pathfinding.h ****                 break; // if reached target destination, end
 143:pathfinding.h ****             }
 144:pathfinding.h ****             // make a move, check if valid
 145:pathfinding.h ****             for (int i = 0; i < sizeof(moves) / sizeof(moves[0]); i++) {
 935              		.loc 1 145 0 is_stmt 1
 936 03a8 0023     		movs	r3, #0
 937 03aa 07F5B452 		add	r2, r7, #5760
 938 03ae 02F10C02 		add	r2, r2, #12
 939 03b2 1360     		str	r3, [r2]
 940 03b4 00E1     		b	.L44
 941              	.L46:
 942              	.LBB15:
 146:pathfinding.h ****                 int newRow = row + moves[i].row;
 943              		.loc 1 146 0
 944 03b6 AE4A     		ldr	r2, .L54
 945 03b8 07F5B453 		add	r3, r7, #5760
 946 03bc 03F10C03 		add	r3, r3, #12
 947 03c0 1B68     		ldr	r3, [r3]
 948 03c2 52F83320 		ldr	r2, [r2, r3, lsl #3]
 949 03c6 07F5B353 		add	r3, r7, #5728
 950 03ca 03F11803 		add	r3, r3, #24
 951 03ce 1B68     		ldr	r3, [r3]
 952 03d0 1344     		add	r3, r3, r2
 953 03d2 07F5B352 		add	r2, r7, #5728
 954 03d6 02F11002 		add	r2, r2, #16
 955 03da 1360     		str	r3, [r2]
 147:pathfinding.h ****                 int newCol = col + moves[i].col;
 956              		.loc 1 147 0
 957 03dc A44A     		ldr	r2, .L54
 958 03de 07F5B453 		add	r3, r7, #5760
 959 03e2 03F10C03 		add	r3, r3, #12
 960 03e6 1B68     		ldr	r3, [r3]
 961 03e8 DB00     		lsls	r3, r3, #3
ARM GAS  C:\Users\ikui753\AppData\Local\Temp\ccMBzjHX.s 			page 21


 962 03ea 1344     		add	r3, r3, r2
 963 03ec 5A68     		ldr	r2, [r3, #4]
 964 03ee 07F5B353 		add	r3, r7, #5728
 965 03f2 03F11403 		add	r3, r3, #20
 966 03f6 1B68     		ldr	r3, [r3]
 967 03f8 1344     		add	r3, r3, r2
 968 03fa 07F5B352 		add	r2, r7, #5728
 969 03fe 02F10C02 		add	r2, r2, #12
 970 0402 1360     		str	r3, [r2]
 148:pathfinding.h **** 
 149:pathfinding.h ****                 if (isValidMove(newRow, newCol, MAX_ROWS, MAX_COLS, map) && visitedMap[newRow][newC
 971              		.loc 1 149 0
 972 0404 07F11003 		add	r3, r7, #16
 973 0408 043B     		subs	r3, r3, #4
 974 040a 1B68     		ldr	r3, [r3]
 975 040c 0093     		str	r3, [sp]
 976 040e 1323     		movs	r3, #19
 977 0410 0F22     		movs	r2, #15
 978 0412 07F5B351 		add	r1, r7, #5728
 979 0416 01F10C01 		add	r1, r1, #12
 980 041a 0968     		ldr	r1, [r1]
 981 041c 07F5B350 		add	r0, r7, #5728
 982 0420 00F11000 		add	r0, r0, #16
 983 0424 0068     		ldr	r0, [r0]
 984 0426 FFF7FEFF 		bl	isValidMove
 985 042a 0346     		mov	r3, r0
 986 042c 002B     		cmp	r3, #0
 987 042e 00F0B880 		beq	.L45
 988              		.loc 1 149 0 is_stmt 0 discriminator 1
 989 0432 07F58F51 		add	r1, r7, #4576
 990 0436 01F10C01 		add	r1, r1, #12
 991 043a 07F5B353 		add	r3, r7, #5728
 992 043e 03F11003 		add	r3, r3, #16
 993 0442 1A68     		ldr	r2, [r3]
 994 0444 1346     		mov	r3, r2
 995 0446 DB00     		lsls	r3, r3, #3
 996 0448 1344     		add	r3, r3, r2
 997 044a 5B00     		lsls	r3, r3, #1
 998 044c 1344     		add	r3, r3, r2
 999 044e 07F5B352 		add	r2, r7, #5728
 1000 0452 02F10C02 		add	r2, r2, #12
 1001 0456 1268     		ldr	r2, [r2]
 1002 0458 1344     		add	r3, r3, r2
 1003 045a 51F82330 		ldr	r3, [r1, r3, lsl #2]
 1004 045e 012B     		cmp	r3, #1
 1005 0460 40F09F80 		bne	.L45
 1006              	.LBB16:
 150:pathfinding.h ****                     int newDistance = distances[row][col] + 1;
 1007              		.loc 1 150 0 is_stmt 1
 1008 0464 07F13002 		add	r2, r7, #48
 1009 0468 143A     		subs	r2, r2, #20
 1010 046a 07F5B353 		add	r3, r7, #5728
 1011 046e 03F11803 		add	r3, r3, #24
 1012 0472 1968     		ldr	r1, [r3]
 1013 0474 0B46     		mov	r3, r1
 1014 0476 DB00     		lsls	r3, r3, #3
 1015 0478 0B44     		add	r3, r3, r1
ARM GAS  C:\Users\ikui753\AppData\Local\Temp\ccMBzjHX.s 			page 22


 1016 047a 5B00     		lsls	r3, r3, #1
 1017 047c 0B44     		add	r3, r3, r1
 1018 047e 07F5B351 		add	r1, r7, #5728
 1019 0482 01F11401 		add	r1, r1, #20
 1020 0486 0968     		ldr	r1, [r1]
 1021 0488 0B44     		add	r3, r3, r1
 1022 048a 52F82330 		ldr	r3, [r2, r3, lsl #2]
 1023 048e 0133     		adds	r3, r3, #1
 1024 0490 07F5B352 		add	r2, r7, #5728
 1025 0494 02F10802 		add	r2, r2, #8
 1026 0498 1360     		str	r3, [r2]
 151:pathfinding.h ****                     // take the shortest distance between new and existing
 152:pathfinding.h ****                     if (newDistance < distances[newRow][newCol]) {
 1027              		.loc 1 152 0
 1028 049a 07F13002 		add	r2, r7, #48
 1029 049e 143A     		subs	r2, r2, #20
 1030 04a0 07F5B353 		add	r3, r7, #5728
 1031 04a4 03F11003 		add	r3, r3, #16
 1032 04a8 1968     		ldr	r1, [r3]
 1033 04aa 0B46     		mov	r3, r1
 1034 04ac DB00     		lsls	r3, r3, #3
 1035 04ae 0B44     		add	r3, r3, r1
 1036 04b0 5B00     		lsls	r3, r3, #1
 1037 04b2 0B44     		add	r3, r3, r1
 1038 04b4 07F5B351 		add	r1, r7, #5728
 1039 04b8 01F10C01 		add	r1, r1, #12
 1040 04bc 0968     		ldr	r1, [r1]
 1041 04be 0B44     		add	r3, r3, r1
 1042 04c0 52F82320 		ldr	r2, [r2, r3, lsl #2]
 1043 04c4 07F5B353 		add	r3, r7, #5728
 1044 04c8 03F10803 		add	r3, r3, #8
 1045 04cc 1B68     		ldr	r3, [r3]
 1046 04ce 9A42     		cmp	r2, r3
 1047 04d0 67DD     		ble	.L45
 153:pathfinding.h ****                         distances[newRow][newCol] = newDistance; // take new distance if less than 
 1048              		.loc 1 153 0
 1049 04d2 07F13002 		add	r2, r7, #48
 1050 04d6 143A     		subs	r2, r2, #20
 1051 04d8 07F5B353 		add	r3, r7, #5728
 1052 04dc 03F11003 		add	r3, r3, #16
 1053 04e0 1968     		ldr	r1, [r3]
 1054 04e2 0B46     		mov	r3, r1
 1055 04e4 DB00     		lsls	r3, r3, #3
 1056 04e6 0B44     		add	r3, r3, r1
 1057 04e8 5B00     		lsls	r3, r3, #1
 1058 04ea 0B44     		add	r3, r3, r1
 1059 04ec 07F5B351 		add	r1, r7, #5728
 1060 04f0 01F10C01 		add	r1, r1, #12
 1061 04f4 0968     		ldr	r1, [r1]
 1062 04f6 0B44     		add	r3, r3, r1
 1063 04f8 07F5B351 		add	r1, r7, #5728
 1064 04fc 01F10801 		add	r1, r1, #8
 1065 0500 0968     		ldr	r1, [r1]
 1066 0502 42F82310 		str	r1, [r2, r3, lsl #2]
 154:pathfinding.h ****                         //paths[stepNum] = (struct Location){newRow, newCol}; // add location to pa
 155:pathfinding.h ****                         
 156:pathfinding.h ****                         pq[pqSize].location.row = newRow; // update location
ARM GAS  C:\Users\ikui753\AppData\Local\Temp\ccMBzjHX.s 			page 23


 1067              		.loc 1 156 0
 1068 0506 07F59261 		add	r1, r7, #1168
 1069 050a 07F5B553 		add	r3, r7, #5792
 1070 050e 03F10403 		add	r3, r3, #4
 1071 0512 1A68     		ldr	r2, [r3]
 1072 0514 1346     		mov	r3, r2
 1073 0516 5B00     		lsls	r3, r3, #1
 1074 0518 1344     		add	r3, r3, r2
 1075 051a 9B00     		lsls	r3, r3, #2
 1076 051c 0B44     		add	r3, r3, r1
 1077 051e 07F5B352 		add	r2, r7, #5728
 1078 0522 02F11002 		add	r2, r2, #16
 1079 0526 1268     		ldr	r2, [r2]
 1080 0528 1A60     		str	r2, [r3]
 157:pathfinding.h ****                         pq[pqSize].location.col = newCol; // update location
 1081              		.loc 1 157 0
 1082 052a 07F59261 		add	r1, r7, #1168
 1083 052e 07F5B553 		add	r3, r7, #5792
 1084 0532 03F10403 		add	r3, r3, #4
 1085 0536 1A68     		ldr	r2, [r3]
 1086 0538 1346     		mov	r3, r2
 1087 053a 5B00     		lsls	r3, r3, #1
 1088 053c 1344     		add	r3, r3, r2
 1089 053e 9B00     		lsls	r3, r3, #2
 1090 0540 0B44     		add	r3, r3, r1
 1091 0542 0433     		adds	r3, r3, #4
 1092 0544 07F5B352 		add	r2, r7, #5728
 1093 0548 02F10C02 		add	r2, r2, #12
 1094 054c 1268     		ldr	r2, [r2]
 1095 054e 1A60     		str	r2, [r3]
 158:pathfinding.h ****                         pq[pqSize].distance = newDistance; // update distance
 1096              		.loc 1 158 0
 1097 0550 07F59261 		add	r1, r7, #1168
 1098 0554 07F5B553 		add	r3, r7, #5792
 1099 0558 03F10403 		add	r3, r3, #4
 1100 055c 1A68     		ldr	r2, [r3]
 1101 055e 1346     		mov	r3, r2
 1102 0560 5B00     		lsls	r3, r3, #1
 1103 0562 1344     		add	r3, r3, r2
 1104 0564 9B00     		lsls	r3, r3, #2
 1105 0566 0B44     		add	r3, r3, r1
 1106 0568 0833     		adds	r3, r3, #8
 1107 056a 07F5B352 		add	r2, r7, #5728
 1108 056e 02F10802 		add	r2, r2, #8
 1109 0572 1268     		ldr	r2, [r2]
 1110 0574 1A60     		str	r2, [r3]
 159:pathfinding.h ****                         
 160:pathfinding.h ****                         stepNum++;
 1111              		.loc 1 160 0
 1112 0576 07F5B453 		add	r3, r7, #5760
 1113 057a 03F11803 		add	r3, r3, #24
 1114 057e 1B68     		ldr	r3, [r3]
 1115 0580 0133     		adds	r3, r3, #1
 1116 0582 07F5B452 		add	r2, r7, #5760
 1117 0586 02F11802 		add	r2, r2, #24
 1118 058a 1360     		str	r3, [r2]
 161:pathfinding.h ****                         pqSize++;
ARM GAS  C:\Users\ikui753\AppData\Local\Temp\ccMBzjHX.s 			page 24


 1119              		.loc 1 161 0
 1120 058c 07F5B553 		add	r3, r7, #5792
 1121 0590 03F10403 		add	r3, r3, #4
 1122 0594 1B68     		ldr	r3, [r3]
 1123 0596 0133     		adds	r3, r3, #1
 1124 0598 07F5B552 		add	r2, r7, #5792
 1125 059c 02F10402 		add	r2, r2, #4
 1126 05a0 1360     		str	r3, [r2]
 1127              	.L45:
 1128              	.LBE16:
 1129              	.LBE15:
 145:pathfinding.h ****                 int newRow = row + moves[i].row;
 1130              		.loc 1 145 0 discriminator 2
 1131 05a2 07F5B453 		add	r3, r7, #5760
 1132 05a6 03F10C03 		add	r3, r3, #12
 1133 05aa 1B68     		ldr	r3, [r3]
 1134 05ac 0133     		adds	r3, r3, #1
 1135 05ae 07F5B452 		add	r2, r7, #5760
 1136 05b2 02F10C02 		add	r2, r2, #12
 1137 05b6 1360     		str	r3, [r2]
 1138              	.L44:
 145:pathfinding.h ****                 int newRow = row + moves[i].row;
 1139              		.loc 1 145 0 is_stmt 0 discriminator 1
 1140 05b8 07F5B453 		add	r3, r7, #5760
 1141 05bc 03F10C03 		add	r3, r3, #12
 1142 05c0 1B68     		ldr	r3, [r3]
 1143 05c2 032B     		cmp	r3, #3
 1144 05c4 7FF6F7AE 		bls	.L46
 1145              	.L37:
 1146              	.LBE14:
 1147              	.LBE12:
 124:pathfinding.h ****         int idx = 0;
 1148              		.loc 1 124 0 is_stmt 1
 1149 05c8 07F5B553 		add	r3, r7, #5792
 1150 05cc 03F10403 		add	r3, r3, #4
 1151 05d0 1B68     		ldr	r3, [r3]
 1152 05d2 002B     		cmp	r3, #0
 1153 05d4 3FF709AE 		bgt	.L47
 1154 05d8 00E0     		b	.L43
 1155              	.L53:
 1156              	.LBB17:
 142:pathfinding.h ****             }
 1157              		.loc 1 142 0
 1158 05da 00BF     		nop
 1159              	.L43:
 1160              	.LBE17:
 162:pathfinding.h ****                     }
 163:pathfinding.h ****                 }
 164:pathfinding.h ****             }
 165:pathfinding.h ****         }
 166:pathfinding.h ****     }
 167:pathfinding.h **** 
 168:pathfinding.h ****     // PATH RECONSTRUCTION
 169:pathfinding.h ****     // initialise maximum distance- will be decremented
 170:pathfinding.h ****     int shortestDist = distances[targetlocation.row][targetlocation.col];
 1161              		.loc 1 170 0
 1162 05dc 07F5B653 		add	r3, r7, #5824
ARM GAS  C:\Users\ikui753\AppData\Local\Temp\ccMBzjHX.s 			page 25


 1163 05e0 03F10403 		add	r3, r3, #4
 1164 05e4 1968     		ldr	r1, [r3]
 1165 05e6 07F5B653 		add	r3, r7, #5824
 1166 05ea 03F10803 		add	r3, r3, #8
 1167 05ee 1868     		ldr	r0, [r3]
 1168 05f0 07F13002 		add	r2, r7, #48
 1169 05f4 143A     		subs	r2, r2, #20
 1170 05f6 0B46     		mov	r3, r1
 1171 05f8 DB00     		lsls	r3, r3, #3
 1172 05fa 0B44     		add	r3, r3, r1
 1173 05fc 5B00     		lsls	r3, r3, #1
 1174 05fe 0B44     		add	r3, r3, r1
 1175 0600 0344     		add	r3, r3, r0
 1176 0602 52F82330 		ldr	r3, [r2, r3, lsl #2]
 1177 0606 07F5B452 		add	r2, r7, #5760
 1178 060a 02F10802 		add	r2, r2, #8
 1179 060e 1360     		str	r3, [r2]
 171:pathfinding.h ****     // retsteps can be generated from here
 172:pathfinding.h ****     //struct Location *retSteps = malloc(sizeof(struct Location) * shortestDist); // store every st
 173:pathfinding.h ****     int currentRow = targetlocation.row;
 1180              		.loc 1 173 0
 1181 0610 07F5B653 		add	r3, r7, #5824
 1182 0614 03F10403 		add	r3, r3, #4
 1183 0618 1B68     		ldr	r3, [r3]
 1184 061a 07F5B452 		add	r2, r7, #5760
 1185 061e 02F10402 		add	r2, r2, #4
 1186 0622 1360     		str	r3, [r2]
 174:pathfinding.h ****     int currentCol = targetlocation.col;
 1187              		.loc 1 174 0
 1188 0624 07F5B653 		add	r3, r7, #5824
 1189 0628 03F10803 		add	r3, r3, #8
 1190 062c 1B68     		ldr	r3, [r3]
 1191 062e 07F5B452 		add	r2, r7, #5760
 1192 0632 1360     		str	r3, [r2]
 175:pathfinding.h ****     //retSteps[shortestDist-1].row = currentRow; 
 176:pathfinding.h ****     //retSteps[shortestDist-1].col = currentCol; // add targetLocation to retSteps
 177:pathfinding.h ****     //printf("retSteps[%d]: %d,%d\n", shortestDist-1, currentRow, currentCol);
 178:pathfinding.h ****     map[currentRow][currentCol] = 'X'; // mark finish location
 1193              		.loc 1 178 0
 1194 0634 07F5B453 		add	r3, r7, #5760
 1195 0638 03F10403 		add	r3, r3, #4
 1196 063c 1A68     		ldr	r2, [r3]
 1197 063e 1346     		mov	r3, r2
 1198 0640 DB00     		lsls	r3, r3, #3
 1199 0642 1344     		add	r3, r3, r2
 1200 0644 5B00     		lsls	r3, r3, #1
 1201 0646 1A44     		add	r2, r2, r3
 1202 0648 07F11003 		add	r3, r7, #16
 1203 064c 043B     		subs	r3, r3, #4
 1204 064e 1B68     		ldr	r3, [r3]
 1205 0650 1A44     		add	r2, r2, r3
 1206 0652 07F5B453 		add	r3, r7, #5760
 1207 0656 1B68     		ldr	r3, [r3]
 1208 0658 1344     		add	r3, r3, r2
 1209 065a 5822     		movs	r2, #88
 1210 065c 1A70     		strb	r2, [r3]
 179:pathfinding.h ****     //printf("%d,%d\n", currentRow, currentCol); // print optimal step
ARM GAS  C:\Users\ikui753\AppData\Local\Temp\ccMBzjHX.s 			page 26


 180:pathfinding.h ****     // reconstruct path by reversing paths array and taking shortest distance
 181:pathfinding.h ****     while(shortestDist > 0) {    
 1211              		.loc 1 181 0
 1212 065e C8E0     		b	.L48
 1213              	.L52:
 1214              	.LBB18:
 182:pathfinding.h ****         // make a move, check if valid and is the next step in path
 183:pathfinding.h ****         for (int i = 0; i < sizeof(moves) / sizeof(moves[0]); i++) {
 1215              		.loc 1 183 0
 1216 0660 0023     		movs	r3, #0
 1217 0662 07F5B352 		add	r2, r7, #5728
 1218 0666 02F11C02 		add	r2, r2, #28
 1219 066a 1360     		str	r3, [r2]
 1220 066c B9E0     		b	.L49
 1221              	.L55:
 1222 066e 00BF     		.align	2
 1223              	.L54:
 1224 0670 00000000 		.word	moves
 1225              	.L51:
 1226              	.LBB19:
 184:pathfinding.h ****             int newRow = currentRow + moves[i].row;
 1227              		.loc 1 184 0
 1228 0674 6A4A     		ldr	r2, .L56
 1229 0676 07F5B353 		add	r3, r7, #5728
 1230 067a 03F11C03 		add	r3, r3, #28
 1231 067e 1B68     		ldr	r3, [r3]
 1232 0680 52F83320 		ldr	r2, [r2, r3, lsl #3]
 1233 0684 07F5B453 		add	r3, r7, #5760
 1234 0688 03F10403 		add	r3, r3, #4
 1235 068c 1B68     		ldr	r3, [r3]
 1236 068e 1344     		add	r3, r3, r2
 1237 0690 07F5B352 		add	r2, r7, #5728
 1238 0694 02F10402 		add	r2, r2, #4
 1239 0698 1360     		str	r3, [r2]
 185:pathfinding.h ****             int newCol = currentCol + moves[i].col;
 1240              		.loc 1 185 0
 1241 069a 614A     		ldr	r2, .L56
 1242 069c 07F5B353 		add	r3, r7, #5728
 1243 06a0 03F11C03 		add	r3, r3, #28
 1244 06a4 1B68     		ldr	r3, [r3]
 1245 06a6 DB00     		lsls	r3, r3, #3
 1246 06a8 1344     		add	r3, r3, r2
 1247 06aa 5A68     		ldr	r2, [r3, #4]
 1248 06ac 07F5B453 		add	r3, r7, #5760
 1249 06b0 1B68     		ldr	r3, [r3]
 1250 06b2 1344     		add	r3, r3, r2
 1251 06b4 07F5B352 		add	r2, r7, #5728
 1252 06b8 1360     		str	r3, [r2]
 186:pathfinding.h **** 
 187:pathfinding.h ****             if (isValidMove(newRow, newCol, MAX_ROWS, MAX_COLS, map) && distances[newRow][newCol] =
 1253              		.loc 1 187 0
 1254 06ba 07F11003 		add	r3, r7, #16
 1255 06be 043B     		subs	r3, r3, #4
 1256 06c0 1B68     		ldr	r3, [r3]
 1257 06c2 0093     		str	r3, [sp]
 1258 06c4 1323     		movs	r3, #19
 1259 06c6 0F22     		movs	r2, #15
ARM GAS  C:\Users\ikui753\AppData\Local\Temp\ccMBzjHX.s 			page 27


 1260 06c8 07F5B351 		add	r1, r7, #5728
 1261 06cc 0968     		ldr	r1, [r1]
 1262 06ce 07F5B350 		add	r0, r7, #5728
 1263 06d2 00F10400 		add	r0, r0, #4
 1264 06d6 0068     		ldr	r0, [r0]
 1265 06d8 FFF7FEFF 		bl	isValidMove
 1266 06dc 0346     		mov	r3, r0
 1267 06de 002B     		cmp	r3, #0
 1268 06e0 74D0     		beq	.L50
 1269              		.loc 1 187 0 is_stmt 0 discriminator 1
 1270 06e2 07F13002 		add	r2, r7, #48
 1271 06e6 143A     		subs	r2, r2, #20
 1272 06e8 07F5B353 		add	r3, r7, #5728
 1273 06ec 03F10403 		add	r3, r3, #4
 1274 06f0 1968     		ldr	r1, [r3]
 1275 06f2 0B46     		mov	r3, r1
 1276 06f4 DB00     		lsls	r3, r3, #3
 1277 06f6 0B44     		add	r3, r3, r1
 1278 06f8 5B00     		lsls	r3, r3, #1
 1279 06fa 0B44     		add	r3, r3, r1
 1280 06fc 07F5B351 		add	r1, r7, #5728
 1281 0700 0968     		ldr	r1, [r1]
 1282 0702 0B44     		add	r3, r3, r1
 1283 0704 52F82320 		ldr	r2, [r2, r3, lsl #2]
 1284 0708 07F5B453 		add	r3, r7, #5760
 1285 070c 03F10803 		add	r3, r3, #8
 1286 0710 1B68     		ldr	r3, [r3]
 1287 0712 013B     		subs	r3, r3, #1
 1288 0714 9A42     		cmp	r2, r3
 1289 0716 59D1     		bne	.L50
 188:pathfinding.h ****                 map[newRow][newCol] = '*'; // mark optimal step
 1290              		.loc 1 188 0 is_stmt 1
 1291 0718 07F5B353 		add	r3, r7, #5728
 1292 071c 03F10403 		add	r3, r3, #4
 1293 0720 1A68     		ldr	r2, [r3]
 1294 0722 1346     		mov	r3, r2
 1295 0724 DB00     		lsls	r3, r3, #3
 1296 0726 1344     		add	r3, r3, r2
 1297 0728 5B00     		lsls	r3, r3, #1
 1298 072a 1A44     		add	r2, r2, r3
 1299 072c 07F11003 		add	r3, r7, #16
 1300 0730 043B     		subs	r3, r3, #4
 1301 0732 1B68     		ldr	r3, [r3]
 1302 0734 1A44     		add	r2, r2, r3
 1303 0736 07F5B353 		add	r3, r7, #5728
 1304 073a 1B68     		ldr	r3, [r3]
 1305 073c 1344     		add	r3, r3, r2
 1306 073e 2A22     		movs	r2, #42
 1307 0740 1A70     		strb	r2, [r3]
 189:pathfinding.h ****                 shortestDist--; // decrement distance
 1308              		.loc 1 189 0
 1309 0742 07F5B453 		add	r3, r7, #5760
 1310 0746 03F10803 		add	r3, r3, #8
 1311 074a 1B68     		ldr	r3, [r3]
 1312 074c 013B     		subs	r3, r3, #1
 1313 074e 07F5B452 		add	r2, r7, #5760
 1314 0752 02F10802 		add	r2, r2, #8
ARM GAS  C:\Users\ikui753\AppData\Local\Temp\ccMBzjHX.s 			page 28


 1315 0756 1360     		str	r3, [r2]
 190:pathfinding.h ****                 currentRow = newRow; 
 1316              		.loc 1 190 0
 1317 0758 07F5B353 		add	r3, r7, #5728
 1318 075c 03F10403 		add	r3, r3, #4
 1319 0760 1B68     		ldr	r3, [r3]
 1320 0762 07F5B452 		add	r2, r7, #5760
 1321 0766 02F10402 		add	r2, r2, #4
 1322 076a 1360     		str	r3, [r2]
 191:pathfinding.h ****                 currentCol = newCol; // change current location
 1323              		.loc 1 191 0
 1324 076c 07F5B353 		add	r3, r7, #5728
 1325 0770 1B68     		ldr	r3, [r3]
 1326 0772 07F5B452 		add	r2, r7, #5760
 1327 0776 1360     		str	r3, [r2]
 192:pathfinding.h ****                 //printf("retSteps[%d]: %d,%d\n", shortestDist,currentRow,currentCol); // print vis
 193:pathfinding.h ****                 //retSteps[shortestDist].row = currentRow; 
 194:pathfinding.h ****                 //retSteps[shortestDist].col = currentCol; // add currentRow and currentCol to rets
 195:pathfinding.h ****                 if(currentRow == startlocation.row && currentCol == startlocation.col) {
 1328              		.loc 1 195 0
 1329 0778 07F11003 		add	r3, r7, #16
 1330 077c 0C3B     		subs	r3, r3, #12
 1331 077e 1A68     		ldr	r2, [r3]
 1332 0780 07F5B453 		add	r3, r7, #5760
 1333 0784 03F10403 		add	r3, r3, #4
 1334 0788 1B68     		ldr	r3, [r3]
 1335 078a 9A42     		cmp	r2, r3
 1336 078c 1ED1     		bne	.L50
 1337              		.loc 1 195 0 is_stmt 0 discriminator 1
 1338 078e 07F11003 		add	r3, r7, #16
 1339 0792 0C3B     		subs	r3, r3, #12
 1340 0794 5A68     		ldr	r2, [r3, #4]
 1341 0796 07F5B453 		add	r3, r7, #5760
 1342 079a 1B68     		ldr	r3, [r3]
 1343 079c 9A42     		cmp	r2, r3
 1344 079e 15D1     		bne	.L50
 196:pathfinding.h ****                     map[currentRow][currentCol] = 'S'; // mark start location
 1345              		.loc 1 196 0 is_stmt 1
 1346 07a0 07F5B453 		add	r3, r7, #5760
 1347 07a4 03F10403 		add	r3, r3, #4
 1348 07a8 1A68     		ldr	r2, [r3]
 1349 07aa 1346     		mov	r3, r2
 1350 07ac DB00     		lsls	r3, r3, #3
 1351 07ae 1344     		add	r3, r3, r2
 1352 07b0 5B00     		lsls	r3, r3, #1
 1353 07b2 1A44     		add	r2, r2, r3
 1354 07b4 07F11003 		add	r3, r7, #16
 1355 07b8 043B     		subs	r3, r3, #4
 1356 07ba 1B68     		ldr	r3, [r3]
 1357 07bc 1A44     		add	r2, r2, r3
 1358 07be 07F5B453 		add	r3, r7, #5760
 1359 07c2 1B68     		ldr	r3, [r3]
 1360 07c4 1344     		add	r3, r3, r2
 1361 07c6 5322     		movs	r2, #83
 1362 07c8 1A70     		strb	r2, [r3]
 197:pathfinding.h ****                     break;
 1363              		.loc 1 197 0
ARM GAS  C:\Users\ikui753\AppData\Local\Temp\ccMBzjHX.s 			page 29


 1364 07ca 12E0     		b	.L48
 1365              	.L50:
 1366              	.LBE19:
 183:pathfinding.h ****             int newRow = currentRow + moves[i].row;
 1367              		.loc 1 183 0 discriminator 2
 1368 07cc 07F5B353 		add	r3, r7, #5728
 1369 07d0 03F11C03 		add	r3, r3, #28
 1370 07d4 1B68     		ldr	r3, [r3]
 1371 07d6 0133     		adds	r3, r3, #1
 1372 07d8 07F5B352 		add	r2, r7, #5728
 1373 07dc 02F11C02 		add	r2, r2, #28
 1374 07e0 1360     		str	r3, [r2]
 1375              	.L49:
 183:pathfinding.h ****             int newRow = currentRow + moves[i].row;
 1376              		.loc 1 183 0 is_stmt 0 discriminator 1
 1377 07e2 07F5B353 		add	r3, r7, #5728
 1378 07e6 03F11C03 		add	r3, r3, #28
 1379 07ea 1B68     		ldr	r3, [r3]
 1380 07ec 032B     		cmp	r3, #3
 1381 07ee 7FF641AF 		bls	.L51
 1382              	.L48:
 1383              	.LBE18:
 181:pathfinding.h ****         // make a move, check if valid and is the next step in path
 1384              		.loc 1 181 0 is_stmt 1
 1385 07f2 07F5B453 		add	r3, r7, #5760
 1386 07f6 03F10803 		add	r3, r3, #8
 1387 07fa 1B68     		ldr	r3, [r3]
 1388 07fc 002B     		cmp	r3, #0
 1389 07fe 3FF72FAF 		bgt	.L52
 198:pathfinding.h ****                 }   
 199:pathfinding.h ****             }
 200:pathfinding.h ****         }
 201:pathfinding.h ****     }
 202:pathfinding.h ****     printMap(map);
 1390              		.loc 1 202 0
 1391 0802 07F11003 		add	r3, r7, #16
 1392 0806 043B     		subs	r3, r3, #4
 1393 0808 1868     		ldr	r0, [r3]
 1394 080a FFF7FEFF 		bl	printMap
 203:pathfinding.h ****     //return retSteps;
 204:pathfinding.h **** }
 1395              		.loc 1 204 0
 1396 080e 00BF     		nop
 1397 0810 07F5B557 		add	r7, r7, #5792
 1398 0814 1437     		adds	r7, r7, #20
 1399              		.cfi_def_cfa_offset 20
 1400 0816 BD46     		mov	sp, r7
 1401              		.cfi_def_cfa_register 13
 1402              		@ sp needed
 1403 0818 BDE89040 		pop	{r4, r7, lr}
 1404              		.cfi_restore 14
 1405              		.cfi_restore 7
 1406              		.cfi_restore 4
 1407              		.cfi_def_cfa_offset 8
 1408 081c 02B0     		add	sp, sp, #8
 1409              		.cfi_def_cfa_offset 0
 1410 081e 7047     		bx	lr
ARM GAS  C:\Users\ikui753\AppData\Local\Temp\ccMBzjHX.s 			page 30


 1411              	.L57:
 1412              		.align	2
 1413              	.L56:
 1414 0820 00000000 		.word	moves
 1415              		.cfi_endproc
 1416              	.LFE68:
 1417              		.size	dijkstra, .-dijkstra
 1418              		.section	.rodata
 1419 0017 00       		.align	2
 1420              	.LC0:
 1421 0018 00000000 		.word	0
 1422 001c 01000000 		.word	1
 1423 0020 00000000 		.word	0
 1424 0024 FFFFFFFF 		.word	-1
 1425 0028 01000000 		.word	1
 1426 002c 00000000 		.word	0
 1427 0030 FFFFFFFF 		.word	-1
 1428 0034 00000000 		.word	0
 1429              		.section	.text.traverseMap,"ax",%progbits
 1430              		.align	2
 1431              		.global	traverseMap
 1432              		.thumb
 1433              		.thumb_func
 1434              		.type	traverseMap, %function
 1435              	traverseMap:
 1436              	.LFB69:
 205:pathfinding.h **** 
 206:pathfinding.h **** void traverseMap(char map[MAX_ROWS][MAX_COLS], struct Location startLocation, struct Location targe
 1437              		.loc 1 206 0
 1438              		.cfi_startproc
 1439              		@ args = 12, pretend = 8, frame = 1224
 1440              		@ frame_needed = 1, uses_anonymous_args = 0
 1441              		@ link register save eliminated.
 1442 0000 82B0     		sub	sp, sp, #8
 1443              		.cfi_def_cfa_offset 8
 1444 0002 B0B4     		push	{r4, r5, r7}
 1445              		.cfi_def_cfa_offset 20
 1446              		.cfi_offset 4, -20
 1447              		.cfi_offset 5, -16
 1448              		.cfi_offset 7, -12
 1449 0004 ADF2CC4D 		subw	sp, sp, #1228
 1450              		.cfi_def_cfa_offset 1248
 1451 0008 00AF     		add	r7, sp, #0
 1452              		.cfi_def_cfa_register 7
 1453 000a 07F10C04 		add	r4, r7, #12
 1454 000e 2060     		str	r0, [r4]
 1455 0010 381D     		adds	r0, r7, #4
 1456 0012 80E80600 		stmia	r0, {r1, r2}
 1457 0016 C7F8DC34 		str	r3, [r7, #1244]
 207:pathfinding.h ****     int currentRow = startLocation.row;
 1458              		.loc 1 207 0
 1459 001a 3B1D     		adds	r3, r7, #4
 1460 001c 1B68     		ldr	r3, [r3]
 1461 001e C7F8B834 		str	r3, [r7, #1208]
 208:pathfinding.h ****     int currentCol = startLocation.col; // get starting location
 1462              		.loc 1 208 0
 1463 0022 3B1D     		adds	r3, r7, #4
ARM GAS  C:\Users\ikui753\AppData\Local\Temp\ccMBzjHX.s 			page 31


 1464 0024 5B68     		ldr	r3, [r3, #4]
 1465 0026 C7F8B434 		str	r3, [r7, #1204]
 209:pathfinding.h ****     bool leftOrient, rightOrient, upOrient, downOrient = false; // initialise orientation booleans-
 1466              		.loc 1 209 0
 1467 002a 0023     		movs	r3, #0
 1468 002c 87F8B334 		strb	r3, [r7, #1203]
 210:pathfinding.h ****     struct Location moves[] = { {0, 1}, {0, -1}, {1, 0}, {-1, 0} }; // initialise moves
 1469              		.loc 1 210 0
 1470 0030 5F4B     		ldr	r3, .L77
 1471 0032 07F28444 		addw	r4, r7, #1156
 1472 0036 1D46     		mov	r5, r3
 1473 0038 0FCD     		ldmia	r5!, {r0, r1, r2, r3}
 1474 003a 0FC4     		stmia	r4!, {r0, r1, r2, r3}
 1475 003c 95E80F00 		ldmia	r5, {r0, r1, r2, r3}
 1476 0040 84E80F00 		stmia	r4, {r0, r1, r2, r3}
 1477              	.LBB20:
 211:pathfinding.h ****     int visited[MAX_ROWS][MAX_COLS];
 212:pathfinding.h ****     for(int i = 0; i < MAX_ROWS; i++) {
 1478              		.loc 1 212 0
 1479 0044 0023     		movs	r3, #0
 1480 0046 C7F8C434 		str	r3, [r7, #1220]
 1481 004a 20E0     		b	.L59
 1482              	.L62:
 1483              	.LBB21:
 213:pathfinding.h ****         for(int j = 0; j < MAX_COLS; j++) {
 1484              		.loc 1 213 0
 1485 004c 0023     		movs	r3, #0
 1486 004e C7F8C034 		str	r3, [r7, #1216]
 1487 0052 13E0     		b	.L60
 1488              	.L61:
 214:pathfinding.h ****             visited[i][j] = 0; // initialise all points as unvisited
 1489              		.loc 1 214 0 discriminator 3
 1490 0054 07F11001 		add	r1, r7, #16
 1491 0058 D7F8C424 		ldr	r2, [r7, #1220]
 1492 005c 1346     		mov	r3, r2
 1493 005e DB00     		lsls	r3, r3, #3
 1494 0060 1344     		add	r3, r3, r2
 1495 0062 5B00     		lsls	r3, r3, #1
 1496 0064 1344     		add	r3, r3, r2
 1497 0066 D7F8C024 		ldr	r2, [r7, #1216]
 1498 006a 1344     		add	r3, r3, r2
 1499 006c 0022     		movs	r2, #0
 1500 006e 41F82320 		str	r2, [r1, r3, lsl #2]
 213:pathfinding.h ****         for(int j = 0; j < MAX_COLS; j++) {
 1501              		.loc 1 213 0 discriminator 3
 1502 0072 D7F8C034 		ldr	r3, [r7, #1216]
 1503 0076 0133     		adds	r3, r3, #1
 1504 0078 C7F8C034 		str	r3, [r7, #1216]
 1505              	.L60:
 213:pathfinding.h ****         for(int j = 0; j < MAX_COLS; j++) {
 1506              		.loc 1 213 0 is_stmt 0 discriminator 1
 1507 007c D7F8C034 		ldr	r3, [r7, #1216]
 1508 0080 122B     		cmp	r3, #18
 1509 0082 E7DD     		ble	.L61
 1510              	.LBE21:
 212:pathfinding.h ****         for(int j = 0; j < MAX_COLS; j++) {
 1511              		.loc 1 212 0 is_stmt 1 discriminator 2
ARM GAS  C:\Users\ikui753\AppData\Local\Temp\ccMBzjHX.s 			page 32


 1512 0084 D7F8C434 		ldr	r3, [r7, #1220]
 1513 0088 0133     		adds	r3, r3, #1
 1514 008a C7F8C434 		str	r3, [r7, #1220]
 1515              	.L59:
 212:pathfinding.h ****         for(int j = 0; j < MAX_COLS; j++) {
 1516              		.loc 1 212 0 is_stmt 0 discriminator 1
 1517 008e D7F8C434 		ldr	r3, [r7, #1220]
 1518 0092 0E2B     		cmp	r3, #14
 1519 0094 DADD     		ble	.L62
 1520              	.LBE20:
 215:pathfinding.h ****         }
 216:pathfinding.h ****     }
 217:pathfinding.h ****         // traverse map, check for * or X until targetLocation reached
 218:pathfinding.h ****     while (currentRow != targetLocation.row && currentCol != targetLocation.col) {
 1521              		.loc 1 218 0 is_stmt 1
 1522 0096 77E0     		b	.L63
 1523              	.L74:
 1524              	.LBB22:
 219:pathfinding.h ****         for(int i = 0; i < 4; i++) {
 1525              		.loc 1 219 0
 1526 0098 0023     		movs	r3, #0
 1527 009a C7F8BC34 		str	r3, [r7, #1212]
 1528 009e 6FE0     		b	.L64
 1529              	.L72:
 1530              	.LBB23:
 220:pathfinding.h ****             int newRow = currentRow + moves[i].row;
 1531              		.loc 1 220 0
 1532 00a0 D7F8BC34 		ldr	r3, [r7, #1212]
 1533 00a4 DB00     		lsls	r3, r3, #3
 1534 00a6 07F59962 		add	r2, r7, #1224
 1535 00aa 1344     		add	r3, r3, r2
 1536 00ac 53F8442C 		ldr	r2, [r3, #-68]
 1537 00b0 D7F8B834 		ldr	r3, [r7, #1208]
 1538 00b4 1344     		add	r3, r3, r2
 1539 00b6 C7F8AC34 		str	r3, [r7, #1196]
 221:pathfinding.h ****             int newCol = currentCol + moves[i].col;
 1540              		.loc 1 221 0
 1541 00ba D7F8BC34 		ldr	r3, [r7, #1212]
 1542 00be DB00     		lsls	r3, r3, #3
 1543 00c0 07F59962 		add	r2, r7, #1224
 1544 00c4 1344     		add	r3, r3, r2
 1545 00c6 53F8402C 		ldr	r2, [r3, #-64]
 1546 00ca D7F8B434 		ldr	r3, [r7, #1204]
 1547 00ce 1344     		add	r3, r3, r2
 1548 00d0 C7F8A834 		str	r3, [r7, #1192]
 222:pathfinding.h **** 
 223:pathfinding.h ****             // check next step in path and rotate and move accordingly- begin traversal
 224:pathfinding.h ****             if(map[newRow][newCol] == 'x' && visited[newRow][newCol] == 0) {
 1549              		.loc 1 224 0
 1550 00d4 D7F8AC24 		ldr	r2, [r7, #1196]
 1551 00d8 1346     		mov	r3, r2
 1552 00da DB00     		lsls	r3, r3, #3
 1553 00dc 1344     		add	r3, r3, r2
 1554 00de 5B00     		lsls	r3, r3, #1
 1555 00e0 1344     		add	r3, r3, r2
 1556 00e2 07F10C02 		add	r2, r7, #12
 1557 00e6 1268     		ldr	r2, [r2]
ARM GAS  C:\Users\ikui753\AppData\Local\Temp\ccMBzjHX.s 			page 33


 1558 00e8 1A44     		add	r2, r2, r3
 1559 00ea D7F8A834 		ldr	r3, [r7, #1192]
 1560 00ee 1344     		add	r3, r3, r2
 1561 00f0 1B78     		ldrb	r3, [r3]	@ zero_extendqisi2
 1562 00f2 782B     		cmp	r3, #120
 1563 00f4 3FD1     		bne	.L65
 1564              		.loc 1 224 0 is_stmt 0 discriminator 1
 1565 00f6 07F11001 		add	r1, r7, #16
 1566 00fa D7F8AC24 		ldr	r2, [r7, #1196]
 1567 00fe 1346     		mov	r3, r2
 1568 0100 DB00     		lsls	r3, r3, #3
 1569 0102 1344     		add	r3, r3, r2
 1570 0104 5B00     		lsls	r3, r3, #1
 1571 0106 1344     		add	r3, r3, r2
 1572 0108 D7F8A824 		ldr	r2, [r7, #1192]
 1573 010c 1344     		add	r3, r3, r2
 1574 010e 51F82330 		ldr	r3, [r1, r3, lsl #2]
 1575 0112 002B     		cmp	r3, #0
 1576 0114 2FD1     		bne	.L65
 225:pathfinding.h ****                 visited[newRow][newCol] = 1; // mark new location as visited
 1577              		.loc 1 225 0 is_stmt 1
 1578 0116 07F11001 		add	r1, r7, #16
 1579 011a D7F8AC24 		ldr	r2, [r7, #1196]
 1580 011e 1346     		mov	r3, r2
 1581 0120 DB00     		lsls	r3, r3, #3
 1582 0122 1344     		add	r3, r3, r2
 1583 0124 5B00     		lsls	r3, r3, #1
 1584 0126 1344     		add	r3, r3, r2
 1585 0128 D7F8A824 		ldr	r2, [r7, #1192]
 1586 012c 1344     		add	r3, r3, r2
 1587 012e 0122     		movs	r2, #1
 1588 0130 41F82320 		str	r2, [r1, r3, lsl #2]
 226:pathfinding.h ****                 // move robot NEED TO CALIBRATE FOR DISTANCES AND DETERMINE ORIENTATION TO SEE IF A
 227:pathfinding.h ****                 switch (i)
 1589              		.loc 1 227 0
 1590 0134 D7F8BC34 		ldr	r3, [r7, #1212]
 1591 0138 032B     		cmp	r3, #3
 1592 013a 1BD8     		bhi	.L75
 1593 013c 01A2     		adr	r2, .L68
 1594 013e 52F823F0 		ldr	pc, [r2, r3, lsl #2]
 1595 0142 00BF     		.p2align 2
 1596              	.L68:
 1597 0144 55010000 		.word	.L67+1
 1598 0148 5D010000 		.word	.L69+1
 1599 014c 65010000 		.word	.L70+1
 1600 0150 6D010000 		.word	.L71+1
 1601              		.p2align 1
 1602              	.L67:
 228:pathfinding.h ****                 {
 229:pathfinding.h ****                 case 0:
 230:pathfinding.h ****                     // increment column (move right)
 231:pathfinding.h ****                     if(upOrient) {
 232:pathfinding.h ****                         // rotation clockwise
 233:pathfinding.h ****                     } else if(downOrient) {
 234:pathfinding.h ****                         // rotation anticlockwise
 235:pathfinding.h ****                     }
 236:pathfinding.h ****                     rightOrient = true;
ARM GAS  C:\Users\ikui753\AppData\Local\Temp\ccMBzjHX.s 			page 34


 1603              		.loc 1 236 0
 1604 0154 0123     		movs	r3, #1
 1605 0156 87F8A734 		strb	r3, [r7, #1191]
 237:pathfinding.h ****                     // MOVE FORWARD
 238:pathfinding.h ****                     // STOP
 239:pathfinding.h ****                     break;
 1606              		.loc 1 239 0
 1607 015a 0CE0     		b	.L65
 1608              	.L69:
 240:pathfinding.h ****                 case 1:
 241:pathfinding.h ****                     // decrement column (move left)
 242:pathfinding.h ****                     if(upOrient) {
 243:pathfinding.h ****                         // rotation anticlockwise
 244:pathfinding.h ****                     } else if(downOrient) {
 245:pathfinding.h ****                         // rotation clockwise
 246:pathfinding.h ****                     }
 247:pathfinding.h ****                     leftOrient = true;
 1609              		.loc 1 247 0
 1610 015c 0123     		movs	r3, #1
 1611 015e 87F8A634 		strb	r3, [r7, #1190]
 248:pathfinding.h ****                     // MOVE FORWARD 
 249:pathfinding.h ****                     // STOP
 250:pathfinding.h ****                     break;
 1612              		.loc 1 250 0
 1613 0162 08E0     		b	.L65
 1614              	.L70:
 251:pathfinding.h ****                 case 2:
 252:pathfinding.h ****                     // increment row (move up)
 253:pathfinding.h ****                     if(rightOrient) {
 254:pathfinding.h ****                         // rotation anticlockwise
 255:pathfinding.h ****                     } else if(leftOrient) {
 256:pathfinding.h ****                         // rotation clockwise
 257:pathfinding.h ****                     }
 258:pathfinding.h ****                     upOrient = true;
 1615              		.loc 1 258 0
 1616 0164 0123     		movs	r3, #1
 1617 0166 87F8A534 		strb	r3, [r7, #1189]
 259:pathfinding.h ****                     // MOVE FORWARD
 260:pathfinding.h ****                     // stop
 261:pathfinding.h ****                     break;
 1618              		.loc 1 261 0
 1619 016a 04E0     		b	.L65
 1620              	.L71:
 262:pathfinding.h ****                 case 3:
 263:pathfinding.h ****                     // decrement row (move down)
 264:pathfinding.h ****                     if(rightOrient) {
 265:pathfinding.h ****                         // rotation clockwise
 266:pathfinding.h ****                     } else if(leftOrient) {
 267:pathfinding.h ****                         // rotation anticlockwise
 268:pathfinding.h ****                     }
 269:pathfinding.h ****                     downOrient = true;
 1621              		.loc 1 269 0
 1622 016c 0123     		movs	r3, #1
 1623 016e 87F8B334 		strb	r3, [r7, #1203]
 270:pathfinding.h ****                     // MOVE FORWARD
 271:pathfinding.h ****                     // STOP
 272:pathfinding.h ****                     break;
ARM GAS  C:\Users\ikui753\AppData\Local\Temp\ccMBzjHX.s 			page 35


 1624              		.loc 1 272 0
 1625 0172 00E0     		b	.L65
 1626              	.L75:
 273:pathfinding.h ****                 default:
 274:pathfinding.h ****                     break;
 1627              		.loc 1 274 0
 1628 0174 00BF     		nop
 1629              	.L65:
 1630              	.LBE23:
 219:pathfinding.h ****             int newRow = currentRow + moves[i].row;
 1631              		.loc 1 219 0 discriminator 2
 1632 0176 D7F8BC34 		ldr	r3, [r7, #1212]
 1633 017a 0133     		adds	r3, r3, #1
 1634 017c C7F8BC34 		str	r3, [r7, #1212]
 1635              	.L64:
 219:pathfinding.h ****             int newRow = currentRow + moves[i].row;
 1636              		.loc 1 219 0 is_stmt 0 discriminator 1
 1637 0180 D7F8BC34 		ldr	r3, [r7, #1212]
 1638 0184 032B     		cmp	r3, #3
 1639 0186 8BDD     		ble	.L72
 1640              	.L63:
 1641              	.LBE22:
 218:pathfinding.h ****         for(int i = 0; i < 4; i++) {
 1642              		.loc 1 218 0 is_stmt 1
 1643 0188 D7F8DC24 		ldr	r2, [r7, #1244]
 1644 018c D7F8B834 		ldr	r3, [r7, #1208]
 1645 0190 9A42     		cmp	r2, r3
 1646 0192 06D0     		beq	.L76
 218:pathfinding.h ****         for(int i = 0; i < 4; i++) {
 1647              		.loc 1 218 0 is_stmt 0 discriminator 1
 1648 0194 D7F8E024 		ldr	r2, [r7, #1248]
 1649 0198 D7F8B434 		ldr	r3, [r7, #1204]
 1650 019c 9A42     		cmp	r2, r3
 1651 019e 7FF47BAF 		bne	.L74
 1652              	.L76:
 275:pathfinding.h ****                 }
 276:pathfinding.h ****             }
 277:pathfinding.h ****         }
 278:pathfinding.h ****     }
 279:pathfinding.h **** }
 1653              		.loc 1 279 0 is_stmt 1
 1654 01a2 00BF     		nop
 1655 01a4 07F2CC47 		addw	r7, r7, #1228
 1656              		.cfi_def_cfa_offset 20
 1657 01a8 BD46     		mov	sp, r7
 1658              		.cfi_def_cfa_register 13
 1659              		@ sp needed
 1660 01aa B0BC     		pop	{r4, r5, r7}
 1661              		.cfi_restore 7
 1662              		.cfi_restore 5
 1663              		.cfi_restore 4
 1664              		.cfi_def_cfa_offset 8
 1665 01ac 02B0     		add	sp, sp, #8
 1666              		.cfi_def_cfa_offset 0
 1667 01ae 7047     		bx	lr
 1668              	.L78:
 1669              		.align	2
ARM GAS  C:\Users\ikui753\AppData\Local\Temp\ccMBzjHX.s 			page 36


 1670              	.L77:
 1671 01b0 18000000 		.word	.LC0
 1672              		.cfi_endproc
 1673              	.LFE69:
 1674              		.size	traverseMap, .-traverseMap
 1675              		.section	.text.init,"ax",%progbits
 1676              		.align	2
 1677              		.global	init
 1678              		.thumb
 1679              		.thumb_func
 1680              		.type	init, %function
 1681              	init:
 1682              	.LFB70:
 1683              		.file 2 "initialise.h"
   1:initialise.h  **** /* ========================================
   2:initialise.h  ****  *
   3:initialise.h  ****  * Copyright YOUR COMPANY, THE YEAR
   4:initialise.h  ****  * All Rights Reserved
   5:initialise.h  ****  * UNPUBLISHED, LICENSED SOFTWARE.
   6:initialise.h  ****  *
   7:initialise.h  ****  * CONFIDENTIAL AND PROPRIETARY INFORMATION
   8:initialise.h  ****  * WHICH IS THE PROPERTY OF your company.
   9:initialise.h  ****  *
  10:initialise.h  ****  * ========================================
  11:initialise.h  **** */
  12:initialise.h  **** #include <stdio.h>
  13:initialise.h  **** #include <string.h>
  14:initialise.h  **** #include <stdlib.h>
  15:initialise.h  **** #include <project.h>
  16:initialise.h  **** //* ========================================
  17:initialise.h  **** 
  18:initialise.h  **** void init() {
 1684              		.loc 2 18 0
 1685              		.cfi_startproc
 1686              		@ args = 0, pretend = 0, frame = 0
 1687              		@ frame_needed = 1, uses_anonymous_args = 0
 1688 0000 80B5     		push	{r7, lr}
 1689              		.cfi_def_cfa_offset 8
 1690              		.cfi_offset 7, -8
 1691              		.cfi_offset 14, -4
 1692 0002 00AF     		add	r7, sp, #0
 1693              		.cfi_def_cfa_register 7
  19:initialise.h  ****     Clock_PWM_Start();
 1694              		.loc 2 19 0
 1695 0004 FFF7FEFF 		bl	Clock_PWM_Start
  20:initialise.h  ****     PWM_1_Start();
 1696              		.loc 2 20 0
 1697 0008 FFF7FEFF 		bl	PWM_1_Start
  21:initialise.h  ****     PWM_1_WritePeriod(100);
 1698              		.loc 2 21 0
 1699 000c 6420     		movs	r0, #100
 1700 000e FFF7FEFF 		bl	PWM_1_WritePeriod
  22:initialise.h  ****     PWM_2_Start();
 1701              		.loc 2 22 0
 1702 0012 FFF7FEFF 		bl	PWM_2_Start
  23:initialise.h  ****     PWM_2_WritePeriod(100);
 1703              		.loc 2 23 0
ARM GAS  C:\Users\ikui753\AppData\Local\Temp\ccMBzjHX.s 			page 37


 1704 0016 6420     		movs	r0, #100
 1705 0018 FFF7FEFF 		bl	PWM_2_WritePeriod
  24:initialise.h  **** 
  25:initialise.h  ****     // start quadrature decoders
  26:initialise.h  ****     QuadDec_M1_Start();
 1706              		.loc 2 26 0
 1707 001c FFF7FEFF 		bl	QuadDec_M1_Start
  27:initialise.h  ****     QuadDec_M2_Start();
 1708              		.loc 2 27 0
 1709 0020 FFF7FEFF 		bl	QuadDec_M2_Start
  28:initialise.h  ****     SpeedTimer_Start();
 1710              		.loc 2 28 0
 1711 0024 FFF7FEFF 		bl	SpeedTimer_Start
  29:initialise.h  ****     SpeedClock_Start();
 1712              		.loc 2 29 0
 1713 0028 FFF7FEFF 		bl	SpeedClock_Start
  30:initialise.h  **** }
 1714              		.loc 2 30 0
 1715 002c 00BF     		nop
 1716 002e 80BD     		pop	{r7, pc}
 1717              		.cfi_endproc
 1718              	.LFE70:
 1719              		.size	init, .-init
 1720              		.section	.text.stopMoving,"ax",%progbits
 1721              		.align	2
 1722              		.global	stopMoving
 1723              		.thumb
 1724              		.thumb_func
 1725              		.type	stopMoving, %function
 1726              	stopMoving:
 1727              	.LFB71:
 1728              		.file 3 "movement.h"
   1:movement.h    **** /* ========================================
   2:movement.h    ****  *
   3:movement.h    ****  * Copyright YOUR COMPANY, THE YEAR
   4:movement.h    ****  * All Rights Reserved
   5:movement.h    ****  * UNPUBLISHED, LICENSED SOFTWARE.
   6:movement.h    ****  *
   7:movement.h    ****  * CONFIDENTIAL AND PROPRIETARY INFORMATION
   8:movement.h    ****  * WHICH IS THE PROPERTY OF your company.
   9:movement.h    ****  *
  10:movement.h    ****  * ========================================
  11:movement.h    **** */
  12:movement.h    **** #include "project.h"
  13:movement.h    **** #include <stdio.h>
  14:movement.h    **** #include <string.h>
  15:movement.h    **** #include <stdlib.h>
  16:movement.h    **** 
  17:movement.h    **** 
  18:movement.h    **** // Direction/ Movement macros
  19:movement.h    **** //* ========================================
  20:movement.h    **** // stop moving
  21:movement.h    **** void stopMoving() {
 1729              		.loc 3 21 0
 1730              		.cfi_startproc
 1731              		@ args = 0, pretend = 0, frame = 0
 1732              		@ frame_needed = 1, uses_anonymous_args = 0
ARM GAS  C:\Users\ikui753\AppData\Local\Temp\ccMBzjHX.s 			page 38


 1733 0000 80B5     		push	{r7, lr}
 1734              		.cfi_def_cfa_offset 8
 1735              		.cfi_offset 7, -8
 1736              		.cfi_offset 14, -4
 1737 0002 00AF     		add	r7, sp, #0
 1738              		.cfi_def_cfa_register 7
  22:movement.h    ****     PWM_1_WriteCompare(50);
 1739              		.loc 3 22 0
 1740 0004 3220     		movs	r0, #50
 1741 0006 FFF7FEFF 		bl	PWM_1_WriteCompare
  23:movement.h    ****     PWM_2_WriteCompare(50);
 1742              		.loc 3 23 0
 1743 000a 3220     		movs	r0, #50
 1744 000c FFF7FEFF 		bl	PWM_2_WriteCompare
  24:movement.h    **** }
 1745              		.loc 3 24 0
 1746 0010 00BF     		nop
 1747 0012 80BD     		pop	{r7, pc}
 1748              		.cfi_endproc
 1749              	.LFE71:
 1750              		.size	stopMoving, .-stopMoving
 1751              		.section	.text.rotationClockwise,"ax",%progbits
 1752              		.align	2
 1753              		.global	rotationClockwise
 1754              		.thumb
 1755              		.thumb_func
 1756              		.type	rotationClockwise, %function
 1757              	rotationClockwise:
 1758              	.LFB72:
  25:movement.h    **** 
  26:movement.h    **** // rotate clockwise 90deg
  27:movement.h    **** void rotationClockwise() {
 1759              		.loc 3 27 0
 1760              		.cfi_startproc
 1761              		@ args = 0, pretend = 0, frame = 8
 1762              		@ frame_needed = 1, uses_anonymous_args = 0
 1763 0000 80B5     		push	{r7, lr}
 1764              		.cfi_def_cfa_offset 8
 1765              		.cfi_offset 7, -8
 1766              		.cfi_offset 14, -4
 1767 0002 82B0     		sub	sp, sp, #8
 1768              		.cfi_def_cfa_offset 16
 1769 0004 00AF     		add	r7, sp, #0
 1770              		.cfi_def_cfa_register 7
  28:movement.h    ****     PWM_1_WriteCompare(65);
 1771              		.loc 3 28 0
 1772 0006 4120     		movs	r0, #65
 1773 0008 FFF7FEFF 		bl	PWM_1_WriteCompare
  29:movement.h    ****     PWM_2_WriteCompare(65);
 1774              		.loc 3 29 0
 1775 000c 4120     		movs	r0, #65
 1776 000e FFF7FEFF 		bl	PWM_2_WriteCompare
  30:movement.h    ****     
  31:movement.h    ****     int quadPulseCount = 0;
 1777              		.loc 3 31 0
 1778 0012 0023     		movs	r3, #0
 1779 0014 7B60     		str	r3, [r7, #4]
ARM GAS  C:\Users\ikui753\AppData\Local\Temp\ccMBzjHX.s 			page 39


  32:movement.h    ****     QuadDec_M1_SetCounter(0);
 1780              		.loc 3 32 0
 1781 0016 0020     		movs	r0, #0
 1782 0018 FFF7FEFF 		bl	QuadDec_M1_SetCounter
  33:movement.h    ****     while(quadPulseCount < 110) {
 1783              		.loc 3 33 0
 1784 001c 03E0     		b	.L82
 1785              	.L83:
  34:movement.h    ****         quadPulseCount = QuadDec_M1_GetCounter();
 1786              		.loc 3 34 0
 1787 001e FFF7FEFF 		bl	QuadDec_M1_GetCounter
 1788 0022 0346     		mov	r3, r0
 1789 0024 7B60     		str	r3, [r7, #4]
 1790              	.L82:
  33:movement.h    ****     while(quadPulseCount < 110) {
 1791              		.loc 3 33 0
 1792 0026 7B68     		ldr	r3, [r7, #4]
 1793 0028 6D2B     		cmp	r3, #109
 1794 002a F8DD     		ble	.L83
  35:movement.h    ****     }
  36:movement.h    ****     QuadDec_M1_SetCounter(0);
 1795              		.loc 3 36 0
 1796 002c 0020     		movs	r0, #0
 1797 002e FFF7FEFF 		bl	QuadDec_M1_SetCounter
  37:movement.h    ****     //CyDelay(500); // change to quadrature encoder pulses, rather than time delay
  38:movement.h    ****     //stopMoving(); // stop movement, ready for next instruction
  39:movement.h    **** }
 1798              		.loc 3 39 0
 1799 0032 00BF     		nop
 1800 0034 0837     		adds	r7, r7, #8
 1801              		.cfi_def_cfa_offset 8
 1802 0036 BD46     		mov	sp, r7
 1803              		.cfi_def_cfa_register 13
 1804              		@ sp needed
 1805 0038 80BD     		pop	{r7, pc}
 1806              		.cfi_endproc
 1807              	.LFE72:
 1808              		.size	rotationClockwise, .-rotationClockwise
 1809 003a 00BF     		.section	.text.rotationAntiClockwise,"ax",%progbits
 1810              		.align	2
 1811              		.global	rotationAntiClockwise
 1812              		.thumb
 1813              		.thumb_func
 1814              		.type	rotationAntiClockwise, %function
 1815              	rotationAntiClockwise:
 1816              	.LFB73:
  40:movement.h    **** 
  41:movement.h    **** // rotate anticlockwise 90deg
  42:movement.h    **** void rotationAntiClockwise() {
 1817              		.loc 3 42 0
 1818              		.cfi_startproc
 1819              		@ args = 0, pretend = 0, frame = 8
 1820              		@ frame_needed = 1, uses_anonymous_args = 0
 1821 0000 80B5     		push	{r7, lr}
 1822              		.cfi_def_cfa_offset 8
 1823              		.cfi_offset 7, -8
 1824              		.cfi_offset 14, -4
ARM GAS  C:\Users\ikui753\AppData\Local\Temp\ccMBzjHX.s 			page 40


 1825 0002 82B0     		sub	sp, sp, #8
 1826              		.cfi_def_cfa_offset 16
 1827 0004 00AF     		add	r7, sp, #0
 1828              		.cfi_def_cfa_register 7
  43:movement.h    ****     PWM_1_WriteCompare(35);
 1829              		.loc 3 43 0
 1830 0006 2320     		movs	r0, #35
 1831 0008 FFF7FEFF 		bl	PWM_1_WriteCompare
  44:movement.h    ****     PWM_2_WriteCompare(35);
 1832              		.loc 3 44 0
 1833 000c 2320     		movs	r0, #35
 1834 000e FFF7FEFF 		bl	PWM_2_WriteCompare
  45:movement.h    ****     
  46:movement.h    ****     int quadPulseCount = 0;
 1835              		.loc 3 46 0
 1836 0012 0023     		movs	r3, #0
 1837 0014 7B60     		str	r3, [r7, #4]
  47:movement.h    ****     QuadDec_M1_SetCounter(0);
 1838              		.loc 3 47 0
 1839 0016 0020     		movs	r0, #0
 1840 0018 FFF7FEFF 		bl	QuadDec_M1_SetCounter
  48:movement.h    ****     while(quadPulseCount > -105) {
 1841              		.loc 3 48 0
 1842 001c 03E0     		b	.L85
 1843              	.L86:
  49:movement.h    ****         quadPulseCount = QuadDec_M1_GetCounter();  
 1844              		.loc 3 49 0
 1845 001e FFF7FEFF 		bl	QuadDec_M1_GetCounter
 1846 0022 0346     		mov	r3, r0
 1847 0024 7B60     		str	r3, [r7, #4]
 1848              	.L85:
  48:movement.h    ****     while(quadPulseCount > -105) {
 1849              		.loc 3 48 0
 1850 0026 7B68     		ldr	r3, [r7, #4]
 1851 0028 13F1680F 		cmn	r3, #104
 1852 002c F7DA     		bge	.L86
  50:movement.h    ****     }
  51:movement.h    ****     QuadDec_M1_SetCounter(0);
 1853              		.loc 3 51 0
 1854 002e 0020     		movs	r0, #0
 1855 0030 FFF7FEFF 		bl	QuadDec_M1_SetCounter
  52:movement.h    ****     //CyDelay(500);
  53:movement.h    ****     //stopMoving(); // stop movement, ready for next instruction
  54:movement.h    **** }
 1856              		.loc 3 54 0
 1857 0034 00BF     		nop
 1858 0036 0837     		adds	r7, r7, #8
 1859              		.cfi_def_cfa_offset 8
 1860 0038 BD46     		mov	sp, r7
 1861              		.cfi_def_cfa_register 13
 1862              		@ sp needed
 1863 003a 80BD     		pop	{r7, pc}
 1864              		.cfi_endproc
 1865              	.LFE73:
 1866              		.size	rotationAntiClockwise, .-rotationAntiClockwise
 1867              		.comm	buffer,69,4
 1868              		.global	quadDec2Count
ARM GAS  C:\Users\ikui753\AppData\Local\Temp\ccMBzjHX.s 			page 41


 1869              		.bss
 1870 0012 0000     		.align	2
 1871              		.type	quadDec2Count, %object
 1872              		.size	quadDec2Count, 4
 1873              	quadDec2Count:
 1874 0014 00000000 		.space	4
 1875              		.global	timerInt
 1876              		.align	2
 1877              		.type	timerInt, %object
 1878              		.size	timerInt, 4
 1879              	timerInt:
 1880 0018 00000000 		.space	4
 1881              		.global	turnCount
 1882              		.align	1
 1883              		.type	turnCount, %object
 1884              		.size	turnCount, 2
 1885              	turnCount:
 1886 001c 0000     		.space	2
 1887              		.global	maxTurnCount
 1888              		.data
 1889              		.align	1
 1890              		.type	maxTurnCount, %object
 1891              		.size	maxTurnCount, 2
 1892              	maxTurnCount:
 1893 0064 1900     		.short	25
 1894              		.section	.text.speedTimer,"ax",%progbits
 1895              		.align	2
 1896              		.global	speedTimer
 1897              		.thumb
 1898              		.thumb_func
 1899              		.type	speedTimer, %function
 1900              	speedTimer:
 1901              	.LFB74:
 1902              		.file 4 "main.c"
   1:main.c        **** /* ========================================
   2:main.c        ****  * Fully working code: 
   3:main.c        ****  * PWM      : 
   4:main.c        ****  * Encoder  : 
   5:main.c        ****  * ADC      :
   6:main.c        ****  * USB      : port displays speed and position.
   7:main.c        ****  * CMD: "PW xx"
   8:main.c        ****  * Copyright Univ of Auckland, 2016
   9:main.c        ****  * All Rights Reserved
  10:main.c        ****  * UNPUBLISHED, LICENSED SOFTWARE.
  11:main.c        ****  *
  12:main.c        ****  * CONFIDENTIAL AND PROPRIETARY INFORMATION
  13:main.c        ****  * WHICH IS THE PROPERTY OF Univ of Auckland.
  14:main.c        ****  *
  15:main.c        ****  * ========================================
  16:main.c        **** */
  17:main.c        **** #include <stdio.h>
  18:main.c        **** #include <string.h>
  19:main.c        **** #include <stdlib.h>
  20:main.c        **** #include <project.h>
  21:main.c        **** //* ========================================
  22:main.c        **** #include "defines.h"
  23:main.c        **** #include "vars.h"
ARM GAS  C:\Users\ikui753\AppData\Local\Temp\ccMBzjHX.s 			page 42


  24:main.c        **** #include "pathfinding.h"
  25:main.c        **** #include "initialise.h"
  26:main.c        **** #include "movement.h"
  27:main.c        **** 
  28:main.c        **** //* ========================================
  29:main.c        **** void usbPutString(char *s);
  30:main.c        **** void usbPutChar(char c);
  31:main.c        **** void handle_usb();
  32:main.c        **** void changeDutyCycle(float percentage);
  33:main.c        **** void reverseRightWheel();
  34:main.c        **** void forwardRightWheel();
  35:main.c        **** void forwardLeftWheel();
  36:main.c        **** void reverseLeftWheel();
  37:main.c        **** void rotationClockwise();
  38:main.c        **** void rotationAntiClockwise();
  39:main.c        **** void directionForward();
  40:main.c        **** void directionBackward();
  41:main.c        **** void stopMoving();
  42:main.c        **** void quadCountToRPM(uint16 count);
  43:main.c        **** //* ========================================
  44:main.c        **** char buffer[69];
  45:main.c        **** int quadDec2Count = 0;
  46:main.c        **** int timerInt = 0;
  47:main.c        **** uint16 turnCount = 0;
  48:main.c        **** uint16 maxTurnCount = 25; // clock counts for one complete 90 deg turn
  49:main.c        **** 
  50:main.c        **** 
  51:main.c        **** CY_ISR (speedTimer) {
 1903              		.loc 4 51 0
 1904              		.cfi_startproc
 1905              		@ args = 0, pretend = 0, frame = 0
 1906              		@ frame_needed = 1, uses_anonymous_args = 0
 1907 0000 80B5     		push	{r7, lr}
 1908              		.cfi_def_cfa_offset 8
 1909              		.cfi_offset 7, -8
 1910              		.cfi_offset 14, -4
 1911 0002 00AF     		add	r7, sp, #0
 1912              		.cfi_def_cfa_register 7
  52:main.c        ****     timerInt = 1;
 1913              		.loc 4 52 0
 1914 0004 084B     		ldr	r3, .L88
 1915 0006 0122     		movs	r2, #1
 1916 0008 1A60     		str	r2, [r3]
  53:main.c        ****     // quadDec_M1 used for turning macros
  54:main.c        ****     quadDec2Count = QuadDec_M2_GetCounter();
 1917              		.loc 4 54 0
 1918 000a FFF7FEFF 		bl	QuadDec_M2_GetCounter
 1919 000e 0346     		mov	r3, r0
 1920 0010 1A46     		mov	r2, r3
 1921 0012 064B     		ldr	r3, .L88+4
 1922 0014 1A60     		str	r2, [r3]
  55:main.c        ****     QuadDec_M2_SetCounter(0); // reset count
 1923              		.loc 4 55 0
 1924 0016 0020     		movs	r0, #0
 1925 0018 FFF7FEFF 		bl	QuadDec_M2_SetCounter
  56:main.c        ****     QuadDec_M2_Start(); // restart counter
 1926              		.loc 4 56 0
ARM GAS  C:\Users\ikui753\AppData\Local\Temp\ccMBzjHX.s 			page 43


 1927 001c FFF7FEFF 		bl	QuadDec_M2_Start
  57:main.c        ****     SpeedTimer_ReadStatusRegister(); // clear interrupt
 1928              		.loc 4 57 0
 1929 0020 FFF7FEFF 		bl	SpeedTimer_ReadStatusRegister
  58:main.c        **** }
 1930              		.loc 4 58 0
 1931 0024 00BF     		nop
 1932 0026 80BD     		pop	{r7, pc}
 1933              	.L89:
 1934              		.align	2
 1935              	.L88:
 1936 0028 00000000 		.word	timerInt
 1937 002c 00000000 		.word	quadDec2Count
 1938              		.cfi_endproc
 1939              	.LFE74:
 1940              		.size	speedTimer, .-speedTimer
 1941              		.section	.text.main,"ax",%progbits
 1942              		.align	2
 1943              		.global	main
 1944              		.thumb
 1945              		.thumb_func
 1946              		.type	main, %function
 1947              	main:
 1948              	.LFB75:
  59:main.c        **** int main()
  60:main.c        **** {
 1949              		.loc 4 60 0
 1950              		.cfi_startproc
 1951              		@ args = 0, pretend = 0, frame = 0
 1952              		@ frame_needed = 1, uses_anonymous_args = 0
 1953 0000 80B5     		push	{r7, lr}
 1954              		.cfi_def_cfa_offset 8
 1955              		.cfi_offset 7, -8
 1956              		.cfi_offset 14, -4
 1957 0002 00AF     		add	r7, sp, #0
 1958              		.cfi_def_cfa_register 7
  61:main.c        **** // --------------------------------    
  62:main.c        **** // ----- INITIALIZATIONS ----------
  63:main.c        ****     CYGlobalIntEnable;
 1959              		.loc 4 63 0
 1960              		.syntax unified
 1961              	@ 63 "main.c" 1
 1962 0004 62B6     		CPSIE   i
 1963              	@ 0 "" 2
  64:main.c        ****     init(); // initialise clocks, pwms, adc, dac etc- done in header file
 1964              		.loc 4 64 0
 1965              		.thumb
 1966              		.syntax unified
 1967 0006 FFF7FEFF 		bl	init
  65:main.c        ****     isr_speed_StartEx(speedTimer); // start interrupt
 1968              		.loc 4 65 0
 1969 000a 1248     		ldr	r0, .L94
 1970 000c FFF7FEFF 		bl	isr_speed_StartEx
  66:main.c        ****     
  67:main.c        **** // ------USB SETUP ----------------    
  68:main.c        **** #ifdef USE_USB    
  69:main.c        ****     USBUART_Start(0,USBUART_5V_OPERATION);
ARM GAS  C:\Users\ikui753\AppData\Local\Temp\ccMBzjHX.s 			page 44


 1971              		.loc 4 69 0
 1972 0010 0121     		movs	r1, #1
 1973 0012 0020     		movs	r0, #0
 1974 0014 FFF7FEFF 		bl	USBUART_Start
  70:main.c        **** #endif        
  71:main.c        **** #ifdef USE_USB    
  72:main.c        ****     USBUART_Start(0,USBUART_5V_OPERATION);
 1975              		.loc 4 72 0
 1976 0018 0121     		movs	r1, #1
 1977 001a 0020     		movs	r0, #0
 1978 001c FFF7FEFF 		bl	USBUART_Start
  73:main.c        **** #endif        
  74:main.c        ****         
  75:main.c        ****     RF_BT_SELECT_Write(0);
 1979              		.loc 4 75 0
 1980 0020 0020     		movs	r0, #0
 1981 0022 FFF7FEFF 		bl	RF_BT_SELECT_Write
 1982              	.L93:
  76:main.c        ****     
  77:main.c        ****     for(;;)
  78:main.c        ****     {
  79:main.c        ****         rotationClockwise();
 1983              		.loc 4 79 0
 1984 0026 FFF7FEFF 		bl	rotationClockwise
  80:main.c        ****         rotationAntiClockwise();
 1985              		.loc 4 80 0
 1986 002a FFF7FEFF 		bl	rotationAntiClockwise
  81:main.c        ****         
  82:main.c        ****         if(timerInt == 1) {
 1987              		.loc 4 82 0
 1988 002e 0A4B     		ldr	r3, .L94+4
 1989 0030 1B68     		ldr	r3, [r3]
 1990 0032 012B     		cmp	r3, #1
 1991 0034 05D1     		bne	.L91
  83:main.c        ****             // calculate RPM of M2
  84:main.c        ****             quadCountToRPM(quadDec2Count);
 1992              		.loc 4 84 0
 1993 0036 094B     		ldr	r3, .L94+8
 1994 0038 1B68     		ldr	r3, [r3]
 1995 003a 9BB2     		uxth	r3, r3
 1996 003c 1846     		mov	r0, r3
 1997 003e FFF7FEFF 		bl	quadCountToRPM
 1998              	.L91:
  85:main.c        ****         }
  86:main.c        ****         
  87:main.c        ****         if (flag_KB_string == 1)
 1999              		.loc 4 87 0
 2000 0042 074B     		ldr	r3, .L94+12
 2001 0044 1B78     		ldrb	r3, [r3]	@ zero_extendqisi2
 2002 0046 012B     		cmp	r3, #1
 2003 0048 EDD1     		bne	.L93
  88:main.c        ****         {
  89:main.c        ****             //usbPutString(line);
  90:main.c        ****             flag_KB_string = 0;
 2004              		.loc 4 90 0
 2005 004a 054B     		ldr	r3, .L94+12
 2006 004c 0022     		movs	r2, #0
ARM GAS  C:\Users\ikui753\AppData\Local\Temp\ccMBzjHX.s 			page 45


 2007 004e 1A70     		strb	r2, [r3]
  91:main.c        **** 
  92:main.c        ****         }           
  93:main.c        ****     }   
 2008              		.loc 4 93 0
 2009 0050 E9E7     		b	.L93
 2010              	.L95:
 2011 0052 00BF     		.align	2
 2012              	.L94:
 2013 0054 00000000 		.word	speedTimer
 2014 0058 00000000 		.word	timerInt
 2015 005c 00000000 		.word	quadDec2Count
 2016 0060 00000000 		.word	flag_KB_string
 2017              		.cfi_endproc
 2018              	.LFE75:
 2019              		.size	main, .-main
 2020              		.global	__aeabi_i2d
 2021              		.global	__aeabi_ddiv
 2022              		.global	__aeabi_d2f
 2023              		.global	__aeabi_fmul
 2024              		.global	__aeabi_f2iz
 2025              		.section	.rodata
 2026              		.align	2
 2027              	.LC3:
 2028 0038 256400   		.ascii	"%d\000"
 2029              		.section	.text.quadCountToRPM,"ax",%progbits
 2030              		.align	2
 2031              		.global	quadCountToRPM
 2032              		.thumb
 2033              		.thumb_func
 2034              		.type	quadCountToRPM, %function
 2035              	quadCountToRPM:
 2036              	.LFB76:
  94:main.c        **** }
  95:main.c        **** 
  96:main.c        **** // Calculations
  97:main.c        **** //* ========================================
  98:main.c        **** void quadCountToRPM(uint16 count)
  99:main.c        **** {
 2037              		.loc 4 99 0
 2038              		.cfi_startproc
 2039              		@ args = 0, pretend = 0, frame = 16
 2040              		@ frame_needed = 1, uses_anonymous_args = 0
 2041 0000 90B5     		push	{r4, r7, lr}
 2042              		.cfi_def_cfa_offset 12
 2043              		.cfi_offset 4, -12
 2044              		.cfi_offset 7, -8
 2045              		.cfi_offset 14, -4
 2046 0002 85B0     		sub	sp, sp, #20
 2047              		.cfi_def_cfa_offset 32
 2048 0004 00AF     		add	r7, sp, #0
 2049              		.cfi_def_cfa_register 7
 2050 0006 0346     		mov	r3, r0
 2051 0008 FB80     		strh	r3, [r7, #6]	@ movhi
 100:main.c        ****     float cps = count/57.00;
 2052              		.loc 4 100 0
 2053 000a FB88     		ldrh	r3, [r7, #6]
ARM GAS  C:\Users\ikui753\AppData\Local\Temp\ccMBzjHX.s 			page 46


 2054 000c 1846     		mov	r0, r3
 2055 000e FFF7FEFF 		bl	__aeabi_i2d
 2056 0012 4FF00002 		mov	r2, #0
 2057 0016 104B     		ldr	r3, .L97
 2058 0018 FFF7FEFF 		bl	__aeabi_ddiv
 2059 001c 0346     		mov	r3, r0
 2060 001e 0C46     		mov	r4, r1
 2061 0020 1846     		mov	r0, r3
 2062 0022 2146     		mov	r1, r4
 2063 0024 FFF7FEFF 		bl	__aeabi_d2f
 2064 0028 0346     		mov	r3, r0
 2065 002a FB60     		str	r3, [r7, #12]	@ float
 101:main.c        ****     int16 rpm = (int16)(cps*15); // rpm value
 2066              		.loc 4 101 0
 2067 002c 0B49     		ldr	r1, .L97+4
 2068 002e F868     		ldr	r0, [r7, #12]	@ float
 2069 0030 FFF7FEFF 		bl	__aeabi_fmul
 2070 0034 0346     		mov	r3, r0
 2071 0036 1846     		mov	r0, r3
 2072 0038 FFF7FEFF 		bl	__aeabi_f2iz
 2073 003c 0346     		mov	r3, r0
 2074 003e 7B81     		strh	r3, [r7, #10]	@ movhi
 102:main.c        ****     sprintf(buffer, "%d", rpm); // store in buffer
 2075              		.loc 4 102 0
 2076 0040 B7F90A30 		ldrsh	r3, [r7, #10]
 2077 0044 1A46     		mov	r2, r3
 2078 0046 0649     		ldr	r1, .L97+8
 2079 0048 0648     		ldr	r0, .L97+12
 2080 004a FFF7FEFF 		bl	sprintf
 103:main.c        ****     //usbPutString(buffer);
 104:main.c        ****     //usbPutString("rpm ");
 105:main.c        **** }
 2081              		.loc 4 105 0
 2082 004e 00BF     		nop
 2083 0050 1437     		adds	r7, r7, #20
 2084              		.cfi_def_cfa_offset 12
 2085 0052 BD46     		mov	sp, r7
 2086              		.cfi_def_cfa_register 13
 2087              		@ sp needed
 2088 0054 90BD     		pop	{r4, r7, pc}
 2089              	.L98:
 2090 0056 00BF     		.align	2
 2091              	.L97:
 2092 0058 00804C40 		.word	1078755328
 2093 005c 00007041 		.word	1097859072
 2094 0060 38000000 		.word	.LC3
 2095 0064 00000000 		.word	buffer
 2096              		.cfi_endproc
 2097              	.LFE76:
 2098              		.size	quadCountToRPM, .-quadCountToRPM
 2099              		.text
 2100              	.Letext0:
 2101              		.file 5 "c:\\program files (x86)\\cypress\\psoc creator\\4.2\\psoc creator\\import\\gnu\\arm\\5.4.
 2102              		.file 6 "c:\\program files (x86)\\cypress\\psoc creator\\4.2\\psoc creator\\import\\gnu\\arm\\5.4.
 2103              		.file 7 "c:\\program files (x86)\\cypress\\psoc creator\\4.2\\psoc creator\\import\\gnu\\arm\\5.4.
 2104              		.file 8 "c:\\program files (x86)\\cypress\\psoc creator\\4.2\\psoc creator\\import\\gnu\\arm\\5.4.
 2105              		.file 9 "c:\\program files (x86)\\cypress\\psoc creator\\4.2\\psoc creator\\import\\gnu\\arm\\5.4.
ARM GAS  C:\Users\ikui753\AppData\Local\Temp\ccMBzjHX.s 			page 47


 2106              		.file 10 "c:\\program files (x86)\\cypress\\psoc creator\\4.2\\psoc creator\\import\\gnu\\arm\\5.4
 2107              		.file 11 "c:\\program files (x86)\\cypress\\psoc creator\\4.2\\psoc creator\\import\\gnu\\arm\\5.4
 2108              		.file 12 "Generated_Source\\PSoC5/cytypes.h"
 2109              		.file 13 "vars.h"
 2110              		.file 14 "Generated_Source\\PSoC5/core_cm3.h"
 2111              		.section	.debug_info,"",%progbits
 2112              	.Ldebug_info0:
 2113 0000 BD110000 		.4byte	0x11bd
 2114 0004 0400     		.2byte	0x4
 2115 0006 00000000 		.4byte	.Ldebug_abbrev0
 2116 000a 04       		.byte	0x4
 2117 000b 01       		.uleb128 0x1
 2118 000c B7000000 		.4byte	.LASF218
 2119 0010 0C       		.byte	0xc
 2120 0011 09000000 		.4byte	.LASF219
 2121 0015 6B070000 		.4byte	.LASF220
 2122 0019 18000000 		.4byte	.Ldebug_ranges0+0x18
 2123 001d 00000000 		.4byte	0
 2124 0021 00000000 		.4byte	.Ldebug_line0
 2125 0025 02       		.uleb128 0x2
 2126 0026 01       		.byte	0x1
 2127 0027 06       		.byte	0x6
 2128 0028 83080000 		.4byte	.LASF0
 2129 002c 02       		.uleb128 0x2
 2130 002d 01       		.byte	0x1
 2131 002e 08       		.byte	0x8
 2132 002f 47070000 		.4byte	.LASF1
 2133 0033 02       		.uleb128 0x2
 2134 0034 02       		.byte	0x2
 2135 0035 05       		.byte	0x5
 2136 0036 C2050000 		.4byte	.LASF2
 2137 003a 02       		.uleb128 0x2
 2138 003b 02       		.byte	0x2
 2139 003c 07       		.byte	0x7
 2140 003d 96080000 		.4byte	.LASF3
 2141 0041 03       		.uleb128 0x3
 2142 0042 8F000000 		.4byte	.LASF10
 2143 0046 05       		.byte	0x5
 2144 0047 3F       		.byte	0x3f
 2145 0048 4C000000 		.4byte	0x4c
 2146 004c 02       		.uleb128 0x2
 2147 004d 04       		.byte	0x4
 2148 004e 05       		.byte	0x5
 2149 004f CC050000 		.4byte	.LASF4
 2150 0053 02       		.uleb128 0x2
 2151 0054 04       		.byte	0x4
 2152 0055 07       		.byte	0x7
 2153 0056 D8060000 		.4byte	.LASF5
 2154 005a 02       		.uleb128 0x2
 2155 005b 08       		.byte	0x8
 2156 005c 05       		.byte	0x5
 2157 005d 5B040000 		.4byte	.LASF6
 2158 0061 02       		.uleb128 0x2
 2159 0062 08       		.byte	0x8
 2160 0063 07       		.byte	0x7
 2161 0064 4E020000 		.4byte	.LASF7
 2162 0068 04       		.uleb128 0x4
ARM GAS  C:\Users\ikui753\AppData\Local\Temp\ccMBzjHX.s 			page 48


 2163 0069 04       		.byte	0x4
 2164 006a 05       		.byte	0x5
 2165 006b 696E7400 		.ascii	"int\000"
 2166 006f 02       		.uleb128 0x2
 2167 0070 04       		.byte	0x4
 2168 0071 07       		.byte	0x7
 2169 0072 55000000 		.4byte	.LASF8
 2170 0076 02       		.uleb128 0x2
 2171 0077 08       		.byte	0x8
 2172 0078 04       		.byte	0x4
 2173 0079 49050000 		.4byte	.LASF9
 2174 007d 05       		.uleb128 0x5
 2175 007e 04       		.byte	0x4
 2176 007f 03       		.uleb128 0x3
 2177 0080 45010000 		.4byte	.LASF11
 2178 0084 06       		.byte	0x6
 2179 0085 07       		.byte	0x7
 2180 0086 68000000 		.4byte	0x68
 2181 008a 03       		.uleb128 0x3
 2182 008b F5080000 		.4byte	.LASF12
 2183 008f 07       		.byte	0x7
 2184 0090 2C       		.byte	0x2c
 2185 0091 4C000000 		.4byte	0x4c
 2186 0095 03       		.uleb128 0x3
 2187 0096 97010000 		.4byte	.LASF13
 2188 009a 07       		.byte	0x7
 2189 009b 72       		.byte	0x72
 2190 009c 4C000000 		.4byte	0x4c
 2191 00a0 06       		.uleb128 0x6
 2192 00a1 00070000 		.4byte	.LASF14
 2193 00a5 08       		.byte	0x8
 2194 00a6 6501     		.2byte	0x165
 2195 00a8 6F000000 		.4byte	0x6f
 2196 00ac 07       		.uleb128 0x7
 2197 00ad 04       		.byte	0x4
 2198 00ae 07       		.byte	0x7
 2199 00af A6       		.byte	0xa6
 2200 00b0 CB000000 		.4byte	0xcb
 2201 00b4 08       		.uleb128 0x8
 2202 00b5 FB030000 		.4byte	.LASF15
 2203 00b9 07       		.byte	0x7
 2204 00ba A8       		.byte	0xa8
 2205 00bb A0000000 		.4byte	0xa0
 2206 00bf 08       		.uleb128 0x8
 2207 00c0 29060000 		.4byte	.LASF16
 2208 00c4 07       		.byte	0x7
 2209 00c5 A9       		.byte	0xa9
 2210 00c6 CB000000 		.4byte	0xcb
 2211 00ca 00       		.byte	0
 2212 00cb 09       		.uleb128 0x9
 2213 00cc 2C000000 		.4byte	0x2c
 2214 00d0 DB000000 		.4byte	0xdb
 2215 00d4 0A       		.uleb128 0xa
 2216 00d5 DB000000 		.4byte	0xdb
 2217 00d9 03       		.byte	0x3
 2218 00da 00       		.byte	0
 2219 00db 02       		.uleb128 0x2
ARM GAS  C:\Users\ikui753\AppData\Local\Temp\ccMBzjHX.s 			page 49


 2220 00dc 04       		.byte	0x4
 2221 00dd 07       		.byte	0x7
 2222 00de C0060000 		.4byte	.LASF17
 2223 00e2 0B       		.uleb128 0xb
 2224 00e3 08       		.byte	0x8
 2225 00e4 07       		.byte	0x7
 2226 00e5 A3       		.byte	0xa3
 2227 00e6 03010000 		.4byte	0x103
 2228 00ea 0C       		.uleb128 0xc
 2229 00eb 14020000 		.4byte	.LASF18
 2230 00ef 07       		.byte	0x7
 2231 00f0 A5       		.byte	0xa5
 2232 00f1 68000000 		.4byte	0x68
 2233 00f5 00       		.byte	0
 2234 00f6 0C       		.uleb128 0xc
 2235 00f7 3B030000 		.4byte	.LASF19
 2236 00fb 07       		.byte	0x7
 2237 00fc AA       		.byte	0xaa
 2238 00fd AC000000 		.4byte	0xac
 2239 0101 04       		.byte	0x4
 2240 0102 00       		.byte	0
 2241 0103 03       		.uleb128 0x3
 2242 0104 D1040000 		.4byte	.LASF20
 2243 0108 07       		.byte	0x7
 2244 0109 AB       		.byte	0xab
 2245 010a E2000000 		.4byte	0xe2
 2246 010e 03       		.uleb128 0x3
 2247 010f DB030000 		.4byte	.LASF21
 2248 0113 07       		.byte	0x7
 2249 0114 AF       		.byte	0xaf
 2250 0115 7F000000 		.4byte	0x7f
 2251 0119 03       		.uleb128 0x3
 2252 011a 87040000 		.4byte	.LASF22
 2253 011e 09       		.byte	0x9
 2254 011f 16       		.byte	0x16
 2255 0120 53000000 		.4byte	0x53
 2256 0124 0D       		.uleb128 0xd
 2257 0125 C2010000 		.4byte	.LASF27
 2258 0129 18       		.byte	0x18
 2259 012a 09       		.byte	0x9
 2260 012b 2D       		.byte	0x2d
 2261 012c 77010000 		.4byte	0x177
 2262 0130 0C       		.uleb128 0xc
 2263 0131 1D030000 		.4byte	.LASF23
 2264 0135 09       		.byte	0x9
 2265 0136 2F       		.byte	0x2f
 2266 0137 77010000 		.4byte	0x177
 2267 013b 00       		.byte	0
 2268 013c 0E       		.uleb128 0xe
 2269 013d 5F6B00   		.ascii	"_k\000"
 2270 0140 09       		.byte	0x9
 2271 0141 30       		.byte	0x30
 2272 0142 68000000 		.4byte	0x68
 2273 0146 04       		.byte	0x4
 2274 0147 0C       		.uleb128 0xc
 2275 0148 5E060000 		.4byte	.LASF24
 2276 014c 09       		.byte	0x9
ARM GAS  C:\Users\ikui753\AppData\Local\Temp\ccMBzjHX.s 			page 50


 2277 014d 30       		.byte	0x30
 2278 014e 68000000 		.4byte	0x68
 2279 0152 08       		.byte	0x8
 2280 0153 0C       		.uleb128 0xc
 2281 0154 05060000 		.4byte	.LASF25
 2282 0158 09       		.byte	0x9
 2283 0159 30       		.byte	0x30
 2284 015a 68000000 		.4byte	0x68
 2285 015e 0C       		.byte	0xc
 2286 015f 0C       		.uleb128 0xc
 2287 0160 7A020000 		.4byte	.LASF26
 2288 0164 09       		.byte	0x9
 2289 0165 30       		.byte	0x30
 2290 0166 68000000 		.4byte	0x68
 2291 016a 10       		.byte	0x10
 2292 016b 0E       		.uleb128 0xe
 2293 016c 5F7800   		.ascii	"_x\000"
 2294 016f 09       		.byte	0x9
 2295 0170 31       		.byte	0x31
 2296 0171 7D010000 		.4byte	0x17d
 2297 0175 14       		.byte	0x14
 2298 0176 00       		.byte	0
 2299 0177 0F       		.uleb128 0xf
 2300 0178 04       		.byte	0x4
 2301 0179 24010000 		.4byte	0x124
 2302 017d 09       		.uleb128 0x9
 2303 017e 19010000 		.4byte	0x119
 2304 0182 8D010000 		.4byte	0x18d
 2305 0186 0A       		.uleb128 0xa
 2306 0187 DB000000 		.4byte	0xdb
 2307 018b 00       		.byte	0
 2308 018c 00       		.byte	0
 2309 018d 0D       		.uleb128 0xd
 2310 018e B0060000 		.4byte	.LASF28
 2311 0192 24       		.byte	0x24
 2312 0193 09       		.byte	0x9
 2313 0194 35       		.byte	0x35
 2314 0195 06020000 		.4byte	0x206
 2315 0199 0C       		.uleb128 0xc
 2316 019a F5020000 		.4byte	.LASF29
 2317 019e 09       		.byte	0x9
 2318 019f 37       		.byte	0x37
 2319 01a0 68000000 		.4byte	0x68
 2320 01a4 00       		.byte	0
 2321 01a5 0C       		.uleb128 0xc
 2322 01a6 22020000 		.4byte	.LASF30
 2323 01aa 09       		.byte	0x9
 2324 01ab 38       		.byte	0x38
 2325 01ac 68000000 		.4byte	0x68
 2326 01b0 04       		.byte	0x4
 2327 01b1 0C       		.uleb128 0xc
 2328 01b2 EF010000 		.4byte	.LASF31
 2329 01b6 09       		.byte	0x9
 2330 01b7 39       		.byte	0x39
 2331 01b8 68000000 		.4byte	0x68
 2332 01bc 08       		.byte	0x8
 2333 01bd 0C       		.uleb128 0xc
ARM GAS  C:\Users\ikui753\AppData\Local\Temp\ccMBzjHX.s 			page 51


 2334 01be 9D030000 		.4byte	.LASF32
 2335 01c2 09       		.byte	0x9
 2336 01c3 3A       		.byte	0x3a
 2337 01c4 68000000 		.4byte	0x68
 2338 01c8 0C       		.byte	0xc
 2339 01c9 0C       		.uleb128 0xc
 2340 01ca 40050000 		.4byte	.LASF33
 2341 01ce 09       		.byte	0x9
 2342 01cf 3B       		.byte	0x3b
 2343 01d0 68000000 		.4byte	0x68
 2344 01d4 10       		.byte	0x10
 2345 01d5 0C       		.uleb128 0xc
 2346 01d6 30060000 		.4byte	.LASF34
 2347 01da 09       		.byte	0x9
 2348 01db 3C       		.byte	0x3c
 2349 01dc 68000000 		.4byte	0x68
 2350 01e0 14       		.byte	0x14
 2351 01e1 0C       		.uleb128 0xc
 2352 01e2 D5010000 		.4byte	.LASF35
 2353 01e6 09       		.byte	0x9
 2354 01e7 3D       		.byte	0x3d
 2355 01e8 68000000 		.4byte	0x68
 2356 01ec 18       		.byte	0x18
 2357 01ed 0C       		.uleb128 0xc
 2358 01ee FE020000 		.4byte	.LASF36
 2359 01f2 09       		.byte	0x9
 2360 01f3 3E       		.byte	0x3e
 2361 01f4 68000000 		.4byte	0x68
 2362 01f8 1C       		.byte	0x1c
 2363 01f9 0C       		.uleb128 0xc
 2364 01fa F3040000 		.4byte	.LASF37
 2365 01fe 09       		.byte	0x9
 2366 01ff 3F       		.byte	0x3f
 2367 0200 68000000 		.4byte	0x68
 2368 0204 20       		.byte	0x20
 2369 0205 00       		.byte	0
 2370 0206 10       		.uleb128 0x10
 2371 0207 28000000 		.4byte	.LASF38
 2372 020b 0801     		.2byte	0x108
 2373 020d 09       		.byte	0x9
 2374 020e 48       		.byte	0x48
 2375 020f 46020000 		.4byte	0x246
 2376 0213 0C       		.uleb128 0xc
 2377 0214 7B080000 		.4byte	.LASF39
 2378 0218 09       		.byte	0x9
 2379 0219 49       		.byte	0x49
 2380 021a 46020000 		.4byte	0x246
 2381 021e 00       		.byte	0
 2382 021f 0C       		.uleb128 0xc
 2383 0220 0F070000 		.4byte	.LASF40
 2384 0224 09       		.byte	0x9
 2385 0225 4A       		.byte	0x4a
 2386 0226 46020000 		.4byte	0x246
 2387 022a 80       		.byte	0x80
 2388 022b 11       		.uleb128 0x11
 2389 022c D7080000 		.4byte	.LASF41
 2390 0230 09       		.byte	0x9
ARM GAS  C:\Users\ikui753\AppData\Local\Temp\ccMBzjHX.s 			page 52


 2391 0231 4C       		.byte	0x4c
 2392 0232 19010000 		.4byte	0x119
 2393 0236 0001     		.2byte	0x100
 2394 0238 11       		.uleb128 0x11
 2395 0239 1C090000 		.4byte	.LASF42
 2396 023d 09       		.byte	0x9
 2397 023e 4F       		.byte	0x4f
 2398 023f 19010000 		.4byte	0x119
 2399 0243 0401     		.2byte	0x104
 2400 0245 00       		.byte	0
 2401 0246 09       		.uleb128 0x9
 2402 0247 7D000000 		.4byte	0x7d
 2403 024b 56020000 		.4byte	0x256
 2404 024f 0A       		.uleb128 0xa
 2405 0250 DB000000 		.4byte	0xdb
 2406 0254 1F       		.byte	0x1f
 2407 0255 00       		.byte	0
 2408 0256 10       		.uleb128 0x10
 2409 0257 A0050000 		.4byte	.LASF43
 2410 025b 9001     		.2byte	0x190
 2411 025d 09       		.byte	0x9
 2412 025e 5B       		.byte	0x5b
 2413 025f 94020000 		.4byte	0x294
 2414 0263 0C       		.uleb128 0xc
 2415 0264 1D030000 		.4byte	.LASF23
 2416 0268 09       		.byte	0x9
 2417 0269 5C       		.byte	0x5c
 2418 026a 94020000 		.4byte	0x294
 2419 026e 00       		.byte	0
 2420 026f 0C       		.uleb128 0xc
 2421 0270 0D030000 		.4byte	.LASF44
 2422 0274 09       		.byte	0x9
 2423 0275 5D       		.byte	0x5d
 2424 0276 68000000 		.4byte	0x68
 2425 027a 04       		.byte	0x4
 2426 027b 0C       		.uleb128 0xc
 2427 027c 9F010000 		.4byte	.LASF45
 2428 0280 09       		.byte	0x9
 2429 0281 5F       		.byte	0x5f
 2430 0282 9A020000 		.4byte	0x29a
 2431 0286 08       		.byte	0x8
 2432 0287 0C       		.uleb128 0xc
 2433 0288 28000000 		.4byte	.LASF38
 2434 028c 09       		.byte	0x9
 2435 028d 60       		.byte	0x60
 2436 028e 06020000 		.4byte	0x206
 2437 0292 88       		.byte	0x88
 2438 0293 00       		.byte	0
 2439 0294 0F       		.uleb128 0xf
 2440 0295 04       		.byte	0x4
 2441 0296 56020000 		.4byte	0x256
 2442 029a 09       		.uleb128 0x9
 2443 029b AA020000 		.4byte	0x2aa
 2444 029f AA020000 		.4byte	0x2aa
 2445 02a3 0A       		.uleb128 0xa
 2446 02a4 DB000000 		.4byte	0xdb
 2447 02a8 1F       		.byte	0x1f
ARM GAS  C:\Users\ikui753\AppData\Local\Temp\ccMBzjHX.s 			page 53


 2448 02a9 00       		.byte	0
 2449 02aa 0F       		.uleb128 0xf
 2450 02ab 04       		.byte	0x4
 2451 02ac B0020000 		.4byte	0x2b0
 2452 02b0 12       		.uleb128 0x12
 2453 02b1 0D       		.uleb128 0xd
 2454 02b2 24080000 		.4byte	.LASF46
 2455 02b6 08       		.byte	0x8
 2456 02b7 09       		.byte	0x9
 2457 02b8 73       		.byte	0x73
 2458 02b9 D6020000 		.4byte	0x2d6
 2459 02bd 0C       		.uleb128 0xc
 2460 02be 71040000 		.4byte	.LASF47
 2461 02c2 09       		.byte	0x9
 2462 02c3 74       		.byte	0x74
 2463 02c4 D6020000 		.4byte	0x2d6
 2464 02c8 00       		.byte	0
 2465 02c9 0C       		.uleb128 0xc
 2466 02ca E0080000 		.4byte	.LASF48
 2467 02ce 09       		.byte	0x9
 2468 02cf 75       		.byte	0x75
 2469 02d0 68000000 		.4byte	0x68
 2470 02d4 04       		.byte	0x4
 2471 02d5 00       		.byte	0
 2472 02d6 0F       		.uleb128 0xf
 2473 02d7 04       		.byte	0x4
 2474 02d8 2C000000 		.4byte	0x2c
 2475 02dc 0D       		.uleb128 0xd
 2476 02dd 72020000 		.4byte	.LASF49
 2477 02e1 68       		.byte	0x68
 2478 02e2 09       		.byte	0x9
 2479 02e3 B3       		.byte	0xb3
 2480 02e4 06040000 		.4byte	0x406
 2481 02e8 0E       		.uleb128 0xe
 2482 02e9 5F7000   		.ascii	"_p\000"
 2483 02ec 09       		.byte	0x9
 2484 02ed B4       		.byte	0xb4
 2485 02ee D6020000 		.4byte	0x2d6
 2486 02f2 00       		.byte	0
 2487 02f3 0E       		.uleb128 0xe
 2488 02f4 5F7200   		.ascii	"_r\000"
 2489 02f7 09       		.byte	0x9
 2490 02f8 B5       		.byte	0xb5
 2491 02f9 68000000 		.4byte	0x68
 2492 02fd 04       		.byte	0x4
 2493 02fe 0E       		.uleb128 0xe
 2494 02ff 5F7700   		.ascii	"_w\000"
 2495 0302 09       		.byte	0x9
 2496 0303 B6       		.byte	0xb6
 2497 0304 68000000 		.4byte	0x68
 2498 0308 08       		.byte	0x8
 2499 0309 0C       		.uleb128 0xc
 2500 030a 7D000000 		.4byte	.LASF50
 2501 030e 09       		.byte	0x9
 2502 030f B7       		.byte	0xb7
 2503 0310 33000000 		.4byte	0x33
 2504 0314 0C       		.byte	0xc
ARM GAS  C:\Users\ikui753\AppData\Local\Temp\ccMBzjHX.s 			page 54


 2505 0315 0C       		.uleb128 0xc
 2506 0316 9E040000 		.4byte	.LASF51
 2507 031a 09       		.byte	0x9
 2508 031b B8       		.byte	0xb8
 2509 031c 33000000 		.4byte	0x33
 2510 0320 0E       		.byte	0xe
 2511 0321 0E       		.uleb128 0xe
 2512 0322 5F626600 		.ascii	"_bf\000"
 2513 0326 09       		.byte	0x9
 2514 0327 B9       		.byte	0xb9
 2515 0328 B1020000 		.4byte	0x2b1
 2516 032c 10       		.byte	0x10
 2517 032d 0C       		.uleb128 0xc
 2518 032e 74000000 		.4byte	.LASF52
 2519 0332 09       		.byte	0x9
 2520 0333 BA       		.byte	0xba
 2521 0334 68000000 		.4byte	0x68
 2522 0338 18       		.byte	0x18
 2523 0339 0C       		.uleb128 0xc
 2524 033a A4010000 		.4byte	.LASF53
 2525 033e 09       		.byte	0x9
 2526 033f C1       		.byte	0xc1
 2527 0340 7D000000 		.4byte	0x7d
 2528 0344 1C       		.byte	0x1c
 2529 0345 0C       		.uleb128 0xc
 2530 0346 57010000 		.4byte	.LASF54
 2531 034a 09       		.byte	0x9
 2532 034b C3       		.byte	0xc3
 2533 034c 69050000 		.4byte	0x569
 2534 0350 20       		.byte	0x20
 2535 0351 0C       		.uleb128 0xc
 2536 0352 65050000 		.4byte	.LASF55
 2537 0356 09       		.byte	0x9
 2538 0357 C5       		.byte	0xc5
 2539 0358 98050000 		.4byte	0x598
 2540 035c 24       		.byte	0x24
 2541 035d 0C       		.uleb128 0xc
 2542 035e 4B090000 		.4byte	.LASF56
 2543 0362 09       		.byte	0x9
 2544 0363 C8       		.byte	0xc8
 2545 0364 BC050000 		.4byte	0x5bc
 2546 0368 28       		.byte	0x28
 2547 0369 0C       		.uleb128 0xc
 2548 036a 19040000 		.4byte	.LASF57
 2549 036e 09       		.byte	0x9
 2550 036f C9       		.byte	0xc9
 2551 0370 D6050000 		.4byte	0x5d6
 2552 0374 2C       		.byte	0x2c
 2553 0375 0E       		.uleb128 0xe
 2554 0376 5F756200 		.ascii	"_ub\000"
 2555 037a 09       		.byte	0x9
 2556 037b CC       		.byte	0xcc
 2557 037c B1020000 		.4byte	0x2b1
 2558 0380 30       		.byte	0x30
 2559 0381 0E       		.uleb128 0xe
 2560 0382 5F757000 		.ascii	"_up\000"
 2561 0386 09       		.byte	0x9
ARM GAS  C:\Users\ikui753\AppData\Local\Temp\ccMBzjHX.s 			page 55


 2562 0387 CD       		.byte	0xcd
 2563 0388 D6020000 		.4byte	0x2d6
 2564 038c 38       		.byte	0x38
 2565 038d 0E       		.uleb128 0xe
 2566 038e 5F757200 		.ascii	"_ur\000"
 2567 0392 09       		.byte	0x9
 2568 0393 CE       		.byte	0xce
 2569 0394 68000000 		.4byte	0x68
 2570 0398 3C       		.byte	0x3c
 2571 0399 0C       		.uleb128 0xc
 2572 039a 74090000 		.4byte	.LASF58
 2573 039e 09       		.byte	0x9
 2574 039f D1       		.byte	0xd1
 2575 03a0 DC050000 		.4byte	0x5dc
 2576 03a4 40       		.byte	0x40
 2577 03a5 0C       		.uleb128 0xc
 2578 03a6 FC080000 		.4byte	.LASF59
 2579 03aa 09       		.byte	0x9
 2580 03ab D2       		.byte	0xd2
 2581 03ac EC050000 		.4byte	0x5ec
 2582 03b0 43       		.byte	0x43
 2583 03b1 0E       		.uleb128 0xe
 2584 03b2 5F6C6200 		.ascii	"_lb\000"
 2585 03b6 09       		.byte	0x9
 2586 03b7 D5       		.byte	0xd5
 2587 03b8 B1020000 		.4byte	0x2b1
 2588 03bc 44       		.byte	0x44
 2589 03bd 0C       		.uleb128 0xc
 2590 03be A7060000 		.4byte	.LASF60
 2591 03c2 09       		.byte	0x9
 2592 03c3 D8       		.byte	0xd8
 2593 03c4 68000000 		.4byte	0x68
 2594 03c8 4C       		.byte	0x4c
 2595 03c9 0C       		.uleb128 0xc
 2596 03ca AC020000 		.4byte	.LASF61
 2597 03ce 09       		.byte	0x9
 2598 03cf D9       		.byte	0xd9
 2599 03d0 8A000000 		.4byte	0x8a
 2600 03d4 50       		.byte	0x50
 2601 03d5 0C       		.uleb128 0xc
 2602 03d6 23060000 		.4byte	.LASF62
 2603 03da 09       		.byte	0x9
 2604 03db DC       		.byte	0xdc
 2605 03dc 24040000 		.4byte	0x424
 2606 03e0 54       		.byte	0x54
 2607 03e1 0C       		.uleb128 0xc
 2608 03e2 BA060000 		.4byte	.LASF63
 2609 03e6 09       		.byte	0x9
 2610 03e7 E0       		.byte	0xe0
 2611 03e8 0E010000 		.4byte	0x10e
 2612 03ec 58       		.byte	0x58
 2613 03ed 0C       		.uleb128 0xc
 2614 03ee A8050000 		.4byte	.LASF64
 2615 03f2 09       		.byte	0x9
 2616 03f3 E2       		.byte	0xe2
 2617 03f4 03010000 		.4byte	0x103
 2618 03f8 5C       		.byte	0x5c
ARM GAS  C:\Users\ikui753\AppData\Local\Temp\ccMBzjHX.s 			page 56


 2619 03f9 0C       		.uleb128 0xc
 2620 03fa 14090000 		.4byte	.LASF65
 2621 03fe 09       		.byte	0x9
 2622 03ff E3       		.byte	0xe3
 2623 0400 68000000 		.4byte	0x68
 2624 0404 64       		.byte	0x64
 2625 0405 00       		.byte	0
 2626 0406 13       		.uleb128 0x13
 2627 0407 68000000 		.4byte	0x68
 2628 040b 24040000 		.4byte	0x424
 2629 040f 14       		.uleb128 0x14
 2630 0410 24040000 		.4byte	0x424
 2631 0414 14       		.uleb128 0x14
 2632 0415 7D000000 		.4byte	0x7d
 2633 0419 14       		.uleb128 0x14
 2634 041a 5C050000 		.4byte	0x55c
 2635 041e 14       		.uleb128 0x14
 2636 041f 68000000 		.4byte	0x68
 2637 0423 00       		.byte	0
 2638 0424 0F       		.uleb128 0xf
 2639 0425 04       		.byte	0x4
 2640 0426 2A040000 		.4byte	0x42a
 2641 042a 15       		.uleb128 0x15
 2642 042b 8F080000 		.4byte	.LASF66
 2643 042f 2804     		.2byte	0x428
 2644 0431 09       		.byte	0x9
 2645 0432 3802     		.2byte	0x238
 2646 0434 5C050000 		.4byte	0x55c
 2647 0438 16       		.uleb128 0x16
 2648 0439 9F000000 		.4byte	.LASF67
 2649 043d 09       		.byte	0x9
 2650 043e 3A02     		.2byte	0x23a
 2651 0440 68000000 		.4byte	0x68
 2652 0444 00       		.byte	0
 2653 0445 16       		.uleb128 0x16
 2654 0446 45040000 		.4byte	.LASF68
 2655 044a 09       		.byte	0x9
 2656 044b 3F02     		.2byte	0x23f
 2657 044d 43060000 		.4byte	0x643
 2658 0451 04       		.byte	0x4
 2659 0452 16       		.uleb128 0x16
 2660 0453 8F010000 		.4byte	.LASF69
 2661 0457 09       		.byte	0x9
 2662 0458 3F02     		.2byte	0x23f
 2663 045a 43060000 		.4byte	0x643
 2664 045e 08       		.byte	0x8
 2665 045f 16       		.uleb128 0x16
 2666 0460 63090000 		.4byte	.LASF70
 2667 0464 09       		.byte	0x9
 2668 0465 3F02     		.2byte	0x23f
 2669 0467 43060000 		.4byte	0x643
 2670 046b 0C       		.byte	0xc
 2671 046c 16       		.uleb128 0x16
 2672 046d 08030000 		.4byte	.LASF71
 2673 0471 09       		.byte	0x9
 2674 0472 4102     		.2byte	0x241
 2675 0474 68000000 		.4byte	0x68
ARM GAS  C:\Users\ikui753\AppData\Local\Temp\ccMBzjHX.s 			page 57


 2676 0478 10       		.byte	0x10
 2677 0479 16       		.uleb128 0x16
 2678 047a B4020000 		.4byte	.LASF72
 2679 047e 09       		.byte	0x9
 2680 047f 4202     		.2byte	0x242
 2681 0481 25080000 		.4byte	0x825
 2682 0485 14       		.byte	0x14
 2683 0486 16       		.uleb128 0x16
 2684 0487 70060000 		.4byte	.LASF73
 2685 048b 09       		.byte	0x9
 2686 048c 4402     		.2byte	0x244
 2687 048e 68000000 		.4byte	0x68
 2688 0492 30       		.byte	0x30
 2689 0493 16       		.uleb128 0x16
 2690 0494 0B060000 		.4byte	.LASF74
 2691 0498 09       		.byte	0x9
 2692 0499 4502     		.2byte	0x245
 2693 049b 8D050000 		.4byte	0x58d
 2694 049f 34       		.byte	0x34
 2695 04a0 16       		.uleb128 0x16
 2696 04a1 20040000 		.4byte	.LASF75
 2697 04a5 09       		.byte	0x9
 2698 04a6 4702     		.2byte	0x247
 2699 04a8 68000000 		.4byte	0x68
 2700 04ac 38       		.byte	0x38
 2701 04ad 16       		.uleb128 0x16
 2702 04ae C7040000 		.4byte	.LASF76
 2703 04b2 09       		.byte	0x9
 2704 04b3 4902     		.2byte	0x249
 2705 04b5 40080000 		.4byte	0x840
 2706 04b9 3C       		.byte	0x3c
 2707 04ba 16       		.uleb128 0x16
 2708 04bb E7010000 		.4byte	.LASF77
 2709 04bf 09       		.byte	0x9
 2710 04c0 4C02     		.2byte	0x24c
 2711 04c2 77010000 		.4byte	0x177
 2712 04c6 40       		.byte	0x40
 2713 04c7 16       		.uleb128 0x16
 2714 04c8 44020000 		.4byte	.LASF78
 2715 04cc 09       		.byte	0x9
 2716 04cd 4D02     		.2byte	0x24d
 2717 04cf 68000000 		.4byte	0x68
 2718 04d3 44       		.byte	0x44
 2719 04d4 16       		.uleb128 0x16
 2720 04d5 43030000 		.4byte	.LASF79
 2721 04d9 09       		.byte	0x9
 2722 04da 4E02     		.2byte	0x24e
 2723 04dc 77010000 		.4byte	0x177
 2724 04e0 48       		.byte	0x48
 2725 04e1 16       		.uleb128 0x16
 2726 04e2 77040000 		.4byte	.LASF80
 2727 04e6 09       		.byte	0x9
 2728 04e7 4F02     		.2byte	0x24f
 2729 04e9 46080000 		.4byte	0x846
 2730 04ed 4C       		.byte	0x4c
 2731 04ee 16       		.uleb128 0x16
 2732 04ef 56060000 		.4byte	.LASF81
ARM GAS  C:\Users\ikui753\AppData\Local\Temp\ccMBzjHX.s 			page 58


 2733 04f3 09       		.byte	0x9
 2734 04f4 5202     		.2byte	0x252
 2735 04f6 68000000 		.4byte	0x68
 2736 04fa 50       		.byte	0x50
 2737 04fb 16       		.uleb128 0x16
 2738 04fc 3F070000 		.4byte	.LASF82
 2739 0500 09       		.byte	0x9
 2740 0501 5302     		.2byte	0x253
 2741 0503 5C050000 		.4byte	0x55c
 2742 0507 54       		.byte	0x54
 2743 0508 16       		.uleb128 0x16
 2744 0509 51060000 		.4byte	.LASF83
 2745 050d 09       		.byte	0x9
 2746 050e 7602     		.2byte	0x276
 2747 0510 03080000 		.4byte	0x803
 2748 0514 58       		.byte	0x58
 2749 0515 17       		.uleb128 0x17
 2750 0516 A0050000 		.4byte	.LASF43
 2751 051a 09       		.byte	0x9
 2752 051b 7A02     		.2byte	0x27a
 2753 051d 94020000 		.4byte	0x294
 2754 0521 4801     		.2byte	0x148
 2755 0523 17       		.uleb128 0x17
 2756 0524 C0030000 		.4byte	.LASF84
 2757 0528 09       		.byte	0x9
 2758 0529 7B02     		.2byte	0x27b
 2759 052b 56020000 		.4byte	0x256
 2760 052f 4C01     		.2byte	0x14c
 2761 0531 17       		.uleb128 0x17
 2762 0532 A7030000 		.4byte	.LASF85
 2763 0536 09       		.byte	0x9
 2764 0537 7F02     		.2byte	0x27f
 2765 0539 57080000 		.4byte	0x857
 2766 053d DC02     		.2byte	0x2dc
 2767 053f 17       		.uleb128 0x17
 2768 0540 31080000 		.4byte	.LASF86
 2769 0544 09       		.byte	0x9
 2770 0545 8402     		.2byte	0x284
 2771 0547 08060000 		.4byte	0x608
 2772 054b E002     		.2byte	0x2e0
 2773 054d 17       		.uleb128 0x17
 2774 054e 00060000 		.4byte	.LASF87
 2775 0552 09       		.byte	0x9
 2776 0553 8502     		.2byte	0x285
 2777 0555 63080000 		.4byte	0x863
 2778 0559 EC02     		.2byte	0x2ec
 2779 055b 00       		.byte	0
 2780 055c 0F       		.uleb128 0xf
 2781 055d 04       		.byte	0x4
 2782 055e 62050000 		.4byte	0x562
 2783 0562 02       		.uleb128 0x2
 2784 0563 01       		.byte	0x1
 2785 0564 08       		.byte	0x8
 2786 0565 98030000 		.4byte	.LASF88
 2787 0569 0F       		.uleb128 0xf
 2788 056a 04       		.byte	0x4
 2789 056b 06040000 		.4byte	0x406
ARM GAS  C:\Users\ikui753\AppData\Local\Temp\ccMBzjHX.s 			page 59


 2790 056f 13       		.uleb128 0x13
 2791 0570 68000000 		.4byte	0x68
 2792 0574 8D050000 		.4byte	0x58d
 2793 0578 14       		.uleb128 0x14
 2794 0579 24040000 		.4byte	0x424
 2795 057d 14       		.uleb128 0x14
 2796 057e 7D000000 		.4byte	0x7d
 2797 0582 14       		.uleb128 0x14
 2798 0583 8D050000 		.4byte	0x58d
 2799 0587 14       		.uleb128 0x14
 2800 0588 68000000 		.4byte	0x68
 2801 058c 00       		.byte	0
 2802 058d 0F       		.uleb128 0xf
 2803 058e 04       		.byte	0x4
 2804 058f 93050000 		.4byte	0x593
 2805 0593 18       		.uleb128 0x18
 2806 0594 62050000 		.4byte	0x562
 2807 0598 0F       		.uleb128 0xf
 2808 0599 04       		.byte	0x4
 2809 059a 6F050000 		.4byte	0x56f
 2810 059e 13       		.uleb128 0x13
 2811 059f 95000000 		.4byte	0x95
 2812 05a3 BC050000 		.4byte	0x5bc
 2813 05a7 14       		.uleb128 0x14
 2814 05a8 24040000 		.4byte	0x424
 2815 05ac 14       		.uleb128 0x14
 2816 05ad 7D000000 		.4byte	0x7d
 2817 05b1 14       		.uleb128 0x14
 2818 05b2 95000000 		.4byte	0x95
 2819 05b6 14       		.uleb128 0x14
 2820 05b7 68000000 		.4byte	0x68
 2821 05bb 00       		.byte	0
 2822 05bc 0F       		.uleb128 0xf
 2823 05bd 04       		.byte	0x4
 2824 05be 9E050000 		.4byte	0x59e
 2825 05c2 13       		.uleb128 0x13
 2826 05c3 68000000 		.4byte	0x68
 2827 05c7 D6050000 		.4byte	0x5d6
 2828 05cb 14       		.uleb128 0x14
 2829 05cc 24040000 		.4byte	0x424
 2830 05d0 14       		.uleb128 0x14
 2831 05d1 7D000000 		.4byte	0x7d
 2832 05d5 00       		.byte	0
 2833 05d6 0F       		.uleb128 0xf
 2834 05d7 04       		.byte	0x4
 2835 05d8 C2050000 		.4byte	0x5c2
 2836 05dc 09       		.uleb128 0x9
 2837 05dd 2C000000 		.4byte	0x2c
 2838 05e1 EC050000 		.4byte	0x5ec
 2839 05e5 0A       		.uleb128 0xa
 2840 05e6 DB000000 		.4byte	0xdb
 2841 05ea 02       		.byte	0x2
 2842 05eb 00       		.byte	0
 2843 05ec 09       		.uleb128 0x9
 2844 05ed 2C000000 		.4byte	0x2c
 2845 05f1 FC050000 		.4byte	0x5fc
 2846 05f5 0A       		.uleb128 0xa
ARM GAS  C:\Users\ikui753\AppData\Local\Temp\ccMBzjHX.s 			page 60


 2847 05f6 DB000000 		.4byte	0xdb
 2848 05fa 00       		.byte	0
 2849 05fb 00       		.byte	0
 2850 05fc 06       		.uleb128 0x6
 2851 05fd A5020000 		.4byte	.LASF89
 2852 0601 09       		.byte	0x9
 2853 0602 1D01     		.2byte	0x11d
 2854 0604 DC020000 		.4byte	0x2dc
 2855 0608 19       		.uleb128 0x19
 2856 0609 2B080000 		.4byte	.LASF90
 2857 060d 0C       		.byte	0xc
 2858 060e 09       		.byte	0x9
 2859 060f 2101     		.2byte	0x121
 2860 0611 3D060000 		.4byte	0x63d
 2861 0615 16       		.uleb128 0x16
 2862 0616 1D030000 		.4byte	.LASF23
 2863 061a 09       		.byte	0x9
 2864 061b 2301     		.2byte	0x123
 2865 061d 3D060000 		.4byte	0x63d
 2866 0621 00       		.byte	0
 2867 0622 16       		.uleb128 0x16
 2868 0623 F9060000 		.4byte	.LASF91
 2869 0627 09       		.byte	0x9
 2870 0628 2401     		.2byte	0x124
 2871 062a 68000000 		.4byte	0x68
 2872 062e 04       		.byte	0x4
 2873 062f 16       		.uleb128 0x16
 2874 0630 01040000 		.4byte	.LASF92
 2875 0634 09       		.byte	0x9
 2876 0635 2501     		.2byte	0x125
 2877 0637 43060000 		.4byte	0x643
 2878 063b 08       		.byte	0x8
 2879 063c 00       		.byte	0
 2880 063d 0F       		.uleb128 0xf
 2881 063e 04       		.byte	0x4
 2882 063f 08060000 		.4byte	0x608
 2883 0643 0F       		.uleb128 0xf
 2884 0644 04       		.byte	0x4
 2885 0645 FC050000 		.4byte	0x5fc
 2886 0649 19       		.uleb128 0x19
 2887 064a 3C020000 		.4byte	.LASF93
 2888 064e 0E       		.byte	0xe
 2889 064f 09       		.byte	0x9
 2890 0650 3D01     		.2byte	0x13d
 2891 0652 7E060000 		.4byte	0x67e
 2892 0656 16       		.uleb128 0x16
 2893 0657 2D090000 		.4byte	.LASF94
 2894 065b 09       		.byte	0x9
 2895 065c 3E01     		.2byte	0x13e
 2896 065e 7E060000 		.4byte	0x67e
 2897 0662 00       		.byte	0
 2898 0663 16       		.uleb128 0x16
 2899 0664 81040000 		.4byte	.LASF95
 2900 0668 09       		.byte	0x9
 2901 0669 3F01     		.2byte	0x13f
 2902 066b 7E060000 		.4byte	0x67e
 2903 066f 06       		.byte	0x6
ARM GAS  C:\Users\ikui753\AppData\Local\Temp\ccMBzjHX.s 			page 61


 2904 0670 16       		.uleb128 0x16
 2905 0671 FD070000 		.4byte	.LASF96
 2906 0675 09       		.byte	0x9
 2907 0676 4001     		.2byte	0x140
 2908 0678 3A000000 		.4byte	0x3a
 2909 067c 0C       		.byte	0xc
 2910 067d 00       		.byte	0
 2911 067e 09       		.uleb128 0x9
 2912 067f 3A000000 		.4byte	0x3a
 2913 0683 8E060000 		.4byte	0x68e
 2914 0687 0A       		.uleb128 0xa
 2915 0688 DB000000 		.4byte	0xdb
 2916 068c 02       		.byte	0x2
 2917 068d 00       		.byte	0
 2918 068e 1A       		.uleb128 0x1a
 2919 068f D0       		.byte	0xd0
 2920 0690 09       		.byte	0x9
 2921 0691 5702     		.2byte	0x257
 2922 0693 8F070000 		.4byte	0x78f
 2923 0697 16       		.uleb128 0x16
 2924 0698 02090000 		.4byte	.LASF97
 2925 069c 09       		.byte	0x9
 2926 069d 5902     		.2byte	0x259
 2927 069f 6F000000 		.4byte	0x6f
 2928 06a3 00       		.byte	0
 2929 06a4 16       		.uleb128 0x16
 2930 06a5 39080000 		.4byte	.LASF98
 2931 06a9 09       		.byte	0x9
 2932 06aa 5A02     		.2byte	0x25a
 2933 06ac 5C050000 		.4byte	0x55c
 2934 06b0 04       		.byte	0x4
 2935 06b1 16       		.uleb128 0x16
 2936 06b2 65020000 		.4byte	.LASF99
 2937 06b6 09       		.byte	0x9
 2938 06b7 5B02     		.2byte	0x25b
 2939 06b9 8F070000 		.4byte	0x78f
 2940 06bd 08       		.byte	0x8
 2941 06be 16       		.uleb128 0x16
 2942 06bf 3A060000 		.4byte	.LASF100
 2943 06c3 09       		.byte	0x9
 2944 06c4 5C02     		.2byte	0x25c
 2945 06c6 8D010000 		.4byte	0x18d
 2946 06ca 24       		.byte	0x24
 2947 06cb 16       		.uleb128 0x16
 2948 06cc 4C040000 		.4byte	.LASF101
 2949 06d0 09       		.byte	0x9
 2950 06d1 5D02     		.2byte	0x25d
 2951 06d3 68000000 		.4byte	0x68
 2952 06d7 48       		.byte	0x48
 2953 06d8 16       		.uleb128 0x16
 2954 06d9 40090000 		.4byte	.LASF102
 2955 06dd 09       		.byte	0x9
 2956 06de 5E02     		.2byte	0x25e
 2957 06e0 61000000 		.4byte	0x61
 2958 06e4 50       		.byte	0x50
 2959 06e5 16       		.uleb128 0x16
 2960 06e6 44000000 		.4byte	.LASF103
ARM GAS  C:\Users\ikui753\AppData\Local\Temp\ccMBzjHX.s 			page 62


 2961 06ea 09       		.byte	0x9
 2962 06eb 5F02     		.2byte	0x25f
 2963 06ed 49060000 		.4byte	0x649
 2964 06f1 58       		.byte	0x58
 2965 06f2 16       		.uleb128 0x16
 2966 06f3 8B030000 		.4byte	.LASF104
 2967 06f7 09       		.byte	0x9
 2968 06f8 6002     		.2byte	0x260
 2969 06fa 03010000 		.4byte	0x103
 2970 06fe 68       		.byte	0x68
 2971 06ff 16       		.uleb128 0x16
 2972 0700 46080000 		.4byte	.LASF105
 2973 0704 09       		.byte	0x9
 2974 0705 6102     		.2byte	0x261
 2975 0707 03010000 		.4byte	0x103
 2976 070b 70       		.byte	0x70
 2977 070c 16       		.uleb128 0x16
 2978 070d 36000000 		.4byte	.LASF106
 2979 0711 09       		.byte	0x9
 2980 0712 6202     		.2byte	0x262
 2981 0714 03010000 		.4byte	0x103
 2982 0718 78       		.byte	0x78
 2983 0719 16       		.uleb128 0x16
 2984 071a 66060000 		.4byte	.LASF107
 2985 071e 09       		.byte	0x9
 2986 071f 6302     		.2byte	0x263
 2987 0721 9F070000 		.4byte	0x79f
 2988 0725 80       		.byte	0x80
 2989 0726 16       		.uleb128 0x16
 2990 0727 49000000 		.4byte	.LASF108
 2991 072b 09       		.byte	0x9
 2992 072c 6402     		.2byte	0x264
 2993 072e AF070000 		.4byte	0x7af
 2994 0732 88       		.byte	0x88
 2995 0733 16       		.uleb128 0x16
 2996 0734 F0070000 		.4byte	.LASF109
 2997 0738 09       		.byte	0x9
 2998 0739 6502     		.2byte	0x265
 2999 073b 68000000 		.4byte	0x68
 3000 073f A0       		.byte	0xa0
 3001 0740 16       		.uleb128 0x16
 3002 0741 65010000 		.4byte	.LASF110
 3003 0745 09       		.byte	0x9
 3004 0746 6602     		.2byte	0x266
 3005 0748 03010000 		.4byte	0x103
 3006 074c A4       		.byte	0xa4
 3007 074d 16       		.uleb128 0x16
 3008 074e B1030000 		.4byte	.LASF111
 3009 0752 09       		.byte	0x9
 3010 0753 6702     		.2byte	0x267
 3011 0755 03010000 		.4byte	0x103
 3012 0759 AC       		.byte	0xac
 3013 075a 16       		.uleb128 0x16
 3014 075b 23030000 		.4byte	.LASF112
 3015 075f 09       		.byte	0x9
 3016 0760 6802     		.2byte	0x268
 3017 0762 03010000 		.4byte	0x103
ARM GAS  C:\Users\ikui753\AppData\Local\Temp\ccMBzjHX.s 			page 63


 3018 0766 B4       		.byte	0xb4
 3019 0767 16       		.uleb128 0x16
 3020 0768 8F040000 		.4byte	.LASF113
 3021 076c 09       		.byte	0x9
 3022 076d 6902     		.2byte	0x269
 3023 076f 03010000 		.4byte	0x103
 3024 0773 BC       		.byte	0xbc
 3025 0774 16       		.uleb128 0x16
 3026 0775 7A030000 		.4byte	.LASF114
 3027 0779 09       		.byte	0x9
 3028 077a 6A02     		.2byte	0x26a
 3029 077c 03010000 		.4byte	0x103
 3030 0780 C4       		.byte	0xc4
 3031 0781 16       		.uleb128 0x16
 3032 0782 16050000 		.4byte	.LASF115
 3033 0786 09       		.byte	0x9
 3034 0787 6B02     		.2byte	0x26b
 3035 0789 68000000 		.4byte	0x68
 3036 078d CC       		.byte	0xcc
 3037 078e 00       		.byte	0
 3038 078f 09       		.uleb128 0x9
 3039 0790 62050000 		.4byte	0x562
 3040 0794 9F070000 		.4byte	0x79f
 3041 0798 0A       		.uleb128 0xa
 3042 0799 DB000000 		.4byte	0xdb
 3043 079d 19       		.byte	0x19
 3044 079e 00       		.byte	0
 3045 079f 09       		.uleb128 0x9
 3046 07a0 62050000 		.4byte	0x562
 3047 07a4 AF070000 		.4byte	0x7af
 3048 07a8 0A       		.uleb128 0xa
 3049 07a9 DB000000 		.4byte	0xdb
 3050 07ad 07       		.byte	0x7
 3051 07ae 00       		.byte	0
 3052 07af 09       		.uleb128 0x9
 3053 07b0 62050000 		.4byte	0x562
 3054 07b4 BF070000 		.4byte	0x7bf
 3055 07b8 0A       		.uleb128 0xa
 3056 07b9 DB000000 		.4byte	0xdb
 3057 07bd 17       		.byte	0x17
 3058 07be 00       		.byte	0
 3059 07bf 1A       		.uleb128 0x1a
 3060 07c0 F0       		.byte	0xf0
 3061 07c1 09       		.byte	0x9
 3062 07c2 7002     		.2byte	0x270
 3063 07c4 E3070000 		.4byte	0x7e3
 3064 07c8 16       		.uleb128 0x16
 3065 07c9 35020000 		.4byte	.LASF116
 3066 07cd 09       		.byte	0x9
 3067 07ce 7302     		.2byte	0x273
 3068 07d0 E3070000 		.4byte	0x7e3
 3069 07d4 00       		.byte	0
 3070 07d5 16       		.uleb128 0x16
 3071 07d6 6B090000 		.4byte	.LASF117
 3072 07da 09       		.byte	0x9
 3073 07db 7402     		.2byte	0x274
 3074 07dd F3070000 		.4byte	0x7f3
ARM GAS  C:\Users\ikui753\AppData\Local\Temp\ccMBzjHX.s 			page 64


 3075 07e1 78       		.byte	0x78
 3076 07e2 00       		.byte	0
 3077 07e3 09       		.uleb128 0x9
 3078 07e4 D6020000 		.4byte	0x2d6
 3079 07e8 F3070000 		.4byte	0x7f3
 3080 07ec 0A       		.uleb128 0xa
 3081 07ed DB000000 		.4byte	0xdb
 3082 07f1 1D       		.byte	0x1d
 3083 07f2 00       		.byte	0
 3084 07f3 09       		.uleb128 0x9
 3085 07f4 6F000000 		.4byte	0x6f
 3086 07f8 03080000 		.4byte	0x803
 3087 07fc 0A       		.uleb128 0xa
 3088 07fd DB000000 		.4byte	0xdb
 3089 0801 1D       		.byte	0x1d
 3090 0802 00       		.byte	0
 3091 0803 1B       		.uleb128 0x1b
 3092 0804 F0       		.byte	0xf0
 3093 0805 09       		.byte	0x9
 3094 0806 5502     		.2byte	0x255
 3095 0808 25080000 		.4byte	0x825
 3096 080c 1C       		.uleb128 0x1c
 3097 080d 8F080000 		.4byte	.LASF66
 3098 0811 09       		.byte	0x9
 3099 0812 6C02     		.2byte	0x26c
 3100 0814 8E060000 		.4byte	0x68e
 3101 0818 1C       		.uleb128 0x1c
 3102 0819 49060000 		.4byte	.LASF118
 3103 081d 09       		.byte	0x9
 3104 081e 7502     		.2byte	0x275
 3105 0820 BF070000 		.4byte	0x7bf
 3106 0824 00       		.byte	0
 3107 0825 09       		.uleb128 0x9
 3108 0826 62050000 		.4byte	0x562
 3109 082a 35080000 		.4byte	0x835
 3110 082e 0A       		.uleb128 0xa
 3111 082f DB000000 		.4byte	0xdb
 3112 0833 18       		.byte	0x18
 3113 0834 00       		.byte	0
 3114 0835 1D       		.uleb128 0x1d
 3115 0836 40080000 		.4byte	0x840
 3116 083a 14       		.uleb128 0x14
 3117 083b 24040000 		.4byte	0x424
 3118 083f 00       		.byte	0
 3119 0840 0F       		.uleb128 0xf
 3120 0841 04       		.byte	0x4
 3121 0842 35080000 		.4byte	0x835
 3122 0846 0F       		.uleb128 0xf
 3123 0847 04       		.byte	0x4
 3124 0848 77010000 		.4byte	0x177
 3125 084c 1D       		.uleb128 0x1d
 3126 084d 57080000 		.4byte	0x857
 3127 0851 14       		.uleb128 0x14
 3128 0852 68000000 		.4byte	0x68
 3129 0856 00       		.byte	0
 3130 0857 0F       		.uleb128 0xf
 3131 0858 04       		.byte	0x4
ARM GAS  C:\Users\ikui753\AppData\Local\Temp\ccMBzjHX.s 			page 65


 3132 0859 5D080000 		.4byte	0x85d
 3133 085d 0F       		.uleb128 0xf
 3134 085e 04       		.byte	0x4
 3135 085f 4C080000 		.4byte	0x84c
 3136 0863 09       		.uleb128 0x9
 3137 0864 FC050000 		.4byte	0x5fc
 3138 0868 73080000 		.4byte	0x873
 3139 086c 0A       		.uleb128 0xa
 3140 086d DB000000 		.4byte	0xdb
 3141 0871 02       		.byte	0x2
 3142 0872 00       		.byte	0
 3143 0873 03       		.uleb128 0x3
 3144 0874 07070000 		.4byte	.LASF119
 3145 0878 0A       		.byte	0xa
 3146 0879 2C       		.byte	0x2c
 3147 087a 41000000 		.4byte	0x41
 3148 087e 03       		.uleb128 0x3
 3149 087f 0F090000 		.4byte	.LASF120
 3150 0883 0B       		.byte	0xb
 3151 0884 35       		.byte	0x35
 3152 0885 FC050000 		.4byte	0x5fc
 3153 0889 06       		.uleb128 0x6
 3154 088a CF010000 		.4byte	.LASF121
 3155 088e 0C       		.byte	0xc
 3156 088f E701     		.2byte	0x1e7
 3157 0891 2C000000 		.4byte	0x2c
 3158 0895 06       		.uleb128 0x6
 3159 0896 D4030000 		.4byte	.LASF122
 3160 089a 0C       		.byte	0xc
 3161 089b E801     		.2byte	0x1e8
 3162 089d 3A000000 		.4byte	0x3a
 3163 08a1 06       		.uleb128 0x6
 3164 08a2 E4030000 		.4byte	.LASF123
 3165 08a6 0C       		.byte	0xc
 3166 08a7 EA01     		.2byte	0x1ea
 3167 08a9 25000000 		.4byte	0x25
 3168 08ad 06       		.uleb128 0x6
 3169 08ae 99000000 		.4byte	.LASF124
 3170 08b2 0C       		.byte	0xc
 3171 08b3 EB01     		.2byte	0x1eb
 3172 08b5 33000000 		.4byte	0x33
 3173 08b9 02       		.uleb128 0x2
 3174 08ba 04       		.byte	0x4
 3175 08bb 04       		.byte	0x4
 3176 08bc 1C020000 		.4byte	.LASF125
 3177 08c0 02       		.uleb128 0x2
 3178 08c1 08       		.byte	0x8
 3179 08c2 04       		.byte	0x4
 3180 08c3 E6080000 		.4byte	.LASF126
 3181 08c7 0D       		.uleb128 0xd
 3182 08c8 FE040000 		.4byte	.LASF127
 3183 08cc 20       		.byte	0x20
 3184 08cd 0D       		.byte	0xd
 3185 08ce 29       		.byte	0x29
 3186 08cf A0090000 		.4byte	0x9a0
 3187 08d3 0C       		.uleb128 0xc
 3188 08d4 11050000 		.4byte	.LASF128
ARM GAS  C:\Users\ikui753\AppData\Local\Temp\ccMBzjHX.s 			page 66


 3189 08d8 0D       		.byte	0xd
 3190 08d9 2A       		.byte	0x2a
 3191 08da A1080000 		.4byte	0x8a1
 3192 08de 00       		.byte	0
 3193 08df 0C       		.uleb128 0xc
 3194 08e0 84000000 		.4byte	.LASF129
 3195 08e4 0D       		.byte	0xd
 3196 08e5 2B       		.byte	0x2b
 3197 08e6 89080000 		.4byte	0x889
 3198 08ea 01       		.byte	0x1
 3199 08eb 0C       		.uleb128 0xc
 3200 08ec 1B070000 		.4byte	.LASF130
 3201 08f0 0D       		.byte	0xd
 3202 08f1 2C       		.byte	0x2c
 3203 08f2 AD080000 		.4byte	0x8ad
 3204 08f6 02       		.byte	0x2
 3205 08f7 0C       		.uleb128 0xc
 3206 08f8 48030000 		.4byte	.LASF131
 3207 08fc 0D       		.byte	0xd
 3208 08fd 2D       		.byte	0x2d
 3209 08fe AD080000 		.4byte	0x8ad
 3210 0902 04       		.byte	0x4
 3211 0903 0C       		.uleb128 0xc
 3212 0904 A9080000 		.4byte	.LASF132
 3213 0908 0D       		.byte	0xd
 3214 0909 2E       		.byte	0x2e
 3215 090a AD080000 		.4byte	0x8ad
 3216 090e 06       		.byte	0x6
 3217 090f 0C       		.uleb128 0xc
 3218 0910 ED080000 		.4byte	.LASF133
 3219 0914 0D       		.byte	0xd
 3220 0915 2F       		.byte	0x2f
 3221 0916 AD080000 		.4byte	0x8ad
 3222 091a 08       		.byte	0x8
 3223 091b 0C       		.uleb128 0xc
 3224 091c B9040000 		.4byte	.LASF134
 3225 0920 0D       		.byte	0xd
 3226 0921 30       		.byte	0x30
 3227 0922 AD080000 		.4byte	0x8ad
 3228 0926 0A       		.byte	0xa
 3229 0927 0C       		.uleb128 0xc
 3230 0928 72080000 		.4byte	.LASF135
 3231 092c 0D       		.byte	0xd
 3232 092d 31       		.byte	0x31
 3233 092e AD080000 		.4byte	0x8ad
 3234 0932 0C       		.byte	0xc
 3235 0933 0C       		.uleb128 0xc
 3236 0934 1F050000 		.4byte	.LASF136
 3237 0938 0D       		.byte	0xd
 3238 0939 32       		.byte	0x32
 3239 093a AD080000 		.4byte	0x8ad
 3240 093e 0E       		.byte	0xe
 3241 093f 0C       		.uleb128 0xc
 3242 0940 69040000 		.4byte	.LASF137
 3243 0944 0D       		.byte	0xd
 3244 0945 33       		.byte	0x33
 3245 0946 AD080000 		.4byte	0x8ad
ARM GAS  C:\Users\ikui753\AppData\Local\Temp\ccMBzjHX.s 			page 67


 3246 094a 10       		.byte	0x10
 3247 094b 0C       		.uleb128 0xc
 3248 094c 82060000 		.4byte	.LASF138
 3249 0950 0D       		.byte	0xd
 3250 0951 34       		.byte	0x34
 3251 0952 AD080000 		.4byte	0x8ad
 3252 0956 12       		.byte	0x12
 3253 0957 0C       		.uleb128 0xc
 3254 0958 B9050000 		.4byte	.LASF139
 3255 095c 0D       		.byte	0xd
 3256 095d 35       		.byte	0x35
 3257 095e AD080000 		.4byte	0x8ad
 3258 0962 14       		.byte	0x14
 3259 0963 0C       		.uleb128 0xc
 3260 0964 E9030000 		.4byte	.LASF140
 3261 0968 0D       		.byte	0xd
 3262 0969 36       		.byte	0x36
 3263 096a AD080000 		.4byte	0x8ad
 3264 096e 16       		.byte	0x16
 3265 096f 0C       		.uleb128 0xc
 3266 0970 5D010000 		.4byte	.LASF141
 3267 0974 0D       		.byte	0xd
 3268 0975 37       		.byte	0x37
 3269 0976 AD080000 		.4byte	0x8ad
 3270 097a 18       		.byte	0x18
 3271 097b 0C       		.uleb128 0xc
 3272 097c 1B060000 		.4byte	.LASF142
 3273 0980 0D       		.byte	0xd
 3274 0981 38       		.byte	0x38
 3275 0982 AD080000 		.4byte	0x8ad
 3276 0986 1A       		.byte	0x1a
 3277 0987 0C       		.uleb128 0xc
 3278 0988 B0040000 		.4byte	.LASF143
 3279 098c 0D       		.byte	0xd
 3280 098d 39       		.byte	0x39
 3281 098e AD080000 		.4byte	0x8ad
 3282 0992 1C       		.byte	0x1c
 3283 0993 0C       		.uleb128 0xc
 3284 0994 F9010000 		.4byte	.LASF144
 3285 0998 0D       		.byte	0xd
 3286 0999 3A       		.byte	0x3a
 3287 099a AD080000 		.4byte	0x8ad
 3288 099e 1E       		.byte	0x1e
 3289 099f 00       		.byte	0
 3290 09a0 0D       		.uleb128 0xd
 3291 09a1 AE000000 		.4byte	.LASF145
 3292 09a5 08       		.byte	0x8
 3293 09a6 01       		.byte	0x1
 3294 09a7 3B       		.byte	0x3b
 3295 09a8 C5090000 		.4byte	0x9c5
 3296 09ac 0E       		.uleb128 0xe
 3297 09ad 726F7700 		.ascii	"row\000"
 3298 09b1 01       		.byte	0x1
 3299 09b2 3C       		.byte	0x3c
 3300 09b3 68000000 		.4byte	0x68
 3301 09b7 00       		.byte	0
 3302 09b8 0E       		.uleb128 0xe
ARM GAS  C:\Users\ikui753\AppData\Local\Temp\ccMBzjHX.s 			page 68


 3303 09b9 636F6C00 		.ascii	"col\000"
 3304 09bd 01       		.byte	0x1
 3305 09be 3D       		.byte	0x3d
 3306 09bf 68000000 		.4byte	0x68
 3307 09c3 04       		.byte	0x4
 3308 09c4 00       		.byte	0
 3309 09c5 1E       		.uleb128 0x1e
 3310 09c6 6A080000 		.4byte	.LASF148
 3311 09ca 01       		.byte	0x1
 3312 09cb 17       		.byte	0x17
 3313 09cc 00000000 		.4byte	.LFB64
 3314 09d0 98000000 		.4byte	.LFE64-.LFB64
 3315 09d4 01       		.uleb128 0x1
 3316 09d5 9C       		.byte	0x9c
 3317 09d6 470A0000 		.4byte	0xa47
 3318 09da 1F       		.uleb128 0x1f
 3319 09db 08050000 		.4byte	.LASF146
 3320 09df 01       		.byte	0x1
 3321 09e0 17       		.byte	0x17
 3322 09e1 5C050000 		.4byte	0x55c
 3323 09e5 02       		.uleb128 0x2
 3324 09e6 91       		.byte	0x91
 3325 09e7 64       		.sleb128 -28
 3326 09e8 20       		.uleb128 0x20
 3327 09e9 6D617000 		.ascii	"map\000"
 3328 09ed 01       		.byte	0x1
 3329 09ee 17       		.byte	0x17
 3330 09ef 570A0000 		.4byte	0xa57
 3331 09f3 02       		.uleb128 0x2
 3332 09f4 91       		.byte	0x91
 3333 09f5 60       		.sleb128 -32
 3334 09f6 21       		.uleb128 0x21
 3335 09f7 F6030000 		.4byte	.LASF147
 3336 09fb 01       		.byte	0x1
 3337 09fc 18       		.byte	0x18
 3338 09fd 5D0A0000 		.4byte	0xa5d
 3339 0a01 02       		.uleb128 0x2
 3340 0a02 91       		.byte	0x91
 3341 0a03 68       		.sleb128 -24
 3342 0a04 22       		.uleb128 0x22
 3343 0a05 26000000 		.4byte	.LBB2
 3344 0a09 5E000000 		.4byte	.LBE2-.LBB2
 3345 0a0d 23       		.uleb128 0x23
 3346 0a0e 6900     		.ascii	"i\000"
 3347 0a10 01       		.byte	0x1
 3348 0a11 20       		.byte	0x20
 3349 0a12 68000000 		.4byte	0x68
 3350 0a16 02       		.uleb128 0x2
 3351 0a17 91       		.byte	0x91
 3352 0a18 74       		.sleb128 -12
 3353 0a19 22       		.uleb128 0x22
 3354 0a1a 2C000000 		.4byte	.LBB3
 3355 0a1e 4C000000 		.4byte	.LBE3-.LBB3
 3356 0a22 23       		.uleb128 0x23
 3357 0a23 6A00     		.ascii	"j\000"
 3358 0a25 01       		.byte	0x1
 3359 0a26 21       		.byte	0x21
ARM GAS  C:\Users\ikui753\AppData\Local\Temp\ccMBzjHX.s 			page 69


 3360 0a27 68000000 		.4byte	0x68
 3361 0a2b 02       		.uleb128 0x2
 3362 0a2c 91       		.byte	0x91
 3363 0a2d 70       		.sleb128 -16
 3364 0a2e 22       		.uleb128 0x22
 3365 0a2f 32000000 		.4byte	.LBB4
 3366 0a33 3A000000 		.4byte	.LBE4-.LBB4
 3367 0a37 23       		.uleb128 0x23
 3368 0a38 6300     		.ascii	"c\000"
 3369 0a3a 01       		.byte	0x1
 3370 0a3b 22       		.byte	0x22
 3371 0a3c 62050000 		.4byte	0x562
 3372 0a40 02       		.uleb128 0x2
 3373 0a41 91       		.byte	0x91
 3374 0a42 6F       		.sleb128 -17
 3375 0a43 00       		.byte	0
 3376 0a44 00       		.byte	0
 3377 0a45 00       		.byte	0
 3378 0a46 00       		.byte	0
 3379 0a47 09       		.uleb128 0x9
 3380 0a48 62050000 		.4byte	0x562
 3381 0a4c 570A0000 		.4byte	0xa57
 3382 0a50 0A       		.uleb128 0xa
 3383 0a51 DB000000 		.4byte	0xdb
 3384 0a55 12       		.byte	0x12
 3385 0a56 00       		.byte	0
 3386 0a57 0F       		.uleb128 0xf
 3387 0a58 04       		.byte	0x4
 3388 0a59 470A0000 		.4byte	0xa47
 3389 0a5d 0F       		.uleb128 0xf
 3390 0a5e 04       		.byte	0x4
 3391 0a5f 7E080000 		.4byte	0x87e
 3392 0a63 1E       		.uleb128 0x1e
 3393 0a64 5A070000 		.4byte	.LASF149
 3394 0a68 01       		.byte	0x1
 3395 0a69 31       		.byte	0x31
 3396 0a6a 00000000 		.4byte	.LFB65
 3397 0a6e 56000000 		.4byte	.LFE65-.LFB65
 3398 0a72 01       		.uleb128 0x1
 3399 0a73 9C       		.byte	0x9c
 3400 0a74 B30A0000 		.4byte	0xab3
 3401 0a78 20       		.uleb128 0x20
 3402 0a79 6D617000 		.ascii	"map\000"
 3403 0a7d 01       		.byte	0x1
 3404 0a7e 31       		.byte	0x31
 3405 0a7f 570A0000 		.4byte	0xa57
 3406 0a83 02       		.uleb128 0x2
 3407 0a84 91       		.byte	0x91
 3408 0a85 6C       		.sleb128 -20
 3409 0a86 22       		.uleb128 0x22
 3410 0a87 08000000 		.4byte	.LBB5
 3411 0a8b 46000000 		.4byte	.LBE5-.LBB5
 3412 0a8f 23       		.uleb128 0x23
 3413 0a90 6900     		.ascii	"i\000"
 3414 0a92 01       		.byte	0x1
 3415 0a93 33       		.byte	0x33
 3416 0a94 68000000 		.4byte	0x68
ARM GAS  C:\Users\ikui753\AppData\Local\Temp\ccMBzjHX.s 			page 70


 3417 0a98 02       		.uleb128 0x2
 3418 0a99 91       		.byte	0x91
 3419 0a9a 74       		.sleb128 -12
 3420 0a9b 22       		.uleb128 0x22
 3421 0a9c 0E000000 		.4byte	.LBB6
 3422 0aa0 2E000000 		.4byte	.LBE6-.LBB6
 3423 0aa4 23       		.uleb128 0x23
 3424 0aa5 6A00     		.ascii	"j\000"
 3425 0aa7 01       		.byte	0x1
 3426 0aa8 34       		.byte	0x34
 3427 0aa9 68000000 		.4byte	0x68
 3428 0aad 02       		.uleb128 0x2
 3429 0aae 91       		.byte	0x91
 3430 0aaf 70       		.sleb128 -16
 3431 0ab0 00       		.byte	0
 3432 0ab1 00       		.byte	0
 3433 0ab2 00       		.byte	0
 3434 0ab3 24       		.uleb128 0x24
 3435 0ab4 51090000 		.4byte	.LASF154
 3436 0ab8 01       		.byte	0x1
 3437 0ab9 40       		.byte	0x40
 3438 0aba A0090000 		.4byte	0x9a0
 3439 0abe 00000000 		.4byte	.LFB66
 3440 0ac2 9C000000 		.4byte	.LFE66-.LFB66
 3441 0ac6 01       		.uleb128 0x1
 3442 0ac7 9C       		.byte	0x9c
 3443 0ac8 1D0B0000 		.4byte	0xb1d
 3444 0acc 20       		.uleb128 0x20
 3445 0acd 6D617000 		.ascii	"map\000"
 3446 0ad1 01       		.byte	0x1
 3447 0ad2 40       		.byte	0x40
 3448 0ad3 570A0000 		.4byte	0xa57
 3449 0ad7 02       		.uleb128 0x2
 3450 0ad8 91       		.byte	0x91
 3451 0ad9 50       		.sleb128 -48
 3452 0ada 21       		.uleb128 0x21
 3453 0adb EA060000 		.4byte	.LASF150
 3454 0adf 01       		.byte	0x1
 3455 0ae0 41       		.byte	0x41
 3456 0ae1 A0090000 		.4byte	0x9a0
 3457 0ae5 02       		.uleb128 0x2
 3458 0ae6 91       		.byte	0x91
 3459 0ae7 5C       		.sleb128 -36
 3460 0ae8 21       		.uleb128 0x21
 3461 0ae9 64030000 		.4byte	.LASF151
 3462 0aed 01       		.byte	0x1
 3463 0aee 42       		.byte	0x42
 3464 0aef 68000000 		.4byte	0x68
 3465 0af3 02       		.uleb128 0x2
 3466 0af4 91       		.byte	0x91
 3467 0af5 6C       		.sleb128 -20
 3468 0af6 22       		.uleb128 0x22
 3469 0af7 10000000 		.4byte	.LBB7
 3470 0afb 64000000 		.4byte	.LBE7-.LBB7
 3471 0aff 21       		.uleb128 0x21
 3472 0b00 53030000 		.4byte	.LASF152
 3473 0b04 01       		.byte	0x1
ARM GAS  C:\Users\ikui753\AppData\Local\Temp\ccMBzjHX.s 			page 71


 3474 0b05 44       		.byte	0x44
 3475 0b06 68000000 		.4byte	0x68
 3476 0b0a 02       		.uleb128 0x2
 3477 0b0b 91       		.byte	0x91
 3478 0b0c 68       		.sleb128 -24
 3479 0b0d 21       		.uleb128 0x21
 3480 0b0e C9030000 		.4byte	.LASF153
 3481 0b12 01       		.byte	0x1
 3482 0b13 45       		.byte	0x45
 3483 0b14 68000000 		.4byte	0x68
 3484 0b18 02       		.uleb128 0x2
 3485 0b19 91       		.byte	0x91
 3486 0b1a 64       		.sleb128 -28
 3487 0b1b 00       		.byte	0
 3488 0b1c 00       		.byte	0
 3489 0b1d 25       		.uleb128 0x25
 3490 0b1e 1C000000 		.4byte	.LASF155
 3491 0b22 01       		.byte	0x1
 3492 0b23 53       		.byte	0x53
 3493 0b24 790B0000 		.4byte	0xb79
 3494 0b28 00000000 		.4byte	.LFB67
 3495 0b2c 5A000000 		.4byte	.LFE67-.LFB67
 3496 0b30 01       		.uleb128 0x1
 3497 0b31 9C       		.byte	0x9c
 3498 0b32 790B0000 		.4byte	0xb79
 3499 0b36 20       		.uleb128 0x20
 3500 0b37 7200     		.ascii	"r\000"
 3501 0b39 01       		.byte	0x1
 3502 0b3a 53       		.byte	0x53
 3503 0b3b 68000000 		.4byte	0x68
 3504 0b3f 02       		.uleb128 0x2
 3505 0b40 91       		.byte	0x91
 3506 0b41 74       		.sleb128 -12
 3507 0b42 20       		.uleb128 0x20
 3508 0b43 6300     		.ascii	"c\000"
 3509 0b45 01       		.byte	0x1
 3510 0b46 53       		.byte	0x53
 3511 0b47 68000000 		.4byte	0x68
 3512 0b4b 02       		.uleb128 0x2
 3513 0b4c 91       		.byte	0x91
 3514 0b4d 70       		.sleb128 -16
 3515 0b4e 1F       		.uleb128 0x1f
 3516 0b4f CA010000 		.4byte	.LASF156
 3517 0b53 01       		.byte	0x1
 3518 0b54 53       		.byte	0x53
 3519 0b55 68000000 		.4byte	0x68
 3520 0b59 02       		.uleb128 0x2
 3521 0b5a 91       		.byte	0x91
 3522 0b5b 6C       		.sleb128 -20
 3523 0b5c 1F       		.uleb128 0x1f
 3524 0b5d 8A000000 		.4byte	.LASF157
 3525 0b61 01       		.byte	0x1
 3526 0b62 53       		.byte	0x53
 3527 0b63 68000000 		.4byte	0x68
 3528 0b67 02       		.uleb128 0x2
 3529 0b68 91       		.byte	0x91
 3530 0b69 68       		.sleb128 -24
ARM GAS  C:\Users\ikui753\AppData\Local\Temp\ccMBzjHX.s 			page 72


 3531 0b6a 20       		.uleb128 0x20
 3532 0b6b 6D617000 		.ascii	"map\000"
 3533 0b6f 01       		.byte	0x1
 3534 0b70 53       		.byte	0x53
 3535 0b71 570A0000 		.4byte	0xa57
 3536 0b75 02       		.uleb128 0x2
 3537 0b76 91       		.byte	0x91
 3538 0b77 00       		.sleb128 0
 3539 0b78 00       		.byte	0
 3540 0b79 02       		.uleb128 0x2
 3541 0b7a 01       		.byte	0x1
 3542 0b7b 02       		.byte	0x2
 3543 0b7c 2C050000 		.4byte	.LASF158
 3544 0b80 1E       		.uleb128 0x1e
 3545 0b81 DD020000 		.4byte	.LASF159
 3546 0b85 01       		.byte	0x1
 3547 0b86 58       		.byte	0x58
 3548 0b87 00000000 		.4byte	.LFB68
 3549 0b8b 24080000 		.4byte	.LFE68-.LFB68
 3550 0b8f 01       		.uleb128 0x1
 3551 0b90 9C       		.byte	0x9c
 3552 0b91 B00D0000 		.4byte	0xdb0
 3553 0b95 20       		.uleb128 0x20
 3554 0b96 6D617000 		.ascii	"map\000"
 3555 0b9a 01       		.byte	0x1
 3556 0b9b 58       		.byte	0x58
 3557 0b9c 570A0000 		.4byte	0xa57
 3558 0ba0 03       		.uleb128 0x3
 3559 0ba1 91       		.byte	0x91
 3560 0ba2 C452     		.sleb128 -5820
 3561 0ba4 1F       		.uleb128 0x1f
 3562 0ba5 32050000 		.4byte	.LASF160
 3563 0ba9 01       		.byte	0x1
 3564 0baa 58       		.byte	0x58
 3565 0bab A0090000 		.4byte	0x9a0
 3566 0baf 03       		.uleb128 0x3
 3567 0bb0 91       		.byte	0x91
 3568 0bb1 BC52     		.sleb128 -5828
 3569 0bb3 1F       		.uleb128 0x1f
 3570 0bb4 30070000 		.4byte	.LASF161
 3571 0bb8 01       		.byte	0x1
 3572 0bb9 58       		.byte	0x58
 3573 0bba A0090000 		.4byte	0x9a0
 3574 0bbe 02       		.uleb128 0x2
 3575 0bbf 91       		.byte	0x91
 3576 0bc0 7C       		.sleb128 -4
 3577 0bc1 21       		.uleb128 0x21
 3578 0bc2 12030000 		.4byte	.LASF162
 3579 0bc6 01       		.byte	0x1
 3580 0bc7 5A       		.byte	0x5a
 3581 0bc8 B00D0000 		.4byte	0xdb0
 3582 0bcc 03       		.uleb128 0x3
 3583 0bcd 91       		.byte	0x91
 3584 0bce A476     		.sleb128 -1244
 3585 0bd0 0D       		.uleb128 0xd
 3586 0bd1 C9080000 		.4byte	.LASF163
 3587 0bd5 0C       		.byte	0xc
ARM GAS  C:\Users\ikui753\AppData\Local\Temp\ccMBzjHX.s 			page 73


 3588 0bd6 01       		.byte	0x1
 3589 0bd7 61       		.byte	0x61
 3590 0bd8 F50B0000 		.4byte	0xbf5
 3591 0bdc 0C       		.uleb128 0xc
 3592 0bdd E2050000 		.4byte	.LASF164
 3593 0be1 01       		.byte	0x1
 3594 0be2 62       		.byte	0x62
 3595 0be3 A0090000 		.4byte	0x9a0
 3596 0be7 00       		.byte	0
 3597 0be8 0C       		.uleb128 0xc
 3598 0be9 00000000 		.4byte	.LASF165
 3599 0bed 01       		.byte	0x1
 3600 0bee 63       		.byte	0x63
 3601 0bef 68000000 		.4byte	0x68
 3602 0bf3 08       		.byte	0x8
 3603 0bf4 00       		.byte	0
 3604 0bf5 23       		.uleb128 0x23
 3605 0bf6 707100   		.ascii	"pq\000"
 3606 0bf9 01       		.byte	0x1
 3607 0bfa 66       		.byte	0x66
 3608 0bfb C60D0000 		.4byte	0xdc6
 3609 0bff 03       		.uleb128 0x3
 3610 0c00 91       		.byte	0x91
 3611 0c01 C85B     		.sleb128 -4664
 3612 0c03 21       		.uleb128 0x21
 3613 0c04 EC040000 		.4byte	.LASF166
 3614 0c08 01       		.byte	0x1
 3615 0c09 67       		.byte	0x67
 3616 0c0a 68000000 		.4byte	0x68
 3617 0c0e 02       		.uleb128 0x2
 3618 0c0f 91       		.byte	0x91
 3619 0c10 5C       		.sleb128 -36
 3620 0c11 21       		.uleb128 0x21
 3621 0c12 26070000 		.4byte	.LASF167
 3622 0c16 01       		.byte	0x1
 3623 0c17 6A       		.byte	0x6a
 3624 0c18 B00D0000 		.4byte	0xdb0
 3625 0c1c 03       		.uleb128 0x3
 3626 0c1d 91       		.byte	0x91
 3627 0c1e D452     		.sleb128 -5804
 3628 0c20 21       		.uleb128 0x21
 3629 0c21 DF010000 		.4byte	.LASF168
 3630 0c25 01       		.byte	0x1
 3631 0c26 73       		.byte	0x73
 3632 0c27 68000000 		.4byte	0x68
 3633 0c2b 02       		.uleb128 0x2
 3634 0c2c 91       		.byte	0x91
 3635 0c2d 50       		.sleb128 -48
 3636 0c2e 21       		.uleb128 0x21
 3637 0c2f 8B020000 		.4byte	.LASF169
 3638 0c33 01       		.byte	0x1
 3639 0c34 AA       		.byte	0xaa
 3640 0c35 68000000 		.4byte	0x68
 3641 0c39 02       		.uleb128 0x2
 3642 0c3a 91       		.byte	0x91
 3643 0c3b 40       		.sleb128 -64
 3644 0c3c 21       		.uleb128 0x21
ARM GAS  C:\Users\ikui753\AppData\Local\Temp\ccMBzjHX.s 			page 74


 3645 0c3d F5050000 		.4byte	.LASF170
 3646 0c41 01       		.byte	0x1
 3647 0c42 AD       		.byte	0xad
 3648 0c43 68000000 		.4byte	0x68
 3649 0c47 03       		.uleb128 0x3
 3650 0c48 91       		.byte	0x91
 3651 0c49 BC7F     		.sleb128 -68
 3652 0c4b 21       		.uleb128 0x21
 3653 0c4c 95050000 		.4byte	.LASF171
 3654 0c50 01       		.byte	0x1
 3655 0c51 AE       		.byte	0xae
 3656 0c52 68000000 		.4byte	0x68
 3657 0c56 03       		.uleb128 0x3
 3658 0c57 91       		.byte	0x91
 3659 0c58 B87F     		.sleb128 -72
 3660 0c5a 26       		.uleb128 0x26
 3661 0c5b 28000000 		.4byte	.LBB8
 3662 0c5f 92000000 		.4byte	.LBE8-.LBB8
 3663 0c63 8A0C0000 		.4byte	0xc8a
 3664 0c67 23       		.uleb128 0x23
 3665 0c68 6900     		.ascii	"i\000"
 3666 0c6a 01       		.byte	0x1
 3667 0c6b 5B       		.byte	0x5b
 3668 0c6c 68000000 		.4byte	0x68
 3669 0c70 02       		.uleb128 0x2
 3670 0c71 91       		.byte	0x91
 3671 0c72 64       		.sleb128 -28
 3672 0c73 22       		.uleb128 0x22
 3673 0c74 36000000 		.4byte	.LBB9
 3674 0c78 60000000 		.4byte	.LBE9-.LBB9
 3675 0c7c 23       		.uleb128 0x23
 3676 0c7d 6A00     		.ascii	"j\000"
 3677 0c7f 01       		.byte	0x1
 3678 0c80 5C       		.byte	0x5c
 3679 0c81 68000000 		.4byte	0x68
 3680 0c85 02       		.uleb128 0x2
 3681 0c86 91       		.byte	0x91
 3682 0c87 60       		.sleb128 -32
 3683 0c88 00       		.byte	0
 3684 0c89 00       		.byte	0
 3685 0c8a 26       		.uleb128 0x26
 3686 0c8b C6000000 		.4byte	.LBB10
 3687 0c8f 7E000000 		.4byte	.LBE10-.LBB10
 3688 0c93 BA0C0000 		.4byte	0xcba
 3689 0c97 23       		.uleb128 0x23
 3690 0c98 6900     		.ascii	"i\000"
 3691 0c9a 01       		.byte	0x1
 3692 0c9b 6D       		.byte	0x6d
 3693 0c9c 68000000 		.4byte	0x68
 3694 0ca0 02       		.uleb128 0x2
 3695 0ca1 91       		.byte	0x91
 3696 0ca2 58       		.sleb128 -40
 3697 0ca3 22       		.uleb128 0x22
 3698 0ca4 D0000000 		.4byte	.LBB11
 3699 0ca8 5C000000 		.4byte	.LBE11-.LBB11
 3700 0cac 23       		.uleb128 0x23
 3701 0cad 6A00     		.ascii	"j\000"
ARM GAS  C:\Users\ikui753\AppData\Local\Temp\ccMBzjHX.s 			page 75


 3702 0caf 01       		.byte	0x1
 3703 0cb0 6E       		.byte	0x6e
 3704 0cb1 68000000 		.4byte	0x68
 3705 0cb5 02       		.uleb128 0x2
 3706 0cb6 91       		.byte	0x91
 3707 0cb7 54       		.sleb128 -44
 3708 0cb8 00       		.byte	0
 3709 0cb9 00       		.byte	0
 3710 0cba 27       		.uleb128 0x27
 3711 0cbb 00000000 		.4byte	.Ldebug_ranges0+0
 3712 0cbf 700D0000 		.4byte	0xd70
 3713 0cc3 23       		.uleb128 0x23
 3714 0cc4 69647800 		.ascii	"idx\000"
 3715 0cc8 01       		.byte	0x1
 3716 0cc9 7D       		.byte	0x7d
 3717 0cca 68000000 		.4byte	0x68
 3718 0cce 02       		.uleb128 0x2
 3719 0ccf 91       		.byte	0x91
 3720 0cd0 4C       		.sleb128 -52
 3721 0cd1 21       		.uleb128 0x21
 3722 0cd2 63070000 		.4byte	.LASF172
 3723 0cd6 01       		.byte	0x1
 3724 0cd7 83       		.byte	0x83
 3725 0cd8 D00B0000 		.4byte	0xbd0
 3726 0cdc 03       		.uleb128 0x3
 3727 0cdd 91       		.byte	0x91
 3728 0cde C852     		.sleb128 -5816
 3729 0ce0 23       		.uleb128 0x23
 3730 0ce1 726F7700 		.ascii	"row\000"
 3731 0ce5 01       		.byte	0x1
 3732 0ce6 87       		.byte	0x87
 3733 0ce7 68000000 		.4byte	0x68
 3734 0ceb 03       		.uleb128 0x3
 3735 0cec 91       		.byte	0x91
 3736 0ced B07F     		.sleb128 -80
 3737 0cef 23       		.uleb128 0x23
 3738 0cf0 636F6C00 		.ascii	"col\000"
 3739 0cf4 01       		.byte	0x1
 3740 0cf5 88       		.byte	0x88
 3741 0cf6 68000000 		.4byte	0x68
 3742 0cfa 03       		.uleb128 0x3
 3743 0cfb 91       		.byte	0x91
 3744 0cfc AC7F     		.sleb128 -84
 3745 0cfe 26       		.uleb128 0x26
 3746 0cff F6010000 		.4byte	.LBB13
 3747 0d03 8C000000 		.4byte	.LBE13-.LBB13
 3748 0d07 180D0000 		.4byte	0xd18
 3749 0d0b 23       		.uleb128 0x23
 3750 0d0c 6900     		.ascii	"i\000"
 3751 0d0e 01       		.byte	0x1
 3752 0d0f 7E       		.byte	0x7e
 3753 0d10 68000000 		.4byte	0x68
 3754 0d14 02       		.uleb128 0x2
 3755 0d15 91       		.byte	0x91
 3756 0d16 48       		.sleb128 -56
 3757 0d17 00       		.byte	0
 3758 0d18 22       		.uleb128 0x22
ARM GAS  C:\Users\ikui753\AppData\Local\Temp\ccMBzjHX.s 			page 76


 3759 0d19 A8030000 		.4byte	.LBB14
 3760 0d1d 20020000 		.4byte	.LBE14-.LBB14
 3761 0d21 23       		.uleb128 0x23
 3762 0d22 6900     		.ascii	"i\000"
 3763 0d24 01       		.byte	0x1
 3764 0d25 91       		.byte	0x91
 3765 0d26 68000000 		.4byte	0x68
 3766 0d2a 02       		.uleb128 0x2
 3767 0d2b 91       		.byte	0x91
 3768 0d2c 44       		.sleb128 -60
 3769 0d2d 22       		.uleb128 0x22
 3770 0d2e B6030000 		.4byte	.LBB15
 3771 0d32 EC010000 		.4byte	.LBE15-.LBB15
 3772 0d36 21       		.uleb128 0x21
 3773 0d37 34030000 		.4byte	.LASF173
 3774 0d3b 01       		.byte	0x1
 3775 0d3c 92       		.byte	0x92
 3776 0d3d 68000000 		.4byte	0x68
 3777 0d41 03       		.uleb128 0x3
 3778 0d42 91       		.byte	0x91
 3779 0d43 A87F     		.sleb128 -88
 3780 0d45 21       		.uleb128 0x21
 3781 0d46 07040000 		.4byte	.LASF174
 3782 0d4a 01       		.byte	0x1
 3783 0d4b 93       		.byte	0x93
 3784 0d4c 68000000 		.4byte	0x68
 3785 0d50 03       		.uleb128 0x3
 3786 0d51 91       		.byte	0x91
 3787 0d52 A47F     		.sleb128 -92
 3788 0d54 22       		.uleb128 0x22
 3789 0d55 64040000 		.4byte	.LBB16
 3790 0d59 3E010000 		.4byte	.LBE16-.LBB16
 3791 0d5d 21       		.uleb128 0x21
 3792 0d5e A4040000 		.4byte	.LASF175
 3793 0d62 01       		.byte	0x1
 3794 0d63 96       		.byte	0x96
 3795 0d64 68000000 		.4byte	0x68
 3796 0d68 03       		.uleb128 0x3
 3797 0d69 91       		.byte	0x91
 3798 0d6a A07F     		.sleb128 -96
 3799 0d6c 00       		.byte	0
 3800 0d6d 00       		.byte	0
 3801 0d6e 00       		.byte	0
 3802 0d6f 00       		.byte	0
 3803 0d70 22       		.uleb128 0x22
 3804 0d71 60060000 		.4byte	.LBB18
 3805 0d75 92010000 		.4byte	.LBE18-.LBB18
 3806 0d79 23       		.uleb128 0x23
 3807 0d7a 6900     		.ascii	"i\000"
 3808 0d7c 01       		.byte	0x1
 3809 0d7d B7       		.byte	0xb7
 3810 0d7e 68000000 		.4byte	0x68
 3811 0d82 03       		.uleb128 0x3
 3812 0d83 91       		.byte	0x91
 3813 0d84 B47F     		.sleb128 -76
 3814 0d86 22       		.uleb128 0x22
 3815 0d87 74060000 		.4byte	.LBB19
ARM GAS  C:\Users\ikui753\AppData\Local\Temp\ccMBzjHX.s 			page 77


 3816 0d8b 58010000 		.4byte	.LBE19-.LBB19
 3817 0d8f 21       		.uleb128 0x21
 3818 0d90 34030000 		.4byte	.LASF173
 3819 0d94 01       		.byte	0x1
 3820 0d95 B8       		.byte	0xb8
 3821 0d96 68000000 		.4byte	0x68
 3822 0d9a 03       		.uleb128 0x3
 3823 0d9b 91       		.byte	0x91
 3824 0d9c 9C7F     		.sleb128 -100
 3825 0d9e 21       		.uleb128 0x21
 3826 0d9f 07040000 		.4byte	.LASF174
 3827 0da3 01       		.byte	0x1
 3828 0da4 B9       		.byte	0xb9
 3829 0da5 68000000 		.4byte	0x68
 3830 0da9 03       		.uleb128 0x3
 3831 0daa 91       		.byte	0x91
 3832 0dab 987F     		.sleb128 -104
 3833 0dad 00       		.byte	0
 3834 0dae 00       		.byte	0
 3835 0daf 00       		.byte	0
 3836 0db0 09       		.uleb128 0x9
 3837 0db1 68000000 		.4byte	0x68
 3838 0db5 C60D0000 		.4byte	0xdc6
 3839 0db9 0A       		.uleb128 0xa
 3840 0dba DB000000 		.4byte	0xdb
 3841 0dbe 0E       		.byte	0xe
 3842 0dbf 0A       		.uleb128 0xa
 3843 0dc0 DB000000 		.4byte	0xdb
 3844 0dc4 12       		.byte	0x12
 3845 0dc5 00       		.byte	0
 3846 0dc6 09       		.uleb128 0x9
 3847 0dc7 D00B0000 		.4byte	0xbd0
 3848 0dcb D70D0000 		.4byte	0xdd7
 3849 0dcf 28       		.uleb128 0x28
 3850 0dd0 DB000000 		.4byte	0xdb
 3851 0dd4 1C01     		.2byte	0x11c
 3852 0dd6 00       		.byte	0
 3853 0dd7 29       		.uleb128 0x29
 3854 0dd8 5E080000 		.4byte	.LASF176
 3855 0ddc 01       		.byte	0x1
 3856 0ddd CE       		.byte	0xce
 3857 0dde 00000000 		.4byte	.LFB69
 3858 0de2 B4010000 		.4byte	.LFE69-.LFB69
 3859 0de6 01       		.uleb128 0x1
 3860 0de7 9C       		.byte	0x9c
 3861 0de8 F70E0000 		.4byte	0xef7
 3862 0dec 20       		.uleb128 0x20
 3863 0ded 6D617000 		.ascii	"map\000"
 3864 0df1 01       		.byte	0x1
 3865 0df2 CE       		.byte	0xce
 3866 0df3 570A0000 		.4byte	0xa57
 3867 0df7 03       		.uleb128 0x3
 3868 0df8 91       		.byte	0x91
 3869 0df9 AC76     		.sleb128 -1236
 3870 0dfb 1F       		.uleb128 0x1f
 3871 0dfc BB080000 		.4byte	.LASF177
 3872 0e00 01       		.byte	0x1
ARM GAS  C:\Users\ikui753\AppData\Local\Temp\ccMBzjHX.s 			page 78


 3873 0e01 CE       		.byte	0xce
 3874 0e02 A0090000 		.4byte	0x9a0
 3875 0e06 03       		.uleb128 0x3
 3876 0e07 91       		.byte	0x91
 3877 0e08 A476     		.sleb128 -1244
 3878 0e0a 1F       		.uleb128 0x1f
 3879 0e0b BF020000 		.4byte	.LASF178
 3880 0e0f 01       		.byte	0x1
 3881 0e10 CE       		.byte	0xce
 3882 0e11 A0090000 		.4byte	0x9a0
 3883 0e15 02       		.uleb128 0x2
 3884 0e16 91       		.byte	0x91
 3885 0e17 7C       		.sleb128 -4
 3886 0e18 21       		.uleb128 0x21
 3887 0e19 F5050000 		.4byte	.LASF170
 3888 0e1d 01       		.byte	0x1
 3889 0e1e CF       		.byte	0xcf
 3890 0e1f 68000000 		.4byte	0x68
 3891 0e23 02       		.uleb128 0x2
 3892 0e24 91       		.byte	0x91
 3893 0e25 58       		.sleb128 -40
 3894 0e26 21       		.uleb128 0x21
 3895 0e27 95050000 		.4byte	.LASF171
 3896 0e2b 01       		.byte	0x1
 3897 0e2c D0       		.byte	0xd0
 3898 0e2d 68000000 		.4byte	0x68
 3899 0e31 02       		.uleb128 0x2
 3900 0e32 91       		.byte	0x91
 3901 0e33 54       		.sleb128 -44
 3902 0e34 21       		.uleb128 0x21
 3903 0e35 55050000 		.4byte	.LASF179
 3904 0e39 01       		.byte	0x1
 3905 0e3a D1       		.byte	0xd1
 3906 0e3b 790B0000 		.4byte	0xb79
 3907 0e3f 02       		.uleb128 0x2
 3908 0e40 91       		.byte	0x91
 3909 0e41 46       		.sleb128 -58
 3910 0e42 21       		.uleb128 0x21
 3911 0e43 10000000 		.4byte	.LASF180
 3912 0e47 01       		.byte	0x1
 3913 0e48 D1       		.byte	0xd1
 3914 0e49 790B0000 		.4byte	0xb79
 3915 0e4d 02       		.uleb128 0x2
 3916 0e4e 91       		.byte	0x91
 3917 0e4f 47       		.sleb128 -57
 3918 0e50 21       		.uleb128 0x21
 3919 0e51 2B040000 		.4byte	.LASF181
 3920 0e55 01       		.byte	0x1
 3921 0e56 D1       		.byte	0xd1
 3922 0e57 790B0000 		.4byte	0xb79
 3923 0e5b 02       		.uleb128 0x2
 3924 0e5c 91       		.byte	0x91
 3925 0e5d 45       		.sleb128 -59
 3926 0e5e 21       		.uleb128 0x21
 3927 0e5f 0E040000 		.4byte	.LASF182
 3928 0e63 01       		.byte	0x1
 3929 0e64 D1       		.byte	0xd1
ARM GAS  C:\Users\ikui753\AppData\Local\Temp\ccMBzjHX.s 			page 79


 3930 0e65 790B0000 		.4byte	0xb79
 3931 0e69 02       		.uleb128 0x2
 3932 0e6a 91       		.byte	0x91
 3933 0e6b 53       		.sleb128 -45
 3934 0e6c 21       		.uleb128 0x21
 3935 0e6d C1040000 		.4byte	.LASF183
 3936 0e71 01       		.byte	0x1
 3937 0e72 D2       		.byte	0xd2
 3938 0e73 F70E0000 		.4byte	0xef7
 3939 0e77 03       		.uleb128 0x3
 3940 0e78 91       		.byte	0x91
 3941 0e79 A47F     		.sleb128 -92
 3942 0e7b 21       		.uleb128 0x21
 3943 0e7c A6000000 		.4byte	.LASF184
 3944 0e80 01       		.byte	0x1
 3945 0e81 D3       		.byte	0xd3
 3946 0e82 B00D0000 		.4byte	0xdb0
 3947 0e86 03       		.uleb128 0x3
 3948 0e87 91       		.byte	0x91
 3949 0e88 B076     		.sleb128 -1232
 3950 0e8a 26       		.uleb128 0x26
 3951 0e8b 44000000 		.4byte	.LBB20
 3952 0e8f 52000000 		.4byte	.LBE20-.LBB20
 3953 0e93 BA0E0000 		.4byte	0xeba
 3954 0e97 23       		.uleb128 0x23
 3955 0e98 6900     		.ascii	"i\000"
 3956 0e9a 01       		.byte	0x1
 3957 0e9b D4       		.byte	0xd4
 3958 0e9c 68000000 		.4byte	0x68
 3959 0ea0 02       		.uleb128 0x2
 3960 0ea1 91       		.byte	0x91
 3961 0ea2 64       		.sleb128 -28
 3962 0ea3 22       		.uleb128 0x22
 3963 0ea4 4C000000 		.4byte	.LBB21
 3964 0ea8 38000000 		.4byte	.LBE21-.LBB21
 3965 0eac 23       		.uleb128 0x23
 3966 0ead 6A00     		.ascii	"j\000"
 3967 0eaf 01       		.byte	0x1
 3968 0eb0 D5       		.byte	0xd5
 3969 0eb1 68000000 		.4byte	0x68
 3970 0eb5 02       		.uleb128 0x2
 3971 0eb6 91       		.byte	0x91
 3972 0eb7 60       		.sleb128 -32
 3973 0eb8 00       		.byte	0
 3974 0eb9 00       		.byte	0
 3975 0eba 22       		.uleb128 0x22
 3976 0ebb 98000000 		.4byte	.LBB22
 3977 0ebf F0000000 		.4byte	.LBE22-.LBB22
 3978 0ec3 23       		.uleb128 0x23
 3979 0ec4 6900     		.ascii	"i\000"
 3980 0ec6 01       		.byte	0x1
 3981 0ec7 DB       		.byte	0xdb
 3982 0ec8 68000000 		.4byte	0x68
 3983 0ecc 02       		.uleb128 0x2
 3984 0ecd 91       		.byte	0x91
 3985 0ece 5C       		.sleb128 -36
 3986 0ecf 22       		.uleb128 0x22
ARM GAS  C:\Users\ikui753\AppData\Local\Temp\ccMBzjHX.s 			page 80


 3987 0ed0 A0000000 		.4byte	.LBB23
 3988 0ed4 D6000000 		.4byte	.LBE23-.LBB23
 3989 0ed8 21       		.uleb128 0x21
 3990 0ed9 34030000 		.4byte	.LASF173
 3991 0edd 01       		.byte	0x1
 3992 0ede DC       		.byte	0xdc
 3993 0edf 68000000 		.4byte	0x68
 3994 0ee3 02       		.uleb128 0x2
 3995 0ee4 91       		.byte	0x91
 3996 0ee5 4C       		.sleb128 -52
 3997 0ee6 21       		.uleb128 0x21
 3998 0ee7 07040000 		.4byte	.LASF174
 3999 0eeb 01       		.byte	0x1
 4000 0eec DD       		.byte	0xdd
 4001 0eed 68000000 		.4byte	0x68
 4002 0ef1 02       		.uleb128 0x2
 4003 0ef2 91       		.byte	0x91
 4004 0ef3 48       		.sleb128 -56
 4005 0ef4 00       		.byte	0
 4006 0ef5 00       		.byte	0
 4007 0ef6 00       		.byte	0
 4008 0ef7 09       		.uleb128 0x9
 4009 0ef8 A0090000 		.4byte	0x9a0
 4010 0efc 070F0000 		.4byte	0xf07
 4011 0f00 0A       		.uleb128 0xa
 4012 0f01 DB000000 		.4byte	0xdb
 4013 0f05 03       		.byte	0x3
 4014 0f06 00       		.byte	0
 4015 0f07 2A       		.uleb128 0x2a
 4016 0f08 B5060000 		.4byte	.LASF185
 4017 0f0c 02       		.byte	0x2
 4018 0f0d 12       		.byte	0x12
 4019 0f0e 00000000 		.4byte	.LFB70
 4020 0f12 30000000 		.4byte	.LFE70-.LFB70
 4021 0f16 01       		.uleb128 0x1
 4022 0f17 9C       		.byte	0x9c
 4023 0f18 2A       		.uleb128 0x2a
 4024 0f19 3A040000 		.4byte	.LASF186
 4025 0f1d 03       		.byte	0x3
 4026 0f1e 15       		.byte	0x15
 4027 0f1f 00000000 		.4byte	.LFB71
 4028 0f23 14000000 		.4byte	.LFE71-.LFB71
 4029 0f27 01       		.uleb128 0x1
 4030 0f28 9C       		.byte	0x9c
 4031 0f29 2B       		.uleb128 0x2b
 4032 0f2a 62000000 		.4byte	.LASF188
 4033 0f2e 03       		.byte	0x3
 4034 0f2f 1B       		.byte	0x1b
 4035 0f30 00000000 		.4byte	.LFB72
 4036 0f34 3A000000 		.4byte	.LFE72-.LFB72
 4037 0f38 01       		.uleb128 0x1
 4038 0f39 9C       		.byte	0x9c
 4039 0f3a 4D0F0000 		.4byte	0xf4d
 4040 0f3e 21       		.uleb128 0x21
 4041 0f3f 8A060000 		.4byte	.LASF187
 4042 0f43 03       		.byte	0x3
 4043 0f44 1F       		.byte	0x1f
ARM GAS  C:\Users\ikui753\AppData\Local\Temp\ccMBzjHX.s 			page 81


 4044 0f45 68000000 		.4byte	0x68
 4045 0f49 02       		.uleb128 0x2
 4046 0f4a 91       		.byte	0x91
 4047 0f4b 74       		.sleb128 -12
 4048 0f4c 00       		.byte	0
 4049 0f4d 2B       		.uleb128 0x2b
 4050 0f4e AC010000 		.4byte	.LASF189
 4051 0f52 03       		.byte	0x3
 4052 0f53 2A       		.byte	0x2a
 4053 0f54 00000000 		.4byte	.LFB73
 4054 0f58 3C000000 		.4byte	.LFE73-.LFB73
 4055 0f5c 01       		.uleb128 0x1
 4056 0f5d 9C       		.byte	0x9c
 4057 0f5e 710F0000 		.4byte	0xf71
 4058 0f62 21       		.uleb128 0x21
 4059 0f63 8A060000 		.4byte	.LASF187
 4060 0f67 03       		.byte	0x3
 4061 0f68 2E       		.byte	0x2e
 4062 0f69 68000000 		.4byte	0x68
 4063 0f6d 02       		.uleb128 0x2
 4064 0f6e 91       		.byte	0x91
 4065 0f6f 74       		.sleb128 -12
 4066 0f70 00       		.byte	0
 4067 0f71 2C       		.uleb128 0x2c
 4068 0f72 02080000 		.4byte	.LASF190
 4069 0f76 04       		.byte	0x4
 4070 0f77 33       		.byte	0x33
 4071 0f78 00000000 		.4byte	.LFB74
 4072 0f7c 30000000 		.4byte	.LFE74-.LFB74
 4073 0f80 01       		.uleb128 0x1
 4074 0f81 9C       		.byte	0x9c
 4075 0f82 2D       		.uleb128 0x2d
 4076 0f83 60050000 		.4byte	.LASF191
 4077 0f87 04       		.byte	0x4
 4078 0f88 3B       		.byte	0x3b
 4079 0f89 68000000 		.4byte	0x68
 4080 0f8d 00000000 		.4byte	.LFB75
 4081 0f91 64000000 		.4byte	.LFE75-.LFB75
 4082 0f95 01       		.uleb128 0x1
 4083 0f96 9C       		.byte	0x9c
 4084 0f97 1E       		.uleb128 0x1e
 4085 0f98 E6020000 		.4byte	.LASF192
 4086 0f9c 04       		.byte	0x4
 4087 0f9d 62       		.byte	0x62
 4088 0f9e 00000000 		.4byte	.LFB76
 4089 0fa2 68000000 		.4byte	.LFE76-.LFB76
 4090 0fa6 01       		.uleb128 0x1
 4091 0fa7 9C       		.byte	0x9c
 4092 0fa8 D70F0000 		.4byte	0xfd7
 4093 0fac 1F       		.uleb128 0x1f
 4094 0fad 5E030000 		.4byte	.LASF193
 4095 0fb1 04       		.byte	0x4
 4096 0fb2 62       		.byte	0x62
 4097 0fb3 95080000 		.4byte	0x895
 4098 0fb7 02       		.uleb128 0x2
 4099 0fb8 91       		.byte	0x91
 4100 0fb9 66       		.sleb128 -26
ARM GAS  C:\Users\ikui753\AppData\Local\Temp\ccMBzjHX.s 			page 82


 4101 0fba 23       		.uleb128 0x23
 4102 0fbb 63707300 		.ascii	"cps\000"
 4103 0fbf 04       		.byte	0x4
 4104 0fc0 64       		.byte	0x64
 4105 0fc1 B9080000 		.4byte	0x8b9
 4106 0fc5 02       		.uleb128 0x2
 4107 0fc6 91       		.byte	0x91
 4108 0fc7 6C       		.sleb128 -20
 4109 0fc8 23       		.uleb128 0x23
 4110 0fc9 72706D00 		.ascii	"rpm\000"
 4111 0fcd 04       		.byte	0x4
 4112 0fce 65       		.byte	0x65
 4113 0fcf AD080000 		.4byte	0x8ad
 4114 0fd3 02       		.uleb128 0x2
 4115 0fd4 91       		.byte	0x91
 4116 0fd5 6A       		.sleb128 -22
 4117 0fd6 00       		.byte	0
 4118 0fd7 2E       		.uleb128 0x2e
 4119 0fd8 D5050000 		.4byte	.LASF194
 4120 0fdc 0E       		.byte	0xe
 4121 0fdd 1207     		.2byte	0x712
 4122 0fdf E30F0000 		.4byte	0xfe3
 4123 0fe3 2F       		.uleb128 0x2f
 4124 0fe4 73080000 		.4byte	0x873
 4125 0fe8 30       		.uleb128 0x30
 4126 0fe9 747300   		.ascii	"ts\000"
 4127 0fec 0D       		.byte	0xd
 4128 0fed 10       		.byte	0x10
 4129 0fee 89080000 		.4byte	0x889
 4130 0ff2 05       		.uleb128 0x5
 4131 0ff3 03       		.byte	0x3
 4132 0ff4 00000000 		.4byte	ts
 4133 0ff8 31       		.uleb128 0x31
 4134 0ff9 0D080000 		.4byte	.LASF195
 4135 0ffd 0D       		.byte	0xd
 4136 0ffe 11       		.byte	0x11
 4137 0fff 95080000 		.4byte	0x895
 4138 1003 05       		.uleb128 0x5
 4139 1004 03       		.byte	0x3
 4140 1005 00000000 		.4byte	ts_enc
 4141 1009 31       		.uleb128 0x31
 4142 100a EB050000 		.4byte	.LASF196
 4143 100e 0D       		.byte	0xd
 4144 100f 12       		.byte	0x12
 4145 1010 95080000 		.4byte	0x895
 4146 1014 05       		.uleb128 0x5
 4147 1015 03       		.byte	0x3
 4148 1016 00000000 		.4byte	ts_update
 4149 101a 31       		.uleb128 0x31
 4150 101b E3040000 		.4byte	.LASF197
 4151 101f 0D       		.byte	0xd
 4152 1020 13       		.byte	0x13
 4153 1021 95080000 		.4byte	0x895
 4154 1025 05       		.uleb128 0x5
 4155 1026 03       		.byte	0x3
 4156 1027 00000000 		.4byte	ts_speed
 4157 102b 31       		.uleb128 0x31
ARM GAS  C:\Users\ikui753\AppData\Local\Temp\ccMBzjHX.s 			page 83


 4158 102c 6F030000 		.4byte	.LASF198
 4159 1030 0D       		.byte	0xd
 4160 1031 14       		.byte	0x14
 4161 1032 95080000 		.4byte	0x895
 4162 1036 05       		.uleb128 0x5
 4163 1037 03       		.byte	0x3
 4164 1038 00000000 		.4byte	ts_display
 4165 103c 31       		.uleb128 0x31
 4166 103d 6C050000 		.4byte	.LASF199
 4167 1041 0D       		.byte	0xd
 4168 1042 16       		.byte	0x16
 4169 1043 89080000 		.4byte	0x889
 4170 1047 05       		.uleb128 0x5
 4171 1048 03       		.byte	0x3
 4172 1049 00000000 		.4byte	flag_ts_enc
 4173 104d 31       		.uleb128 0x31
 4174 104e CE020000 		.4byte	.LASF200
 4175 1052 0D       		.byte	0xd
 4176 1053 17       		.byte	0x17
 4177 1054 89080000 		.4byte	0x889
 4178 1058 05       		.uleb128 0x5
 4179 1059 03       		.byte	0x3
 4180 105a 00000000 		.4byte	flag_ts_update
 4181 105e 31       		.uleb128 0x31
 4182 105f 78050000 		.4byte	.LASF201
 4183 1063 0D       		.byte	0xd
 4184 1064 18       		.byte	0x18
 4185 1065 89080000 		.4byte	0x889
 4186 1069 05       		.uleb128 0x5
 4187 106a 03       		.byte	0x3
 4188 106b 00000000 		.4byte	flag_ts_speed
 4189 106f 31       		.uleb128 0x31
 4190 1070 14080000 		.4byte	.LASF202
 4191 1074 0D       		.byte	0xd
 4192 1075 19       		.byte	0x19
 4193 1076 89080000 		.4byte	0x889
 4194 107a 05       		.uleb128 0x5
 4195 107b 03       		.byte	0x3
 4196 107c 00000000 		.4byte	flag_ts_display
 4197 1080 31       		.uleb128 0x31
 4198 1081 B1050000 		.4byte	.LASF203
 4199 1085 0D       		.byte	0xd
 4200 1086 1C       		.byte	0x1c
 4201 1087 89080000 		.4byte	0x889
 4202 108b 05       		.uleb128 0x5
 4203 108c 03       		.byte	0x3
 4204 108d 00000000 		.4byte	flag_rx
 4205 1091 31       		.uleb128 0x31
 4206 1092 7F020000 		.4byte	.LASF204
 4207 1096 0D       		.byte	0xd
 4208 1097 1D       		.byte	0x1d
 4209 1098 89080000 		.4byte	0x889
 4210 109c 05       		.uleb128 0x5
 4211 109d 03       		.byte	0x3
 4212 109e 00000000 		.4byte	flag_packet
 4213 10a2 31       		.uleb128 0x31
 4214 10a3 C9060000 		.4byte	.LASF205
ARM GAS  C:\Users\ikui753\AppData\Local\Temp\ccMBzjHX.s 			page 84


 4215 10a7 0D       		.byte	0xd
 4216 10a8 1E       		.byte	0x1e
 4217 10a9 89080000 		.4byte	0x889
 4218 10ad 05       		.uleb128 0x5
 4219 10ae 03       		.byte	0x3
 4220 10af 00000000 		.4byte	flag_KB_string
 4221 10b3 31       		.uleb128 0x31
 4222 10b4 86050000 		.4byte	.LASF206
 4223 10b8 0D       		.byte	0xd
 4224 10b9 20       		.byte	0x20
 4225 10ba 89080000 		.4byte	0x889
 4226 10be 05       		.uleb128 0x5
 4227 10bf 03       		.byte	0x3
 4228 10c0 00000000 		.4byte	dataready_flag
 4229 10c4 31       		.uleb128 0x31
 4230 10c5 73010000 		.4byte	.LASF207
 4231 10c9 0D       		.byte	0xd
 4232 10ca 22       		.byte	0x22
 4233 10cb 89080000 		.4byte	0x889
 4234 10cf 05       		.uleb128 0x5
 4235 10d0 03       		.byte	0x3
 4236 10d1 00000000 		.4byte	flag_rf_transmission_active
 4237 10d5 09       		.uleb128 0x9
 4238 10d6 62050000 		.4byte	0x562
 4239 10da E5100000 		.4byte	0x10e5
 4240 10de 0A       		.uleb128 0xa
 4241 10df DB000000 		.4byte	0xdb
 4242 10e3 3F       		.byte	0x3f
 4243 10e4 00       		.byte	0
 4244 10e5 31       		.uleb128 0x31
 4245 10e6 99060000 		.4byte	.LASF208
 4246 10ea 0D       		.byte	0xd
 4247 10eb 25       		.byte	0x25
 4248 10ec D5100000 		.4byte	0x10d5
 4249 10f0 05       		.uleb128 0x5
 4250 10f1 03       		.byte	0x3
 4251 10f2 00000000 		.4byte	displaystring
 4252 10f6 31       		.uleb128 0x31
 4253 10f7 55070000 		.4byte	.LASF209
 4254 10fb 0D       		.byte	0xd
 4255 10fc 26       		.byte	0x26
 4256 10fd D5100000 		.4byte	0x10d5
 4257 1101 05       		.uleb128 0x5
 4258 1102 03       		.byte	0x3
 4259 1103 00000000 		.4byte	line
 4260 1107 31       		.uleb128 0x31
 4261 1108 34040000 		.4byte	.LASF210
 4262 110c 0D       		.byte	0xd
 4263 110d 26       		.byte	0x26
 4264 110e D5100000 		.4byte	0x10d5
 4265 1112 05       		.uleb128 0x5
 4266 1113 03       		.byte	0x3
 4267 1114 00000000 		.4byte	entry
 4268 1118 09       		.uleb128 0x9
 4269 1119 89080000 		.4byte	0x889
 4270 111d 28110000 		.4byte	0x1128
 4271 1121 0A       		.uleb128 0xa
ARM GAS  C:\Users\ikui753\AppData\Local\Temp\ccMBzjHX.s 			page 85


 4272 1122 DB000000 		.4byte	0xdb
 4273 1126 3F       		.byte	0x3f
 4274 1127 00       		.byte	0
 4275 1128 31       		.uleb128 0x31
 4276 1129 2B020000 		.4byte	.LASF211
 4277 112d 0D       		.byte	0xd
 4278 112e 27       		.byte	0x27
 4279 112f 18110000 		.4byte	0x1118
 4280 1133 05       		.uleb128 0x5
 4281 1134 03       		.byte	0x3
 4282 1135 00000000 		.4byte	usbBuffer
 4283 1139 31       		.uleb128 0x31
 4284 113a 33090000 		.4byte	.LASF212
 4285 113e 0D       		.byte	0xd
 4286 113f 3C       		.byte	0x3c
 4287 1140 C7080000 		.4byte	0x8c7
 4288 1144 05       		.uleb128 0x5
 4289 1145 03       		.byte	0x3
 4290 1146 00000000 		.4byte	system_state
 4291 114a 31       		.uleb128 0x31
 4292 114b C1040000 		.4byte	.LASF183
 4293 114f 01       		.byte	0x1
 4294 1150 51       		.byte	0x51
 4295 1151 F70E0000 		.4byte	0xef7
 4296 1155 05       		.uleb128 0x5
 4297 1156 03       		.byte	0x3
 4298 1157 00000000 		.4byte	moves
 4299 115b 09       		.uleb128 0x9
 4300 115c 62050000 		.4byte	0x562
 4301 1160 6B110000 		.4byte	0x116b
 4302 1164 0A       		.uleb128 0xa
 4303 1165 DB000000 		.4byte	0xdb
 4304 1169 44       		.byte	0x44
 4305 116a 00       		.byte	0
 4306 116b 31       		.uleb128 0x31
 4307 116c DC040000 		.4byte	.LASF213
 4308 1170 04       		.byte	0x4
 4309 1171 2C       		.byte	0x2c
 4310 1172 5B110000 		.4byte	0x115b
 4311 1176 05       		.uleb128 0x5
 4312 1177 03       		.byte	0x3
 4313 1178 00000000 		.4byte	buffer
 4314 117c 31       		.uleb128 0x31
 4315 117d 06020000 		.4byte	.LASF214
 4316 1181 04       		.byte	0x4
 4317 1182 2D       		.byte	0x2d
 4318 1183 68000000 		.4byte	0x68
 4319 1187 05       		.uleb128 0x5
 4320 1188 03       		.byte	0x3
 4321 1189 00000000 		.4byte	quadDec2Count
 4322 118d 31       		.uleb128 0x31
 4323 118e 24090000 		.4byte	.LASF215
 4324 1192 04       		.byte	0x4
 4325 1193 2E       		.byte	0x2e
 4326 1194 68000000 		.4byte	0x68
 4327 1198 05       		.uleb128 0x5
 4328 1199 03       		.byte	0x3
ARM GAS  C:\Users\ikui753\AppData\Local\Temp\ccMBzjHX.s 			page 86


 4329 119a 00000000 		.4byte	timerInt
 4330 119e 31       		.uleb128 0x31
 4331 119f 54080000 		.4byte	.LASF216
 4332 11a3 04       		.byte	0x4
 4333 11a4 2F       		.byte	0x2f
 4334 11a5 95080000 		.4byte	0x895
 4335 11a9 05       		.uleb128 0x5
 4336 11aa 03       		.byte	0x3
 4337 11ab 00000000 		.4byte	turnCount
 4338 11af 31       		.uleb128 0x31
 4339 11b0 98020000 		.4byte	.LASF217
 4340 11b4 04       		.byte	0x4
 4341 11b5 30       		.byte	0x30
 4342 11b6 95080000 		.4byte	0x895
 4343 11ba 05       		.uleb128 0x5
 4344 11bb 03       		.byte	0x3
 4345 11bc 00000000 		.4byte	maxTurnCount
 4346 11c0 00       		.byte	0
 4347              		.section	.debug_abbrev,"",%progbits
 4348              	.Ldebug_abbrev0:
 4349 0000 01       		.uleb128 0x1
 4350 0001 11       		.uleb128 0x11
 4351 0002 01       		.byte	0x1
 4352 0003 25       		.uleb128 0x25
 4353 0004 0E       		.uleb128 0xe
 4354 0005 13       		.uleb128 0x13
 4355 0006 0B       		.uleb128 0xb
 4356 0007 03       		.uleb128 0x3
 4357 0008 0E       		.uleb128 0xe
 4358 0009 1B       		.uleb128 0x1b
 4359 000a 0E       		.uleb128 0xe
 4360 000b 55       		.uleb128 0x55
 4361 000c 17       		.uleb128 0x17
 4362 000d 11       		.uleb128 0x11
 4363 000e 01       		.uleb128 0x1
 4364 000f 10       		.uleb128 0x10
 4365 0010 17       		.uleb128 0x17
 4366 0011 00       		.byte	0
 4367 0012 00       		.byte	0
 4368 0013 02       		.uleb128 0x2
 4369 0014 24       		.uleb128 0x24
 4370 0015 00       		.byte	0
 4371 0016 0B       		.uleb128 0xb
 4372 0017 0B       		.uleb128 0xb
 4373 0018 3E       		.uleb128 0x3e
 4374 0019 0B       		.uleb128 0xb
 4375 001a 03       		.uleb128 0x3
 4376 001b 0E       		.uleb128 0xe
 4377 001c 00       		.byte	0
 4378 001d 00       		.byte	0
 4379 001e 03       		.uleb128 0x3
 4380 001f 16       		.uleb128 0x16
 4381 0020 00       		.byte	0
 4382 0021 03       		.uleb128 0x3
 4383 0022 0E       		.uleb128 0xe
 4384 0023 3A       		.uleb128 0x3a
 4385 0024 0B       		.uleb128 0xb
ARM GAS  C:\Users\ikui753\AppData\Local\Temp\ccMBzjHX.s 			page 87


 4386 0025 3B       		.uleb128 0x3b
 4387 0026 0B       		.uleb128 0xb
 4388 0027 49       		.uleb128 0x49
 4389 0028 13       		.uleb128 0x13
 4390 0029 00       		.byte	0
 4391 002a 00       		.byte	0
 4392 002b 04       		.uleb128 0x4
 4393 002c 24       		.uleb128 0x24
 4394 002d 00       		.byte	0
 4395 002e 0B       		.uleb128 0xb
 4396 002f 0B       		.uleb128 0xb
 4397 0030 3E       		.uleb128 0x3e
 4398 0031 0B       		.uleb128 0xb
 4399 0032 03       		.uleb128 0x3
 4400 0033 08       		.uleb128 0x8
 4401 0034 00       		.byte	0
 4402 0035 00       		.byte	0
 4403 0036 05       		.uleb128 0x5
 4404 0037 0F       		.uleb128 0xf
 4405 0038 00       		.byte	0
 4406 0039 0B       		.uleb128 0xb
 4407 003a 0B       		.uleb128 0xb
 4408 003b 00       		.byte	0
 4409 003c 00       		.byte	0
 4410 003d 06       		.uleb128 0x6
 4411 003e 16       		.uleb128 0x16
 4412 003f 00       		.byte	0
 4413 0040 03       		.uleb128 0x3
 4414 0041 0E       		.uleb128 0xe
 4415 0042 3A       		.uleb128 0x3a
 4416 0043 0B       		.uleb128 0xb
 4417 0044 3B       		.uleb128 0x3b
 4418 0045 05       		.uleb128 0x5
 4419 0046 49       		.uleb128 0x49
 4420 0047 13       		.uleb128 0x13
 4421 0048 00       		.byte	0
 4422 0049 00       		.byte	0
 4423 004a 07       		.uleb128 0x7
 4424 004b 17       		.uleb128 0x17
 4425 004c 01       		.byte	0x1
 4426 004d 0B       		.uleb128 0xb
 4427 004e 0B       		.uleb128 0xb
 4428 004f 3A       		.uleb128 0x3a
 4429 0050 0B       		.uleb128 0xb
 4430 0051 3B       		.uleb128 0x3b
 4431 0052 0B       		.uleb128 0xb
 4432 0053 01       		.uleb128 0x1
 4433 0054 13       		.uleb128 0x13
 4434 0055 00       		.byte	0
 4435 0056 00       		.byte	0
 4436 0057 08       		.uleb128 0x8
 4437 0058 0D       		.uleb128 0xd
 4438 0059 00       		.byte	0
 4439 005a 03       		.uleb128 0x3
 4440 005b 0E       		.uleb128 0xe
 4441 005c 3A       		.uleb128 0x3a
 4442 005d 0B       		.uleb128 0xb
ARM GAS  C:\Users\ikui753\AppData\Local\Temp\ccMBzjHX.s 			page 88


 4443 005e 3B       		.uleb128 0x3b
 4444 005f 0B       		.uleb128 0xb
 4445 0060 49       		.uleb128 0x49
 4446 0061 13       		.uleb128 0x13
 4447 0062 00       		.byte	0
 4448 0063 00       		.byte	0
 4449 0064 09       		.uleb128 0x9
 4450 0065 01       		.uleb128 0x1
 4451 0066 01       		.byte	0x1
 4452 0067 49       		.uleb128 0x49
 4453 0068 13       		.uleb128 0x13
 4454 0069 01       		.uleb128 0x1
 4455 006a 13       		.uleb128 0x13
 4456 006b 00       		.byte	0
 4457 006c 00       		.byte	0
 4458 006d 0A       		.uleb128 0xa
 4459 006e 21       		.uleb128 0x21
 4460 006f 00       		.byte	0
 4461 0070 49       		.uleb128 0x49
 4462 0071 13       		.uleb128 0x13
 4463 0072 2F       		.uleb128 0x2f
 4464 0073 0B       		.uleb128 0xb
 4465 0074 00       		.byte	0
 4466 0075 00       		.byte	0
 4467 0076 0B       		.uleb128 0xb
 4468 0077 13       		.uleb128 0x13
 4469 0078 01       		.byte	0x1
 4470 0079 0B       		.uleb128 0xb
 4471 007a 0B       		.uleb128 0xb
 4472 007b 3A       		.uleb128 0x3a
 4473 007c 0B       		.uleb128 0xb
 4474 007d 3B       		.uleb128 0x3b
 4475 007e 0B       		.uleb128 0xb
 4476 007f 01       		.uleb128 0x1
 4477 0080 13       		.uleb128 0x13
 4478 0081 00       		.byte	0
 4479 0082 00       		.byte	0
 4480 0083 0C       		.uleb128 0xc
 4481 0084 0D       		.uleb128 0xd
 4482 0085 00       		.byte	0
 4483 0086 03       		.uleb128 0x3
 4484 0087 0E       		.uleb128 0xe
 4485 0088 3A       		.uleb128 0x3a
 4486 0089 0B       		.uleb128 0xb
 4487 008a 3B       		.uleb128 0x3b
 4488 008b 0B       		.uleb128 0xb
 4489 008c 49       		.uleb128 0x49
 4490 008d 13       		.uleb128 0x13
 4491 008e 38       		.uleb128 0x38
 4492 008f 0B       		.uleb128 0xb
 4493 0090 00       		.byte	0
 4494 0091 00       		.byte	0
 4495 0092 0D       		.uleb128 0xd
 4496 0093 13       		.uleb128 0x13
 4497 0094 01       		.byte	0x1
 4498 0095 03       		.uleb128 0x3
 4499 0096 0E       		.uleb128 0xe
ARM GAS  C:\Users\ikui753\AppData\Local\Temp\ccMBzjHX.s 			page 89


 4500 0097 0B       		.uleb128 0xb
 4501 0098 0B       		.uleb128 0xb
 4502 0099 3A       		.uleb128 0x3a
 4503 009a 0B       		.uleb128 0xb
 4504 009b 3B       		.uleb128 0x3b
 4505 009c 0B       		.uleb128 0xb
 4506 009d 01       		.uleb128 0x1
 4507 009e 13       		.uleb128 0x13
 4508 009f 00       		.byte	0
 4509 00a0 00       		.byte	0
 4510 00a1 0E       		.uleb128 0xe
 4511 00a2 0D       		.uleb128 0xd
 4512 00a3 00       		.byte	0
 4513 00a4 03       		.uleb128 0x3
 4514 00a5 08       		.uleb128 0x8
 4515 00a6 3A       		.uleb128 0x3a
 4516 00a7 0B       		.uleb128 0xb
 4517 00a8 3B       		.uleb128 0x3b
 4518 00a9 0B       		.uleb128 0xb
 4519 00aa 49       		.uleb128 0x49
 4520 00ab 13       		.uleb128 0x13
 4521 00ac 38       		.uleb128 0x38
 4522 00ad 0B       		.uleb128 0xb
 4523 00ae 00       		.byte	0
 4524 00af 00       		.byte	0
 4525 00b0 0F       		.uleb128 0xf
 4526 00b1 0F       		.uleb128 0xf
 4527 00b2 00       		.byte	0
 4528 00b3 0B       		.uleb128 0xb
 4529 00b4 0B       		.uleb128 0xb
 4530 00b5 49       		.uleb128 0x49
 4531 00b6 13       		.uleb128 0x13
 4532 00b7 00       		.byte	0
 4533 00b8 00       		.byte	0
 4534 00b9 10       		.uleb128 0x10
 4535 00ba 13       		.uleb128 0x13
 4536 00bb 01       		.byte	0x1
 4537 00bc 03       		.uleb128 0x3
 4538 00bd 0E       		.uleb128 0xe
 4539 00be 0B       		.uleb128 0xb
 4540 00bf 05       		.uleb128 0x5
 4541 00c0 3A       		.uleb128 0x3a
 4542 00c1 0B       		.uleb128 0xb
 4543 00c2 3B       		.uleb128 0x3b
 4544 00c3 0B       		.uleb128 0xb
 4545 00c4 01       		.uleb128 0x1
 4546 00c5 13       		.uleb128 0x13
 4547 00c6 00       		.byte	0
 4548 00c7 00       		.byte	0
 4549 00c8 11       		.uleb128 0x11
 4550 00c9 0D       		.uleb128 0xd
 4551 00ca 00       		.byte	0
 4552 00cb 03       		.uleb128 0x3
 4553 00cc 0E       		.uleb128 0xe
 4554 00cd 3A       		.uleb128 0x3a
 4555 00ce 0B       		.uleb128 0xb
 4556 00cf 3B       		.uleb128 0x3b
ARM GAS  C:\Users\ikui753\AppData\Local\Temp\ccMBzjHX.s 			page 90


 4557 00d0 0B       		.uleb128 0xb
 4558 00d1 49       		.uleb128 0x49
 4559 00d2 13       		.uleb128 0x13
 4560 00d3 38       		.uleb128 0x38
 4561 00d4 05       		.uleb128 0x5
 4562 00d5 00       		.byte	0
 4563 00d6 00       		.byte	0
 4564 00d7 12       		.uleb128 0x12
 4565 00d8 15       		.uleb128 0x15
 4566 00d9 00       		.byte	0
 4567 00da 27       		.uleb128 0x27
 4568 00db 19       		.uleb128 0x19
 4569 00dc 00       		.byte	0
 4570 00dd 00       		.byte	0
 4571 00de 13       		.uleb128 0x13
 4572 00df 15       		.uleb128 0x15
 4573 00e0 01       		.byte	0x1
 4574 00e1 27       		.uleb128 0x27
 4575 00e2 19       		.uleb128 0x19
 4576 00e3 49       		.uleb128 0x49
 4577 00e4 13       		.uleb128 0x13
 4578 00e5 01       		.uleb128 0x1
 4579 00e6 13       		.uleb128 0x13
 4580 00e7 00       		.byte	0
 4581 00e8 00       		.byte	0
 4582 00e9 14       		.uleb128 0x14
 4583 00ea 05       		.uleb128 0x5
 4584 00eb 00       		.byte	0
 4585 00ec 49       		.uleb128 0x49
 4586 00ed 13       		.uleb128 0x13
 4587 00ee 00       		.byte	0
 4588 00ef 00       		.byte	0
 4589 00f0 15       		.uleb128 0x15
 4590 00f1 13       		.uleb128 0x13
 4591 00f2 01       		.byte	0x1
 4592 00f3 03       		.uleb128 0x3
 4593 00f4 0E       		.uleb128 0xe
 4594 00f5 0B       		.uleb128 0xb
 4595 00f6 05       		.uleb128 0x5
 4596 00f7 3A       		.uleb128 0x3a
 4597 00f8 0B       		.uleb128 0xb
 4598 00f9 3B       		.uleb128 0x3b
 4599 00fa 05       		.uleb128 0x5
 4600 00fb 01       		.uleb128 0x1
 4601 00fc 13       		.uleb128 0x13
 4602 00fd 00       		.byte	0
 4603 00fe 00       		.byte	0
 4604 00ff 16       		.uleb128 0x16
 4605 0100 0D       		.uleb128 0xd
 4606 0101 00       		.byte	0
 4607 0102 03       		.uleb128 0x3
 4608 0103 0E       		.uleb128 0xe
 4609 0104 3A       		.uleb128 0x3a
 4610 0105 0B       		.uleb128 0xb
 4611 0106 3B       		.uleb128 0x3b
 4612 0107 05       		.uleb128 0x5
 4613 0108 49       		.uleb128 0x49
ARM GAS  C:\Users\ikui753\AppData\Local\Temp\ccMBzjHX.s 			page 91


 4614 0109 13       		.uleb128 0x13
 4615 010a 38       		.uleb128 0x38
 4616 010b 0B       		.uleb128 0xb
 4617 010c 00       		.byte	0
 4618 010d 00       		.byte	0
 4619 010e 17       		.uleb128 0x17
 4620 010f 0D       		.uleb128 0xd
 4621 0110 00       		.byte	0
 4622 0111 03       		.uleb128 0x3
 4623 0112 0E       		.uleb128 0xe
 4624 0113 3A       		.uleb128 0x3a
 4625 0114 0B       		.uleb128 0xb
 4626 0115 3B       		.uleb128 0x3b
 4627 0116 05       		.uleb128 0x5
 4628 0117 49       		.uleb128 0x49
 4629 0118 13       		.uleb128 0x13
 4630 0119 38       		.uleb128 0x38
 4631 011a 05       		.uleb128 0x5
 4632 011b 00       		.byte	0
 4633 011c 00       		.byte	0
 4634 011d 18       		.uleb128 0x18
 4635 011e 26       		.uleb128 0x26
 4636 011f 00       		.byte	0
 4637 0120 49       		.uleb128 0x49
 4638 0121 13       		.uleb128 0x13
 4639 0122 00       		.byte	0
 4640 0123 00       		.byte	0
 4641 0124 19       		.uleb128 0x19
 4642 0125 13       		.uleb128 0x13
 4643 0126 01       		.byte	0x1
 4644 0127 03       		.uleb128 0x3
 4645 0128 0E       		.uleb128 0xe
 4646 0129 0B       		.uleb128 0xb
 4647 012a 0B       		.uleb128 0xb
 4648 012b 3A       		.uleb128 0x3a
 4649 012c 0B       		.uleb128 0xb
 4650 012d 3B       		.uleb128 0x3b
 4651 012e 05       		.uleb128 0x5
 4652 012f 01       		.uleb128 0x1
 4653 0130 13       		.uleb128 0x13
 4654 0131 00       		.byte	0
 4655 0132 00       		.byte	0
 4656 0133 1A       		.uleb128 0x1a
 4657 0134 13       		.uleb128 0x13
 4658 0135 01       		.byte	0x1
 4659 0136 0B       		.uleb128 0xb
 4660 0137 0B       		.uleb128 0xb
 4661 0138 3A       		.uleb128 0x3a
 4662 0139 0B       		.uleb128 0xb
 4663 013a 3B       		.uleb128 0x3b
 4664 013b 05       		.uleb128 0x5
 4665 013c 01       		.uleb128 0x1
 4666 013d 13       		.uleb128 0x13
 4667 013e 00       		.byte	0
 4668 013f 00       		.byte	0
 4669 0140 1B       		.uleb128 0x1b
 4670 0141 17       		.uleb128 0x17
ARM GAS  C:\Users\ikui753\AppData\Local\Temp\ccMBzjHX.s 			page 92


 4671 0142 01       		.byte	0x1
 4672 0143 0B       		.uleb128 0xb
 4673 0144 0B       		.uleb128 0xb
 4674 0145 3A       		.uleb128 0x3a
 4675 0146 0B       		.uleb128 0xb
 4676 0147 3B       		.uleb128 0x3b
 4677 0148 05       		.uleb128 0x5
 4678 0149 01       		.uleb128 0x1
 4679 014a 13       		.uleb128 0x13
 4680 014b 00       		.byte	0
 4681 014c 00       		.byte	0
 4682 014d 1C       		.uleb128 0x1c
 4683 014e 0D       		.uleb128 0xd
 4684 014f 00       		.byte	0
 4685 0150 03       		.uleb128 0x3
 4686 0151 0E       		.uleb128 0xe
 4687 0152 3A       		.uleb128 0x3a
 4688 0153 0B       		.uleb128 0xb
 4689 0154 3B       		.uleb128 0x3b
 4690 0155 05       		.uleb128 0x5
 4691 0156 49       		.uleb128 0x49
 4692 0157 13       		.uleb128 0x13
 4693 0158 00       		.byte	0
 4694 0159 00       		.byte	0
 4695 015a 1D       		.uleb128 0x1d
 4696 015b 15       		.uleb128 0x15
 4697 015c 01       		.byte	0x1
 4698 015d 27       		.uleb128 0x27
 4699 015e 19       		.uleb128 0x19
 4700 015f 01       		.uleb128 0x1
 4701 0160 13       		.uleb128 0x13
 4702 0161 00       		.byte	0
 4703 0162 00       		.byte	0
 4704 0163 1E       		.uleb128 0x1e
 4705 0164 2E       		.uleb128 0x2e
 4706 0165 01       		.byte	0x1
 4707 0166 3F       		.uleb128 0x3f
 4708 0167 19       		.uleb128 0x19
 4709 0168 03       		.uleb128 0x3
 4710 0169 0E       		.uleb128 0xe
 4711 016a 3A       		.uleb128 0x3a
 4712 016b 0B       		.uleb128 0xb
 4713 016c 3B       		.uleb128 0x3b
 4714 016d 0B       		.uleb128 0xb
 4715 016e 27       		.uleb128 0x27
 4716 016f 19       		.uleb128 0x19
 4717 0170 11       		.uleb128 0x11
 4718 0171 01       		.uleb128 0x1
 4719 0172 12       		.uleb128 0x12
 4720 0173 06       		.uleb128 0x6
 4721 0174 40       		.uleb128 0x40
 4722 0175 18       		.uleb128 0x18
 4723 0176 9642     		.uleb128 0x2116
 4724 0178 19       		.uleb128 0x19
 4725 0179 01       		.uleb128 0x1
 4726 017a 13       		.uleb128 0x13
 4727 017b 00       		.byte	0
ARM GAS  C:\Users\ikui753\AppData\Local\Temp\ccMBzjHX.s 			page 93


 4728 017c 00       		.byte	0
 4729 017d 1F       		.uleb128 0x1f
 4730 017e 05       		.uleb128 0x5
 4731 017f 00       		.byte	0
 4732 0180 03       		.uleb128 0x3
 4733 0181 0E       		.uleb128 0xe
 4734 0182 3A       		.uleb128 0x3a
 4735 0183 0B       		.uleb128 0xb
 4736 0184 3B       		.uleb128 0x3b
 4737 0185 0B       		.uleb128 0xb
 4738 0186 49       		.uleb128 0x49
 4739 0187 13       		.uleb128 0x13
 4740 0188 02       		.uleb128 0x2
 4741 0189 18       		.uleb128 0x18
 4742 018a 00       		.byte	0
 4743 018b 00       		.byte	0
 4744 018c 20       		.uleb128 0x20
 4745 018d 05       		.uleb128 0x5
 4746 018e 00       		.byte	0
 4747 018f 03       		.uleb128 0x3
 4748 0190 08       		.uleb128 0x8
 4749 0191 3A       		.uleb128 0x3a
 4750 0192 0B       		.uleb128 0xb
 4751 0193 3B       		.uleb128 0x3b
 4752 0194 0B       		.uleb128 0xb
 4753 0195 49       		.uleb128 0x49
 4754 0196 13       		.uleb128 0x13
 4755 0197 02       		.uleb128 0x2
 4756 0198 18       		.uleb128 0x18
 4757 0199 00       		.byte	0
 4758 019a 00       		.byte	0
 4759 019b 21       		.uleb128 0x21
 4760 019c 34       		.uleb128 0x34
 4761 019d 00       		.byte	0
 4762 019e 03       		.uleb128 0x3
 4763 019f 0E       		.uleb128 0xe
 4764 01a0 3A       		.uleb128 0x3a
 4765 01a1 0B       		.uleb128 0xb
 4766 01a2 3B       		.uleb128 0x3b
 4767 01a3 0B       		.uleb128 0xb
 4768 01a4 49       		.uleb128 0x49
 4769 01a5 13       		.uleb128 0x13
 4770 01a6 02       		.uleb128 0x2
 4771 01a7 18       		.uleb128 0x18
 4772 01a8 00       		.byte	0
 4773 01a9 00       		.byte	0
 4774 01aa 22       		.uleb128 0x22
 4775 01ab 0B       		.uleb128 0xb
 4776 01ac 01       		.byte	0x1
 4777 01ad 11       		.uleb128 0x11
 4778 01ae 01       		.uleb128 0x1
 4779 01af 12       		.uleb128 0x12
 4780 01b0 06       		.uleb128 0x6
 4781 01b1 00       		.byte	0
 4782 01b2 00       		.byte	0
 4783 01b3 23       		.uleb128 0x23
 4784 01b4 34       		.uleb128 0x34
ARM GAS  C:\Users\ikui753\AppData\Local\Temp\ccMBzjHX.s 			page 94


 4785 01b5 00       		.byte	0
 4786 01b6 03       		.uleb128 0x3
 4787 01b7 08       		.uleb128 0x8
 4788 01b8 3A       		.uleb128 0x3a
 4789 01b9 0B       		.uleb128 0xb
 4790 01ba 3B       		.uleb128 0x3b
 4791 01bb 0B       		.uleb128 0xb
 4792 01bc 49       		.uleb128 0x49
 4793 01bd 13       		.uleb128 0x13
 4794 01be 02       		.uleb128 0x2
 4795 01bf 18       		.uleb128 0x18
 4796 01c0 00       		.byte	0
 4797 01c1 00       		.byte	0
 4798 01c2 24       		.uleb128 0x24
 4799 01c3 2E       		.uleb128 0x2e
 4800 01c4 01       		.byte	0x1
 4801 01c5 3F       		.uleb128 0x3f
 4802 01c6 19       		.uleb128 0x19
 4803 01c7 03       		.uleb128 0x3
 4804 01c8 0E       		.uleb128 0xe
 4805 01c9 3A       		.uleb128 0x3a
 4806 01ca 0B       		.uleb128 0xb
 4807 01cb 3B       		.uleb128 0x3b
 4808 01cc 0B       		.uleb128 0xb
 4809 01cd 27       		.uleb128 0x27
 4810 01ce 19       		.uleb128 0x19
 4811 01cf 49       		.uleb128 0x49
 4812 01d0 13       		.uleb128 0x13
 4813 01d1 11       		.uleb128 0x11
 4814 01d2 01       		.uleb128 0x1
 4815 01d3 12       		.uleb128 0x12
 4816 01d4 06       		.uleb128 0x6
 4817 01d5 40       		.uleb128 0x40
 4818 01d6 18       		.uleb128 0x18
 4819 01d7 9642     		.uleb128 0x2116
 4820 01d9 19       		.uleb128 0x19
 4821 01da 01       		.uleb128 0x1
 4822 01db 13       		.uleb128 0x13
 4823 01dc 00       		.byte	0
 4824 01dd 00       		.byte	0
 4825 01de 25       		.uleb128 0x25
 4826 01df 2E       		.uleb128 0x2e
 4827 01e0 01       		.byte	0x1
 4828 01e1 3F       		.uleb128 0x3f
 4829 01e2 19       		.uleb128 0x19
 4830 01e3 03       		.uleb128 0x3
 4831 01e4 0E       		.uleb128 0xe
 4832 01e5 3A       		.uleb128 0x3a
 4833 01e6 0B       		.uleb128 0xb
 4834 01e7 3B       		.uleb128 0x3b
 4835 01e8 0B       		.uleb128 0xb
 4836 01e9 27       		.uleb128 0x27
 4837 01ea 19       		.uleb128 0x19
 4838 01eb 49       		.uleb128 0x49
 4839 01ec 13       		.uleb128 0x13
 4840 01ed 11       		.uleb128 0x11
 4841 01ee 01       		.uleb128 0x1
ARM GAS  C:\Users\ikui753\AppData\Local\Temp\ccMBzjHX.s 			page 95


 4842 01ef 12       		.uleb128 0x12
 4843 01f0 06       		.uleb128 0x6
 4844 01f1 40       		.uleb128 0x40
 4845 01f2 18       		.uleb128 0x18
 4846 01f3 9742     		.uleb128 0x2117
 4847 01f5 19       		.uleb128 0x19
 4848 01f6 01       		.uleb128 0x1
 4849 01f7 13       		.uleb128 0x13
 4850 01f8 00       		.byte	0
 4851 01f9 00       		.byte	0
 4852 01fa 26       		.uleb128 0x26
 4853 01fb 0B       		.uleb128 0xb
 4854 01fc 01       		.byte	0x1
 4855 01fd 11       		.uleb128 0x11
 4856 01fe 01       		.uleb128 0x1
 4857 01ff 12       		.uleb128 0x12
 4858 0200 06       		.uleb128 0x6
 4859 0201 01       		.uleb128 0x1
 4860 0202 13       		.uleb128 0x13
 4861 0203 00       		.byte	0
 4862 0204 00       		.byte	0
 4863 0205 27       		.uleb128 0x27
 4864 0206 0B       		.uleb128 0xb
 4865 0207 01       		.byte	0x1
 4866 0208 55       		.uleb128 0x55
 4867 0209 17       		.uleb128 0x17
 4868 020a 01       		.uleb128 0x1
 4869 020b 13       		.uleb128 0x13
 4870 020c 00       		.byte	0
 4871 020d 00       		.byte	0
 4872 020e 28       		.uleb128 0x28
 4873 020f 21       		.uleb128 0x21
 4874 0210 00       		.byte	0
 4875 0211 49       		.uleb128 0x49
 4876 0212 13       		.uleb128 0x13
 4877 0213 2F       		.uleb128 0x2f
 4878 0214 05       		.uleb128 0x5
 4879 0215 00       		.byte	0
 4880 0216 00       		.byte	0
 4881 0217 29       		.uleb128 0x29
 4882 0218 2E       		.uleb128 0x2e
 4883 0219 01       		.byte	0x1
 4884 021a 3F       		.uleb128 0x3f
 4885 021b 19       		.uleb128 0x19
 4886 021c 03       		.uleb128 0x3
 4887 021d 0E       		.uleb128 0xe
 4888 021e 3A       		.uleb128 0x3a
 4889 021f 0B       		.uleb128 0xb
 4890 0220 3B       		.uleb128 0x3b
 4891 0221 0B       		.uleb128 0xb
 4892 0222 27       		.uleb128 0x27
 4893 0223 19       		.uleb128 0x19
 4894 0224 11       		.uleb128 0x11
 4895 0225 01       		.uleb128 0x1
 4896 0226 12       		.uleb128 0x12
 4897 0227 06       		.uleb128 0x6
 4898 0228 40       		.uleb128 0x40
ARM GAS  C:\Users\ikui753\AppData\Local\Temp\ccMBzjHX.s 			page 96


 4899 0229 18       		.uleb128 0x18
 4900 022a 9742     		.uleb128 0x2117
 4901 022c 19       		.uleb128 0x19
 4902 022d 01       		.uleb128 0x1
 4903 022e 13       		.uleb128 0x13
 4904 022f 00       		.byte	0
 4905 0230 00       		.byte	0
 4906 0231 2A       		.uleb128 0x2a
 4907 0232 2E       		.uleb128 0x2e
 4908 0233 00       		.byte	0
 4909 0234 3F       		.uleb128 0x3f
 4910 0235 19       		.uleb128 0x19
 4911 0236 03       		.uleb128 0x3
 4912 0237 0E       		.uleb128 0xe
 4913 0238 3A       		.uleb128 0x3a
 4914 0239 0B       		.uleb128 0xb
 4915 023a 3B       		.uleb128 0x3b
 4916 023b 0B       		.uleb128 0xb
 4917 023c 11       		.uleb128 0x11
 4918 023d 01       		.uleb128 0x1
 4919 023e 12       		.uleb128 0x12
 4920 023f 06       		.uleb128 0x6
 4921 0240 40       		.uleb128 0x40
 4922 0241 18       		.uleb128 0x18
 4923 0242 9642     		.uleb128 0x2116
 4924 0244 19       		.uleb128 0x19
 4925 0245 00       		.byte	0
 4926 0246 00       		.byte	0
 4927 0247 2B       		.uleb128 0x2b
 4928 0248 2E       		.uleb128 0x2e
 4929 0249 01       		.byte	0x1
 4930 024a 3F       		.uleb128 0x3f
 4931 024b 19       		.uleb128 0x19
 4932 024c 03       		.uleb128 0x3
 4933 024d 0E       		.uleb128 0xe
 4934 024e 3A       		.uleb128 0x3a
 4935 024f 0B       		.uleb128 0xb
 4936 0250 3B       		.uleb128 0x3b
 4937 0251 0B       		.uleb128 0xb
 4938 0252 11       		.uleb128 0x11
 4939 0253 01       		.uleb128 0x1
 4940 0254 12       		.uleb128 0x12
 4941 0255 06       		.uleb128 0x6
 4942 0256 40       		.uleb128 0x40
 4943 0257 18       		.uleb128 0x18
 4944 0258 9642     		.uleb128 0x2116
 4945 025a 19       		.uleb128 0x19
 4946 025b 01       		.uleb128 0x1
 4947 025c 13       		.uleb128 0x13
 4948 025d 00       		.byte	0
 4949 025e 00       		.byte	0
 4950 025f 2C       		.uleb128 0x2c
 4951 0260 2E       		.uleb128 0x2e
 4952 0261 00       		.byte	0
 4953 0262 3F       		.uleb128 0x3f
 4954 0263 19       		.uleb128 0x19
 4955 0264 03       		.uleb128 0x3
ARM GAS  C:\Users\ikui753\AppData\Local\Temp\ccMBzjHX.s 			page 97


 4956 0265 0E       		.uleb128 0xe
 4957 0266 3A       		.uleb128 0x3a
 4958 0267 0B       		.uleb128 0xb
 4959 0268 3B       		.uleb128 0x3b
 4960 0269 0B       		.uleb128 0xb
 4961 026a 27       		.uleb128 0x27
 4962 026b 19       		.uleb128 0x19
 4963 026c 11       		.uleb128 0x11
 4964 026d 01       		.uleb128 0x1
 4965 026e 12       		.uleb128 0x12
 4966 026f 06       		.uleb128 0x6
 4967 0270 40       		.uleb128 0x40
 4968 0271 18       		.uleb128 0x18
 4969 0272 9642     		.uleb128 0x2116
 4970 0274 19       		.uleb128 0x19
 4971 0275 00       		.byte	0
 4972 0276 00       		.byte	0
 4973 0277 2D       		.uleb128 0x2d
 4974 0278 2E       		.uleb128 0x2e
 4975 0279 00       		.byte	0
 4976 027a 3F       		.uleb128 0x3f
 4977 027b 19       		.uleb128 0x19
 4978 027c 03       		.uleb128 0x3
 4979 027d 0E       		.uleb128 0xe
 4980 027e 3A       		.uleb128 0x3a
 4981 027f 0B       		.uleb128 0xb
 4982 0280 3B       		.uleb128 0x3b
 4983 0281 0B       		.uleb128 0xb
 4984 0282 49       		.uleb128 0x49
 4985 0283 13       		.uleb128 0x13
 4986 0284 11       		.uleb128 0x11
 4987 0285 01       		.uleb128 0x1
 4988 0286 12       		.uleb128 0x12
 4989 0287 06       		.uleb128 0x6
 4990 0288 40       		.uleb128 0x40
 4991 0289 18       		.uleb128 0x18
 4992 028a 9642     		.uleb128 0x2116
 4993 028c 19       		.uleb128 0x19
 4994 028d 00       		.byte	0
 4995 028e 00       		.byte	0
 4996 028f 2E       		.uleb128 0x2e
 4997 0290 34       		.uleb128 0x34
 4998 0291 00       		.byte	0
 4999 0292 03       		.uleb128 0x3
 5000 0293 0E       		.uleb128 0xe
 5001 0294 3A       		.uleb128 0x3a
 5002 0295 0B       		.uleb128 0xb
 5003 0296 3B       		.uleb128 0x3b
 5004 0297 05       		.uleb128 0x5
 5005 0298 49       		.uleb128 0x49
 5006 0299 13       		.uleb128 0x13
 5007 029a 3F       		.uleb128 0x3f
 5008 029b 19       		.uleb128 0x19
 5009 029c 3C       		.uleb128 0x3c
 5010 029d 19       		.uleb128 0x19
 5011 029e 00       		.byte	0
 5012 029f 00       		.byte	0
ARM GAS  C:\Users\ikui753\AppData\Local\Temp\ccMBzjHX.s 			page 98


 5013 02a0 2F       		.uleb128 0x2f
 5014 02a1 35       		.uleb128 0x35
 5015 02a2 00       		.byte	0
 5016 02a3 49       		.uleb128 0x49
 5017 02a4 13       		.uleb128 0x13
 5018 02a5 00       		.byte	0
 5019 02a6 00       		.byte	0
 5020 02a7 30       		.uleb128 0x30
 5021 02a8 34       		.uleb128 0x34
 5022 02a9 00       		.byte	0
 5023 02aa 03       		.uleb128 0x3
 5024 02ab 08       		.uleb128 0x8
 5025 02ac 3A       		.uleb128 0x3a
 5026 02ad 0B       		.uleb128 0xb
 5027 02ae 3B       		.uleb128 0x3b
 5028 02af 0B       		.uleb128 0xb
 5029 02b0 49       		.uleb128 0x49
 5030 02b1 13       		.uleb128 0x13
 5031 02b2 3F       		.uleb128 0x3f
 5032 02b3 19       		.uleb128 0x19
 5033 02b4 02       		.uleb128 0x2
 5034 02b5 18       		.uleb128 0x18
 5035 02b6 00       		.byte	0
 5036 02b7 00       		.byte	0
 5037 02b8 31       		.uleb128 0x31
 5038 02b9 34       		.uleb128 0x34
 5039 02ba 00       		.byte	0
 5040 02bb 03       		.uleb128 0x3
 5041 02bc 0E       		.uleb128 0xe
 5042 02bd 3A       		.uleb128 0x3a
 5043 02be 0B       		.uleb128 0xb
 5044 02bf 3B       		.uleb128 0x3b
 5045 02c0 0B       		.uleb128 0xb
 5046 02c1 49       		.uleb128 0x49
 5047 02c2 13       		.uleb128 0x13
 5048 02c3 3F       		.uleb128 0x3f
 5049 02c4 19       		.uleb128 0x19
 5050 02c5 02       		.uleb128 0x2
 5051 02c6 18       		.uleb128 0x18
 5052 02c7 00       		.byte	0
 5053 02c8 00       		.byte	0
 5054 02c9 00       		.byte	0
 5055              		.section	.debug_aranges,"",%progbits
 5056 0000 7C000000 		.4byte	0x7c
 5057 0004 0200     		.2byte	0x2
 5058 0006 00000000 		.4byte	.Ldebug_info0
 5059 000a 04       		.byte	0x4
 5060 000b 00       		.byte	0
 5061 000c 0000     		.2byte	0
 5062 000e 0000     		.2byte	0
 5063 0010 00000000 		.4byte	.LFB64
 5064 0014 98000000 		.4byte	.LFE64-.LFB64
 5065 0018 00000000 		.4byte	.LFB65
 5066 001c 56000000 		.4byte	.LFE65-.LFB65
 5067 0020 00000000 		.4byte	.LFB66
 5068 0024 9C000000 		.4byte	.LFE66-.LFB66
 5069 0028 00000000 		.4byte	.LFB67
ARM GAS  C:\Users\ikui753\AppData\Local\Temp\ccMBzjHX.s 			page 99


 5070 002c 5A000000 		.4byte	.LFE67-.LFB67
 5071 0030 00000000 		.4byte	.LFB68
 5072 0034 24080000 		.4byte	.LFE68-.LFB68
 5073 0038 00000000 		.4byte	.LFB69
 5074 003c B4010000 		.4byte	.LFE69-.LFB69
 5075 0040 00000000 		.4byte	.LFB70
 5076 0044 30000000 		.4byte	.LFE70-.LFB70
 5077 0048 00000000 		.4byte	.LFB71
 5078 004c 14000000 		.4byte	.LFE71-.LFB71
 5079 0050 00000000 		.4byte	.LFB72
 5080 0054 3A000000 		.4byte	.LFE72-.LFB72
 5081 0058 00000000 		.4byte	.LFB73
 5082 005c 3C000000 		.4byte	.LFE73-.LFB73
 5083 0060 00000000 		.4byte	.LFB74
 5084 0064 30000000 		.4byte	.LFE74-.LFB74
 5085 0068 00000000 		.4byte	.LFB75
 5086 006c 64000000 		.4byte	.LFE75-.LFB75
 5087 0070 00000000 		.4byte	.LFB76
 5088 0074 68000000 		.4byte	.LFE76-.LFB76
 5089 0078 00000000 		.4byte	0
 5090 007c 00000000 		.4byte	0
 5091              		.section	.debug_ranges,"",%progbits
 5092              	.Ldebug_ranges0:
 5093 0000 EA010000 		.4byte	.LBB12
 5094 0004 C8050000 		.4byte	.LBE12
 5095 0008 DA050000 		.4byte	.LBB17
 5096 000c DC050000 		.4byte	.LBE17
 5097 0010 00000000 		.4byte	0
 5098 0014 00000000 		.4byte	0
 5099 0018 00000000 		.4byte	.LFB64
 5100 001c 98000000 		.4byte	.LFE64
 5101 0020 00000000 		.4byte	.LFB65
 5102 0024 56000000 		.4byte	.LFE65
 5103 0028 00000000 		.4byte	.LFB66
 5104 002c 9C000000 		.4byte	.LFE66
 5105 0030 00000000 		.4byte	.LFB67
 5106 0034 5A000000 		.4byte	.LFE67
 5107 0038 00000000 		.4byte	.LFB68
 5108 003c 24080000 		.4byte	.LFE68
 5109 0040 00000000 		.4byte	.LFB69
 5110 0044 B4010000 		.4byte	.LFE69
 5111 0048 00000000 		.4byte	.LFB70
 5112 004c 30000000 		.4byte	.LFE70
 5113 0050 00000000 		.4byte	.LFB71
 5114 0054 14000000 		.4byte	.LFE71
 5115 0058 00000000 		.4byte	.LFB72
 5116 005c 3A000000 		.4byte	.LFE72
 5117 0060 00000000 		.4byte	.LFB73
 5118 0064 3C000000 		.4byte	.LFE73
 5119 0068 00000000 		.4byte	.LFB74
 5120 006c 30000000 		.4byte	.LFE74
 5121 0070 00000000 		.4byte	.LFB75
 5122 0074 64000000 		.4byte	.LFE75
 5123 0078 00000000 		.4byte	.LFB76
 5124 007c 68000000 		.4byte	.LFE76
 5125 0080 00000000 		.4byte	0
 5126 0084 00000000 		.4byte	0
ARM GAS  C:\Users\ikui753\AppData\Local\Temp\ccMBzjHX.s 			page 100


 5127              		.section	.debug_line,"",%progbits
 5128              	.Ldebug_line0:
 5129 0000 72050000 		.section	.debug_str,"MS",%progbits,1
 5129      02009B02 
 5129      00000201 
 5129      FB0E0D00 
 5129      01010101 
 5130              	.LASF165:
 5131 0000 64697374 		.ascii	"distance\000"
 5131      616E6365 
 5131      00
 5132              	.LASF219:
 5133 0009 6D61696E 		.ascii	"main.c\000"
 5133      2E6300
 5134              	.LASF180:
 5135 0010 72696768 		.ascii	"rightOrient\000"
 5135      744F7269 
 5135      656E7400 
 5136              	.LASF155:
 5137 001c 69735661 		.ascii	"isValidMove\000"
 5137      6C69644D 
 5137      6F766500 
 5138              	.LASF38:
 5139 0028 5F6F6E5F 		.ascii	"_on_exit_args\000"
 5139      65786974 
 5139      5F617267 
 5139      7300
 5140              	.LASF106:
 5141 0036 5F776374 		.ascii	"_wctomb_state\000"
 5141      6F6D625F 
 5141      73746174 
 5141      6500
 5142              	.LASF103:
 5143 0044 5F723438 		.ascii	"_r48\000"
 5143      00
 5144              	.LASF108:
 5145 0049 5F736967 		.ascii	"_signal_buf\000"
 5145      6E616C5F 
 5145      62756600 
 5146              	.LASF8:
 5147 0055 756E7369 		.ascii	"unsigned int\000"
 5147      676E6564 
 5147      20696E74 
 5147      00
 5148              	.LASF188:
 5149 0062 726F7461 		.ascii	"rotationClockwise\000"
 5149      74696F6E 
 5149      436C6F63 
 5149      6B776973 
 5149      6500
 5150              	.LASF52:
 5151 0074 5F6C6266 		.ascii	"_lbfsize\000"
 5151      73697A65 
 5151      00
 5152              	.LASF50:
 5153 007d 5F666C61 		.ascii	"_flags\000"
 5153      677300
ARM GAS  C:\Users\ikui753\AppData\Local\Temp\ccMBzjHX.s 			page 101


 5154              	.LASF129:
 5155 0084 696E6465 		.ascii	"index\000"
 5155      7800
 5156              	.LASF157:
 5157 008a 636F6C73 		.ascii	"cols\000"
 5157      00
 5158              	.LASF10:
 5159 008f 5F5F696E 		.ascii	"__int32_t\000"
 5159      7433325F 
 5159      7400
 5160              	.LASF124:
 5161 0099 696E7431 		.ascii	"int16\000"
 5161      3600
 5162              	.LASF67:
 5163 009f 5F657272 		.ascii	"_errno\000"
 5163      6E6F00
 5164              	.LASF184:
 5165 00a6 76697369 		.ascii	"visited\000"
 5165      74656400 
 5166              	.LASF145:
 5167 00ae 4C6F6361 		.ascii	"Location\000"
 5167      74696F6E 
 5167      00
 5168              	.LASF218:
 5169 00b7 474E5520 		.ascii	"GNU C11 5.4.1 20160609 (release) [ARM/embedded-5-br"
 5169      43313120 
 5169      352E342E 
 5169      31203230 
 5169      31363036 
 5170 00ea 616E6368 		.ascii	"anch revision 237715] -mcpu=cortex-m3 -mthumb -g -O"
 5170      20726576 
 5170      6973696F 
 5170      6E203233 
 5170      37373135 
 5171 011d 30202D66 		.ascii	"0 -ffunction-sections -ffat-lto-objects\000"
 5171      66756E63 
 5171      74696F6E 
 5171      2D736563 
 5171      74696F6E 
 5172              	.LASF11:
 5173 0145 5F4C4F43 		.ascii	"_LOCK_RECURSIVE_T\000"
 5173      4B5F5245 
 5173      43555253 
 5173      4956455F 
 5173      5400
 5174              	.LASF54:
 5175 0157 5F726561 		.ascii	"_read\000"
 5175      6400
 5176              	.LASF141:
 5177 015d 67325F78 		.ascii	"g2_xpos\000"
 5177      706F7300 
 5178              	.LASF110:
 5179 0165 5F6D6272 		.ascii	"_mbrlen_state\000"
 5179      6C656E5F 
 5179      73746174 
 5179      6500
 5180              	.LASF207:
ARM GAS  C:\Users\ikui753\AppData\Local\Temp\ccMBzjHX.s 			page 102


 5181 0173 666C6167 		.ascii	"flag_rf_transmission_active\000"
 5181      5F72665F 
 5181      7472616E 
 5181      736D6973 
 5181      73696F6E 
 5182              	.LASF69:
 5183 018f 5F737464 		.ascii	"_stdout\000"
 5183      6F757400 
 5184              	.LASF13:
 5185 0197 5F66706F 		.ascii	"_fpos_t\000"
 5185      735F7400 
 5186              	.LASF45:
 5187 019f 5F666E73 		.ascii	"_fns\000"
 5187      00
 5188              	.LASF53:
 5189 01a4 5F636F6F 		.ascii	"_cookie\000"
 5189      6B696500 
 5190              	.LASF189:
 5191 01ac 726F7461 		.ascii	"rotationAntiClockwise\000"
 5191      74696F6E 
 5191      416E7469 
 5191      436C6F63 
 5191      6B776973 
 5192              	.LASF27:
 5193 01c2 5F426967 		.ascii	"_Bigint\000"
 5193      696E7400 
 5194              	.LASF156:
 5195 01ca 726F7773 		.ascii	"rows\000"
 5195      00
 5196              	.LASF121:
 5197 01cf 75696E74 		.ascii	"uint8\000"
 5197      3800
 5198              	.LASF35:
 5199 01d5 5F5F746D 		.ascii	"__tm_wday\000"
 5199      5F776461 
 5199      7900
 5200              	.LASF168:
 5201 01df 73746570 		.ascii	"stepNum\000"
 5201      4E756D00 
 5202              	.LASF77:
 5203 01e7 5F726573 		.ascii	"_result\000"
 5203      756C7400 
 5204              	.LASF31:
 5205 01ef 5F5F746D 		.ascii	"__tm_hour\000"
 5205      5F686F75 
 5205      7200
 5206              	.LASF144:
 5207 01f9 67325F64 		.ascii	"g2_direction\000"
 5207      69726563 
 5207      74696F6E 
 5207      00
 5208              	.LASF214:
 5209 0206 71756164 		.ascii	"quadDec2Count\000"
 5209      44656332 
 5209      436F756E 
 5209      7400
 5210              	.LASF18:
ARM GAS  C:\Users\ikui753\AppData\Local\Temp\ccMBzjHX.s 			page 103


 5211 0214 5F5F636F 		.ascii	"__count\000"
 5211      756E7400 
 5212              	.LASF125:
 5213 021c 666C6F61 		.ascii	"float\000"
 5213      7400
 5214              	.LASF30:
 5215 0222 5F5F746D 		.ascii	"__tm_min\000"
 5215      5F6D696E 
 5215      00
 5216              	.LASF211:
 5217 022b 75736242 		.ascii	"usbBuffer\000"
 5217      75666665 
 5217      7200
 5218              	.LASF116:
 5219 0235 5F6E6578 		.ascii	"_nextf\000"
 5219      746600
 5220              	.LASF93:
 5221 023c 5F72616E 		.ascii	"_rand48\000"
 5221      64343800 
 5222              	.LASF78:
 5223 0244 5F726573 		.ascii	"_result_k\000"
 5223      756C745F 
 5223      6B00
 5224              	.LASF7:
 5225 024e 6C6F6E67 		.ascii	"long long unsigned int\000"
 5225      206C6F6E 
 5225      6720756E 
 5225      7369676E 
 5225      65642069 
 5226              	.LASF99:
 5227 0265 5F617363 		.ascii	"_asctime_buf\000"
 5227      74696D65 
 5227      5F627566 
 5227      00
 5228              	.LASF49:
 5229 0272 5F5F7346 		.ascii	"__sFILE\000"
 5229      494C4500 
 5230              	.LASF26:
 5231 027a 5F776473 		.ascii	"_wds\000"
 5231      00
 5232              	.LASF204:
 5233 027f 666C6167 		.ascii	"flag_packet\000"
 5233      5F706163 
 5233      6B657400 
 5234              	.LASF169:
 5235 028b 73686F72 		.ascii	"shortestDist\000"
 5235      74657374 
 5235      44697374 
 5235      00
 5236              	.LASF217:
 5237 0298 6D617854 		.ascii	"maxTurnCount\000"
 5237      75726E43 
 5237      6F756E74 
 5237      00
 5238              	.LASF89:
 5239 02a5 5F5F4649 		.ascii	"__FILE\000"
 5239      4C4500
ARM GAS  C:\Users\ikui753\AppData\Local\Temp\ccMBzjHX.s 			page 104


 5240              	.LASF61:
 5241 02ac 5F6F6666 		.ascii	"_offset\000"
 5241      73657400 
 5242              	.LASF72:
 5243 02b4 5F656D65 		.ascii	"_emergency\000"
 5243      7267656E 
 5243      637900
 5244              	.LASF178:
 5245 02bf 74617267 		.ascii	"targetLocation\000"
 5245      65744C6F 
 5245      63617469 
 5245      6F6E00
 5246              	.LASF200:
 5247 02ce 666C6167 		.ascii	"flag_ts_update\000"
 5247      5F74735F 
 5247      75706461 
 5247      746500
 5248              	.LASF159:
 5249 02dd 64696A6B 		.ascii	"dijkstra\000"
 5249      73747261 
 5249      00
 5250              	.LASF192:
 5251 02e6 71756164 		.ascii	"quadCountToRPM\000"
 5251      436F756E 
 5251      74546F52 
 5251      504D00
 5252              	.LASF29:
 5253 02f5 5F5F746D 		.ascii	"__tm_sec\000"
 5253      5F736563 
 5253      00
 5254              	.LASF36:
 5255 02fe 5F5F746D 		.ascii	"__tm_yday\000"
 5255      5F796461 
 5255      7900
 5256              	.LASF71:
 5257 0308 5F696E63 		.ascii	"_inc\000"
 5257      00
 5258              	.LASF44:
 5259 030d 5F696E64 		.ascii	"_ind\000"
 5259      00
 5260              	.LASF162:
 5261 0312 76697369 		.ascii	"visitedMap\000"
 5261      7465644D 
 5261      617000
 5262              	.LASF23:
 5263 031d 5F6E6578 		.ascii	"_next\000"
 5263      7400
 5264              	.LASF112:
 5265 0323 5F6D6273 		.ascii	"_mbsrtowcs_state\000"
 5265      72746F77 
 5265      63735F73 
 5265      74617465 
 5265      00
 5266              	.LASF173:
 5267 0334 6E657752 		.ascii	"newRow\000"
 5267      6F7700
 5268              	.LASF19:
ARM GAS  C:\Users\ikui753\AppData\Local\Temp\ccMBzjHX.s 			page 105


 5269 033b 5F5F7661 		.ascii	"__value\000"
 5269      6C756500 
 5270              	.LASF79:
 5271 0343 5F703573 		.ascii	"_p5s\000"
 5271      00
 5272              	.LASF131:
 5273 0348 726F626F 		.ascii	"robot_ypos\000"
 5273      745F7970 
 5273      6F7300
 5274              	.LASF152:
 5275 0353 72616E64 		.ascii	"random_row\000"
 5275      6F6D5F72 
 5275      6F7700
 5276              	.LASF193:
 5277 035e 636F756E 		.ascii	"count\000"
 5277      7400
 5278              	.LASF151:
 5279 0364 69734E6F 		.ascii	"isNotValid\000"
 5279      7456616C 
 5279      696400
 5280              	.LASF198:
 5281 036f 74735F64 		.ascii	"ts_display\000"
 5281      6973706C 
 5281      617900
 5282              	.LASF114:
 5283 037a 5F776373 		.ascii	"_wcsrtombs_state\000"
 5283      72746F6D 
 5283      62735F73 
 5283      74617465 
 5283      00
 5284              	.LASF104:
 5285 038b 5F6D626C 		.ascii	"_mblen_state\000"
 5285      656E5F73 
 5285      74617465 
 5285      00
 5286              	.LASF88:
 5287 0398 63686172 		.ascii	"char\000"
 5287      00
 5288              	.LASF32:
 5289 039d 5F5F746D 		.ascii	"__tm_mday\000"
 5289      5F6D6461 
 5289      7900
 5290              	.LASF85:
 5291 03a7 5F736967 		.ascii	"_sig_func\000"
 5291      5F66756E 
 5291      6300
 5292              	.LASF111:
 5293 03b1 5F6D6272 		.ascii	"_mbrtowc_state\000"
 5293      746F7763 
 5293      5F737461 
 5293      746500
 5294              	.LASF84:
 5295 03c0 5F617465 		.ascii	"_atexit0\000"
 5295      78697430 
 5295      00
 5296              	.LASF153:
 5297 03c9 72616E64 		.ascii	"random_col\000"
ARM GAS  C:\Users\ikui753\AppData\Local\Temp\ccMBzjHX.s 			page 106


 5297      6F6D5F63 
 5297      6F6C00
 5298              	.LASF122:
 5299 03d4 75696E74 		.ascii	"uint16\000"
 5299      313600
 5300              	.LASF21:
 5301 03db 5F666C6F 		.ascii	"_flock_t\000"
 5301      636B5F74 
 5301      00
 5302              	.LASF123:
 5303 03e4 696E7438 		.ascii	"int8\000"
 5303      00
 5304              	.LASF140:
 5305 03e9 67315F64 		.ascii	"g1_direction\000"
 5305      69726563 
 5305      74696F6E 
 5305      00
 5306              	.LASF147:
 5307 03f6 66696C65 		.ascii	"file\000"
 5307      00
 5308              	.LASF15:
 5309 03fb 5F5F7763 		.ascii	"__wch\000"
 5309      6800
 5310              	.LASF92:
 5311 0401 5F696F62 		.ascii	"_iobs\000"
 5311      7300
 5312              	.LASF174:
 5313 0407 6E657743 		.ascii	"newCol\000"
 5313      6F6C00
 5314              	.LASF182:
 5315 040e 646F776E 		.ascii	"downOrient\000"
 5315      4F726965 
 5315      6E7400
 5316              	.LASF57:
 5317 0419 5F636C6F 		.ascii	"_close\000"
 5317      736500
 5318              	.LASF75:
 5319 0420 5F5F7364 		.ascii	"__sdidinit\000"
 5319      6964696E 
 5319      697400
 5320              	.LASF181:
 5321 042b 75704F72 		.ascii	"upOrient\000"
 5321      69656E74 
 5321      00
 5322              	.LASF210:
 5323 0434 656E7472 		.ascii	"entry\000"
 5323      7900
 5324              	.LASF186:
 5325 043a 73746F70 		.ascii	"stopMoving\000"
 5325      4D6F7669 
 5325      6E6700
 5326              	.LASF68:
 5327 0445 5F737464 		.ascii	"_stdin\000"
 5327      696E00
 5328              	.LASF101:
 5329 044c 5F67616D 		.ascii	"_gamma_signgam\000"
 5329      6D615F73 
ARM GAS  C:\Users\ikui753\AppData\Local\Temp\ccMBzjHX.s 			page 107


 5329      69676E67 
 5329      616D00
 5330              	.LASF6:
 5331 045b 6C6F6E67 		.ascii	"long long int\000"
 5331      206C6F6E 
 5331      6720696E 
 5331      7400
 5332              	.LASF137:
 5333 0469 67315F78 		.ascii	"g1_xpos\000"
 5333      706F7300 
 5334              	.LASF47:
 5335 0471 5F626173 		.ascii	"_base\000"
 5335      6500
 5336              	.LASF80:
 5337 0477 5F667265 		.ascii	"_freelist\000"
 5337      656C6973 
 5337      7400
 5338              	.LASF95:
 5339 0481 5F6D756C 		.ascii	"_mult\000"
 5339      7400
 5340              	.LASF22:
 5341 0487 5F5F554C 		.ascii	"__ULong\000"
 5341      6F6E6700 
 5342              	.LASF113:
 5343 048f 5F776372 		.ascii	"_wcrtomb_state\000"
 5343      746F6D62 
 5343      5F737461 
 5343      746500
 5344              	.LASF51:
 5345 049e 5F66696C 		.ascii	"_file\000"
 5345      6500
 5346              	.LASF175:
 5347 04a4 6E657744 		.ascii	"newDistance\000"
 5347      69737461 
 5347      6E636500 
 5348              	.LASF143:
 5349 04b0 67325F73 		.ascii	"g2_speed\000"
 5349      70656564 
 5349      00
 5350              	.LASF134:
 5351 04b9 67305F79 		.ascii	"g0_ypos\000"
 5351      706F7300 
 5352              	.LASF183:
 5353 04c1 6D6F7665 		.ascii	"moves\000"
 5353      7300
 5354              	.LASF76:
 5355 04c7 5F5F636C 		.ascii	"__cleanup\000"
 5355      65616E75 
 5355      7000
 5356              	.LASF20:
 5357 04d1 5F6D6273 		.ascii	"_mbstate_t\000"
 5357      74617465 
 5357      5F7400
 5358              	.LASF213:
 5359 04dc 62756666 		.ascii	"buffer\000"
 5359      657200
 5360              	.LASF197:
ARM GAS  C:\Users\ikui753\AppData\Local\Temp\ccMBzjHX.s 			page 108


 5361 04e3 74735F73 		.ascii	"ts_speed\000"
 5361      70656564 
 5361      00
 5362              	.LASF166:
 5363 04ec 70715369 		.ascii	"pqSize\000"
 5363      7A6500
 5364              	.LASF37:
 5365 04f3 5F5F746D 		.ascii	"__tm_isdst\000"
 5365      5F697364 
 5365      737400
 5366              	.LASF127:
 5367 04fe 64617461 		.ascii	"data_main\000"
 5367      5F6D6169 
 5367      6E00
 5368              	.LASF146:
 5369 0508 66696C65 		.ascii	"filePath\000"
 5369      50617468 
 5369      00
 5370              	.LASF128:
 5371 0511 72737369 		.ascii	"rssi\000"
 5371      00
 5372              	.LASF115:
 5373 0516 5F685F65 		.ascii	"_h_errno\000"
 5373      72726E6F 
 5373      00
 5374              	.LASF136:
 5375 051f 67305F64 		.ascii	"g0_direction\000"
 5375      69726563 
 5375      74696F6E 
 5375      00
 5376              	.LASF158:
 5377 052c 5F426F6F 		.ascii	"_Bool\000"
 5377      6C00
 5378              	.LASF160:
 5379 0532 73746172 		.ascii	"startlocation\000"
 5379      746C6F63 
 5379      6174696F 
 5379      6E00
 5380              	.LASF33:
 5381 0540 5F5F746D 		.ascii	"__tm_mon\000"
 5381      5F6D6F6E 
 5381      00
 5382              	.LASF9:
 5383 0549 6C6F6E67 		.ascii	"long double\000"
 5383      20646F75 
 5383      626C6500 
 5384              	.LASF179:
 5385 0555 6C656674 		.ascii	"leftOrient\000"
 5385      4F726965 
 5385      6E7400
 5386              	.LASF191:
 5387 0560 6D61696E 		.ascii	"main\000"
 5387      00
 5388              	.LASF55:
 5389 0565 5F777269 		.ascii	"_write\000"
 5389      746500
 5390              	.LASF199:
ARM GAS  C:\Users\ikui753\AppData\Local\Temp\ccMBzjHX.s 			page 109


 5391 056c 666C6167 		.ascii	"flag_ts_enc\000"
 5391      5F74735F 
 5391      656E6300 
 5392              	.LASF201:
 5393 0578 666C6167 		.ascii	"flag_ts_speed\000"
 5393      5F74735F 
 5393      73706565 
 5393      6400
 5394              	.LASF206:
 5395 0586 64617461 		.ascii	"dataready_flag\000"
 5395      72656164 
 5395      795F666C 
 5395      616700
 5396              	.LASF171:
 5397 0595 63757272 		.ascii	"currentCol\000"
 5397      656E7443 
 5397      6F6C00
 5398              	.LASF43:
 5399 05a0 5F617465 		.ascii	"_atexit\000"
 5399      78697400 
 5400              	.LASF64:
 5401 05a8 5F6D6273 		.ascii	"_mbstate\000"
 5401      74617465 
 5401      00
 5402              	.LASF203:
 5403 05b1 666C6167 		.ascii	"flag_rx\000"
 5403      5F727800 
 5404              	.LASF139:
 5405 05b9 67315F73 		.ascii	"g1_speed\000"
 5405      70656564 
 5405      00
 5406              	.LASF2:
 5407 05c2 73686F72 		.ascii	"short int\000"
 5407      7420696E 
 5407      7400
 5408              	.LASF4:
 5409 05cc 6C6F6E67 		.ascii	"long int\000"
 5409      20696E74 
 5409      00
 5410              	.LASF194:
 5411 05d5 49544D5F 		.ascii	"ITM_RxBuffer\000"
 5411      52784275 
 5411      66666572 
 5411      00
 5412              	.LASF164:
 5413 05e2 6C6F6361 		.ascii	"location\000"
 5413      74696F6E 
 5413      00
 5414              	.LASF196:
 5415 05eb 74735F75 		.ascii	"ts_update\000"
 5415      70646174 
 5415      6500
 5416              	.LASF170:
 5417 05f5 63757272 		.ascii	"currentRow\000"
 5417      656E7452 
 5417      6F7700
 5418              	.LASF87:
ARM GAS  C:\Users\ikui753\AppData\Local\Temp\ccMBzjHX.s 			page 110


 5419 0600 5F5F7366 		.ascii	"__sf\000"
 5419      00
 5420              	.LASF25:
 5421 0605 5F736967 		.ascii	"_sign\000"
 5421      6E00
 5422              	.LASF74:
 5423 060b 5F637572 		.ascii	"_current_locale\000"
 5423      72656E74 
 5423      5F6C6F63 
 5423      616C6500 
 5424              	.LASF142:
 5425 061b 67325F79 		.ascii	"g2_ypos\000"
 5425      706F7300 
 5426              	.LASF62:
 5427 0623 5F646174 		.ascii	"_data\000"
 5427      6100
 5428              	.LASF16:
 5429 0629 5F5F7763 		.ascii	"__wchb\000"
 5429      686200
 5430              	.LASF34:
 5431 0630 5F5F746D 		.ascii	"__tm_year\000"
 5431      5F796561 
 5431      7200
 5432              	.LASF100:
 5433 063a 5F6C6F63 		.ascii	"_localtime_buf\000"
 5433      616C7469 
 5433      6D655F62 
 5433      756600
 5434              	.LASF118:
 5435 0649 5F756E75 		.ascii	"_unused\000"
 5435      73656400 
 5436              	.LASF83:
 5437 0651 5F6E6577 		.ascii	"_new\000"
 5437      00
 5438              	.LASF81:
 5439 0656 5F637674 		.ascii	"_cvtlen\000"
 5439      6C656E00 
 5440              	.LASF24:
 5441 065e 5F6D6178 		.ascii	"_maxwds\000"
 5441      77647300 
 5442              	.LASF107:
 5443 0666 5F6C3634 		.ascii	"_l64a_buf\000"
 5443      615F6275 
 5443      6600
 5444              	.LASF73:
 5445 0670 5F637572 		.ascii	"_current_category\000"
 5445      72656E74 
 5445      5F636174 
 5445      65676F72 
 5445      7900
 5446              	.LASF138:
 5447 0682 67315F79 		.ascii	"g1_ypos\000"
 5447      706F7300 
 5448              	.LASF187:
 5449 068a 71756164 		.ascii	"quadPulseCount\000"
 5449      50756C73 
 5449      65436F75 
ARM GAS  C:\Users\ikui753\AppData\Local\Temp\ccMBzjHX.s 			page 111


 5449      6E7400
 5450              	.LASF208:
 5451 0699 64697370 		.ascii	"displaystring\000"
 5451      6C617973 
 5451      7472696E 
 5451      6700
 5452              	.LASF60:
 5453 06a7 5F626C6B 		.ascii	"_blksize\000"
 5453      73697A65 
 5453      00
 5454              	.LASF28:
 5455 06b0 5F5F746D 		.ascii	"__tm\000"
 5455      00
 5456              	.LASF185:
 5457 06b5 696E6974 		.ascii	"init\000"
 5457      00
 5458              	.LASF63:
 5459 06ba 5F6C6F63 		.ascii	"_lock\000"
 5459      6B00
 5460              	.LASF17:
 5461 06c0 73697A65 		.ascii	"sizetype\000"
 5461      74797065 
 5461      00
 5462              	.LASF205:
 5463 06c9 666C6167 		.ascii	"flag_KB_string\000"
 5463      5F4B425F 
 5463      73747269 
 5463      6E6700
 5464              	.LASF5:
 5465 06d8 6C6F6E67 		.ascii	"long unsigned int\000"
 5465      20756E73 
 5465      69676E65 
 5465      6420696E 
 5465      7400
 5466              	.LASF150:
 5467 06ea 72616E64 		.ascii	"randomLocation\000"
 5467      6F6D4C6F 
 5467      63617469 
 5467      6F6E00
 5468              	.LASF91:
 5469 06f9 5F6E696F 		.ascii	"_niobs\000"
 5469      627300
 5470              	.LASF14:
 5471 0700 77696E74 		.ascii	"wint_t\000"
 5471      5F7400
 5472              	.LASF119:
 5473 0707 696E7433 		.ascii	"int32_t\000"
 5473      325F7400 
 5474              	.LASF40:
 5475 070f 5F64736F 		.ascii	"_dso_handle\000"
 5475      5F68616E 
 5475      646C6500 
 5476              	.LASF130:
 5477 071b 726F626F 		.ascii	"robot_xpos\000"
 5477      745F7870 
 5477      6F7300
 5478              	.LASF167:
ARM GAS  C:\Users\ikui753\AppData\Local\Temp\ccMBzjHX.s 			page 112


 5479 0726 64697374 		.ascii	"distances\000"
 5479      616E6365 
 5479      7300
 5480              	.LASF161:
 5481 0730 74617267 		.ascii	"targetlocation\000"
 5481      65746C6F 
 5481      63617469 
 5481      6F6E00
 5482              	.LASF82:
 5483 073f 5F637674 		.ascii	"_cvtbuf\000"
 5483      62756600 
 5484              	.LASF1:
 5485 0747 756E7369 		.ascii	"unsigned char\000"
 5485      676E6564 
 5485      20636861 
 5485      7200
 5486              	.LASF209:
 5487 0755 6C696E65 		.ascii	"line\000"
 5487      00
 5488              	.LASF149:
 5489 075a 7072696E 		.ascii	"printMap\000"
 5489      744D6170 
 5489      00
 5490              	.LASF172:
 5491 0763 63757272 		.ascii	"current\000"
 5491      656E7400 
 5492              	.LASF220:
 5493 076b 433A5C55 		.ascii	"C:\\Users\\ikui753\\OneDrive - The University of Au"
 5493      73657273 
 5493      5C696B75 
 5493      69373533 
 5493      5C4F6E65 
 5494 079b 636B6C61 		.ascii	"ckland\\Documents\\GitHub\\301-Robot\\psoc student "
 5494      6E645C44 
 5494      6F63756D 
 5494      656E7473 
 5494      5C476974 
 5495 07ca 7061636B 		.ascii	"pack\\psoc_code_base\\CS301_Class.cydsn\000"
 5495      5C70736F 
 5495      635F636F 
 5495      64655F62 
 5495      6173655C 
 5496              	.LASF109:
 5497 07f0 5F676574 		.ascii	"_getdate_err\000"
 5497      64617465 
 5497      5F657272 
 5497      00
 5498              	.LASF96:
 5499 07fd 5F616464 		.ascii	"_add\000"
 5499      00
 5500              	.LASF190:
 5501 0802 73706565 		.ascii	"speedTimer\000"
 5501      6454696D 
 5501      657200
 5502              	.LASF195:
 5503 080d 74735F65 		.ascii	"ts_enc\000"
 5503      6E6300
ARM GAS  C:\Users\ikui753\AppData\Local\Temp\ccMBzjHX.s 			page 113


 5504              	.LASF202:
 5505 0814 666C6167 		.ascii	"flag_ts_display\000"
 5505      5F74735F 
 5505      64697370 
 5505      6C617900 
 5506              	.LASF46:
 5507 0824 5F5F7362 		.ascii	"__sbuf\000"
 5507      756600
 5508              	.LASF90:
 5509 082b 5F676C75 		.ascii	"_glue\000"
 5509      6500
 5510              	.LASF86:
 5511 0831 5F5F7367 		.ascii	"__sglue\000"
 5511      6C756500 
 5512              	.LASF98:
 5513 0839 5F737472 		.ascii	"_strtok_last\000"
 5513      746F6B5F 
 5513      6C617374 
 5513      00
 5514              	.LASF105:
 5515 0846 5F6D6274 		.ascii	"_mbtowc_state\000"
 5515      6F77635F 
 5515      73746174 
 5515      6500
 5516              	.LASF216:
 5517 0854 7475726E 		.ascii	"turnCount\000"
 5517      436F756E 
 5517      7400
 5518              	.LASF176:
 5519 085e 74726176 		.ascii	"traverseMap\000"
 5519      65727365 
 5519      4D617000 
 5520              	.LASF148:
 5521 086a 72656164 		.ascii	"readMap\000"
 5521      4D617000 
 5522              	.LASF135:
 5523 0872 67305F73 		.ascii	"g0_speed\000"
 5523      70656564 
 5523      00
 5524              	.LASF39:
 5525 087b 5F666E61 		.ascii	"_fnargs\000"
 5525      72677300 
 5526              	.LASF0:
 5527 0883 7369676E 		.ascii	"signed char\000"
 5527      65642063 
 5527      68617200 
 5528              	.LASF66:
 5529 088f 5F726565 		.ascii	"_reent\000"
 5529      6E7400
 5530              	.LASF3:
 5531 0896 73686F72 		.ascii	"short unsigned int\000"
 5531      7420756E 
 5531      7369676E 
 5531      65642069 
 5531      6E7400
 5532              	.LASF132:
 5533 08a9 726F626F 		.ascii	"robot_orientation\000"
ARM GAS  C:\Users\ikui753\AppData\Local\Temp\ccMBzjHX.s 			page 114


 5533      745F6F72 
 5533      69656E74 
 5533      6174696F 
 5533      6E00
 5534              	.LASF177:
 5535 08bb 73746172 		.ascii	"startLocation\000"
 5535      744C6F63 
 5535      6174696F 
 5535      6E00
 5536              	.LASF163:
 5537 08c9 5072696F 		.ascii	"PriorityQueue\000"
 5537      72697479 
 5537      51756575 
 5537      6500
 5538              	.LASF41:
 5539 08d7 5F666E74 		.ascii	"_fntypes\000"
 5539      79706573 
 5539      00
 5540              	.LASF48:
 5541 08e0 5F73697A 		.ascii	"_size\000"
 5541      6500
 5542              	.LASF126:
 5543 08e6 646F7562 		.ascii	"double\000"
 5543      6C6500
 5544              	.LASF133:
 5545 08ed 67305F78 		.ascii	"g0_xpos\000"
 5545      706F7300 
 5546              	.LASF12:
 5547 08f5 5F6F6666 		.ascii	"_off_t\000"
 5547      5F7400
 5548              	.LASF59:
 5549 08fc 5F6E6275 		.ascii	"_nbuf\000"
 5549      6600
 5550              	.LASF97:
 5551 0902 5F756E75 		.ascii	"_unused_rand\000"
 5551      7365645F 
 5551      72616E64 
 5551      00
 5552              	.LASF120:
 5553 090f 46494C45 		.ascii	"FILE\000"
 5553      00
 5554              	.LASF65:
 5555 0914 5F666C61 		.ascii	"_flags2\000"
 5555      67733200 
 5556              	.LASF42:
 5557 091c 5F69735F 		.ascii	"_is_cxa\000"
 5557      63786100 
 5558              	.LASF215:
 5559 0924 74696D65 		.ascii	"timerInt\000"
 5559      72496E74 
 5559      00
 5560              	.LASF94:
 5561 092d 5F736565 		.ascii	"_seed\000"
 5561      6400
 5562              	.LASF212:
 5563 0933 73797374 		.ascii	"system_state\000"
 5563      656D5F73 
ARM GAS  C:\Users\ikui753\AppData\Local\Temp\ccMBzjHX.s 			page 115


 5563      74617465 
 5563      00
 5564              	.LASF102:
 5565 0940 5F72616E 		.ascii	"_rand_next\000"
 5565      645F6E65 
 5565      787400
 5566              	.LASF56:
 5567 094b 5F736565 		.ascii	"_seek\000"
 5567      6B00
 5568              	.LASF154:
 5569 0951 67657452 		.ascii	"getRandomLocation\000"
 5569      616E646F 
 5569      6D4C6F63 
 5569      6174696F 
 5569      6E00
 5570              	.LASF70:
 5571 0963 5F737464 		.ascii	"_stderr\000"
 5571      65727200 
 5572              	.LASF117:
 5573 096b 5F6E6D61 		.ascii	"_nmalloc\000"
 5573      6C6C6F63 
 5573      00
 5574              	.LASF58:
 5575 0974 5F756275 		.ascii	"_ubuf\000"
 5575      6600
 5576              		.ident	"GCC: (GNU Tools for ARM Embedded Processors) 5.4.1 20160609 (release) [ARM/embedded-5-bran
