ARM GAS  C:\Users\ikui753\AppData\Local\Temp\ccTyn6zv.s 			page 1


   1              		.syntax unified
   2              		.cpu cortex-m3
   3              		.fpu softvfp
   4              		.eabi_attribute 20, 1
   5              		.eabi_attribute 21, 1
   6              		.eabi_attribute 23, 3
   7              		.eabi_attribute 24, 1
   8              		.eabi_attribute 25, 1
   9              		.eabi_attribute 26, 1
  10              		.eabi_attribute 30, 6
  11              		.eabi_attribute 34, 1
  12              		.eabi_attribute 18, 4
  13              		.thumb
  14              		.syntax unified
  15              		.file	"main.c"
  16              		.text
  17              	.Ltext0:
  18              		.cfi_sections	.debug_frame
  19              		.global	ts
  20              		.bss
  21              		.type	ts, %object
  22              		.size	ts, 1
  23              	ts:
  24 0000 00       		.space	1
  25              		.global	ts_enc
  26 0001 00       		.align	1
  27              		.type	ts_enc, %object
  28              		.size	ts_enc, 2
  29              	ts_enc:
  30 0002 0000     		.space	2
  31              		.global	ts_update
  32              		.align	1
  33              		.type	ts_update, %object
  34              		.size	ts_update, 2
  35              	ts_update:
  36 0004 0000     		.space	2
  37              		.global	ts_speed
  38              		.align	1
  39              		.type	ts_speed, %object
  40              		.size	ts_speed, 2
  41              	ts_speed:
  42 0006 0000     		.space	2
  43              		.global	ts_display
  44              		.align	1
  45              		.type	ts_display, %object
  46              		.size	ts_display, 2
  47              	ts_display:
  48 0008 0000     		.space	2
  49              		.global	flag_ts_enc
  50              		.type	flag_ts_enc, %object
  51              		.size	flag_ts_enc, 1
  52              	flag_ts_enc:
  53 000a 00       		.space	1
  54              		.global	flag_ts_update
  55              		.type	flag_ts_update, %object
  56              		.size	flag_ts_update, 1
  57              	flag_ts_update:
ARM GAS  C:\Users\ikui753\AppData\Local\Temp\ccTyn6zv.s 			page 2


  58 000b 00       		.space	1
  59              		.global	flag_ts_speed
  60              		.type	flag_ts_speed, %object
  61              		.size	flag_ts_speed, 1
  62              	flag_ts_speed:
  63 000c 00       		.space	1
  64              		.global	flag_ts_display
  65              		.type	flag_ts_display, %object
  66              		.size	flag_ts_display, 1
  67              	flag_ts_display:
  68 000d 00       		.space	1
  69              		.global	flag_rx
  70              		.type	flag_rx, %object
  71              		.size	flag_rx, 1
  72              	flag_rx:
  73 000e 00       		.space	1
  74              		.global	flag_packet
  75              		.type	flag_packet, %object
  76              		.size	flag_packet, 1
  77              	flag_packet:
  78 000f 00       		.space	1
  79              		.global	flag_KB_string
  80              		.type	flag_KB_string, %object
  81              		.size	flag_KB_string, 1
  82              	flag_KB_string:
  83 0010 00       		.space	1
  84              		.global	dataready_flag
  85              		.type	dataready_flag, %object
  86              		.size	dataready_flag, 1
  87              	dataready_flag:
  88 0011 00       		.space	1
  89              		.global	flag_rf_transmission_active
  90              		.data
  91              		.type	flag_rf_transmission_active, %object
  92              		.size	flag_rf_transmission_active, 1
  93              	flag_rf_transmission_active:
  94 0000 0A       		.byte	10
  95              		.global	displaystring
  96 0001 000000   		.align	2
  97              		.type	displaystring, %object
  98              		.size	displaystring, 64
  99              	displaystring:
 100 0004 43533330 		.ascii	"CS301 2016\012\015\000"
 100      31203230 
 100      31360A0D 
 100      00
 101 0011 00000000 		.space	51
 101      00000000 
 101      00000000 
 101      00000000 
 101      00000000 
 102              		.comm	line,64,4
 103              		.comm	entry,64,4
 104              		.comm	usbBuffer,64,4
 105              		.comm	system_state,32,4
 106              		.global	map
 107              		.align	2
ARM GAS  C:\Users\ikui753\AppData\Local\Temp\ccTyn6zv.s 			page 3


 108              		.type	map, %object
 109              		.size	map, 1140
 110              	map:
 111 0044 01000000 		.word	1
 112 0048 01000000 		.word	1
 113 004c 01000000 		.word	1
 114 0050 01000000 		.word	1
 115 0054 01000000 		.word	1
 116 0058 01000000 		.word	1
 117 005c 01000000 		.word	1
 118 0060 01000000 		.word	1
 119 0064 01000000 		.word	1
 120 0068 01000000 		.word	1
 121 006c 01000000 		.word	1
 122 0070 01000000 		.word	1
 123 0074 01000000 		.word	1
 124 0078 01000000 		.word	1
 125 007c 01000000 		.word	1
 126 0080 01000000 		.word	1
 127 0084 01000000 		.word	1
 128 0088 01000000 		.word	1
 129 008c 01000000 		.word	1
 130 0090 01000000 		.word	1
 131 0094 00000000 		.word	0
 132 0098 00000000 		.word	0
 133 009c 00000000 		.word	0
 134 00a0 00000000 		.word	0
 135 00a4 00000000 		.word	0
 136 00a8 01000000 		.word	1
 137 00ac 00000000 		.word	0
 138 00b0 00000000 		.word	0
 139 00b4 00000000 		.word	0
 140 00b8 00000000 		.word	0
 141 00bc 00000000 		.word	0
 142 00c0 00000000 		.word	0
 143 00c4 00000000 		.word	0
 144 00c8 00000000 		.word	0
 145 00cc 00000000 		.word	0
 146 00d0 00000000 		.word	0
 147 00d4 00000000 		.word	0
 148 00d8 01000000 		.word	1
 149 00dc 01000000 		.word	1
 150 00e0 01000000 		.word	1
 151 00e4 01000000 		.word	1
 152 00e8 01000000 		.word	1
 153 00ec 01000000 		.word	1
 154 00f0 00000000 		.word	0
 155 00f4 01000000 		.word	1
 156 00f8 00000000 		.word	0
 157 00fc 01000000 		.word	1
 158 0100 01000000 		.word	1
 159 0104 01000000 		.word	1
 160 0108 01000000 		.word	1
 161 010c 01000000 		.word	1
 162 0110 01000000 		.word	1
 163 0114 01000000 		.word	1
 164 0118 00000000 		.word	0
ARM GAS  C:\Users\ikui753\AppData\Local\Temp\ccTyn6zv.s 			page 4


 165 011c 01000000 		.word	1
 166 0120 00000000 		.word	0
 167 0124 01000000 		.word	1
 168 0128 01000000 		.word	1
 169 012c 00000000 		.word	0
 170 0130 00000000 		.word	0
 171 0134 00000000 		.word	0
 172 0138 00000000 		.word	0
 173 013c 00000000 		.word	0
 174 0140 00000000 		.word	0
 175 0144 00000000 		.word	0
 176 0148 00000000 		.word	0
 177 014c 00000000 		.word	0
 178 0150 00000000 		.word	0
 179 0154 00000000 		.word	0
 180 0158 00000000 		.word	0
 181 015c 00000000 		.word	0
 182 0160 01000000 		.word	1
 183 0164 00000000 		.word	0
 184 0168 01000000 		.word	1
 185 016c 00000000 		.word	0
 186 0170 01000000 		.word	1
 187 0174 01000000 		.word	1
 188 0178 00000000 		.word	0
 189 017c 01000000 		.word	1
 190 0180 00000000 		.word	0
 191 0184 01000000 		.word	1
 192 0188 01000000 		.word	1
 193 018c 01000000 		.word	1
 194 0190 01000000 		.word	1
 195 0194 01000000 		.word	1
 196 0198 00000000 		.word	0
 197 019c 01000000 		.word	1
 198 01a0 00000000 		.word	0
 199 01a4 01000000 		.word	1
 200 01a8 01000000 		.word	1
 201 01ac 01000000 		.word	1
 202 01b0 00000000 		.word	0
 203 01b4 01000000 		.word	1
 204 01b8 00000000 		.word	0
 205 01bc 01000000 		.word	1
 206 01c0 01000000 		.word	1
 207 01c4 00000000 		.word	0
 208 01c8 01000000 		.word	1
 209 01cc 00000000 		.word	0
 210 01d0 00000000 		.word	0
 211 01d4 00000000 		.word	0
 212 01d8 01000000 		.word	1
 213 01dc 00000000 		.word	0
 214 01e0 00000000 		.word	0
 215 01e4 00000000 		.word	0
 216 01e8 01000000 		.word	1
 217 01ec 00000000 		.word	0
 218 01f0 01000000 		.word	1
 219 01f4 00000000 		.word	0
 220 01f8 00000000 		.word	0
 221 01fc 00000000 		.word	0
ARM GAS  C:\Users\ikui753\AppData\Local\Temp\ccTyn6zv.s 			page 5


 222 0200 01000000 		.word	1
 223 0204 00000000 		.word	0
 224 0208 01000000 		.word	1
 225 020c 01000000 		.word	1
 226 0210 00000000 		.word	0
 227 0214 01000000 		.word	1
 228 0218 01000000 		.word	1
 229 021c 01000000 		.word	1
 230 0220 00000000 		.word	0
 231 0224 01000000 		.word	1
 232 0228 00000000 		.word	0
 233 022c 01000000 		.word	1
 234 0230 00000000 		.word	0
 235 0234 01000000 		.word	1
 236 0238 00000000 		.word	0
 237 023c 01000000 		.word	1
 238 0240 00000000 		.word	0
 239 0244 01000000 		.word	1
 240 0248 01000000 		.word	1
 241 024c 01000000 		.word	1
 242 0250 00000000 		.word	0
 243 0254 01000000 		.word	1
 244 0258 01000000 		.word	1
 245 025c 00000000 		.word	0
 246 0260 00000000 		.word	0
 247 0264 00000000 		.word	0
 248 0268 00000000 		.word	0
 249 026c 00000000 		.word	0
 250 0270 01000000 		.word	1
 251 0274 00000000 		.word	0
 252 0278 01000000 		.word	1
 253 027c 00000000 		.word	0
 254 0280 01000000 		.word	1
 255 0284 00000000 		.word	0
 256 0288 01000000 		.word	1
 257 028c 00000000 		.word	0
 258 0290 01000000 		.word	1
 259 0294 00000000 		.word	0
 260 0298 00000000 		.word	0
 261 029c 00000000 		.word	0
 262 02a0 01000000 		.word	1
 263 02a4 01000000 		.word	1
 264 02a8 00000000 		.word	0
 265 02ac 01000000 		.word	1
 266 02b0 01000000 		.word	1
 267 02b4 01000000 		.word	1
 268 02b8 01000000 		.word	1
 269 02bc 01000000 		.word	1
 270 02c0 00000000 		.word	0
 271 02c4 01000000 		.word	1
 272 02c8 00000000 		.word	0
 273 02cc 01000000 		.word	1
 274 02d0 01000000 		.word	1
 275 02d4 01000000 		.word	1
 276 02d8 00000000 		.word	0
 277 02dc 01000000 		.word	1
 278 02e0 00000000 		.word	0
ARM GAS  C:\Users\ikui753\AppData\Local\Temp\ccTyn6zv.s 			page 6


 279 02e4 01000000 		.word	1
 280 02e8 01000000 		.word	1
 281 02ec 01000000 		.word	1
 282 02f0 01000000 		.word	1
 283 02f4 00000000 		.word	0
 284 02f8 00000000 		.word	0
 285 02fc 00000000 		.word	0
 286 0300 00000000 		.word	0
 287 0304 00000000 		.word	0
 288 0308 00000000 		.word	0
 289 030c 00000000 		.word	0
 290 0310 01000000 		.word	1
 291 0314 00000000 		.word	0
 292 0318 00000000 		.word	0
 293 031c 00000000 		.word	0
 294 0320 01000000 		.word	1
 295 0324 00000000 		.word	0
 296 0328 01000000 		.word	1
 297 032c 00000000 		.word	0
 298 0330 00000000 		.word	0
 299 0334 00000000 		.word	0
 300 0338 01000000 		.word	1
 301 033c 01000000 		.word	1
 302 0340 01000000 		.word	1
 303 0344 01000000 		.word	1
 304 0348 01000000 		.word	1
 305 034c 01000000 		.word	1
 306 0350 01000000 		.word	1
 307 0354 01000000 		.word	1
 308 0358 00000000 		.word	0
 309 035c 01000000 		.word	1
 310 0360 01000000 		.word	1
 311 0364 01000000 		.word	1
 312 0368 00000000 		.word	0
 313 036c 01000000 		.word	1
 314 0370 00000000 		.word	0
 315 0374 01000000 		.word	1
 316 0378 01000000 		.word	1
 317 037c 01000000 		.word	1
 318 0380 00000000 		.word	0
 319 0384 01000000 		.word	1
 320 0388 01000000 		.word	1
 321 038c 00000000 		.word	0
 322 0390 00000000 		.word	0
 323 0394 00000000 		.word	0
 324 0398 00000000 		.word	0
 325 039c 00000000 		.word	0
 326 03a0 00000000 		.word	0
 327 03a4 00000000 		.word	0
 328 03a8 00000000 		.word	0
 329 03ac 00000000 		.word	0
 330 03b0 01000000 		.word	1
 331 03b4 00000000 		.word	0
 332 03b8 01000000 		.word	1
 333 03bc 00000000 		.word	0
 334 03c0 00000000 		.word	0
 335 03c4 00000000 		.word	0
ARM GAS  C:\Users\ikui753\AppData\Local\Temp\ccTyn6zv.s 			page 7


 336 03c8 00000000 		.word	0
 337 03cc 00000000 		.word	0
 338 03d0 01000000 		.word	1
 339 03d4 01000000 		.word	1
 340 03d8 00000000 		.word	0
 341 03dc 01000000 		.word	1
 342 03e0 01000000 		.word	1
 343 03e4 01000000 		.word	1
 344 03e8 01000000 		.word	1
 345 03ec 01000000 		.word	1
 346 03f0 01000000 		.word	1
 347 03f4 01000000 		.word	1
 348 03f8 00000000 		.word	0
 349 03fc 01000000 		.word	1
 350 0400 00000000 		.word	0
 351 0404 01000000 		.word	1
 352 0408 01000000 		.word	1
 353 040c 01000000 		.word	1
 354 0410 01000000 		.word	1
 355 0414 01000000 		.word	1
 356 0418 00000000 		.word	0
 357 041c 01000000 		.word	1
 358 0420 01000000 		.word	1
 359 0424 00000000 		.word	0
 360 0428 00000000 		.word	0
 361 042c 00000000 		.word	0
 362 0430 00000000 		.word	0
 363 0434 00000000 		.word	0
 364 0438 00000000 		.word	0
 365 043c 00000000 		.word	0
 366 0440 01000000 		.word	1
 367 0444 00000000 		.word	0
 368 0448 00000000 		.word	0
 369 044c 00000000 		.word	0
 370 0450 00000000 		.word	0
 371 0454 00000000 		.word	0
 372 0458 00000000 		.word	0
 373 045c 00000000 		.word	0
 374 0460 00000000 		.word	0
 375 0464 00000000 		.word	0
 376 0468 01000000 		.word	1
 377 046c 01000000 		.word	1
 378 0470 01000000 		.word	1
 379 0474 01000000 		.word	1
 380 0478 01000000 		.word	1
 381 047c 01000000 		.word	1
 382 0480 01000000 		.word	1
 383 0484 01000000 		.word	1
 384 0488 01000000 		.word	1
 385 048c 01000000 		.word	1
 386 0490 01000000 		.word	1
 387 0494 01000000 		.word	1
 388 0498 01000000 		.word	1
 389 049c 01000000 		.word	1
 390 04a0 01000000 		.word	1
 391 04a4 01000000 		.word	1
 392 04a8 01000000 		.word	1
ARM GAS  C:\Users\ikui753\AppData\Local\Temp\ccTyn6zv.s 			page 8


 393 04ac 01000000 		.word	1
 394 04b0 01000000 		.word	1
 395 04b4 01000000 		.word	1
 396              		.global	food_list
 397              		.align	2
 398              		.type	food_list, %object
 399              		.size	food_list, 40
 400              	food_list:
 401 04b8 01000000 		.word	1
 402 04bc 09000000 		.word	9
 403 04c0 05000000 		.word	5
 404 04c4 05000000 		.word	5
 405 04c8 07000000 		.word	7
 406 04cc 01000000 		.word	1
 407 04d0 0D000000 		.word	13
 408 04d4 05000000 		.word	5
 409 04d8 09000000 		.word	9
 410 04dc 09000000 		.word	9
 411              		.comm	directionState,4,4
 412              		.global	currentDirection
 413              		.align	2
 414              		.type	currentDirection, %object
 415              		.size	currentDirection, 4
 416              	currentDirection:
 417 04e0 05000000 		.word	5
 418              		.global	previousDirection
 419              		.align	2
 420              		.type	previousDirection, %object
 421              		.size	previousDirection, 4
 422              	previousDirection:
 423 04e4 06000000 		.word	6
 424              		.global	currentOrientation
 425              		.bss
 426              		.type	currentOrientation, %object
 427              		.size	currentOrientation, 1
 428              	currentOrientation:
 429 0012 00       		.space	1
 430              		.global	previousOrientation
 431              		.type	previousOrientation, %object
 432              		.size	previousOrientation, 1
 433              	previousOrientation:
 434 0013 00       		.space	1
 435              		.comm	s1,1,1
 436              		.comm	s2,1,1
 437              		.comm	s3,1,1
 438              		.comm	s4,1,1
 439              		.comm	s5,1,1
 440              		.global	s6
 441              		.type	s6, %object
 442              		.size	s6, 1
 443              	s6:
 444 0014 00       		.space	1
 445              		.global	totalMilliseconds
 446 0015 000000   		.align	2
 447              		.type	totalMilliseconds, %object
 448              		.size	totalMilliseconds, 4
 449              	totalMilliseconds:
ARM GAS  C:\Users\ikui753\AppData\Local\Temp\ccTyn6zv.s 			page 9


 450 0018 00000000 		.space	4
 451              		.global	totalDistance
 452              		.align	2
 453              		.type	totalDistance, %object
 454              		.size	totalDistance, 4
 455              	totalDistance:
 456 001c 00000000 		.space	4
 457              		.comm	buffer,69,4
 458              		.global	quadDec2Count
 459              		.align	2
 460              		.type	quadDec2Count, %object
 461              		.size	quadDec2Count, 4
 462              	quadDec2Count:
 463 0020 00000000 		.space	4
 464              		.global	timerInt
 465              		.align	2
 466              		.type	timerInt, %object
 467              		.size	timerInt, 4
 468              	timerInt:
 469 0024 00000000 		.space	4
 470              		.global	keepLedOn
 471              		.align	2
 472              		.type	keepLedOn, %object
 473              		.size	keepLedOn, 4
 474              	keepLedOn:
 475 0028 00000000 		.space	4
 476              		.global	stopBuffer
 477              		.align	2
 478              		.type	stopBuffer, %object
 479              		.size	stopBuffer, 4
 480              	stopBuffer:
 481 002c 00000000 		.space	4
 482              		.global	__aeabi_i2d
 483              		.global	__aeabi_dmul
 484              		.global	__aeabi_ddiv
 485              		.global	__aeabi_d2f
 486              		.global	__aeabi_fadd
 487              		.section	.text.speedTimer,"ax",%progbits
 488              		.align	2
 489              		.global	speedTimer
 490              		.thumb
 491              		.thumb_func
 492              		.type	speedTimer, %function
 493              	speedTimer:
 494              	.LFB64:
 495              		.file 1 "main.c"
   1:main.c        **** /* ========================================
   2:main.c        ****  * Fully working code: 
   3:main.c        ****  * PWM      : 
   4:main.c        ****  * Encoder  : 
   5:main.c        ****  * ADC      :
   6:main.c        ****  * USB      : port displays speed and position.
   7:main.c        ****  * CMD: "PW xx"
   8:main.c        ****  * Copyright Univ of Auckland, 2016
   9:main.c        ****  * All Rights Reserved
  10:main.c        ****  * UNPUBLISHED, LICENSED SOFTWARE.
  11:main.c        ****  *
ARM GAS  C:\Users\ikui753\AppData\Local\Temp\ccTyn6zv.s 			page 10


  12:main.c        ****  * CONFIDENTIAL AND PROPRIETARY INFORMATION
  13:main.c        ****  * WHICH IS THE PROPERTY OF Univ of Auckland.
  14:main.c        ****  *
  15:main.c        ****  * ========================================
  16:main.c        **** */
  17:main.c        **** #include <stdio.h>
  18:main.c        **** #include <string.h>
  19:main.c        **** #include <stdlib.h>
  20:main.c        **** #include <project.h>
  21:main.c        **** //* ========================================
  22:main.c        **** #include "defines.h"
  23:main.c        **** #include "vars.h"
  24:main.c        **** #include "pathfinding.h"
  25:main.c        **** #include "initialise.h"
  26:main.c        **** #include "movement.h"
  27:main.c        **** #include "usbUART.h"
  28:main.c        **** #include "map.h"
  29:main.c        **** //* ========================================
  30:main.c        **** // USBUART
  31:main.c        **** void usbPutString(char *s);
  32:main.c        **** void usbPutChar(char c);
  33:main.c        **** void handle_usb();
  34:main.c        **** //* ========================================
  35:main.c        **** int16 quadCountToRPM(uint16 count);
  36:main.c        **** //* ========================================
  37:main.c        **** // Sensors, Course correction and Movement Direction.
  38:main.c        **** void ResetSensorFlags();
  39:main.c        **** void SetRobotMovement();
  40:main.c        **** enum DirectionState getDirection();
  41:main.c        **** enum DirectionState CheckSensorDirection();
  42:main.c        **** enum DirectionState {Forward, TurnRight, TurnLeft, AdjustToTheLeft, AdjustToTheRight, Stop, Unknown
  43:main.c        **** enum DirectionState directionState;
  44:main.c        **** enum Orientation {Up, Down, Left, Right}; // taken from origin at bottom left corner
  45:main.c        **** enum DirectionState currentDirection = Stop;
  46:main.c        **** enum DirectionState previousDirection = Unknown;
  47:main.c        **** enum Orientation currentOrientation = Up;
  48:main.c        **** enum Orientation previousOrientation = Up;
  49:main.c        **** // ----------------------------------------
  50:main.c        **** uint8 s1, s2, s3, s4, s5, s6 = 0; // black = 0, white = 1- initialise sensor signals
  51:main.c        **** //* ========================================
  52:main.c        **** uint32 totalMilliseconds = 0;
  53:main.c        **** float totalDistance = 0; // in mm
  54:main.c        **** //* ========================================
  55:main.c        **** char buffer[69];
  56:main.c        **** int quadDec2Count = 0;
  57:main.c        **** int timerInt = 0;
  58:main.c        **** int keepLedOn = 0;
  59:main.c        **** uint32 stopBuffer = 0;
  60:main.c        **** 
  61:main.c        **** CY_ISR (speedTimer) {
 496              		.loc 1 61 0
 497              		.cfi_startproc
 498              		@ args = 0, pretend = 0, frame = 8
 499              		@ frame_needed = 1, uses_anonymous_args = 0
 500 0000 90B5     		push	{r4, r7, lr}
 501              		.cfi_def_cfa_offset 12
 502              		.cfi_offset 4, -12
ARM GAS  C:\Users\ikui753\AppData\Local\Temp\ccTyn6zv.s 			page 11


 503              		.cfi_offset 7, -8
 504              		.cfi_offset 14, -4
 505 0002 83B0     		sub	sp, sp, #12
 506              		.cfi_def_cfa_offset 24
 507 0004 00AF     		add	r7, sp, #0
 508              		.cfi_def_cfa_register 7
  62:main.c        ****     timerInt = 1;
 509              		.loc 1 62 0
 510 0006 344B     		ldr	r3, .L4+16
 511 0008 0122     		movs	r2, #1
 512 000a 1A60     		str	r2, [r3]
  63:main.c        ****     //quadDec_M1 used for turning macros
  64:main.c        ****     quadDec2Count = QuadDec_M2_GetCounter();
 513              		.loc 1 64 0
 514 000c FFF7FEFF 		bl	QuadDec_M2_GetCounter
 515 0010 0346     		mov	r3, r0
 516 0012 1A46     		mov	r2, r3
 517 0014 314B     		ldr	r3, .L4+20
 518 0016 1A60     		str	r2, [r3]
  65:main.c        ****     
  66:main.c        ****     if ((currentDirection == Forward || 
 519              		.loc 1 66 0
 520 0018 314B     		ldr	r3, .L4+24
 521 001a 1B68     		ldr	r3, [r3]
 522 001c 002B     		cmp	r3, #0
 523 001e 13D0     		beq	.L2
  67:main.c        ****         currentDirection == HardForward ||
 524              		.loc 1 67 0 discriminator 1
 525 0020 2F4B     		ldr	r3, .L4+24
 526 0022 1B68     		ldr	r3, [r3]
  66:main.c        ****         currentDirection == HardForward ||
 527              		.loc 1 66 0 discriminator 1
 528 0024 072B     		cmp	r3, #7
 529 0026 0FD0     		beq	.L2
  68:main.c        ****         currentDirection == waitForTurn || 
 530              		.loc 1 68 0
 531 0028 2D4B     		ldr	r3, .L4+24
 532 002a 1B68     		ldr	r3, [r3]
  67:main.c        ****         currentDirection == HardForward ||
 533              		.loc 1 67 0
 534 002c 082B     		cmp	r3, #8
 535 002e 0BD0     		beq	.L2
  69:main.c        ****         currentDirection == ForwardAfterTurn ||
 536              		.loc 1 69 0
 537 0030 2B4B     		ldr	r3, .L4+24
 538 0032 1B68     		ldr	r3, [r3]
  68:main.c        ****         currentDirection == waitForTurn || 
 539              		.loc 1 68 0
 540 0034 092B     		cmp	r3, #9
 541 0036 07D0     		beq	.L2
  70:main.c        ****         currentDirection == AdjustToTheLeft ||
 542              		.loc 1 70 0
 543 0038 294B     		ldr	r3, .L4+24
 544 003a 1B68     		ldr	r3, [r3]
  69:main.c        ****         currentDirection == ForwardAfterTurn ||
 545              		.loc 1 69 0
 546 003c 032B     		cmp	r3, #3
ARM GAS  C:\Users\ikui753\AppData\Local\Temp\ccTyn6zv.s 			page 12


 547 003e 03D0     		beq	.L2
  71:main.c        ****         currentDirection == AdjustToTheRight) &&
 548              		.loc 1 71 0
 549 0040 274B     		ldr	r3, .L4+24
 550 0042 1B68     		ldr	r3, [r3]
  70:main.c        ****         currentDirection == AdjustToTheLeft ||
 551              		.loc 1 70 0
 552 0044 042B     		cmp	r3, #4
 553 0046 34D1     		bne	.L3
 554              	.L2:
  72:main.c        ****         quadDec2Count != 0) {
 555              		.loc 1 72 0
 556 0048 244B     		ldr	r3, .L4+20
 557 004a 1B68     		ldr	r3, [r3]
  71:main.c        ****         currentDirection == AdjustToTheRight) &&
 558              		.loc 1 71 0
 559 004c 002B     		cmp	r3, #0
 560 004e 30D0     		beq	.L3
 561              	.LBB2:
  73:main.c        ****         //uint32 newDistance = ((abs(quadDec2Count) / 57.0) * CY_M_PI * WHEEL_DIAMETER_MM)/4;
  74:main.c        ****         float newDistance = (abs(quadDec2Count) * CY_M_PI * WHEEL_DIAMETER_MM)/228;
 562              		.loc 1 74 0
 563 0050 224B     		ldr	r3, .L4+20
 564 0052 1B68     		ldr	r3, [r3]
 565 0054 002B     		cmp	r3, #0
 566 0056 B8BF     		it	lt
 567 0058 5B42     		rsblt	r3, r3, #0
 568 005a 1846     		mov	r0, r3
 569 005c FFF7FEFF 		bl	__aeabi_i2d
 570 0060 19A3     		adr	r3, .L4
 571 0062 D3E90023 		ldrd	r2, [r3]
 572 0066 FFF7FEFF 		bl	__aeabi_dmul
 573 006a 0346     		mov	r3, r0
 574 006c 0C46     		mov	r4, r1
 575 006e 1846     		mov	r0, r3
 576 0070 2146     		mov	r1, r4
 577 0072 17A3     		adr	r3, .L4+8
 578 0074 D3E90023 		ldrd	r2, [r3]
 579 0078 FFF7FEFF 		bl	__aeabi_dmul
 580 007c 0346     		mov	r3, r0
 581 007e 0C46     		mov	r4, r1
 582 0080 1846     		mov	r0, r3
 583 0082 2146     		mov	r1, r4
 584 0084 4FF00002 		mov	r2, #0
 585 0088 164B     		ldr	r3, .L4+28
 586 008a FFF7FEFF 		bl	__aeabi_ddiv
 587 008e 0346     		mov	r3, r0
 588 0090 0C46     		mov	r4, r1
 589 0092 1846     		mov	r0, r3
 590 0094 2146     		mov	r1, r4
 591 0096 FFF7FEFF 		bl	__aeabi_d2f
 592 009a 0346     		mov	r3, r0
 593 009c 7B60     		str	r3, [r7, #4]	@ float
  75:main.c        ****         totalDistance = totalDistance + newDistance;
 594              		.loc 1 75 0
 595 009e 124B     		ldr	r3, .L4+32
 596 00a0 1B68     		ldr	r3, [r3]	@ float
ARM GAS  C:\Users\ikui753\AppData\Local\Temp\ccTyn6zv.s 			page 13


 597 00a2 7968     		ldr	r1, [r7, #4]	@ float
 598 00a4 1846     		mov	r0, r3
 599 00a6 FFF7FEFF 		bl	__aeabi_fadd
 600 00aa 0346     		mov	r3, r0
 601 00ac 1A46     		mov	r2, r3
 602 00ae 0E4B     		ldr	r3, .L4+32
 603 00b0 1A60     		str	r2, [r3]	@ float
 604              	.L3:
 605              	.LBE2:
  76:main.c        ****     }
  77:main.c        ****     
  78:main.c        ****     QuadDec_M2_SetCounter(0); // reset count
 606              		.loc 1 78 0
 607 00b2 0020     		movs	r0, #0
 608 00b4 FFF7FEFF 		bl	QuadDec_M2_SetCounter
  79:main.c        ****     QuadDec_M2_Start(); // restart counter
 609              		.loc 1 79 0
 610 00b8 FFF7FEFF 		bl	QuadDec_M2_Start
  80:main.c        ****     
  81:main.c        ****     SpeedTimer_ReadStatusRegister(); // clear interrupt
 611              		.loc 1 81 0
 612 00bc FFF7FEFF 		bl	SpeedTimer_ReadStatusRegister
  82:main.c        **** }
 613              		.loc 1 82 0
 614 00c0 00BF     		nop
 615 00c2 0C37     		adds	r7, r7, #12
 616              		.cfi_def_cfa_offset 12
 617 00c4 BD46     		mov	sp, r7
 618              		.cfi_def_cfa_register 13
 619              		@ sp needed
 620 00c6 90BD     		pop	{r4, r7, pc}
 621              	.L5:
 622              		.align	3
 623              	.L4:
 624 00c8 182D4454 		.word	1413754136
 625 00cc FB210940 		.word	1074340347
 626 00d0 00000000 		.word	0
 627 00d4 00205040 		.word	1078992896
 628 00d8 00000000 		.word	timerInt
 629 00dc 00000000 		.word	quadDec2Count
 630 00e0 00000000 		.word	currentDirection
 631 00e4 00806C40 		.word	1080852480
 632 00e8 00000000 		.word	totalDistance
 633              		.cfi_endproc
 634              	.LFE64:
 635              		.size	speedTimer, .-speedTimer
 636              		.section	.text.S1_DETECTED,"ax",%progbits
 637              		.align	2
 638              		.global	S1_DETECTED
 639              		.thumb
 640              		.thumb_func
 641              		.type	S1_DETECTED, %function
 642              	S1_DETECTED:
 643              	.LFB65:
  83:main.c        **** 
  84:main.c        **** CY_ISR(S1_DETECTED) {
 644              		.loc 1 84 0
ARM GAS  C:\Users\ikui753\AppData\Local\Temp\ccTyn6zv.s 			page 14


 645              		.cfi_startproc
 646              		@ args = 0, pretend = 0, frame = 0
 647              		@ frame_needed = 1, uses_anonymous_args = 0
 648              		@ link register save eliminated.
 649 0000 80B4     		push	{r7}
 650              		.cfi_def_cfa_offset 4
 651              		.cfi_offset 7, -4
 652 0002 00AF     		add	r7, sp, #0
 653              		.cfi_def_cfa_register 7
  85:main.c        ****     // Sensor has detected WHITE
  86:main.c        ****     s1 = 1; // , Black = 0, White = 1
 654              		.loc 1 86 0
 655 0004 034B     		ldr	r3, .L7
 656 0006 0122     		movs	r2, #1
 657 0008 1A70     		strb	r2, [r3]
  87:main.c        ****     //LED_Write(1u);
  88:main.c        ****     //moveForward();
  89:main.c        **** }
 658              		.loc 1 89 0
 659 000a 00BF     		nop
 660 000c BD46     		mov	sp, r7
 661              		.cfi_def_cfa_register 13
 662              		@ sp needed
 663 000e 80BC     		pop	{r7}
 664              		.cfi_restore 7
 665              		.cfi_def_cfa_offset 0
 666 0010 7047     		bx	lr
 667              	.L8:
 668 0012 00BF     		.align	2
 669              	.L7:
 670 0014 00000000 		.word	s1
 671              		.cfi_endproc
 672              	.LFE65:
 673              		.size	S1_DETECTED, .-S1_DETECTED
 674              		.section	.text.S2_DETECTED,"ax",%progbits
 675              		.align	2
 676              		.global	S2_DETECTED
 677              		.thumb
 678              		.thumb_func
 679              		.type	S2_DETECTED, %function
 680              	S2_DETECTED:
 681              	.LFB66:
  90:main.c        **** 
  91:main.c        **** CY_ISR(S2_DETECTED) {
 682              		.loc 1 91 0
 683              		.cfi_startproc
 684              		@ args = 0, pretend = 0, frame = 0
 685              		@ frame_needed = 1, uses_anonymous_args = 0
 686              		@ link register save eliminated.
 687 0000 80B4     		push	{r7}
 688              		.cfi_def_cfa_offset 4
 689              		.cfi_offset 7, -4
 690 0002 00AF     		add	r7, sp, #0
 691              		.cfi_def_cfa_register 7
  92:main.c        ****     // Sensor has detected WHITE
  93:main.c        ****     s2 = 1; // , Black = 0, White = 1
 692              		.loc 1 93 0
ARM GAS  C:\Users\ikui753\AppData\Local\Temp\ccTyn6zv.s 			page 15


 693 0004 034B     		ldr	r3, .L10
 694 0006 0122     		movs	r2, #1
 695 0008 1A70     		strb	r2, [r3]
  94:main.c        ****     //LED_Write(1u);
  95:main.c        ****     //moveForward();
  96:main.c        **** }
 696              		.loc 1 96 0
 697 000a 00BF     		nop
 698 000c BD46     		mov	sp, r7
 699              		.cfi_def_cfa_register 13
 700              		@ sp needed
 701 000e 80BC     		pop	{r7}
 702              		.cfi_restore 7
 703              		.cfi_def_cfa_offset 0
 704 0010 7047     		bx	lr
 705              	.L11:
 706 0012 00BF     		.align	2
 707              	.L10:
 708 0014 00000000 		.word	s2
 709              		.cfi_endproc
 710              	.LFE66:
 711              		.size	S2_DETECTED, .-S2_DETECTED
 712              		.section	.text.S3_DETECTED,"ax",%progbits
 713              		.align	2
 714              		.global	S3_DETECTED
 715              		.thumb
 716              		.thumb_func
 717              		.type	S3_DETECTED, %function
 718              	S3_DETECTED:
 719              	.LFB67:
  97:main.c        **** 
  98:main.c        **** CY_ISR(S3_DETECTED) {
 720              		.loc 1 98 0
 721              		.cfi_startproc
 722              		@ args = 0, pretend = 0, frame = 0
 723              		@ frame_needed = 1, uses_anonymous_args = 0
 724              		@ link register save eliminated.
 725 0000 80B4     		push	{r7}
 726              		.cfi_def_cfa_offset 4
 727              		.cfi_offset 7, -4
 728 0002 00AF     		add	r7, sp, #0
 729              		.cfi_def_cfa_register 7
  99:main.c        ****     // Sensor has detected WHITE
 100:main.c        ****     s3 = 1; // , Black = 0, White = 1
 730              		.loc 1 100 0
 731 0004 034B     		ldr	r3, .L13
 732 0006 0122     		movs	r2, #1
 733 0008 1A70     		strb	r2, [r3]
 101:main.c        ****     //LED_Write(1u);
 102:main.c        **** }
 734              		.loc 1 102 0
 735 000a 00BF     		nop
 736 000c BD46     		mov	sp, r7
 737              		.cfi_def_cfa_register 13
 738              		@ sp needed
 739 000e 80BC     		pop	{r7}
 740              		.cfi_restore 7
ARM GAS  C:\Users\ikui753\AppData\Local\Temp\ccTyn6zv.s 			page 16


 741              		.cfi_def_cfa_offset 0
 742 0010 7047     		bx	lr
 743              	.L14:
 744 0012 00BF     		.align	2
 745              	.L13:
 746 0014 00000000 		.word	s3
 747              		.cfi_endproc
 748              	.LFE67:
 749              		.size	S3_DETECTED, .-S3_DETECTED
 750              		.section	.text.S4_DETECTED,"ax",%progbits
 751              		.align	2
 752              		.global	S4_DETECTED
 753              		.thumb
 754              		.thumb_func
 755              		.type	S4_DETECTED, %function
 756              	S4_DETECTED:
 757              	.LFB68:
 103:main.c        **** 
 104:main.c        **** CY_ISR(S4_DETECTED) {
 758              		.loc 1 104 0
 759              		.cfi_startproc
 760              		@ args = 0, pretend = 0, frame = 0
 761              		@ frame_needed = 1, uses_anonymous_args = 0
 762              		@ link register save eliminated.
 763 0000 80B4     		push	{r7}
 764              		.cfi_def_cfa_offset 4
 765              		.cfi_offset 7, -4
 766 0002 00AF     		add	r7, sp, #0
 767              		.cfi_def_cfa_register 7
 105:main.c        ****     // Sensor has detected WHITE
 106:main.c        ****     s4 = 1; // , Black = 0, White = 1
 768              		.loc 1 106 0
 769 0004 034B     		ldr	r3, .L16
 770 0006 0122     		movs	r2, #1
 771 0008 1A70     		strb	r2, [r3]
 107:main.c        ****     //LED_Write(1u);
 108:main.c        **** }
 772              		.loc 1 108 0
 773 000a 00BF     		nop
 774 000c BD46     		mov	sp, r7
 775              		.cfi_def_cfa_register 13
 776              		@ sp needed
 777 000e 80BC     		pop	{r7}
 778              		.cfi_restore 7
 779              		.cfi_def_cfa_offset 0
 780 0010 7047     		bx	lr
 781              	.L17:
 782 0012 00BF     		.align	2
 783              	.L16:
 784 0014 00000000 		.word	s4
 785              		.cfi_endproc
 786              	.LFE68:
 787              		.size	S4_DETECTED, .-S4_DETECTED
 788              		.section	.text.S5_DETECTED,"ax",%progbits
 789              		.align	2
 790              		.global	S5_DETECTED
 791              		.thumb
ARM GAS  C:\Users\ikui753\AppData\Local\Temp\ccTyn6zv.s 			page 17


 792              		.thumb_func
 793              		.type	S5_DETECTED, %function
 794              	S5_DETECTED:
 795              	.LFB69:
 109:main.c        **** 
 110:main.c        **** CY_ISR(S5_DETECTED) {
 796              		.loc 1 110 0
 797              		.cfi_startproc
 798              		@ args = 0, pretend = 0, frame = 0
 799              		@ frame_needed = 1, uses_anonymous_args = 0
 800              		@ link register save eliminated.
 801 0000 80B4     		push	{r7}
 802              		.cfi_def_cfa_offset 4
 803              		.cfi_offset 7, -4
 804 0002 00AF     		add	r7, sp, #0
 805              		.cfi_def_cfa_register 7
 111:main.c        ****     // Sensor has detected WHITE
 112:main.c        ****     s5 = 1; // , Black = 0, White = 1
 806              		.loc 1 112 0
 807 0004 034B     		ldr	r3, .L19
 808 0006 0122     		movs	r2, #1
 809 0008 1A70     		strb	r2, [r3]
 113:main.c        ****     //LED_Write(1u);
 114:main.c        **** }
 810              		.loc 1 114 0
 811 000a 00BF     		nop
 812 000c BD46     		mov	sp, r7
 813              		.cfi_def_cfa_register 13
 814              		@ sp needed
 815 000e 80BC     		pop	{r7}
 816              		.cfi_restore 7
 817              		.cfi_def_cfa_offset 0
 818 0010 7047     		bx	lr
 819              	.L20:
 820 0012 00BF     		.align	2
 821              	.L19:
 822 0014 00000000 		.word	s5
 823              		.cfi_endproc
 824              	.LFE69:
 825              		.size	S5_DETECTED, .-S5_DETECTED
 826              		.section	.text.S6_DETECTED,"ax",%progbits
 827              		.align	2
 828              		.global	S6_DETECTED
 829              		.thumb
 830              		.thumb_func
 831              		.type	S6_DETECTED, %function
 832              	S6_DETECTED:
 833              	.LFB70:
 115:main.c        **** 
 116:main.c        **** CY_ISR(S6_DETECTED) {
 834              		.loc 1 116 0
 835              		.cfi_startproc
 836              		@ args = 0, pretend = 0, frame = 0
 837              		@ frame_needed = 1, uses_anonymous_args = 0
 838              		@ link register save eliminated.
 839 0000 80B4     		push	{r7}
 840              		.cfi_def_cfa_offset 4
ARM GAS  C:\Users\ikui753\AppData\Local\Temp\ccTyn6zv.s 			page 18


 841              		.cfi_offset 7, -4
 842 0002 00AF     		add	r7, sp, #0
 843              		.cfi_def_cfa_register 7
 117:main.c        ****     // Sensor has detected WHITE
 118:main.c        ****     s6 = 1; // , Black = 0, White = 1
 844              		.loc 1 118 0
 845 0004 034B     		ldr	r3, .L22
 846 0006 0122     		movs	r2, #1
 847 0008 1A70     		strb	r2, [r3]
 119:main.c        ****     //LED_Write(1u);
 120:main.c        **** }
 848              		.loc 1 120 0
 849 000a 00BF     		nop
 850 000c BD46     		mov	sp, r7
 851              		.cfi_def_cfa_register 13
 852              		@ sp needed
 853 000e 80BC     		pop	{r7}
 854              		.cfi_restore 7
 855              		.cfi_def_cfa_offset 0
 856 0010 7047     		bx	lr
 857              	.L23:
 858 0012 00BF     		.align	2
 859              	.L22:
 860 0014 00000000 		.word	s6
 861              		.cfi_endproc
 862              	.LFE70:
 863              		.size	S6_DETECTED, .-S6_DETECTED
 864              		.section	.text.TIMER_FINISH,"ax",%progbits
 865              		.align	2
 866              		.global	TIMER_FINISH
 867              		.thumb
 868              		.thumb_func
 869              		.type	TIMER_FINISH, %function
 870              	TIMER_FINISH:
 871              	.LFB71:
 121:main.c        **** 
 122:main.c        **** CY_ISR(TIMER_FINISH) {
 872              		.loc 1 122 0
 873              		.cfi_startproc
 874              		@ args = 0, pretend = 0, frame = 0
 875              		@ frame_needed = 1, uses_anonymous_args = 0
 876 0000 80B5     		push	{r7, lr}
 877              		.cfi_def_cfa_offset 8
 878              		.cfi_offset 7, -8
 879              		.cfi_offset 14, -4
 880 0002 00AF     		add	r7, sp, #0
 881              		.cfi_def_cfa_register 7
 123:main.c        ****     //LED_Write(0u);
 124:main.c        ****     if (currentDirection == Stop) {
 882              		.loc 1 124 0
 883 0004 0A4B     		ldr	r3, .L27
 884 0006 1B68     		ldr	r3, [r3]
 885 0008 052B     		cmp	r3, #5
 886 000a 05D1     		bne	.L25
 125:main.c        ****         stopBuffer = stopBuffer + 1;
 887              		.loc 1 125 0
 888 000c 094B     		ldr	r3, .L27+4
ARM GAS  C:\Users\ikui753\AppData\Local\Temp\ccTyn6zv.s 			page 19


 889 000e 1B68     		ldr	r3, [r3]
 890 0010 0133     		adds	r3, r3, #1
 891 0012 084A     		ldr	r2, .L27+4
 892 0014 1360     		str	r3, [r2]
 893 0016 02E0     		b	.L26
 894              	.L25:
 126:main.c        ****     } else {
 127:main.c        ****         stopBuffer = 0;
 895              		.loc 1 127 0
 896 0018 064B     		ldr	r3, .L27+4
 897 001a 0022     		movs	r2, #0
 898 001c 1A60     		str	r2, [r3]
 899              	.L26:
 128:main.c        ****     }
 129:main.c        ****     SetRobotMovement(); 
 900              		.loc 1 129 0
 901 001e FFF7FEFF 		bl	SetRobotMovement
 130:main.c        ****     ResetSensorFlags(); // Reset Sensor Flags for Next rising Eddge
 902              		.loc 1 130 0
 903 0022 FFF7FEFF 		bl	ResetSensorFlags
 131:main.c        ****     Timer_LED_ReadStatusRegister();
 904              		.loc 1 131 0
 905 0026 FFF7FEFF 		bl	Timer_LED_ReadStatusRegister
 132:main.c        **** }
 906              		.loc 1 132 0
 907 002a 00BF     		nop
 908 002c 80BD     		pop	{r7, pc}
 909              	.L28:
 910 002e 00BF     		.align	2
 911              	.L27:
 912 0030 00000000 		.word	currentDirection
 913 0034 00000000 		.word	stopBuffer
 914              		.cfi_endproc
 915              	.LFE71:
 916              		.size	TIMER_FINISH, .-TIMER_FINISH
 917              		.section	.text.main,"ax",%progbits
 918              		.align	2
 919              		.global	main
 920              		.thumb
 921              		.thumb_func
 922              		.type	main, %function
 923              	main:
 924              	.LFB72:
 133:main.c        **** 
 134:main.c        **** 
 135:main.c        **** int main()
 136:main.c        **** {
 925              		.loc 1 136 0
 926              		.cfi_startproc
 927              		@ args = 0, pretend = 0, frame = 0
 928              		@ frame_needed = 1, uses_anonymous_args = 0
 929 0000 80B5     		push	{r7, lr}
 930              		.cfi_def_cfa_offset 8
 931              		.cfi_offset 7, -8
 932              		.cfi_offset 14, -4
 933 0002 00AF     		add	r7, sp, #0
 934              		.cfi_def_cfa_register 7
ARM GAS  C:\Users\ikui753\AppData\Local\Temp\ccTyn6zv.s 			page 20


 137:main.c        **** // --------------------------------    
 138:main.c        **** // ----- INITIALIZATIONS ----------
 139:main.c        ****     CYGlobalIntEnable;
 935              		.loc 1 139 0
 936              		.syntax unified
 937              	@ 139 "main.c" 1
 938 0004 62B6     		CPSIE   i
 939              	@ 0 "" 2
 140:main.c        ****     ResetSensorFlags();
 940              		.loc 1 140 0
 941              		.thumb
 942              		.syntax unified
 943 0006 FFF7FEFF 		bl	ResetSensorFlags
 141:main.c        ****     init(); // initialise clocks, pwms, adc, dac etc- done in header file
 944              		.loc 1 141 0
 945 000a FFF7FEFF 		bl	init
 142:main.c        ****     //findPath(map, "");// find shortest path- store this in map
 143:main.c        ****     isr_speed_StartEx(speedTimer); // start interrupt
 946              		.loc 1 143 0
 947 000e 1C48     		ldr	r0, .L33
 948 0010 FFF7FEFF 		bl	isr_speed_StartEx
 144:main.c        ****     isr_Timer_LED_StartEx(TIMER_FINISH);
 949              		.loc 1 144 0
 950 0014 1B48     		ldr	r0, .L33+4
 951 0016 FFF7FEFF 		bl	isr_Timer_LED_StartEx
 145:main.c        ****     S1_detected_StartEx(S1_DETECTED);
 952              		.loc 1 145 0
 953 001a 1B48     		ldr	r0, .L33+8
 954 001c FFF7FEFF 		bl	S1_detected_StartEx
 146:main.c        ****     S2_detected_StartEx(S2_DETECTED);
 955              		.loc 1 146 0
 956 0020 1A48     		ldr	r0, .L33+12
 957 0022 FFF7FEFF 		bl	S2_detected_StartEx
 147:main.c        ****     S3_detected_StartEx(S3_DETECTED);
 958              		.loc 1 147 0
 959 0026 1A48     		ldr	r0, .L33+16
 960 0028 FFF7FEFF 		bl	S3_detected_StartEx
 148:main.c        ****     S4_detected_StartEx(S4_DETECTED);
 961              		.loc 1 148 0
 962 002c 1948     		ldr	r0, .L33+20
 963 002e FFF7FEFF 		bl	S4_detected_StartEx
 149:main.c        ****     S5_detected_StartEx(S5_DETECTED);
 964              		.loc 1 149 0
 965 0032 1948     		ldr	r0, .L33+24
 966 0034 FFF7FEFF 		bl	S5_detected_StartEx
 150:main.c        ****     S6_detected_StartEx(S6_DETECTED);
 967              		.loc 1 150 0
 968 0038 1848     		ldr	r0, .L33+28
 969 003a FFF7FEFF 		bl	S6_detected_StartEx
 151:main.c        ****     findPath(map);
 970              		.loc 1 151 0
 971 003e 1848     		ldr	r0, .L33+32
 972 0040 FFF7FEFF 		bl	findPath
 152:main.c        ****     Timer_LED_Start();
 973              		.loc 1 152 0
 974 0044 FFF7FEFF 		bl	Timer_LED_Start
 153:main.c        ****     //stopMoving();
ARM GAS  C:\Users\ikui753\AppData\Local\Temp\ccTyn6zv.s 			page 21


 154:main.c        **** 
 155:main.c        **** // ------USB SETUP ----------------    
 156:main.c        **** #ifdef USE_USB    
 157:main.c        ****     USBUART_Start(0,USBUART_5V_OPERATION);
 975              		.loc 1 157 0
 976 0048 0121     		movs	r1, #1
 977 004a 0020     		movs	r0, #0
 978 004c FFF7FEFF 		bl	USBUART_Start
 158:main.c        **** #endif        
 159:main.c        ****     RF_BT_SELECT_Write(0);
 979              		.loc 1 159 0
 980 0050 0020     		movs	r0, #0
 981 0052 FFF7FEFF 		bl	RF_BT_SELECT_Write
 982              	.L32:
 160:main.c        ****     
 161:main.c        ****     //usbPutString("Initialised UART");
 162:main.c        ****     for(;;)
 163:main.c        ****     {
 164:main.c        ****         //traverseMap(map);
 165:main.c        ****         //rotationAntiClockwise();
 166:main.c        ****         //rotationClockwise();
 167:main.c        ****         
 168:main.c        ****         
 169:main.c        ****         
 170:main.c        ****         if(timerInt == 1) {
 983              		.loc 1 170 0
 984 0056 134B     		ldr	r3, .L33+36
 985 0058 1B68     		ldr	r3, [r3]
 986 005a 012B     		cmp	r3, #1
 987 005c 08D1     		bne	.L30
 171:main.c        ****             timerInt = 0;
 988              		.loc 1 171 0
 989 005e 114B     		ldr	r3, .L33+36
 990 0060 0022     		movs	r2, #0
 991 0062 1A60     		str	r2, [r3]
 172:main.c        ****             // calculate RPM of M2
 173:main.c        ****             quadCountToRPM(quadDec2Count);
 992              		.loc 1 173 0
 993 0064 104B     		ldr	r3, .L33+40
 994 0066 1B68     		ldr	r3, [r3]
 995 0068 9BB2     		uxth	r3, r3
 996 006a 1846     		mov	r0, r3
 997 006c FFF7FEFF 		bl	quadCountToRPM
 998              	.L30:
 174:main.c        ****             //sprintf(buffer, "%lu", totalDistance);
 175:main.c        ****             //usbPutString(buffer);
 176:main.c        ****             //usbPutString(" ");
 177:main.c        ****         }
 178:main.c        ****         //handle_usb();
 179:main.c        ****         if (flag_KB_string == 1)
 999              		.loc 1 179 0
 1000 0070 0E4B     		ldr	r3, .L33+44
 1001 0072 1B78     		ldrb	r3, [r3]	@ zero_extendqisi2
 1002 0074 012B     		cmp	r3, #1
 1003 0076 EED1     		bne	.L32
 180:main.c        ****         {
 181:main.c        ****             //usbPutString("Total Distance: ");
ARM GAS  C:\Users\ikui753\AppData\Local\Temp\ccTyn6zv.s 			page 22


 182:main.c        ****             //sprintf(buffer, "%lu", totalDistance);
 183:main.c        ****             //usbPutString(buffer);
 184:main.c        ****             flag_KB_string = 0;
 1004              		.loc 1 184 0
 1005 0078 0C4B     		ldr	r3, .L33+44
 1006 007a 0022     		movs	r2, #0
 1007 007c 1A70     		strb	r2, [r3]
 185:main.c        ****         }           
 186:main.c        ****     }
 1008              		.loc 1 186 0
 1009 007e EAE7     		b	.L32
 1010              	.L34:
 1011              		.align	2
 1012              	.L33:
 1013 0080 00000000 		.word	speedTimer
 1014 0084 00000000 		.word	TIMER_FINISH
 1015 0088 00000000 		.word	S1_DETECTED
 1016 008c 00000000 		.word	S2_DETECTED
 1017 0090 00000000 		.word	S3_DETECTED
 1018 0094 00000000 		.word	S4_DETECTED
 1019 0098 00000000 		.word	S5_DETECTED
 1020 009c 00000000 		.word	S6_DETECTED
 1021 00a0 00000000 		.word	map
 1022 00a4 00000000 		.word	timerInt
 1023 00a8 00000000 		.word	quadDec2Count
 1024 00ac 00000000 		.word	flag_KB_string
 1025              		.cfi_endproc
 1026              	.LFE72:
 1027              		.size	main, .-main
 1028              		.global	__aeabi_fmul
 1029              		.global	__aeabi_f2iz
 1030              		.section	.text.quadCountToRPM,"ax",%progbits
 1031              		.align	2
 1032              		.global	quadCountToRPM
 1033              		.thumb
 1034              		.thumb_func
 1035              		.type	quadCountToRPM, %function
 1036              	quadCountToRPM:
 1037              	.LFB73:
 187:main.c        ****     return 0;
 188:main.c        **** }
 189:main.c        **** 
 190:main.c        **** // Calculations
 191:main.c        **** //* ========================================
 192:main.c        **** int16 quadCountToRPM(uint16 count)
 193:main.c        **** {
 1038              		.loc 1 193 0
 1039              		.cfi_startproc
 1040              		@ args = 0, pretend = 0, frame = 16
 1041              		@ frame_needed = 1, uses_anonymous_args = 0
 1042 0000 90B5     		push	{r4, r7, lr}
 1043              		.cfi_def_cfa_offset 12
 1044              		.cfi_offset 4, -12
 1045              		.cfi_offset 7, -8
 1046              		.cfi_offset 14, -4
 1047 0002 85B0     		sub	sp, sp, #20
 1048              		.cfi_def_cfa_offset 32
ARM GAS  C:\Users\ikui753\AppData\Local\Temp\ccTyn6zv.s 			page 23


 1049 0004 00AF     		add	r7, sp, #0
 1050              		.cfi_def_cfa_register 7
 1051 0006 0346     		mov	r3, r0
 1052 0008 FB80     		strh	r3, [r7, #6]	@ movhi
 194:main.c        ****     float cps = count/57.00;
 1053              		.loc 1 194 0
 1054 000a FB88     		ldrh	r3, [r7, #6]
 1055 000c 1846     		mov	r0, r3
 1056 000e FFF7FEFF 		bl	__aeabi_i2d
 1057 0012 4FF00002 		mov	r2, #0
 1058 0016 0D4B     		ldr	r3, .L37
 1059 0018 FFF7FEFF 		bl	__aeabi_ddiv
 1060 001c 0346     		mov	r3, r0
 1061 001e 0C46     		mov	r4, r1
 1062 0020 1846     		mov	r0, r3
 1063 0022 2146     		mov	r1, r4
 1064 0024 FFF7FEFF 		bl	__aeabi_d2f
 1065 0028 0346     		mov	r3, r0
 1066 002a FB60     		str	r3, [r7, #12]	@ float
 195:main.c        ****     int16 rpm = (int16)(cps*15); // rpm value
 1067              		.loc 1 195 0
 1068 002c 0849     		ldr	r1, .L37+4
 1069 002e F868     		ldr	r0, [r7, #12]	@ float
 1070 0030 FFF7FEFF 		bl	__aeabi_fmul
 1071 0034 0346     		mov	r3, r0
 1072 0036 1846     		mov	r0, r3
 1073 0038 FFF7FEFF 		bl	__aeabi_f2iz
 1074 003c 0346     		mov	r3, r0
 1075 003e 7B81     		strh	r3, [r7, #10]	@ movhi
 196:main.c        ****     //sprintf(buffer, "%d", rpm); // store in buffer
 197:main.c        ****     return rpm;
 1076              		.loc 1 197 0
 1077 0040 B7F90A30 		ldrsh	r3, [r7, #10]
 198:main.c        ****     //usbPutString(buffer);
 199:main.c        ****     //usbPutString("rpm ");
 200:main.c        **** }
 1078              		.loc 1 200 0
 1079 0044 1846     		mov	r0, r3
 1080 0046 1437     		adds	r7, r7, #20
 1081              		.cfi_def_cfa_offset 12
 1082 0048 BD46     		mov	sp, r7
 1083              		.cfi_def_cfa_register 13
 1084              		@ sp needed
 1085 004a 90BD     		pop	{r4, r7, pc}
 1086              	.L38:
 1087              		.align	2
 1088              	.L37:
 1089 004c 00804C40 		.word	1078755328
 1090 0050 00007041 		.word	1097859072
 1091              		.cfi_endproc
 1092              	.LFE73:
 1093              		.size	quadCountToRPM, .-quadCountToRPM
 1094              		.section	.text.ResetSensorFlags,"ax",%progbits
 1095              		.align	2
 1096              		.global	ResetSensorFlags
 1097              		.thumb
 1098              		.thumb_func
ARM GAS  C:\Users\ikui753\AppData\Local\Temp\ccTyn6zv.s 			page 24


 1099              		.type	ResetSensorFlags, %function
 1100              	ResetSensorFlags:
 1101              	.LFB74:
 201:main.c        **** 
 202:main.c        **** // Resets all sensor flags to 0 - i.e. currently out of map
 203:main.c        **** void ResetSensorFlags() {
 1102              		.loc 1 203 0
 1103              		.cfi_startproc
 1104              		@ args = 0, pretend = 0, frame = 0
 1105              		@ frame_needed = 1, uses_anonymous_args = 0
 1106              		@ link register save eliminated.
 1107 0000 80B4     		push	{r7}
 1108              		.cfi_def_cfa_offset 4
 1109              		.cfi_offset 7, -4
 1110 0002 00AF     		add	r7, sp, #0
 1111              		.cfi_def_cfa_register 7
 204:main.c        ****     s1 = 0;
 1112              		.loc 1 204 0
 1113 0004 0A4B     		ldr	r3, .L40
 1114 0006 0022     		movs	r2, #0
 1115 0008 1A70     		strb	r2, [r3]
 205:main.c        ****     s2 = 0;
 1116              		.loc 1 205 0
 1117 000a 0A4B     		ldr	r3, .L40+4
 1118 000c 0022     		movs	r2, #0
 1119 000e 1A70     		strb	r2, [r3]
 206:main.c        ****     s3 = 0;
 1120              		.loc 1 206 0
 1121 0010 094B     		ldr	r3, .L40+8
 1122 0012 0022     		movs	r2, #0
 1123 0014 1A70     		strb	r2, [r3]
 207:main.c        ****     s4 = 0;
 1124              		.loc 1 207 0
 1125 0016 094B     		ldr	r3, .L40+12
 1126 0018 0022     		movs	r2, #0
 1127 001a 1A70     		strb	r2, [r3]
 208:main.c        ****     s5 = 0;
 1128              		.loc 1 208 0
 1129 001c 084B     		ldr	r3, .L40+16
 1130 001e 0022     		movs	r2, #0
 1131 0020 1A70     		strb	r2, [r3]
 209:main.c        ****     s6 = 0;
 1132              		.loc 1 209 0
 1133 0022 084B     		ldr	r3, .L40+20
 1134 0024 0022     		movs	r2, #0
 1135 0026 1A70     		strb	r2, [r3]
 210:main.c        **** }
 1136              		.loc 1 210 0
 1137 0028 00BF     		nop
 1138 002a BD46     		mov	sp, r7
 1139              		.cfi_def_cfa_register 13
 1140              		@ sp needed
 1141 002c 80BC     		pop	{r7}
 1142              		.cfi_restore 7
 1143              		.cfi_def_cfa_offset 0
 1144 002e 7047     		bx	lr
 1145              	.L41:
ARM GAS  C:\Users\ikui753\AppData\Local\Temp\ccTyn6zv.s 			page 25


 1146              		.align	2
 1147              	.L40:
 1148 0030 00000000 		.word	s1
 1149 0034 00000000 		.word	s2
 1150 0038 00000000 		.word	s3
 1151 003c 00000000 		.word	s4
 1152 0040 00000000 		.word	s5
 1153 0044 00000000 		.word	s6
 1154              		.cfi_endproc
 1155              	.LFE74:
 1156              		.size	ResetSensorFlags, .-ResetSensorFlags
 1157              		.global	yBlockSize
 1158              		.data
 1159              		.align	2
 1160              		.type	yBlockSize, %object
 1161              		.size	yBlockSize, 4
 1162              	yBlockSize:
 1163 04e8 A4704D41 		.word	1095594148
 1164              		.global	xBlockSize
 1165              		.align	2
 1166              		.type	xBlockSize, %object
 1167              		.size	xBlockSize, 4
 1168              	xBlockSize:
 1169 04ec 7B141241 		.word	1091703931
 1170              		.comm	blockSize,4,4
 1171              		.comm	currentRow,1,1
 1172              		.comm	currentCol,1,1
 1173              		.global	__aeabi_fcmple
 1174              		.section	.text.getDirection,"ax",%progbits
 1175              		.align	2
 1176              		.global	getDirection
 1177              		.thumb
 1178              		.thumb_func
 1179              		.type	getDirection, %function
 1180              	getDirection:
 1181              	.LFB75:
 211:main.c        **** 
 212:main.c        **** // This function checks the sensor flags s1-s6 through a boolean truth table and
 213:main.c        **** // returns a enum direction state depending on the flag configuration
 214:main.c        **** // if no conditons are met, it returns Unknown -- need to fix this edge case
 215:main.c        **** // s1 = 0 -- Black
 216:main.c        **** // s1 = 1 -- White
 217:main.c        **** float yBlockSize = 12.84;
 218:main.c        **** float xBlockSize = 9.13;
 219:main.c        **** float blockSize;
 220:main.c        **** uint8 currentRow;
 221:main.c        **** uint8 currentCol; // need to initialise
 222:main.c        **** 
 223:main.c        **** enum DirectionState getDirection() {
 1182              		.loc 1 223 0
 1183              		.cfi_startproc
 1184              		@ args = 0, pretend = 0, frame = 0
 1185              		@ frame_needed = 1, uses_anonymous_args = 0
 1186 0000 80B5     		push	{r7, lr}
 1187              		.cfi_def_cfa_offset 8
 1188              		.cfi_offset 7, -8
 1189              		.cfi_offset 14, -4
ARM GAS  C:\Users\ikui753\AppData\Local\Temp\ccTyn6zv.s 			page 26


 1190 0002 00AF     		add	r7, sp, #0
 1191              		.cfi_def_cfa_register 7
 224:main.c        ****     directionState = Stop;
 1192              		.loc 1 224 0
 1193 0004 924B     		ldr	r3, .L92
 1194 0006 0522     		movs	r2, #5
 1195 0008 1A60     		str	r2, [r3]
 225:main.c        ****     currentOrientation = Up; // initialise at start
 1196              		.loc 1 225 0
 1197 000a 924B     		ldr	r3, .L92+4
 1198 000c 0022     		movs	r2, #0
 1199 000e 1A70     		strb	r2, [r3]
 226:main.c        ****     previousDirection = currentDirection;
 1200              		.loc 1 226 0
 1201 0010 914B     		ldr	r3, .L92+8
 1202 0012 1B68     		ldr	r3, [r3]
 1203 0014 914A     		ldr	r2, .L92+12
 1204 0016 1360     		str	r3, [r2]
 227:main.c        ****     //currentDirection = Stop;
 228:main.c        ****     // determine block size
 229:main.c        ****     if(previousOrientation == Up || previousOrientation == Down) {
 1205              		.loc 1 229 0
 1206 0018 914B     		ldr	r3, .L92+16
 1207 001a 1B78     		ldrb	r3, [r3]	@ zero_extendqisi2
 1208 001c 002B     		cmp	r3, #0
 1209 001e 03D0     		beq	.L43
 1210              		.loc 1 229 0 is_stmt 0 discriminator 1
 1211 0020 8F4B     		ldr	r3, .L92+16
 1212 0022 1B78     		ldrb	r3, [r3]	@ zero_extendqisi2
 1213 0024 012B     		cmp	r3, #1
 1214 0026 04D1     		bne	.L44
 1215              	.L43:
 230:main.c        ****         blockSize = yBlockSize;
 1216              		.loc 1 230 0 is_stmt 1
 1217 0028 8E4B     		ldr	r3, .L92+20
 1218 002a 1B68     		ldr	r3, [r3]	@ float
 1219 002c 8E4A     		ldr	r2, .L92+24
 1220 002e 1360     		str	r3, [r2]	@ float
 1221 0030 03E0     		b	.L45
 1222              	.L44:
 231:main.c        ****     } else {
 232:main.c        ****         blockSize = xBlockSize;
 1223              		.loc 1 232 0
 1224 0032 8E4B     		ldr	r3, .L92+28
 1225 0034 1B68     		ldr	r3, [r3]	@ float
 1226 0036 8C4A     		ldr	r2, .L92+24
 1227 0038 1360     		str	r3, [r2]	@ float
 1228              	.L45:
 233:main.c        ****     }
 234:main.c        ****     // find next direction after we reach a new coordinate
 235:main.c        ****     if(totalDistance <= blockSize) {
 1229              		.loc 1 235 0
 1230 003a 8D4B     		ldr	r3, .L92+32
 1231 003c 1A68     		ldr	r2, [r3]	@ float
 1232 003e 8A4B     		ldr	r3, .L92+24
 1233 0040 1B68     		ldr	r3, [r3]	@ float
 1234 0042 1946     		mov	r1, r3
ARM GAS  C:\Users\ikui753\AppData\Local\Temp\ccTyn6zv.s 			page 27


 1235 0044 1046     		mov	r0, r2
 1236 0046 FFF7FEFF 		bl	__aeabi_fcmple
 1237 004a 0346     		mov	r3, r0
 1238 004c 002B     		cmp	r3, #0
 1239 004e 00F0A480 		beq	.L86
 236:main.c        ****         // MOVEMENT
 237:main.c        ****         if (previousDirection == Stop) {
 1240              		.loc 1 237 0
 1241 0052 824B     		ldr	r3, .L92+12
 1242 0054 1B68     		ldr	r3, [r3]
 1243 0056 052B     		cmp	r3, #5
 1244 0058 0DD1     		bne	.L48
 238:main.c        ****             if (stopBuffer <= 10) {
 1245              		.loc 1 238 0
 1246 005a 864B     		ldr	r3, .L92+36
 1247 005c 1B68     		ldr	r3, [r3]
 1248 005e 0A2B     		cmp	r3, #10
 1249 0060 03D8     		bhi	.L49
 239:main.c        ****                 directionState = Stop;
 1250              		.loc 1 239 0
 1251 0062 7B4B     		ldr	r3, .L92
 1252 0064 0522     		movs	r2, #5
 1253 0066 1A60     		str	r2, [r3]
 1254 0068 02E0     		b	.L50
 1255              	.L49:
 240:main.c        ****             } else {
 241:main.c        ****                 directionState = ForwardAfterTurn;
 1256              		.loc 1 241 0
 1257 006a 794B     		ldr	r3, .L92
 1258 006c 0922     		movs	r2, #9
 1259 006e 1A60     		str	r2, [r3]
 1260              	.L50:
 242:main.c        ****             }
 243:main.c        ****             //currentDirection = previousDirection;
 244:main.c        ****             return directionState;
 1261              		.loc 1 244 0
 1262 0070 774B     		ldr	r3, .L92
 1263 0072 1B68     		ldr	r3, [r3]
 1264 0074 F6E1     		b	.L51
 1265              	.L48:
 245:main.c        ****         }
 246:main.c        ****         
 247:main.c        ****         if (previousDirection == ForwardAfterTurn) {
 1266              		.loc 1 247 0
 1267 0076 794B     		ldr	r3, .L92+12
 1268 0078 1B68     		ldr	r3, [r3]
 1269 007a 092B     		cmp	r3, #9
 1270 007c 0DD1     		bne	.L52
 248:main.c        ****             if (s3 || s4) {
 1271              		.loc 1 248 0
 1272 007e 7E4B     		ldr	r3, .L92+40
 1273 0080 1B78     		ldrb	r3, [r3]	@ zero_extendqisi2
 1274 0082 002B     		cmp	r3, #0
 1275 0084 03D1     		bne	.L53
 1276              		.loc 1 248 0 is_stmt 0 discriminator 1
 1277 0086 7D4B     		ldr	r3, .L92+44
 1278 0088 1B78     		ldrb	r3, [r3]	@ zero_extendqisi2
ARM GAS  C:\Users\ikui753\AppData\Local\Temp\ccTyn6zv.s 			page 28


 1279 008a 002B     		cmp	r3, #0
 1280 008c 05D0     		beq	.L52
 1281              	.L53:
 249:main.c        ****                 //totalDistance = 0; // reset total distance after turn
 250:main.c        ****                 directionState = Forward;
 1282              		.loc 1 250 0 is_stmt 1
 1283 008e 704B     		ldr	r3, .L92
 1284 0090 0022     		movs	r2, #0
 1285 0092 1A60     		str	r2, [r3]
 251:main.c        ****                 //currentDirection = previousDirection;
 252:main.c        ****                 return directionState;
 1286              		.loc 1 252 0
 1287 0094 6E4B     		ldr	r3, .L92
 1288 0096 1B68     		ldr	r3, [r3]
 1289 0098 E4E1     		b	.L51
 1290              	.L52:
 253:main.c        ****             }
 254:main.c        ****         }
 255:main.c        **** 
 256:main.c        ****         if(previousDirection == TurnRight) {
 1291              		.loc 1 256 0
 1292 009a 704B     		ldr	r3, .L92+12
 1293 009c 1B68     		ldr	r3, [r3]
 1294 009e 012B     		cmp	r3, #1
 1295 00a0 1BD1     		bne	.L54
 257:main.c        ****             if(s5 && s6) {
 1296              		.loc 1 257 0
 1297 00a2 774B     		ldr	r3, .L92+48
 1298 00a4 1B78     		ldrb	r3, [r3]	@ zero_extendqisi2
 1299 00a6 002B     		cmp	r3, #0
 1300 00a8 09D0     		beq	.L55
 1301              		.loc 1 257 0 is_stmt 0 discriminator 1
 1302 00aa 764B     		ldr	r3, .L92+52
 1303 00ac 1B78     		ldrb	r3, [r3]	@ zero_extendqisi2
 1304 00ae 002B     		cmp	r3, #0
 1305 00b0 05D0     		beq	.L55
 258:main.c        ****                 directionState = TurnRight;
 1306              		.loc 1 258 0 is_stmt 1
 1307 00b2 674B     		ldr	r3, .L92
 1308 00b4 0122     		movs	r2, #1
 1309 00b6 1A60     		str	r2, [r3]
 259:main.c        ****                 //currentDirection = previousDirection;
 260:main.c        ****                 return directionState;
 1310              		.loc 1 260 0
 1311 00b8 654B     		ldr	r3, .L92
 1312 00ba 1B68     		ldr	r3, [r3]
 1313 00bc D2E1     		b	.L51
 1314              	.L55:
 261:main.c        ****             } 
 262:main.c        ****             else if (!s5 || !s6) {
 1315              		.loc 1 262 0
 1316 00be 704B     		ldr	r3, .L92+48
 1317 00c0 1B78     		ldrb	r3, [r3]	@ zero_extendqisi2
 1318 00c2 002B     		cmp	r3, #0
 1319 00c4 03D0     		beq	.L56
 1320              		.loc 1 262 0 is_stmt 0 discriminator 1
 1321 00c6 6F4B     		ldr	r3, .L92+52
ARM GAS  C:\Users\ikui753\AppData\Local\Temp\ccTyn6zv.s 			page 29


 1322 00c8 1B78     		ldrb	r3, [r3]	@ zero_extendqisi2
 1323 00ca 002B     		cmp	r3, #0
 1324 00cc 05D1     		bne	.L54
 1325              	.L56:
 263:main.c        ****                 directionState = Stop;
 1326              		.loc 1 263 0 is_stmt 1
 1327 00ce 604B     		ldr	r3, .L92
 1328 00d0 0522     		movs	r2, #5
 1329 00d2 1A60     		str	r2, [r3]
 264:main.c        ****                 //currentDirection = previousDirection;
 265:main.c        ****                 return directionState;
 1330              		.loc 1 265 0
 1331 00d4 5E4B     		ldr	r3, .L92
 1332 00d6 1B68     		ldr	r3, [r3]
 1333 00d8 C4E1     		b	.L51
 1334              	.L54:
 266:main.c        ****             }
 267:main.c        ****         }    
 268:main.c        **** 
 269:main.c        ****         if(previousDirection == TurnLeft) {
 1335              		.loc 1 269 0
 1336 00da 604B     		ldr	r3, .L92+12
 1337 00dc 1B68     		ldr	r3, [r3]
 1338 00de 022B     		cmp	r3, #2
 1339 00e0 1BD1     		bne	.L57
 270:main.c        ****             if(s5 && s6) {
 1340              		.loc 1 270 0
 1341 00e2 674B     		ldr	r3, .L92+48
 1342 00e4 1B78     		ldrb	r3, [r3]	@ zero_extendqisi2
 1343 00e6 002B     		cmp	r3, #0
 1344 00e8 09D0     		beq	.L58
 1345              		.loc 1 270 0 is_stmt 0 discriminator 1
 1346 00ea 664B     		ldr	r3, .L92+52
 1347 00ec 1B78     		ldrb	r3, [r3]	@ zero_extendqisi2
 1348 00ee 002B     		cmp	r3, #0
 1349 00f0 05D0     		beq	.L58
 271:main.c        ****                 directionState = TurnLeft;
 1350              		.loc 1 271 0 is_stmt 1
 1351 00f2 574B     		ldr	r3, .L92
 1352 00f4 0222     		movs	r2, #2
 1353 00f6 1A60     		str	r2, [r3]
 272:main.c        ****                 //currentDirection = previousDirection;
 273:main.c        ****                 return directionState;
 1354              		.loc 1 273 0
 1355 00f8 554B     		ldr	r3, .L92
 1356 00fa 1B68     		ldr	r3, [r3]
 1357 00fc B2E1     		b	.L51
 1358              	.L58:
 274:main.c        ****             } 
 275:main.c        ****             else if (!s5 || !s6) {
 1359              		.loc 1 275 0
 1360 00fe 604B     		ldr	r3, .L92+48
 1361 0100 1B78     		ldrb	r3, [r3]	@ zero_extendqisi2
 1362 0102 002B     		cmp	r3, #0
 1363 0104 03D0     		beq	.L59
 1364              		.loc 1 275 0 is_stmt 0 discriminator 1
 1365 0106 5F4B     		ldr	r3, .L92+52
ARM GAS  C:\Users\ikui753\AppData\Local\Temp\ccTyn6zv.s 			page 30


 1366 0108 1B78     		ldrb	r3, [r3]	@ zero_extendqisi2
 1367 010a 002B     		cmp	r3, #0
 1368 010c 05D1     		bne	.L57
 1369              	.L59:
 276:main.c        ****                 directionState = Stop;
 1370              		.loc 1 276 0 is_stmt 1
 1371 010e 504B     		ldr	r3, .L92
 1372 0110 0522     		movs	r2, #5
 1373 0112 1A60     		str	r2, [r3]
 277:main.c        ****                 //currentDirection = previousDirection;
 278:main.c        ****                 return directionState;
 1374              		.loc 1 278 0
 1375 0114 4E4B     		ldr	r3, .L92
 1376 0116 1B68     		ldr	r3, [r3]
 1377 0118 A4E1     		b	.L51
 1378              	.L57:
 279:main.c        ****             }
 280:main.c        ****         }
 281:main.c        **** 
 282:main.c        ****         // course correction
 283:main.c        ****         if (previousDirection == Forward || previousDirection == AdjustToTheLeft || previousDirecti
 1379              		.loc 1 283 0
 1380 011a 504B     		ldr	r3, .L92+12
 1381 011c 1B68     		ldr	r3, [r3]
 1382 011e 002B     		cmp	r3, #0
 1383 0120 07D0     		beq	.L60
 1384              		.loc 1 283 0 is_stmt 0 discriminator 1
 1385 0122 4E4B     		ldr	r3, .L92+12
 1386 0124 1B68     		ldr	r3, [r3]
 1387 0126 032B     		cmp	r3, #3
 1388 0128 03D0     		beq	.L60
 1389              		.loc 1 283 0 discriminator 2
 1390 012a 4C4B     		ldr	r3, .L92+12
 1391 012c 1B68     		ldr	r3, [r3]
 1392 012e 042B     		cmp	r3, #4
 1393 0130 10D1     		bne	.L61
 1394              	.L60:
 284:main.c        ****             if(s6) {
 1395              		.loc 1 284 0 is_stmt 1
 1396 0132 544B     		ldr	r3, .L92+52
 1397 0134 1B78     		ldrb	r3, [r3]	@ zero_extendqisi2
 1398 0136 002B     		cmp	r3, #0
 1399 0138 02D0     		beq	.L62
 285:main.c        ****                 directionState = AdjustToTheLeft; // keep adjusting to the left
 1400              		.loc 1 285 0
 1401 013a 454B     		ldr	r3, .L92
 1402 013c 0322     		movs	r2, #3
 1403 013e 1A60     		str	r2, [r3]
 1404              	.L62:
 286:main.c        ****             }
 287:main.c        ****             if(s5) {
 1405              		.loc 1 287 0
 1406 0140 4F4B     		ldr	r3, .L92+48
 1407 0142 1B78     		ldrb	r3, [r3]	@ zero_extendqisi2
 1408 0144 002B     		cmp	r3, #0
 1409 0146 02D0     		beq	.L63
 288:main.c        ****                 directionState = AdjustToTheRight; // keep adjusting to the right
ARM GAS  C:\Users\ikui753\AppData\Local\Temp\ccTyn6zv.s 			page 31


 1410              		.loc 1 288 0
 1411 0148 414B     		ldr	r3, .L92
 1412 014a 0422     		movs	r2, #4
 1413 014c 1A60     		str	r2, [r3]
 1414              	.L63:
 289:main.c        ****             }
 290:main.c        ****             //previousOrientation = currentOrientation; // unchanged orientation
 291:main.c        ****             return directionState;
 1415              		.loc 1 291 0
 1416 014e 404B     		ldr	r3, .L92
 1417 0150 1B68     		ldr	r3, [r3]
 1418 0152 87E1     		b	.L51
 1419              	.L61:
 292:main.c        ****         }
 293:main.c        ****         
 294:main.c        ****         // forward 1100
 295:main.c        ****         if (s3 && s4 && !s5 && !s6) {
 1420              		.loc 1 295 0
 1421 0154 484B     		ldr	r3, .L92+40
 1422 0156 1B78     		ldrb	r3, [r3]	@ zero_extendqisi2
 1423 0158 002B     		cmp	r3, #0
 1424 015a 11D0     		beq	.L64
 1425              		.loc 1 295 0 is_stmt 0 discriminator 1
 1426 015c 474B     		ldr	r3, .L92+44
 1427 015e 1B78     		ldrb	r3, [r3]	@ zero_extendqisi2
 1428 0160 002B     		cmp	r3, #0
 1429 0162 0DD0     		beq	.L64
 1430              		.loc 1 295 0 discriminator 2
 1431 0164 464B     		ldr	r3, .L92+48
 1432 0166 1B78     		ldrb	r3, [r3]	@ zero_extendqisi2
 1433 0168 002B     		cmp	r3, #0
 1434 016a 09D1     		bne	.L64
 1435              		.loc 1 295 0 discriminator 3
 1436 016c 454B     		ldr	r3, .L92+52
 1437 016e 1B78     		ldrb	r3, [r3]	@ zero_extendqisi2
 1438 0170 002B     		cmp	r3, #0
 1439 0172 05D1     		bne	.L64
 296:main.c        ****             directionState = Forward;
 1440              		.loc 1 296 0 is_stmt 1
 1441 0174 364B     		ldr	r3, .L92
 1442 0176 0022     		movs	r2, #0
 1443 0178 1A60     		str	r2, [r3]
 297:main.c        ****             //previousOrientation = currentOrientation; // unchanged orientation
 298:main.c        ****             return directionState;   
 1444              		.loc 1 298 0
 1445 017a 354B     		ldr	r3, .L92
 1446 017c 1B68     		ldr	r3, [r3]
 1447 017e 71E1     		b	.L51
 1448              	.L64:
 299:main.c        ****         }
 300:main.c        **** 
 301:main.c        ****         if (previousDirection == Unknown) {
 1449              		.loc 1 301 0
 1450 0180 364B     		ldr	r3, .L92+12
 1451 0182 1B68     		ldr	r3, [r3]
 1452 0184 062B     		cmp	r3, #6
 1453 0186 05D1     		bne	.L65
ARM GAS  C:\Users\ikui753\AppData\Local\Temp\ccTyn6zv.s 			page 32


 302:main.c        ****             directionState = Forward;
 1454              		.loc 1 302 0
 1455 0188 314B     		ldr	r3, .L92
 1456 018a 0022     		movs	r2, #0
 1457 018c 1A60     		str	r2, [r3]
 303:main.c        ****             //previousDirection = currentDirection;
 304:main.c        ****             return directionState;
 1458              		.loc 1 304 0
 1459 018e 304B     		ldr	r3, .L92
 1460 0190 1B68     		ldr	r3, [r3]
 1461 0192 67E1     		b	.L51
 1462              	.L65:
 305:main.c        ****         }
 306:main.c        ****     
 307:main.c        ****         // Possible reason
 308:main.c        ****         //previousDirection = currentDirection;
 309:main.c        ****         return previousDirection;
 1463              		.loc 1 309 0
 1464 0194 314B     		ldr	r3, .L92+12
 1465 0196 1B68     		ldr	r3, [r3]
 1466 0198 64E1     		b	.L51
 1467              	.L86:
 310:main.c        **** 
 311:main.c        ****     } else {
 312:main.c        ****         switch (previousOrientation) {
 1468              		.loc 1 312 0
 1469 019a 314B     		ldr	r3, .L92+16
 1470 019c 1B78     		ldrb	r3, [r3]	@ zero_extendqisi2
 1471 019e 032B     		cmp	r3, #3
 1472 01a0 00F25181 		bhi	.L87
 1473 01a4 01A2     		adr	r2, .L68
 1474 01a6 52F823F0 		ldr	pc, [r2, r3, lsl #2]
 1475 01aa 00BF     		.p2align 2
 1476              	.L68:
 1477 01ac BD010000 		.word	.L67+1
 1478 01b0 95020000 		.word	.L69+1
 1479 01b4 27030000 		.word	.L70+1
 1480 01b8 B7030000 		.word	.L71+1
 1481              		.p2align 1
 1482              	.L67:
 313:main.c        ****             case Up:
 314:main.c        ****                 if(map[currentRow][currentCol + 1] == 8) {
 1483              		.loc 1 314 0
 1484 01bc 324B     		ldr	r3, .L92+56
 1485 01be 1B78     		ldrb	r3, [r3]	@ zero_extendqisi2
 1486 01c0 1A46     		mov	r2, r3
 1487 01c2 324B     		ldr	r3, .L92+60
 1488 01c4 1B78     		ldrb	r3, [r3]	@ zero_extendqisi2
 1489 01c6 591C     		adds	r1, r3, #1
 1490 01c8 3148     		ldr	r0, .L92+64
 1491 01ca 1346     		mov	r3, r2
 1492 01cc DB00     		lsls	r3, r3, #3
 1493 01ce 1344     		add	r3, r3, r2
 1494 01d0 5B00     		lsls	r3, r3, #1
 1495 01d2 1344     		add	r3, r3, r2
 1496 01d4 0B44     		add	r3, r3, r1
 1497 01d6 50F82330 		ldr	r3, [r0, r3, lsl #2]
ARM GAS  C:\Users\ikui753\AppData\Local\Temp\ccTyn6zv.s 			page 33


 1498 01da 082B     		cmp	r3, #8
 1499 01dc 06D1     		bne	.L72
 315:main.c        ****                     currentOrientation = Up;
 1500              		.loc 1 315 0
 1501 01de 1D4B     		ldr	r3, .L92+4
 1502 01e0 0022     		movs	r2, #0
 1503 01e2 1A70     		strb	r2, [r3]
 316:main.c        ****                     directionState = Forward;
 1504              		.loc 1 316 0
 1505 01e4 1A4B     		ldr	r3, .L92
 1506 01e6 0022     		movs	r2, #0
 1507 01e8 1A60     		str	r2, [r3]
 317:main.c        ****                 } else if (map[currentRow - 1][currentCol] == 8) {
 318:main.c        ****                     currentOrientation = Left;
 319:main.c        ****                     directionState = TurnLeft;
 320:main.c        ****                 } else if (map[currentRow + 1][currentCol] == 8) {
 321:main.c        ****                     currentOrientation = Right;
 322:main.c        ****                     directionState = TurnRight;
 323:main.c        ****                 }
 324:main.c        ****                 break;
 1508              		.loc 1 324 0
 1509 01ea 2EE1     		b	.L88
 1510              	.L72:
 317:main.c        ****                 } else if (map[currentRow - 1][currentCol] == 8) {
 1511              		.loc 1 317 0
 1512 01ec 264B     		ldr	r3, .L92+56
 1513 01ee 1B78     		ldrb	r3, [r3]	@ zero_extendqisi2
 1514 01f0 5A1E     		subs	r2, r3, #1
 1515 01f2 264B     		ldr	r3, .L92+60
 1516 01f4 1B78     		ldrb	r3, [r3]	@ zero_extendqisi2
 1517 01f6 1846     		mov	r0, r3
 1518 01f8 2549     		ldr	r1, .L92+64
 1519 01fa 1346     		mov	r3, r2
 1520 01fc DB00     		lsls	r3, r3, #3
 1521 01fe 1344     		add	r3, r3, r2
 1522 0200 5B00     		lsls	r3, r3, #1
 1523 0202 1344     		add	r3, r3, r2
 1524 0204 0344     		add	r3, r3, r0
 1525 0206 51F82330 		ldr	r3, [r1, r3, lsl #2]
 1526 020a 082B     		cmp	r3, #8
 1527 020c 06D1     		bne	.L74
 318:main.c        ****                     directionState = TurnLeft;
 1528              		.loc 1 318 0
 1529 020e 114B     		ldr	r3, .L92+4
 1530 0210 0222     		movs	r2, #2
 1531 0212 1A70     		strb	r2, [r3]
 319:main.c        ****                 } else if (map[currentRow + 1][currentCol] == 8) {
 1532              		.loc 1 319 0
 1533 0214 0E4B     		ldr	r3, .L92
 1534 0216 0222     		movs	r2, #2
 1535 0218 1A60     		str	r2, [r3]
 1536              		.loc 1 324 0
 1537 021a 16E1     		b	.L88
 1538              	.L74:
 320:main.c        ****                     currentOrientation = Right;
 1539              		.loc 1 320 0
 1540 021c 1A4B     		ldr	r3, .L92+56
ARM GAS  C:\Users\ikui753\AppData\Local\Temp\ccTyn6zv.s 			page 34


 1541 021e 1B78     		ldrb	r3, [r3]	@ zero_extendqisi2
 1542 0220 5A1C     		adds	r2, r3, #1
 1543 0222 1A4B     		ldr	r3, .L92+60
 1544 0224 1B78     		ldrb	r3, [r3]	@ zero_extendqisi2
 1545 0226 1846     		mov	r0, r3
 1546 0228 1949     		ldr	r1, .L92+64
 1547 022a 1346     		mov	r3, r2
 1548 022c DB00     		lsls	r3, r3, #3
 1549 022e 1344     		add	r3, r3, r2
 1550 0230 5B00     		lsls	r3, r3, #1
 1551 0232 1344     		add	r3, r3, r2
 1552 0234 0344     		add	r3, r3, r0
 1553 0236 51F82330 		ldr	r3, [r1, r3, lsl #2]
 1554 023a 082B     		cmp	r3, #8
 1555 023c 40F00581 		bne	.L88
 321:main.c        ****                     directionState = TurnRight;
 1556              		.loc 1 321 0
 1557 0240 044B     		ldr	r3, .L92+4
 1558 0242 0322     		movs	r2, #3
 1559 0244 1A70     		strb	r2, [r3]
 322:main.c        ****                 }
 1560              		.loc 1 322 0
 1561 0246 024B     		ldr	r3, .L92
 1562 0248 0122     		movs	r2, #1
 1563 024a 1A60     		str	r2, [r3]
 1564              		.loc 1 324 0
 1565 024c FDE0     		b	.L88
 1566              	.L93:
 1567 024e 00BF     		.align	2
 1568              	.L92:
 1569 0250 00000000 		.word	directionState
 1570 0254 00000000 		.word	currentOrientation
 1571 0258 00000000 		.word	currentDirection
 1572 025c 00000000 		.word	previousDirection
 1573 0260 00000000 		.word	previousOrientation
 1574 0264 00000000 		.word	yBlockSize
 1575 0268 00000000 		.word	blockSize
 1576 026c 00000000 		.word	xBlockSize
 1577 0270 00000000 		.word	totalDistance
 1578 0274 00000000 		.word	stopBuffer
 1579 0278 00000000 		.word	s3
 1580 027c 00000000 		.word	s4
 1581 0280 00000000 		.word	s5
 1582 0284 00000000 		.word	s6
 1583 0288 00000000 		.word	currentRow
 1584 028c 00000000 		.word	currentCol
 1585 0290 00000000 		.word	map
 1586              	.L69:
 325:main.c        ****             case Down:
 326:main.c        ****                 if(map[currentRow][currentCol - 1] == 8) {
 1587              		.loc 1 326 0
 1588 0294 744B     		ldr	r3, .L94
 1589 0296 1B78     		ldrb	r3, [r3]	@ zero_extendqisi2
 1590 0298 1A46     		mov	r2, r3
 1591 029a 744B     		ldr	r3, .L94+4
 1592 029c 1B78     		ldrb	r3, [r3]	@ zero_extendqisi2
 1593 029e 591E     		subs	r1, r3, #1
ARM GAS  C:\Users\ikui753\AppData\Local\Temp\ccTyn6zv.s 			page 35


 1594 02a0 7348     		ldr	r0, .L94+8
 1595 02a2 1346     		mov	r3, r2
 1596 02a4 DB00     		lsls	r3, r3, #3
 1597 02a6 1344     		add	r3, r3, r2
 1598 02a8 5B00     		lsls	r3, r3, #1
 1599 02aa 1344     		add	r3, r3, r2
 1600 02ac 0B44     		add	r3, r3, r1
 1601 02ae 50F82330 		ldr	r3, [r0, r3, lsl #2]
 1602 02b2 082B     		cmp	r3, #8
 1603 02b4 06D1     		bne	.L76
 327:main.c        ****                     currentOrientation = Down;
 1604              		.loc 1 327 0
 1605 02b6 6F4B     		ldr	r3, .L94+12
 1606 02b8 0122     		movs	r2, #1
 1607 02ba 1A70     		strb	r2, [r3]
 328:main.c        ****                     directionState = Forward;
 1608              		.loc 1 328 0
 1609 02bc 6E4B     		ldr	r3, .L94+16
 1610 02be 0022     		movs	r2, #0
 1611 02c0 1A60     		str	r2, [r3]
 329:main.c        ****                 } else if (map[currentRow - 1][currentCol] == 8) {
 330:main.c        ****                     currentOrientation = Right;
 331:main.c        ****                     directionState = TurnRight;
 332:main.c        ****                 } else if (map[currentRow + 1][currentCol] == 8) {
 333:main.c        ****                     currentOrientation = Left;
 334:main.c        ****                     directionState = TurnLeft;
 335:main.c        ****                 }
 336:main.c        ****                 break;
 1612              		.loc 1 336 0
 1613 02c2 C4E0     		b	.L89
 1614              	.L76:
 329:main.c        ****                 } else if (map[currentRow - 1][currentCol] == 8) {
 1615              		.loc 1 329 0
 1616 02c4 684B     		ldr	r3, .L94
 1617 02c6 1B78     		ldrb	r3, [r3]	@ zero_extendqisi2
 1618 02c8 5A1E     		subs	r2, r3, #1
 1619 02ca 684B     		ldr	r3, .L94+4
 1620 02cc 1B78     		ldrb	r3, [r3]	@ zero_extendqisi2
 1621 02ce 1846     		mov	r0, r3
 1622 02d0 6749     		ldr	r1, .L94+8
 1623 02d2 1346     		mov	r3, r2
 1624 02d4 DB00     		lsls	r3, r3, #3
 1625 02d6 1344     		add	r3, r3, r2
 1626 02d8 5B00     		lsls	r3, r3, #1
 1627 02da 1344     		add	r3, r3, r2
 1628 02dc 0344     		add	r3, r3, r0
 1629 02de 51F82330 		ldr	r3, [r1, r3, lsl #2]
 1630 02e2 082B     		cmp	r3, #8
 1631 02e4 06D1     		bne	.L78
 330:main.c        ****                     directionState = TurnRight;
 1632              		.loc 1 330 0
 1633 02e6 634B     		ldr	r3, .L94+12
 1634 02e8 0322     		movs	r2, #3
 1635 02ea 1A70     		strb	r2, [r3]
 331:main.c        ****                 } else if (map[currentRow + 1][currentCol] == 8) {
 1636              		.loc 1 331 0
 1637 02ec 624B     		ldr	r3, .L94+16
ARM GAS  C:\Users\ikui753\AppData\Local\Temp\ccTyn6zv.s 			page 36


 1638 02ee 0122     		movs	r2, #1
 1639 02f0 1A60     		str	r2, [r3]
 1640              		.loc 1 336 0
 1641 02f2 ACE0     		b	.L89
 1642              	.L78:
 332:main.c        ****                     currentOrientation = Left;
 1643              		.loc 1 332 0
 1644 02f4 5C4B     		ldr	r3, .L94
 1645 02f6 1B78     		ldrb	r3, [r3]	@ zero_extendqisi2
 1646 02f8 5A1C     		adds	r2, r3, #1
 1647 02fa 5C4B     		ldr	r3, .L94+4
 1648 02fc 1B78     		ldrb	r3, [r3]	@ zero_extendqisi2
 1649 02fe 1846     		mov	r0, r3
 1650 0300 5B49     		ldr	r1, .L94+8
 1651 0302 1346     		mov	r3, r2
 1652 0304 DB00     		lsls	r3, r3, #3
 1653 0306 1344     		add	r3, r3, r2
 1654 0308 5B00     		lsls	r3, r3, #1
 1655 030a 1344     		add	r3, r3, r2
 1656 030c 0344     		add	r3, r3, r0
 1657 030e 51F82330 		ldr	r3, [r1, r3, lsl #2]
 1658 0312 082B     		cmp	r3, #8
 1659 0314 40F09B80 		bne	.L89
 333:main.c        ****                     directionState = TurnLeft;
 1660              		.loc 1 333 0
 1661 0318 564B     		ldr	r3, .L94+12
 1662 031a 0222     		movs	r2, #2
 1663 031c 1A70     		strb	r2, [r3]
 334:main.c        ****                 }
 1664              		.loc 1 334 0
 1665 031e 564B     		ldr	r3, .L94+16
 1666 0320 0222     		movs	r2, #2
 1667 0322 1A60     		str	r2, [r3]
 1668              		.loc 1 336 0
 1669 0324 93E0     		b	.L89
 1670              	.L70:
 337:main.c        ****             case Left:
 338:main.c        ****                 if(map[currentRow - 1][currentCol] == 8) {
 1671              		.loc 1 338 0
 1672 0326 504B     		ldr	r3, .L94
 1673 0328 1B78     		ldrb	r3, [r3]	@ zero_extendqisi2
 1674 032a 5A1E     		subs	r2, r3, #1
 1675 032c 4F4B     		ldr	r3, .L94+4
 1676 032e 1B78     		ldrb	r3, [r3]	@ zero_extendqisi2
 1677 0330 1846     		mov	r0, r3
 1678 0332 4F49     		ldr	r1, .L94+8
 1679 0334 1346     		mov	r3, r2
 1680 0336 DB00     		lsls	r3, r3, #3
 1681 0338 1344     		add	r3, r3, r2
 1682 033a 5B00     		lsls	r3, r3, #1
 1683 033c 1344     		add	r3, r3, r2
 1684 033e 0344     		add	r3, r3, r0
 1685 0340 51F82330 		ldr	r3, [r1, r3, lsl #2]
 1686 0344 082B     		cmp	r3, #8
 1687 0346 06D1     		bne	.L79
 339:main.c        ****                     currentOrientation = Left;
 1688              		.loc 1 339 0
ARM GAS  C:\Users\ikui753\AppData\Local\Temp\ccTyn6zv.s 			page 37


 1689 0348 4A4B     		ldr	r3, .L94+12
 1690 034a 0222     		movs	r2, #2
 1691 034c 1A70     		strb	r2, [r3]
 340:main.c        ****                     directionState = Forward;
 1692              		.loc 1 340 0
 1693 034e 4A4B     		ldr	r3, .L94+16
 1694 0350 0022     		movs	r2, #0
 1695 0352 1A60     		str	r2, [r3]
 341:main.c        ****                 } else if (map[currentRow][currentCol + 1] == 8) {
 342:main.c        ****                     currentOrientation = Up;
 343:main.c        ****                     directionState = TurnRight;
 344:main.c        ****                 } else if (map[currentRow][currentCol - 1] == 8) {
 345:main.c        ****                     currentOrientation = Down;
 346:main.c        ****                     directionState = TurnLeft;
 347:main.c        ****                 }
 348:main.c        ****                 break;
 1696              		.loc 1 348 0
 1697 0354 7DE0     		b	.L90
 1698              	.L79:
 341:main.c        ****                 } else if (map[currentRow][currentCol + 1] == 8) {
 1699              		.loc 1 341 0
 1700 0356 444B     		ldr	r3, .L94
 1701 0358 1B78     		ldrb	r3, [r3]	@ zero_extendqisi2
 1702 035a 1A46     		mov	r2, r3
 1703 035c 434B     		ldr	r3, .L94+4
 1704 035e 1B78     		ldrb	r3, [r3]	@ zero_extendqisi2
 1705 0360 591C     		adds	r1, r3, #1
 1706 0362 4348     		ldr	r0, .L94+8
 1707 0364 1346     		mov	r3, r2
 1708 0366 DB00     		lsls	r3, r3, #3
 1709 0368 1344     		add	r3, r3, r2
 1710 036a 5B00     		lsls	r3, r3, #1
 1711 036c 1344     		add	r3, r3, r2
 1712 036e 0B44     		add	r3, r3, r1
 1713 0370 50F82330 		ldr	r3, [r0, r3, lsl #2]
 1714 0374 082B     		cmp	r3, #8
 1715 0376 06D1     		bne	.L81
 342:main.c        ****                     directionState = TurnRight;
 1716              		.loc 1 342 0
 1717 0378 3E4B     		ldr	r3, .L94+12
 1718 037a 0022     		movs	r2, #0
 1719 037c 1A70     		strb	r2, [r3]
 343:main.c        ****                 } else if (map[currentRow][currentCol - 1] == 8) {
 1720              		.loc 1 343 0
 1721 037e 3E4B     		ldr	r3, .L94+16
 1722 0380 0122     		movs	r2, #1
 1723 0382 1A60     		str	r2, [r3]
 1724              		.loc 1 348 0
 1725 0384 65E0     		b	.L90
 1726              	.L81:
 344:main.c        ****                     currentOrientation = Down;
 1727              		.loc 1 344 0
 1728 0386 384B     		ldr	r3, .L94
 1729 0388 1B78     		ldrb	r3, [r3]	@ zero_extendqisi2
 1730 038a 1A46     		mov	r2, r3
 1731 038c 374B     		ldr	r3, .L94+4
 1732 038e 1B78     		ldrb	r3, [r3]	@ zero_extendqisi2
ARM GAS  C:\Users\ikui753\AppData\Local\Temp\ccTyn6zv.s 			page 38


 1733 0390 591E     		subs	r1, r3, #1
 1734 0392 3748     		ldr	r0, .L94+8
 1735 0394 1346     		mov	r3, r2
 1736 0396 DB00     		lsls	r3, r3, #3
 1737 0398 1344     		add	r3, r3, r2
 1738 039a 5B00     		lsls	r3, r3, #1
 1739 039c 1344     		add	r3, r3, r2
 1740 039e 0B44     		add	r3, r3, r1
 1741 03a0 50F82330 		ldr	r3, [r0, r3, lsl #2]
 1742 03a4 082B     		cmp	r3, #8
 1743 03a6 54D1     		bne	.L90
 345:main.c        ****                     directionState = TurnLeft;
 1744              		.loc 1 345 0
 1745 03a8 324B     		ldr	r3, .L94+12
 1746 03aa 0122     		movs	r2, #1
 1747 03ac 1A70     		strb	r2, [r3]
 346:main.c        ****                 }
 1748              		.loc 1 346 0
 1749 03ae 324B     		ldr	r3, .L94+16
 1750 03b0 0222     		movs	r2, #2
 1751 03b2 1A60     		str	r2, [r3]
 1752              		.loc 1 348 0
 1753 03b4 4DE0     		b	.L90
 1754              	.L71:
 349:main.c        ****             case Right:
 350:main.c        ****                 if(map[currentRow + 1][currentCol] == 8) {
 1755              		.loc 1 350 0
 1756 03b6 2C4B     		ldr	r3, .L94
 1757 03b8 1B78     		ldrb	r3, [r3]	@ zero_extendqisi2
 1758 03ba 5A1C     		adds	r2, r3, #1
 1759 03bc 2B4B     		ldr	r3, .L94+4
 1760 03be 1B78     		ldrb	r3, [r3]	@ zero_extendqisi2
 1761 03c0 1846     		mov	r0, r3
 1762 03c2 2B49     		ldr	r1, .L94+8
 1763 03c4 1346     		mov	r3, r2
 1764 03c6 DB00     		lsls	r3, r3, #3
 1765 03c8 1344     		add	r3, r3, r2
 1766 03ca 5B00     		lsls	r3, r3, #1
 1767 03cc 1344     		add	r3, r3, r2
 1768 03ce 0344     		add	r3, r3, r0
 1769 03d0 51F82330 		ldr	r3, [r1, r3, lsl #2]
 1770 03d4 082B     		cmp	r3, #8
 1771 03d6 06D1     		bne	.L82
 351:main.c        ****                     currentOrientation = Right;
 1772              		.loc 1 351 0
 1773 03d8 264B     		ldr	r3, .L94+12
 1774 03da 0322     		movs	r2, #3
 1775 03dc 1A70     		strb	r2, [r3]
 352:main.c        ****                     directionState = Forward;
 1776              		.loc 1 352 0
 1777 03de 264B     		ldr	r3, .L94+16
 1778 03e0 0022     		movs	r2, #0
 1779 03e2 1A60     		str	r2, [r3]
 353:main.c        ****                 } else if (map[currentRow][currentCol + 1] == 8) {
 354:main.c        ****                     currentOrientation = Up;
 355:main.c        ****                     directionState = TurnLeft;
 356:main.c        ****                 } else if (map[currentRow][currentCol - 1] == 8) {
ARM GAS  C:\Users\ikui753\AppData\Local\Temp\ccTyn6zv.s 			page 39


 357:main.c        ****                     currentOrientation = Down;
 358:main.c        ****                     directionState = TurnRight;
 359:main.c        ****                 }
 360:main.c        ****                 break;
 1780              		.loc 1 360 0
 1781 03e4 37E0     		b	.L91
 1782              	.L82:
 353:main.c        ****                 } else if (map[currentRow][currentCol + 1] == 8) {
 1783              		.loc 1 353 0
 1784 03e6 204B     		ldr	r3, .L94
 1785 03e8 1B78     		ldrb	r3, [r3]	@ zero_extendqisi2
 1786 03ea 1A46     		mov	r2, r3
 1787 03ec 1F4B     		ldr	r3, .L94+4
 1788 03ee 1B78     		ldrb	r3, [r3]	@ zero_extendqisi2
 1789 03f0 591C     		adds	r1, r3, #1
 1790 03f2 1F48     		ldr	r0, .L94+8
 1791 03f4 1346     		mov	r3, r2
 1792 03f6 DB00     		lsls	r3, r3, #3
 1793 03f8 1344     		add	r3, r3, r2
 1794 03fa 5B00     		lsls	r3, r3, #1
 1795 03fc 1344     		add	r3, r3, r2
 1796 03fe 0B44     		add	r3, r3, r1
 1797 0400 50F82330 		ldr	r3, [r0, r3, lsl #2]
 1798 0404 082B     		cmp	r3, #8
 1799 0406 06D1     		bne	.L84
 354:main.c        ****                     directionState = TurnLeft;
 1800              		.loc 1 354 0
 1801 0408 1A4B     		ldr	r3, .L94+12
 1802 040a 0022     		movs	r2, #0
 1803 040c 1A70     		strb	r2, [r3]
 355:main.c        ****                 } else if (map[currentRow][currentCol - 1] == 8) {
 1804              		.loc 1 355 0
 1805 040e 1A4B     		ldr	r3, .L94+16
 1806 0410 0222     		movs	r2, #2
 1807 0412 1A60     		str	r2, [r3]
 1808              		.loc 1 360 0
 1809 0414 1FE0     		b	.L91
 1810              	.L84:
 356:main.c        ****                     currentOrientation = Down;
 1811              		.loc 1 356 0
 1812 0416 144B     		ldr	r3, .L94
 1813 0418 1B78     		ldrb	r3, [r3]	@ zero_extendqisi2
 1814 041a 1A46     		mov	r2, r3
 1815 041c 134B     		ldr	r3, .L94+4
 1816 041e 1B78     		ldrb	r3, [r3]	@ zero_extendqisi2
 1817 0420 591E     		subs	r1, r3, #1
 1818 0422 1348     		ldr	r0, .L94+8
 1819 0424 1346     		mov	r3, r2
 1820 0426 DB00     		lsls	r3, r3, #3
 1821 0428 1344     		add	r3, r3, r2
 1822 042a 5B00     		lsls	r3, r3, #1
 1823 042c 1344     		add	r3, r3, r2
 1824 042e 0B44     		add	r3, r3, r1
 1825 0430 50F82330 		ldr	r3, [r0, r3, lsl #2]
 1826 0434 082B     		cmp	r3, #8
 1827 0436 0ED1     		bne	.L91
 357:main.c        ****                     directionState = TurnRight;
ARM GAS  C:\Users\ikui753\AppData\Local\Temp\ccTyn6zv.s 			page 40


 1828              		.loc 1 357 0
 1829 0438 0E4B     		ldr	r3, .L94+12
 1830 043a 0122     		movs	r2, #1
 1831 043c 1A70     		strb	r2, [r3]
 358:main.c        ****                 }
 1832              		.loc 1 358 0
 1833 043e 0E4B     		ldr	r3, .L94+16
 1834 0440 0122     		movs	r2, #1
 1835 0442 1A60     		str	r2, [r3]
 1836              		.loc 1 360 0
 1837 0444 07E0     		b	.L91
 1838              	.L87:
 361:main.c        ****             default:
 362:main.c        ****                 break;
 1839              		.loc 1 362 0
 1840 0446 00BF     		nop
 1841 0448 06E0     		b	.L75
 1842              	.L88:
 324:main.c        ****             case Down:
 1843              		.loc 1 324 0
 1844 044a 00BF     		nop
 1845 044c 04E0     		b	.L75
 1846              	.L89:
 336:main.c        ****             case Left:
 1847              		.loc 1 336 0
 1848 044e 00BF     		nop
 1849 0450 02E0     		b	.L75
 1850              	.L90:
 348:main.c        ****             case Right:
 1851              		.loc 1 348 0
 1852 0452 00BF     		nop
 1853 0454 00E0     		b	.L75
 1854              	.L91:
 360:main.c        ****             default:
 1855              		.loc 1 360 0
 1856 0456 00BF     		nop
 1857              	.L75:
 363:main.c        ****         }
 364:main.c        ****         totalDistance = 0; // reset total distance
 1858              		.loc 1 364 0
 1859 0458 084B     		ldr	r3, .L94+20
 1860 045a 4FF00002 		mov	r2, #0
 1861 045e 1A60     		str	r2, [r3]	@ float
 365:main.c        ****     }
 366:main.c        ****     return previousDirection;
 1862              		.loc 1 366 0
 1863 0460 074B     		ldr	r3, .L94+24
 1864 0462 1B68     		ldr	r3, [r3]
 1865              	.L51:
 367:main.c        **** }
 1866              		.loc 1 367 0
 1867 0464 1846     		mov	r0, r3
 1868 0466 80BD     		pop	{r7, pc}
 1869              	.L95:
 1870              		.align	2
 1871              	.L94:
 1872 0468 00000000 		.word	currentRow
ARM GAS  C:\Users\ikui753\AppData\Local\Temp\ccTyn6zv.s 			page 41


 1873 046c 00000000 		.word	currentCol
 1874 0470 00000000 		.word	map
 1875 0474 00000000 		.word	currentOrientation
 1876 0478 00000000 		.word	directionState
 1877 047c 00000000 		.word	totalDistance
 1878 0480 00000000 		.word	previousDirection
 1879              		.cfi_endproc
 1880              	.LFE75:
 1881              		.size	getDirection, .-getDirection
 1882              		.global	__aeabi_fcmpge
 1883              		.section	.text.CheckSensorDirection,"ax",%progbits
 1884              		.align	2
 1885              		.global	CheckSensorDirection
 1886              		.thumb
 1887              		.thumb_func
 1888              		.type	CheckSensorDirection, %function
 1889              	CheckSensorDirection:
 1890              	.LFB76:
 368:main.c        **** 
 369:main.c        **** enum DirectionState CheckSensorDirection() {
 1891              		.loc 1 369 0
 1892              		.cfi_startproc
 1893              		@ args = 0, pretend = 0, frame = 0
 1894              		@ frame_needed = 1, uses_anonymous_args = 0
 1895 0000 80B5     		push	{r7, lr}
 1896              		.cfi_def_cfa_offset 8
 1897              		.cfi_offset 7, -8
 1898              		.cfi_offset 14, -4
 1899 0002 00AF     		add	r7, sp, #0
 1900              		.cfi_def_cfa_register 7
 370:main.c        ****     directionState = Stop;
 1901              		.loc 1 370 0
 1902 0004 914B     		ldr	r3, .L153
 1903 0006 0522     		movs	r2, #5
 1904 0008 1A60     		str	r2, [r3]
 371:main.c        ****     currentOrientation = Up; // initialise at start
 1905              		.loc 1 371 0
 1906 000a 914B     		ldr	r3, .L153+4
 1907 000c 0022     		movs	r2, #0
 1908 000e 1A70     		strb	r2, [r3]
 372:main.c        ****     previousDirection = currentDirection;
 1909              		.loc 1 372 0
 1910 0010 904B     		ldr	r3, .L153+8
 1911 0012 1B68     		ldr	r3, [r3]
 1912 0014 904A     		ldr	r2, .L153+12
 1913 0016 1360     		str	r3, [r2]
 373:main.c        ****     // determine orientation and relevant blocksize
 374:main.c        ****     if(currentOrientation == Up || Down) {
 375:main.c        ****         blockSize = yBlockSize;
 1914              		.loc 1 375 0
 1915 0018 904B     		ldr	r3, .L153+16
 1916 001a 1B68     		ldr	r3, [r3]	@ float
 1917 001c 904A     		ldr	r2, .L153+20
 1918 001e 1360     		str	r3, [r2]	@ float
 376:main.c        ****     } else {
 377:main.c        ****         blockSize = xBlockSize;
 378:main.c        ****     }
ARM GAS  C:\Users\ikui753\AppData\Local\Temp\ccTyn6zv.s 			page 42


 379:main.c        ****     // BLOCK TRACKING
 380:main.c        ****     if (totalDistance >= blockSize) {
 1919              		.loc 1 380 0
 1920 0020 904B     		ldr	r3, .L153+24
 1921 0022 1A68     		ldr	r2, [r3]	@ float
 1922 0024 8E4B     		ldr	r3, .L153+20
 1923 0026 1B68     		ldr	r3, [r3]	@ float
 1924 0028 1946     		mov	r1, r3
 1925 002a 1046     		mov	r0, r2
 1926 002c FFF7FEFF 		bl	__aeabi_fcmpge
 1927 0030 0346     		mov	r3, r0
 1928 0032 002B     		cmp	r3, #0
 1929 0034 2FD0     		beq	.L97
 381:main.c        ****         switch(currentOrientation) {
 1930              		.loc 1 381 0
 1931 0036 864B     		ldr	r3, .L153+4
 1932 0038 1B78     		ldrb	r3, [r3]	@ zero_extendqisi2
 1933 003a 032B     		cmp	r3, #3
 1934 003c 26D8     		bhi	.L147
 1935 003e 01A2     		adr	r2, .L101
 1936 0040 52F823F0 		ldr	pc, [r2, r3, lsl #2]
 1937              		.p2align 2
 1938              	.L101:
 1939 0044 55000000 		.word	.L100+1
 1940 0048 63000000 		.word	.L102+1
 1941 004c 71000000 		.word	.L103+1
 1942 0050 7F000000 		.word	.L104+1
 1943              		.p2align 1
 1944              	.L100:
 382:main.c        ****             case Up:
 383:main.c        ****                 currentCol++;
 1945              		.loc 1 383 0
 1946 0054 844B     		ldr	r3, .L153+28
 1947 0056 1B78     		ldrb	r3, [r3]	@ zero_extendqisi2
 1948 0058 0133     		adds	r3, r3, #1
 1949 005a DAB2     		uxtb	r2, r3
 1950 005c 824B     		ldr	r3, .L153+28
 1951 005e 1A70     		strb	r2, [r3]
 384:main.c        ****                 break;
 1952              		.loc 1 384 0
 1953 0060 15E0     		b	.L105
 1954              	.L102:
 385:main.c        ****             case Down:
 386:main.c        ****                 currentCol--;
 1955              		.loc 1 386 0
 1956 0062 814B     		ldr	r3, .L153+28
 1957 0064 1B78     		ldrb	r3, [r3]	@ zero_extendqisi2
 1958 0066 013B     		subs	r3, r3, #1
 1959 0068 DAB2     		uxtb	r2, r3
 1960 006a 7F4B     		ldr	r3, .L153+28
 1961 006c 1A70     		strb	r2, [r3]
 387:main.c        ****                 break;
 1962              		.loc 1 387 0
 1963 006e 0EE0     		b	.L105
 1964              	.L103:
 388:main.c        ****             case Left:
 389:main.c        ****                 currentRow--;
ARM GAS  C:\Users\ikui753\AppData\Local\Temp\ccTyn6zv.s 			page 43


 1965              		.loc 1 389 0
 1966 0070 7E4B     		ldr	r3, .L153+32
 1967 0072 1B78     		ldrb	r3, [r3]	@ zero_extendqisi2
 1968 0074 013B     		subs	r3, r3, #1
 1969 0076 DAB2     		uxtb	r2, r3
 1970 0078 7C4B     		ldr	r3, .L153+32
 1971 007a 1A70     		strb	r2, [r3]
 390:main.c        ****                 break;
 1972              		.loc 1 390 0
 1973 007c 07E0     		b	.L105
 1974              	.L104:
 391:main.c        ****             case Right:
 392:main.c        ****                 currentRow++;
 1975              		.loc 1 392 0
 1976 007e 7B4B     		ldr	r3, .L153+32
 1977 0080 1B78     		ldrb	r3, [r3]	@ zero_extendqisi2
 1978 0082 0133     		adds	r3, r3, #1
 1979 0084 DAB2     		uxtb	r2, r3
 1980 0086 794B     		ldr	r3, .L153+32
 1981 0088 1A70     		strb	r2, [r3]
 393:main.c        ****                 break;
 1982              		.loc 1 393 0
 1983 008a 00E0     		b	.L105
 1984              	.L147:
 394:main.c        ****             default:
 395:main.c        ****                 break;
 1985              		.loc 1 395 0
 1986 008c 00BF     		nop
 1987              	.L105:
 396:main.c        ****         }
 397:main.c        ****         totalDistance = 0; // reset total distance
 1988              		.loc 1 397 0
 1989 008e 754B     		ldr	r3, .L153+24
 1990 0090 4FF00002 		mov	r2, #0
 1991 0094 1A60     		str	r2, [r3]	@ float
 1992              	.L97:
 398:main.c        ****     }
 399:main.c        **** 
 400:main.c        ****    // MOVEMENT
 401:main.c        ****     if (previousDirection == Stop) {
 1993              		.loc 1 401 0
 1994 0096 704B     		ldr	r3, .L153+12
 1995 0098 1B68     		ldr	r3, [r3]
 1996 009a 052B     		cmp	r3, #5
 1997 009c 11D1     		bne	.L106
 402:main.c        ****         if (stopBuffer <= 10) {
 1998              		.loc 1 402 0
 1999 009e 744B     		ldr	r3, .L153+36
 2000 00a0 1B68     		ldr	r3, [r3]
 2001 00a2 0A2B     		cmp	r3, #10
 2002 00a4 03D8     		bhi	.L107
 403:main.c        ****             directionState = Stop;
 2003              		.loc 1 403 0
 2004 00a6 694B     		ldr	r3, .L153
 2005 00a8 0522     		movs	r2, #5
 2006 00aa 1A60     		str	r2, [r3]
 2007 00ac 02E0     		b	.L108
ARM GAS  C:\Users\ikui753\AppData\Local\Temp\ccTyn6zv.s 			page 44


 2008              	.L107:
 404:main.c        ****         } else {
 405:main.c        ****             directionState = ForwardAfterTurn;
 2009              		.loc 1 405 0
 2010 00ae 674B     		ldr	r3, .L153
 2011 00b0 0922     		movs	r2, #9
 2012 00b2 1A60     		str	r2, [r3]
 2013              	.L108:
 406:main.c        ****         }
 407:main.c        ****         currentDirection = previousDirection;
 2014              		.loc 1 407 0
 2015 00b4 684B     		ldr	r3, .L153+12
 2016 00b6 1B68     		ldr	r3, [r3]
 2017 00b8 664A     		ldr	r2, .L153+8
 2018 00ba 1360     		str	r3, [r2]
 408:main.c        ****         return directionState;
 2019              		.loc 1 408 0
 2020 00bc 634B     		ldr	r3, .L153
 2021 00be 1B68     		ldr	r3, [r3]
 2022 00c0 31E2     		b	.L109
 2023              	.L106:
 409:main.c        ****     }
 410:main.c        ****     
 411:main.c        ****     // If one of the sensors are still on the line after we turn, move forward
 412:main.c        ****     if (previousDirection == ForwardAfterTurn) {
 2024              		.loc 1 412 0
 2025 00c2 654B     		ldr	r3, .L153+12
 2026 00c4 1B68     		ldr	r3, [r3]
 2027 00c6 092B     		cmp	r3, #9
 2028 00c8 15D1     		bne	.L110
 413:main.c        ****         if (s3 || s4) {
 2029              		.loc 1 413 0
 2030 00ca 6A4B     		ldr	r3, .L153+40
 2031 00cc 1B78     		ldrb	r3, [r3]	@ zero_extendqisi2
 2032 00ce 002B     		cmp	r3, #0
 2033 00d0 03D1     		bne	.L111
 2034              		.loc 1 413 0 is_stmt 0 discriminator 1
 2035 00d2 694B     		ldr	r3, .L153+44
 2036 00d4 1B78     		ldrb	r3, [r3]	@ zero_extendqisi2
 2037 00d6 002B     		cmp	r3, #0
 2038 00d8 0DD0     		beq	.L110
 2039              	.L111:
 414:main.c        ****             totalDistance = 0; // reset total distance after turn
 2040              		.loc 1 414 0 is_stmt 1
 2041 00da 624B     		ldr	r3, .L153+24
 2042 00dc 4FF00002 		mov	r2, #0
 2043 00e0 1A60     		str	r2, [r3]	@ float
 415:main.c        ****             directionState = Forward;
 2044              		.loc 1 415 0
 2045 00e2 5A4B     		ldr	r3, .L153
 2046 00e4 0022     		movs	r2, #0
 2047 00e6 1A60     		str	r2, [r3]
 416:main.c        ****             currentDirection = previousDirection;
 2048              		.loc 1 416 0
 2049 00e8 5B4B     		ldr	r3, .L153+12
 2050 00ea 1B68     		ldr	r3, [r3]
 2051 00ec 594A     		ldr	r2, .L153+8
ARM GAS  C:\Users\ikui753\AppData\Local\Temp\ccTyn6zv.s 			page 45


 2052 00ee 1360     		str	r3, [r2]
 417:main.c        ****             return directionState;
 2053              		.loc 1 417 0
 2054 00f0 564B     		ldr	r3, .L153
 2055 00f2 1B68     		ldr	r3, [r3]
 2056 00f4 17E2     		b	.L109
 2057              	.L110:
 418:main.c        ****         }
 419:main.c        ****     }
 420:main.c        **** 
 421:main.c        ****     if(previousDirection == TurnRight) {
 2058              		.loc 1 421 0
 2059 00f6 584B     		ldr	r3, .L153+12
 2060 00f8 1B68     		ldr	r3, [r3]
 2061 00fa 012B     		cmp	r3, #1
 2062 00fc 23D1     		bne	.L112
 422:main.c        ****         if(s5 && s6) {
 2063              		.loc 1 422 0
 2064 00fe 5F4B     		ldr	r3, .L153+48
 2065 0100 1B78     		ldrb	r3, [r3]	@ zero_extendqisi2
 2066 0102 002B     		cmp	r3, #0
 2067 0104 0DD0     		beq	.L113
 2068              		.loc 1 422 0 is_stmt 0 discriminator 1
 2069 0106 5E4B     		ldr	r3, .L153+52
 2070 0108 1B78     		ldrb	r3, [r3]	@ zero_extendqisi2
 2071 010a 002B     		cmp	r3, #0
 2072 010c 09D0     		beq	.L113
 423:main.c        ****             directionState = TurnRight;
 2073              		.loc 1 423 0 is_stmt 1
 2074 010e 4F4B     		ldr	r3, .L153
 2075 0110 0122     		movs	r2, #1
 2076 0112 1A60     		str	r2, [r3]
 424:main.c        ****             currentDirection = previousDirection;
 2077              		.loc 1 424 0
 2078 0114 504B     		ldr	r3, .L153+12
 2079 0116 1B68     		ldr	r3, [r3]
 2080 0118 4E4A     		ldr	r2, .L153+8
 2081 011a 1360     		str	r3, [r2]
 425:main.c        ****             return directionState;
 2082              		.loc 1 425 0
 2083 011c 4B4B     		ldr	r3, .L153
 2084 011e 1B68     		ldr	r3, [r3]
 2085 0120 01E2     		b	.L109
 2086              	.L113:
 426:main.c        ****         } 
 427:main.c        ****         else if (!s5 || !s6) {
 2087              		.loc 1 427 0
 2088 0122 564B     		ldr	r3, .L153+48
 2089 0124 1B78     		ldrb	r3, [r3]	@ zero_extendqisi2
 2090 0126 002B     		cmp	r3, #0
 2091 0128 03D0     		beq	.L114
 2092              		.loc 1 427 0 is_stmt 0 discriminator 1
 2093 012a 554B     		ldr	r3, .L153+52
 2094 012c 1B78     		ldrb	r3, [r3]	@ zero_extendqisi2
 2095 012e 002B     		cmp	r3, #0
 2096 0130 09D1     		bne	.L112
 2097              	.L114:
ARM GAS  C:\Users\ikui753\AppData\Local\Temp\ccTyn6zv.s 			page 46


 428:main.c        ****             directionState = Stop;
 2098              		.loc 1 428 0 is_stmt 1
 2099 0132 464B     		ldr	r3, .L153
 2100 0134 0522     		movs	r2, #5
 2101 0136 1A60     		str	r2, [r3]
 429:main.c        ****             currentDirection = previousDirection;
 2102              		.loc 1 429 0
 2103 0138 474B     		ldr	r3, .L153+12
 2104 013a 1B68     		ldr	r3, [r3]
 2105 013c 454A     		ldr	r2, .L153+8
 2106 013e 1360     		str	r3, [r2]
 430:main.c        ****             return directionState;
 2107              		.loc 1 430 0
 2108 0140 424B     		ldr	r3, .L153
 2109 0142 1B68     		ldr	r3, [r3]
 2110 0144 EFE1     		b	.L109
 2111              	.L112:
 431:main.c        ****         }
 432:main.c        ****     }    
 433:main.c        **** 
 434:main.c        ****     if(previousDirection == TurnLeft) {
 2112              		.loc 1 434 0
 2113 0146 444B     		ldr	r3, .L153+12
 2114 0148 1B68     		ldr	r3, [r3]
 2115 014a 022B     		cmp	r3, #2
 2116 014c 23D1     		bne	.L115
 435:main.c        ****         if(s5 && s6) {
 2117              		.loc 1 435 0
 2118 014e 4B4B     		ldr	r3, .L153+48
 2119 0150 1B78     		ldrb	r3, [r3]	@ zero_extendqisi2
 2120 0152 002B     		cmp	r3, #0
 2121 0154 0DD0     		beq	.L116
 2122              		.loc 1 435 0 is_stmt 0 discriminator 1
 2123 0156 4A4B     		ldr	r3, .L153+52
 2124 0158 1B78     		ldrb	r3, [r3]	@ zero_extendqisi2
 2125 015a 002B     		cmp	r3, #0
 2126 015c 09D0     		beq	.L116
 436:main.c        ****             directionState = TurnLeft;
 2127              		.loc 1 436 0 is_stmt 1
 2128 015e 3B4B     		ldr	r3, .L153
 2129 0160 0222     		movs	r2, #2
 2130 0162 1A60     		str	r2, [r3]
 437:main.c        ****             currentDirection = previousDirection;
 2131              		.loc 1 437 0
 2132 0164 3C4B     		ldr	r3, .L153+12
 2133 0166 1B68     		ldr	r3, [r3]
 2134 0168 3A4A     		ldr	r2, .L153+8
 2135 016a 1360     		str	r3, [r2]
 438:main.c        ****             return directionState;
 2136              		.loc 1 438 0
 2137 016c 374B     		ldr	r3, .L153
 2138 016e 1B68     		ldr	r3, [r3]
 2139 0170 D9E1     		b	.L109
 2140              	.L116:
 439:main.c        ****         } 
 440:main.c        ****         else if (!s5 || !s6) {
 2141              		.loc 1 440 0
ARM GAS  C:\Users\ikui753\AppData\Local\Temp\ccTyn6zv.s 			page 47


 2142 0172 424B     		ldr	r3, .L153+48
 2143 0174 1B78     		ldrb	r3, [r3]	@ zero_extendqisi2
 2144 0176 002B     		cmp	r3, #0
 2145 0178 03D0     		beq	.L117
 2146              		.loc 1 440 0 is_stmt 0 discriminator 1
 2147 017a 414B     		ldr	r3, .L153+52
 2148 017c 1B78     		ldrb	r3, [r3]	@ zero_extendqisi2
 2149 017e 002B     		cmp	r3, #0
 2150 0180 09D1     		bne	.L115
 2151              	.L117:
 441:main.c        ****             directionState = Stop;
 2152              		.loc 1 441 0 is_stmt 1
 2153 0182 324B     		ldr	r3, .L153
 2154 0184 0522     		movs	r2, #5
 2155 0186 1A60     		str	r2, [r3]
 442:main.c        ****             currentDirection = previousDirection;
 2156              		.loc 1 442 0
 2157 0188 334B     		ldr	r3, .L153+12
 2158 018a 1B68     		ldr	r3, [r3]
 2159 018c 314A     		ldr	r2, .L153+8
 2160 018e 1360     		str	r3, [r2]
 443:main.c        ****             return directionState;
 2161              		.loc 1 443 0
 2162 0190 2E4B     		ldr	r3, .L153
 2163 0192 1B68     		ldr	r3, [r3]
 2164 0194 C7E1     		b	.L109
 2165              	.L115:
 444:main.c        ****         }
 445:main.c        ****     }
 446:main.c        ****     
 447:main.c        ****     /*if (previousDirection == waitForTurn) {
 448:main.c        ****         // If we are waiting for a turn, look for left sensor and right sensor, otherwise keep wait
 449:main.c        ****         if (!s3) {
 450:main.c        ****             directionState = TurnLeft;
 451:main.c        ****             return directionState;
 452:main.c        ****         }
 453:main.c        ****         if (!s4) {
 454:main.c        ****             directionState = TurnRight;   
 455:main.c        ****             return directionState;
 456:main.c        ****         }
 457:main.c        ****         directionState = waitForTurn;
 458:main.c        ****         return directionState;
 459:main.c        ****     }*/
 460:main.c        **** 
 461:main.c        ****     // reached fork/ alternate paths or needs to turn
 462:main.c        ****     if((previousDirection == Forward && (s3 || s4)) || (previousDirection == waitForTurn && s3 && s
 2166              		.loc 1 462 0
 2167 0196 304B     		ldr	r3, .L153+12
 2168 0198 1B68     		ldr	r3, [r3]
 2169 019a 002B     		cmp	r3, #0
 2170 019c 07D1     		bne	.L118
 2171              		.loc 1 462 0 is_stmt 0 discriminator 1
 2172 019e 354B     		ldr	r3, .L153+40
 2173 01a0 1B78     		ldrb	r3, [r3]	@ zero_extendqisi2
 2174 01a2 002B     		cmp	r3, #0
 2175 01a4 12D1     		bne	.L119
 2176              		.loc 1 462 0 discriminator 3
ARM GAS  C:\Users\ikui753\AppData\Local\Temp\ccTyn6zv.s 			page 48


 2177 01a6 344B     		ldr	r3, .L153+44
 2178 01a8 1B78     		ldrb	r3, [r3]	@ zero_extendqisi2
 2179 01aa 002B     		cmp	r3, #0
 2180 01ac 0ED1     		bne	.L119
 2181              	.L118:
 2182              		.loc 1 462 0 discriminator 4
 2183 01ae 2A4B     		ldr	r3, .L153+12
 2184 01b0 1B68     		ldr	r3, [r3]
 2185 01b2 082B     		cmp	r3, #8
 2186 01b4 40F06881 		bne	.L120
 2187              		.loc 1 462 0 discriminator 5
 2188 01b8 2E4B     		ldr	r3, .L153+40
 2189 01ba 1B78     		ldrb	r3, [r3]	@ zero_extendqisi2
 2190 01bc 002B     		cmp	r3, #0
 2191 01be 00F06381 		beq	.L120
 2192              		.loc 1 462 0 discriminator 6
 2193 01c2 2D4B     		ldr	r3, .L153+44
 2194 01c4 1B78     		ldrb	r3, [r3]	@ zero_extendqisi2
 2195 01c6 002B     		cmp	r3, #0
 2196 01c8 00F05E81 		beq	.L120
 2197              	.L119:
 463:main.c        ****         // check for next step in calculated path, robot will know it's location and next step
 464:main.c        ****         // optimal steps are marked with an 8
 465:main.c        ****         switch (previousOrientation) {
 2198              		.loc 1 465 0 is_stmt 1
 2199 01cc 2D4B     		ldr	r3, .L153+56
 2200 01ce 1B78     		ldrb	r3, [r3]	@ zero_extendqisi2
 2201 01d0 032B     		cmp	r3, #3
 2202 01d2 00F24D81 		bhi	.L148
 2203 01d6 01A2     		adr	r2, .L123
 2204 01d8 52F823F0 		ldr	pc, [r2, r3, lsl #2]
 2205              		.p2align 2
 2206              	.L123:
 2207 01dc ED010000 		.word	.L122+1
 2208 01e0 BF020000 		.word	.L124+1
 2209 01e4 51030000 		.word	.L125+1
 2210 01e8 E1030000 		.word	.L126+1
 2211              		.p2align 1
 2212              	.L122:
 466:main.c        ****             case Up:
 467:main.c        ****                 if(map[currentRow][currentCol + 1] == 8) {
 2213              		.loc 1 467 0
 2214 01ec 1F4B     		ldr	r3, .L153+32
 2215 01ee 1B78     		ldrb	r3, [r3]	@ zero_extendqisi2
 2216 01f0 1A46     		mov	r2, r3
 2217 01f2 1D4B     		ldr	r3, .L153+28
 2218 01f4 1B78     		ldrb	r3, [r3]	@ zero_extendqisi2
 2219 01f6 591C     		adds	r1, r3, #1
 2220 01f8 2348     		ldr	r0, .L153+60
 2221 01fa 1346     		mov	r3, r2
 2222 01fc DB00     		lsls	r3, r3, #3
 2223 01fe 1344     		add	r3, r3, r2
 2224 0200 5B00     		lsls	r3, r3, #1
 2225 0202 1344     		add	r3, r3, r2
 2226 0204 0B44     		add	r3, r3, r1
 2227 0206 50F82330 		ldr	r3, [r0, r3, lsl #2]
 2228 020a 082B     		cmp	r3, #8
ARM GAS  C:\Users\ikui753\AppData\Local\Temp\ccTyn6zv.s 			page 49


 2229 020c 06D1     		bne	.L127
 468:main.c        ****                     currentOrientation = Up;
 2230              		.loc 1 468 0
 2231 020e 104B     		ldr	r3, .L153+4
 2232 0210 0022     		movs	r2, #0
 2233 0212 1A70     		strb	r2, [r3]
 469:main.c        ****                     directionState = Forward;
 2234              		.loc 1 469 0
 2235 0214 0D4B     		ldr	r3, .L153
 2236 0216 0022     		movs	r2, #0
 2237 0218 1A60     		str	r2, [r3]
 470:main.c        ****                 } else if (map[currentRow - 1][currentCol] == 8) {
 471:main.c        ****                     currentOrientation = Left;
 472:main.c        ****                     directionState = TurnLeft;
 473:main.c        ****                 } else if (map[currentRow + 1][currentCol] == 8) {
 474:main.c        ****                     currentOrientation = Right;
 475:main.c        ****                     directionState = TurnRight;
 476:main.c        ****                 }
 477:main.c        ****                 break;
 2238              		.loc 1 477 0
 2239 021a 2BE1     		b	.L149
 2240              	.L127:
 470:main.c        ****                 } else if (map[currentRow - 1][currentCol] == 8) {
 2241              		.loc 1 470 0
 2242 021c 134B     		ldr	r3, .L153+32
 2243 021e 1B78     		ldrb	r3, [r3]	@ zero_extendqisi2
 2244 0220 5A1E     		subs	r2, r3, #1
 2245 0222 114B     		ldr	r3, .L153+28
 2246 0224 1B78     		ldrb	r3, [r3]	@ zero_extendqisi2
 2247 0226 1846     		mov	r0, r3
 2248 0228 1749     		ldr	r1, .L153+60
 2249 022a 1346     		mov	r3, r2
 2250 022c DB00     		lsls	r3, r3, #3
 2251 022e 1344     		add	r3, r3, r2
 2252 0230 5B00     		lsls	r3, r3, #1
 2253 0232 1344     		add	r3, r3, r2
 2254 0234 0344     		add	r3, r3, r0
 2255 0236 51F82330 		ldr	r3, [r1, r3, lsl #2]
 2256 023a 082B     		cmp	r3, #8
 2257 023c 26D1     		bne	.L129
 471:main.c        ****                     directionState = TurnLeft;
 2258              		.loc 1 471 0
 2259 023e 044B     		ldr	r3, .L153+4
 2260 0240 0222     		movs	r2, #2
 2261 0242 1A70     		strb	r2, [r3]
 472:main.c        ****                 } else if (map[currentRow + 1][currentCol] == 8) {
 2262              		.loc 1 472 0
 2263 0244 014B     		ldr	r3, .L153
 2264 0246 0222     		movs	r2, #2
 2265 0248 1A60     		str	r2, [r3]
 2266              		.loc 1 477 0
 2267 024a 13E1     		b	.L149
 2268              	.L154:
 2269              		.align	2
 2270              	.L153:
 2271 024c 00000000 		.word	directionState
 2272 0250 00000000 		.word	currentOrientation
ARM GAS  C:\Users\ikui753\AppData\Local\Temp\ccTyn6zv.s 			page 50


 2273 0254 00000000 		.word	currentDirection
 2274 0258 00000000 		.word	previousDirection
 2275 025c 00000000 		.word	yBlockSize
 2276 0260 00000000 		.word	blockSize
 2277 0264 00000000 		.word	totalDistance
 2278 0268 00000000 		.word	currentCol
 2279 026c 00000000 		.word	currentRow
 2280 0270 00000000 		.word	stopBuffer
 2281 0274 00000000 		.word	s3
 2282 0278 00000000 		.word	s4
 2283 027c 00000000 		.word	s5
 2284 0280 00000000 		.word	s6
 2285 0284 00000000 		.word	previousOrientation
 2286 0288 00000000 		.word	map
 2287              	.L129:
 473:main.c        ****                     currentOrientation = Right;
 2288              		.loc 1 473 0
 2289 028c A74B     		ldr	r3, .L155
 2290 028e 1B78     		ldrb	r3, [r3]	@ zero_extendqisi2
 2291 0290 5A1C     		adds	r2, r3, #1
 2292 0292 A74B     		ldr	r3, .L155+4
 2293 0294 1B78     		ldrb	r3, [r3]	@ zero_extendqisi2
 2294 0296 1846     		mov	r0, r3
 2295 0298 A649     		ldr	r1, .L155+8
 2296 029a 1346     		mov	r3, r2
 2297 029c DB00     		lsls	r3, r3, #3
 2298 029e 1344     		add	r3, r3, r2
 2299 02a0 5B00     		lsls	r3, r3, #1
 2300 02a2 1344     		add	r3, r3, r2
 2301 02a4 0344     		add	r3, r3, r0
 2302 02a6 51F82330 		ldr	r3, [r1, r3, lsl #2]
 2303 02aa 082B     		cmp	r3, #8
 2304 02ac 40F0E280 		bne	.L149
 474:main.c        ****                     directionState = TurnRight;
 2305              		.loc 1 474 0
 2306 02b0 A14B     		ldr	r3, .L155+12
 2307 02b2 0322     		movs	r2, #3
 2308 02b4 1A70     		strb	r2, [r3]
 475:main.c        ****                 }
 2309              		.loc 1 475 0
 2310 02b6 A14B     		ldr	r3, .L155+16
 2311 02b8 0122     		movs	r2, #1
 2312 02ba 1A60     		str	r2, [r3]
 2313              		.loc 1 477 0
 2314 02bc DAE0     		b	.L149
 2315              	.L124:
 478:main.c        ****             case Down:
 479:main.c        ****                 if(map[currentRow][currentCol - 1] == 8) {
 2316              		.loc 1 479 0
 2317 02be 9B4B     		ldr	r3, .L155
 2318 02c0 1B78     		ldrb	r3, [r3]	@ zero_extendqisi2
 2319 02c2 1A46     		mov	r2, r3
 2320 02c4 9A4B     		ldr	r3, .L155+4
 2321 02c6 1B78     		ldrb	r3, [r3]	@ zero_extendqisi2
 2322 02c8 591E     		subs	r1, r3, #1
 2323 02ca 9A48     		ldr	r0, .L155+8
 2324 02cc 1346     		mov	r3, r2
ARM GAS  C:\Users\ikui753\AppData\Local\Temp\ccTyn6zv.s 			page 51


 2325 02ce DB00     		lsls	r3, r3, #3
 2326 02d0 1344     		add	r3, r3, r2
 2327 02d2 5B00     		lsls	r3, r3, #1
 2328 02d4 1344     		add	r3, r3, r2
 2329 02d6 0B44     		add	r3, r3, r1
 2330 02d8 50F82330 		ldr	r3, [r0, r3, lsl #2]
 2331 02dc 082B     		cmp	r3, #8
 2332 02de 06D1     		bne	.L131
 480:main.c        ****                     currentOrientation = Down;
 2333              		.loc 1 480 0
 2334 02e0 954B     		ldr	r3, .L155+12
 2335 02e2 0122     		movs	r2, #1
 2336 02e4 1A70     		strb	r2, [r3]
 481:main.c        ****                     directionState = Forward;
 2337              		.loc 1 481 0
 2338 02e6 954B     		ldr	r3, .L155+16
 2339 02e8 0022     		movs	r2, #0
 2340 02ea 1A60     		str	r2, [r3]
 482:main.c        ****                 } else if (map[currentRow - 1][currentCol] == 8) {
 483:main.c        ****                     currentOrientation = Right;
 484:main.c        ****                     directionState = TurnRight;
 485:main.c        ****                 } else if (map[currentRow + 1][currentCol] == 8) {
 486:main.c        ****                     currentOrientation = Left;
 487:main.c        ****                     directionState = TurnLeft;
 488:main.c        ****                 }
 489:main.c        ****                 break;
 2341              		.loc 1 489 0
 2342 02ec C4E0     		b	.L150
 2343              	.L131:
 482:main.c        ****                 } else if (map[currentRow - 1][currentCol] == 8) {
 2344              		.loc 1 482 0
 2345 02ee 8F4B     		ldr	r3, .L155
 2346 02f0 1B78     		ldrb	r3, [r3]	@ zero_extendqisi2
 2347 02f2 5A1E     		subs	r2, r3, #1
 2348 02f4 8E4B     		ldr	r3, .L155+4
 2349 02f6 1B78     		ldrb	r3, [r3]	@ zero_extendqisi2
 2350 02f8 1846     		mov	r0, r3
 2351 02fa 8E49     		ldr	r1, .L155+8
 2352 02fc 1346     		mov	r3, r2
 2353 02fe DB00     		lsls	r3, r3, #3
 2354 0300 1344     		add	r3, r3, r2
 2355 0302 5B00     		lsls	r3, r3, #1
 2356 0304 1344     		add	r3, r3, r2
 2357 0306 0344     		add	r3, r3, r0
 2358 0308 51F82330 		ldr	r3, [r1, r3, lsl #2]
 2359 030c 082B     		cmp	r3, #8
 2360 030e 06D1     		bne	.L133
 483:main.c        ****                     directionState = TurnRight;
 2361              		.loc 1 483 0
 2362 0310 894B     		ldr	r3, .L155+12
 2363 0312 0322     		movs	r2, #3
 2364 0314 1A70     		strb	r2, [r3]
 484:main.c        ****                 } else if (map[currentRow + 1][currentCol] == 8) {
 2365              		.loc 1 484 0
 2366 0316 894B     		ldr	r3, .L155+16
 2367 0318 0122     		movs	r2, #1
 2368 031a 1A60     		str	r2, [r3]
ARM GAS  C:\Users\ikui753\AppData\Local\Temp\ccTyn6zv.s 			page 52


 2369              		.loc 1 489 0
 2370 031c ACE0     		b	.L150
 2371              	.L133:
 485:main.c        ****                     currentOrientation = Left;
 2372              		.loc 1 485 0
 2373 031e 834B     		ldr	r3, .L155
 2374 0320 1B78     		ldrb	r3, [r3]	@ zero_extendqisi2
 2375 0322 5A1C     		adds	r2, r3, #1
 2376 0324 824B     		ldr	r3, .L155+4
 2377 0326 1B78     		ldrb	r3, [r3]	@ zero_extendqisi2
 2378 0328 1846     		mov	r0, r3
 2379 032a 8249     		ldr	r1, .L155+8
 2380 032c 1346     		mov	r3, r2
 2381 032e DB00     		lsls	r3, r3, #3
 2382 0330 1344     		add	r3, r3, r2
 2383 0332 5B00     		lsls	r3, r3, #1
 2384 0334 1344     		add	r3, r3, r2
 2385 0336 0344     		add	r3, r3, r0
 2386 0338 51F82330 		ldr	r3, [r1, r3, lsl #2]
 2387 033c 082B     		cmp	r3, #8
 2388 033e 40F09B80 		bne	.L150
 486:main.c        ****                     directionState = TurnLeft;
 2389              		.loc 1 486 0
 2390 0342 7D4B     		ldr	r3, .L155+12
 2391 0344 0222     		movs	r2, #2
 2392 0346 1A70     		strb	r2, [r3]
 487:main.c        ****                 }
 2393              		.loc 1 487 0
 2394 0348 7C4B     		ldr	r3, .L155+16
 2395 034a 0222     		movs	r2, #2
 2396 034c 1A60     		str	r2, [r3]
 2397              		.loc 1 489 0
 2398 034e 93E0     		b	.L150
 2399              	.L125:
 490:main.c        ****             case Left:
 491:main.c        ****                 if(map[currentRow - 1][currentCol] == 8) {
 2400              		.loc 1 491 0
 2401 0350 764B     		ldr	r3, .L155
 2402 0352 1B78     		ldrb	r3, [r3]	@ zero_extendqisi2
 2403 0354 5A1E     		subs	r2, r3, #1
 2404 0356 764B     		ldr	r3, .L155+4
 2405 0358 1B78     		ldrb	r3, [r3]	@ zero_extendqisi2
 2406 035a 1846     		mov	r0, r3
 2407 035c 7549     		ldr	r1, .L155+8
 2408 035e 1346     		mov	r3, r2
 2409 0360 DB00     		lsls	r3, r3, #3
 2410 0362 1344     		add	r3, r3, r2
 2411 0364 5B00     		lsls	r3, r3, #1
 2412 0366 1344     		add	r3, r3, r2
 2413 0368 0344     		add	r3, r3, r0
 2414 036a 51F82330 		ldr	r3, [r1, r3, lsl #2]
 2415 036e 082B     		cmp	r3, #8
 2416 0370 06D1     		bne	.L134
 492:main.c        ****                     currentOrientation = Left;
 2417              		.loc 1 492 0
 2418 0372 714B     		ldr	r3, .L155+12
 2419 0374 0222     		movs	r2, #2
ARM GAS  C:\Users\ikui753\AppData\Local\Temp\ccTyn6zv.s 			page 53


 2420 0376 1A70     		strb	r2, [r3]
 493:main.c        ****                     directionState = Forward;
 2421              		.loc 1 493 0
 2422 0378 704B     		ldr	r3, .L155+16
 2423 037a 0022     		movs	r2, #0
 2424 037c 1A60     		str	r2, [r3]
 494:main.c        ****                 } else if (map[currentRow][currentCol + 1] == 8) {
 495:main.c        ****                     currentOrientation = Up;
 496:main.c        ****                     directionState = TurnRight;
 497:main.c        ****                 } else if (map[currentRow][currentCol - 1] == 8) {
 498:main.c        ****                     currentOrientation = Down;
 499:main.c        ****                     directionState = TurnLeft;
 500:main.c        ****                 }
 501:main.c        ****                 break;
 2425              		.loc 1 501 0
 2426 037e 7DE0     		b	.L151
 2427              	.L134:
 494:main.c        ****                 } else if (map[currentRow][currentCol + 1] == 8) {
 2428              		.loc 1 494 0
 2429 0380 6A4B     		ldr	r3, .L155
 2430 0382 1B78     		ldrb	r3, [r3]	@ zero_extendqisi2
 2431 0384 1A46     		mov	r2, r3
 2432 0386 6A4B     		ldr	r3, .L155+4
 2433 0388 1B78     		ldrb	r3, [r3]	@ zero_extendqisi2
 2434 038a 591C     		adds	r1, r3, #1
 2435 038c 6948     		ldr	r0, .L155+8
 2436 038e 1346     		mov	r3, r2
 2437 0390 DB00     		lsls	r3, r3, #3
 2438 0392 1344     		add	r3, r3, r2
 2439 0394 5B00     		lsls	r3, r3, #1
 2440 0396 1344     		add	r3, r3, r2
 2441 0398 0B44     		add	r3, r3, r1
 2442 039a 50F82330 		ldr	r3, [r0, r3, lsl #2]
 2443 039e 082B     		cmp	r3, #8
 2444 03a0 06D1     		bne	.L136
 495:main.c        ****                     directionState = TurnRight;
 2445              		.loc 1 495 0
 2446 03a2 654B     		ldr	r3, .L155+12
 2447 03a4 0022     		movs	r2, #0
 2448 03a6 1A70     		strb	r2, [r3]
 496:main.c        ****                 } else if (map[currentRow][currentCol - 1] == 8) {
 2449              		.loc 1 496 0
 2450 03a8 644B     		ldr	r3, .L155+16
 2451 03aa 0122     		movs	r2, #1
 2452 03ac 1A60     		str	r2, [r3]
 2453              		.loc 1 501 0
 2454 03ae 65E0     		b	.L151
 2455              	.L136:
 497:main.c        ****                     currentOrientation = Down;
 2456              		.loc 1 497 0
 2457 03b0 5E4B     		ldr	r3, .L155
 2458 03b2 1B78     		ldrb	r3, [r3]	@ zero_extendqisi2
 2459 03b4 1A46     		mov	r2, r3
 2460 03b6 5E4B     		ldr	r3, .L155+4
 2461 03b8 1B78     		ldrb	r3, [r3]	@ zero_extendqisi2
 2462 03ba 591E     		subs	r1, r3, #1
 2463 03bc 5D48     		ldr	r0, .L155+8
ARM GAS  C:\Users\ikui753\AppData\Local\Temp\ccTyn6zv.s 			page 54


 2464 03be 1346     		mov	r3, r2
 2465 03c0 DB00     		lsls	r3, r3, #3
 2466 03c2 1344     		add	r3, r3, r2
 2467 03c4 5B00     		lsls	r3, r3, #1
 2468 03c6 1344     		add	r3, r3, r2
 2469 03c8 0B44     		add	r3, r3, r1
 2470 03ca 50F82330 		ldr	r3, [r0, r3, lsl #2]
 2471 03ce 082B     		cmp	r3, #8
 2472 03d0 54D1     		bne	.L151
 498:main.c        ****                     directionState = TurnLeft;
 2473              		.loc 1 498 0
 2474 03d2 594B     		ldr	r3, .L155+12
 2475 03d4 0122     		movs	r2, #1
 2476 03d6 1A70     		strb	r2, [r3]
 499:main.c        ****                 }
 2477              		.loc 1 499 0
 2478 03d8 584B     		ldr	r3, .L155+16
 2479 03da 0222     		movs	r2, #2
 2480 03dc 1A60     		str	r2, [r3]
 2481              		.loc 1 501 0
 2482 03de 4DE0     		b	.L151
 2483              	.L126:
 502:main.c        ****             case Right:
 503:main.c        ****                 if(map[currentRow + 1][currentCol] == 8) {
 2484              		.loc 1 503 0
 2485 03e0 524B     		ldr	r3, .L155
 2486 03e2 1B78     		ldrb	r3, [r3]	@ zero_extendqisi2
 2487 03e4 5A1C     		adds	r2, r3, #1
 2488 03e6 524B     		ldr	r3, .L155+4
 2489 03e8 1B78     		ldrb	r3, [r3]	@ zero_extendqisi2
 2490 03ea 1846     		mov	r0, r3
 2491 03ec 5149     		ldr	r1, .L155+8
 2492 03ee 1346     		mov	r3, r2
 2493 03f0 DB00     		lsls	r3, r3, #3
 2494 03f2 1344     		add	r3, r3, r2
 2495 03f4 5B00     		lsls	r3, r3, #1
 2496 03f6 1344     		add	r3, r3, r2
 2497 03f8 0344     		add	r3, r3, r0
 2498 03fa 51F82330 		ldr	r3, [r1, r3, lsl #2]
 2499 03fe 082B     		cmp	r3, #8
 2500 0400 06D1     		bne	.L137
 504:main.c        ****                     currentOrientation = Right;
 2501              		.loc 1 504 0
 2502 0402 4D4B     		ldr	r3, .L155+12
 2503 0404 0322     		movs	r2, #3
 2504 0406 1A70     		strb	r2, [r3]
 505:main.c        ****                     directionState = Forward;
 2505              		.loc 1 505 0
 2506 0408 4C4B     		ldr	r3, .L155+16
 2507 040a 0022     		movs	r2, #0
 2508 040c 1A60     		str	r2, [r3]
 506:main.c        ****                 } else if (map[currentRow][currentCol + 1] == 8) {
 507:main.c        ****                     currentOrientation = Up;
 508:main.c        ****                     directionState = TurnLeft;
 509:main.c        ****                 } else if (map[currentRow][currentCol - 1] == 8) {
 510:main.c        ****                     currentOrientation = Down;
 511:main.c        ****                     directionState = TurnRight;
ARM GAS  C:\Users\ikui753\AppData\Local\Temp\ccTyn6zv.s 			page 55


 512:main.c        ****                 }
 513:main.c        ****                 break;
 2509              		.loc 1 513 0
 2510 040e 37E0     		b	.L152
 2511              	.L137:
 506:main.c        ****                 } else if (map[currentRow][currentCol + 1] == 8) {
 2512              		.loc 1 506 0
 2513 0410 464B     		ldr	r3, .L155
 2514 0412 1B78     		ldrb	r3, [r3]	@ zero_extendqisi2
 2515 0414 1A46     		mov	r2, r3
 2516 0416 464B     		ldr	r3, .L155+4
 2517 0418 1B78     		ldrb	r3, [r3]	@ zero_extendqisi2
 2518 041a 591C     		adds	r1, r3, #1
 2519 041c 4548     		ldr	r0, .L155+8
 2520 041e 1346     		mov	r3, r2
 2521 0420 DB00     		lsls	r3, r3, #3
 2522 0422 1344     		add	r3, r3, r2
 2523 0424 5B00     		lsls	r3, r3, #1
 2524 0426 1344     		add	r3, r3, r2
 2525 0428 0B44     		add	r3, r3, r1
 2526 042a 50F82330 		ldr	r3, [r0, r3, lsl #2]
 2527 042e 082B     		cmp	r3, #8
 2528 0430 06D1     		bne	.L139
 507:main.c        ****                     directionState = TurnLeft;
 2529              		.loc 1 507 0
 2530 0432 414B     		ldr	r3, .L155+12
 2531 0434 0022     		movs	r2, #0
 2532 0436 1A70     		strb	r2, [r3]
 508:main.c        ****                 } else if (map[currentRow][currentCol - 1] == 8) {
 2533              		.loc 1 508 0
 2534 0438 404B     		ldr	r3, .L155+16
 2535 043a 0222     		movs	r2, #2
 2536 043c 1A60     		str	r2, [r3]
 2537              		.loc 1 513 0
 2538 043e 1FE0     		b	.L152
 2539              	.L139:
 509:main.c        ****                     currentOrientation = Down;
 2540              		.loc 1 509 0
 2541 0440 3A4B     		ldr	r3, .L155
 2542 0442 1B78     		ldrb	r3, [r3]	@ zero_extendqisi2
 2543 0444 1A46     		mov	r2, r3
 2544 0446 3A4B     		ldr	r3, .L155+4
 2545 0448 1B78     		ldrb	r3, [r3]	@ zero_extendqisi2
 2546 044a 591E     		subs	r1, r3, #1
 2547 044c 3948     		ldr	r0, .L155+8
 2548 044e 1346     		mov	r3, r2
 2549 0450 DB00     		lsls	r3, r3, #3
 2550 0452 1344     		add	r3, r3, r2
 2551 0454 5B00     		lsls	r3, r3, #1
 2552 0456 1344     		add	r3, r3, r2
 2553 0458 0B44     		add	r3, r3, r1
 2554 045a 50F82330 		ldr	r3, [r0, r3, lsl #2]
 2555 045e 082B     		cmp	r3, #8
 2556 0460 0ED1     		bne	.L152
 510:main.c        ****                     directionState = TurnRight;
 2557              		.loc 1 510 0
 2558 0462 354B     		ldr	r3, .L155+12
ARM GAS  C:\Users\ikui753\AppData\Local\Temp\ccTyn6zv.s 			page 56


 2559 0464 0122     		movs	r2, #1
 2560 0466 1A70     		strb	r2, [r3]
 511:main.c        ****                 }
 2561              		.loc 1 511 0
 2562 0468 344B     		ldr	r3, .L155+16
 2563 046a 0122     		movs	r2, #1
 2564 046c 1A60     		str	r2, [r3]
 2565              		.loc 1 513 0
 2566 046e 07E0     		b	.L152
 2567              	.L148:
 514:main.c        ****             default:
 515:main.c        ****                 break;
 2568              		.loc 1 515 0
 2569 0470 00BF     		nop
 2570 0472 06E0     		b	.L130
 2571              	.L149:
 477:main.c        ****             case Down:
 2572              		.loc 1 477 0
 2573 0474 00BF     		nop
 2574 0476 04E0     		b	.L130
 2575              	.L150:
 489:main.c        ****             case Left:
 2576              		.loc 1 489 0
 2577 0478 00BF     		nop
 2578 047a 02E0     		b	.L130
 2579              	.L151:
 501:main.c        ****             case Right:
 2580              		.loc 1 501 0
 2581 047c 00BF     		nop
 2582 047e 00E0     		b	.L130
 2583              	.L152:
 513:main.c        ****             default:
 2584              		.loc 1 513 0
 2585 0480 00BF     		nop
 2586              	.L130:
 516:main.c        ****         }
 517:main.c        ****         return directionState;
 2587              		.loc 1 517 0
 2588 0482 2E4B     		ldr	r3, .L155+16
 2589 0484 1B68     		ldr	r3, [r3]
 2590 0486 4EE0     		b	.L109
 2591              	.L120:
 518:main.c        ****     }
 519:main.c        **** 
 520:main.c        ****     // wait for turn at end of line
 521:main.c        ****     /*if(s5 && s6 && (previousDirection == Forward || (previousDirection == AdjustToTheLeft || prev
 522:main.c        ****         directionState = waitForTurn; // need to wait to check for a black line
 523:main.c        ****         return directionState;
 524:main.c        ****     }*/
 525:main.c        ****     
 526:main.c        ****     // course correction
 527:main.c        ****     if (previousDirection == Forward || previousDirection == AdjustToTheLeft || previousDirection =
 2592              		.loc 1 527 0
 2593 0488 2D4B     		ldr	r3, .L155+20
 2594 048a 1B68     		ldr	r3, [r3]
 2595 048c 002B     		cmp	r3, #0
 2596 048e 07D0     		beq	.L140
ARM GAS  C:\Users\ikui753\AppData\Local\Temp\ccTyn6zv.s 			page 57


 2597              		.loc 1 527 0 is_stmt 0 discriminator 1
 2598 0490 2B4B     		ldr	r3, .L155+20
 2599 0492 1B68     		ldr	r3, [r3]
 2600 0494 032B     		cmp	r3, #3
 2601 0496 03D0     		beq	.L140
 2602              		.loc 1 527 0 discriminator 2
 2603 0498 294B     		ldr	r3, .L155+20
 2604 049a 1B68     		ldr	r3, [r3]
 2605 049c 042B     		cmp	r3, #4
 2606 049e 14D1     		bne	.L141
 2607              	.L140:
 528:main.c        ****         if(s6) {
 2608              		.loc 1 528 0 is_stmt 1
 2609 04a0 284B     		ldr	r3, .L155+24
 2610 04a2 1B78     		ldrb	r3, [r3]	@ zero_extendqisi2
 2611 04a4 002B     		cmp	r3, #0
 2612 04a6 02D0     		beq	.L142
 529:main.c        ****             directionState = AdjustToTheLeft; // keep adjusting to the left
 2613              		.loc 1 529 0
 2614 04a8 244B     		ldr	r3, .L155+16
 2615 04aa 0322     		movs	r2, #3
 2616 04ac 1A60     		str	r2, [r3]
 2617              	.L142:
 530:main.c        ****         }
 531:main.c        ****         if(s5) {
 2618              		.loc 1 531 0
 2619 04ae 264B     		ldr	r3, .L155+28
 2620 04b0 1B78     		ldrb	r3, [r3]	@ zero_extendqisi2
 2621 04b2 002B     		cmp	r3, #0
 2622 04b4 02D0     		beq	.L143
 532:main.c        ****             directionState = AdjustToTheRight; // keep adjusting to the right
 2623              		.loc 1 532 0
 2624 04b6 214B     		ldr	r3, .L155+16
 2625 04b8 0422     		movs	r2, #4
 2626 04ba 1A60     		str	r2, [r3]
 2627              	.L143:
 533:main.c        ****         }
 534:main.c        ****         previousOrientation = currentOrientation; // unchanged orientation
 2628              		.loc 1 534 0
 2629 04bc 1E4B     		ldr	r3, .L155+12
 2630 04be 1A78     		ldrb	r2, [r3]	@ zero_extendqisi2
 2631 04c0 224B     		ldr	r3, .L155+32
 2632 04c2 1A70     		strb	r2, [r3]
 535:main.c        ****         return directionState;
 2633              		.loc 1 535 0
 2634 04c4 1D4B     		ldr	r3, .L155+16
 2635 04c6 1B68     		ldr	r3, [r3]
 2636 04c8 2DE0     		b	.L109
 2637              	.L141:
 536:main.c        ****     }
 537:main.c        ****     
 538:main.c        ****     // forward 1100
 539:main.c        ****     if (s3 && s4 && !s5 && !s6) {
 2638              		.loc 1 539 0
 2639 04ca 214B     		ldr	r3, .L155+36
 2640 04cc 1B78     		ldrb	r3, [r3]	@ zero_extendqisi2
 2641 04ce 002B     		cmp	r3, #0
ARM GAS  C:\Users\ikui753\AppData\Local\Temp\ccTyn6zv.s 			page 58


 2642 04d0 15D0     		beq	.L144
 2643              		.loc 1 539 0 is_stmt 0 discriminator 1
 2644 04d2 204B     		ldr	r3, .L155+40
 2645 04d4 1B78     		ldrb	r3, [r3]	@ zero_extendqisi2
 2646 04d6 002B     		cmp	r3, #0
 2647 04d8 11D0     		beq	.L144
 2648              		.loc 1 539 0 discriminator 2
 2649 04da 1B4B     		ldr	r3, .L155+28
 2650 04dc 1B78     		ldrb	r3, [r3]	@ zero_extendqisi2
 2651 04de 002B     		cmp	r3, #0
 2652 04e0 0DD1     		bne	.L144
 2653              		.loc 1 539 0 discriminator 3
 2654 04e2 184B     		ldr	r3, .L155+24
 2655 04e4 1B78     		ldrb	r3, [r3]	@ zero_extendqisi2
 2656 04e6 002B     		cmp	r3, #0
 2657 04e8 09D1     		bne	.L144
 540:main.c        ****         directionState = Forward;
 2658              		.loc 1 540 0 is_stmt 1
 2659 04ea 144B     		ldr	r3, .L155+16
 2660 04ec 0022     		movs	r2, #0
 2661 04ee 1A60     		str	r2, [r3]
 541:main.c        ****         previousOrientation = currentOrientation; // unchanged orientation
 2662              		.loc 1 541 0
 2663 04f0 114B     		ldr	r3, .L155+12
 2664 04f2 1A78     		ldrb	r2, [r3]	@ zero_extendqisi2
 2665 04f4 154B     		ldr	r3, .L155+32
 2666 04f6 1A70     		strb	r2, [r3]
 542:main.c        ****         return directionState;   
 2667              		.loc 1 542 0
 2668 04f8 104B     		ldr	r3, .L155+16
 2669 04fa 1B68     		ldr	r3, [r3]
 2670 04fc 13E0     		b	.L109
 2671              	.L144:
 543:main.c        ****     }
 544:main.c        ****     
 545:main.c        ****     //turn left 0111
 546:main.c        ****     /*if (!s3 && s4 && s5 && s6) {
 547:main.c        ****         directionState = TurnLeft;
 548:main.c        ****         switch(previousOrientation) {
 549:main.c        ****             case Up:
 550:main.c        ****                 currentDirection = Left;
 551:main.c        ****                 break;
 552:main.c        ****             case Down:
 553:main.c        ****                 currentDirection = Right;
 554:main.c        ****                 break;
 555:main.c        ****             case Left:
 556:main.c        ****                 currentDirection = Up;
 557:main.c        ****                 break;
 558:main.c        ****             case Right:
 559:main.c        ****                 currentDirection = Down;
 560:main.c        ****                 break;
 561:main.c        ****             default:
 562:main.c        ****                 break;
 563:main.c        ****         }
 564:main.c        ****         previousDirection = currentDirection;
 565:main.c        ****         return directionState;
 566:main.c        ****     }*/
ARM GAS  C:\Users\ikui753\AppData\Local\Temp\ccTyn6zv.s 			page 59


 567:main.c        ****     
 568:main.c        ****     // turn right if 1011
 569:main.c        ****     /*if (s3 && !s4 && s5 && s6) {
 570:main.c        ****         directionState = TurnRight;
 571:main.c        ****         switch(previousOrientation) {
 572:main.c        ****             case Up:
 573:main.c        ****                 currentDirection = Right;
 574:main.c        ****                 break;
 575:main.c        ****             case Down:
 576:main.c        ****                 currentDirection = Left;
 577:main.c        ****                 break;
 578:main.c        ****             case Left:
 579:main.c        ****                 currentDirection = Down;
 580:main.c        ****                 break;
 581:main.c        ****             case Right:
 582:main.c        ****                 currentDirection = Up;
 583:main.c        ****                 break;
 584:main.c        ****             default:
 585:main.c        ****                 break;
 586:main.c        ****         }
 587:main.c        ****         previousDirection = currentDirection;
 588:main.c        ****         return directionState;
 589:main.c        ****     }*/
 590:main.c        ****     
 591:main.c        ****     // If currentDirection is Unknown, we continue with the previous direction.
 592:main.c        ****     // However, if the previous direction is also Unknown, we will just move forward.
 593:main.c        ****     if (previousDirection == Unknown) {
 2672              		.loc 1 593 0
 2673 04fe 104B     		ldr	r3, .L155+20
 2674 0500 1B68     		ldr	r3, [r3]
 2675 0502 062B     		cmp	r3, #6
 2676 0504 09D1     		bne	.L145
 594:main.c        ****         directionState = Forward;
 2677              		.loc 1 594 0
 2678 0506 0D4B     		ldr	r3, .L155+16
 2679 0508 0022     		movs	r2, #0
 2680 050a 1A60     		str	r2, [r3]
 595:main.c        ****         previousDirection = currentDirection;
 2681              		.loc 1 595 0
 2682 050c 124B     		ldr	r3, .L155+44
 2683 050e 1B68     		ldr	r3, [r3]
 2684 0510 0B4A     		ldr	r2, .L155+20
 2685 0512 1360     		str	r3, [r2]
 596:main.c        ****         return directionState;
 2686              		.loc 1 596 0
 2687 0514 094B     		ldr	r3, .L155+16
 2688 0516 1B68     		ldr	r3, [r3]
 2689 0518 05E0     		b	.L109
 2690              	.L145:
 597:main.c        ****     }
 598:main.c        ****     
 599:main.c        ****     // Possible reason
 600:main.c        ****     previousDirection = currentDirection;
 2691              		.loc 1 600 0
 2692 051a 0F4B     		ldr	r3, .L155+44
 2693 051c 1B68     		ldr	r3, [r3]
 2694 051e 084A     		ldr	r2, .L155+20
ARM GAS  C:\Users\ikui753\AppData\Local\Temp\ccTyn6zv.s 			page 60


 2695 0520 1360     		str	r3, [r2]
 601:main.c        ****     return previousDirection;
 2696              		.loc 1 601 0
 2697 0522 074B     		ldr	r3, .L155+20
 2698 0524 1B68     		ldr	r3, [r3]
 2699              	.L109:
 602:main.c        **** }
 2700              		.loc 1 602 0
 2701 0526 1846     		mov	r0, r3
 2702 0528 80BD     		pop	{r7, pc}
 2703              	.L156:
 2704 052a 00BF     		.align	2
 2705              	.L155:
 2706 052c 00000000 		.word	currentRow
 2707 0530 00000000 		.word	currentCol
 2708 0534 00000000 		.word	map
 2709 0538 00000000 		.word	currentOrientation
 2710 053c 00000000 		.word	directionState
 2711 0540 00000000 		.word	previousDirection
 2712 0544 00000000 		.word	s6
 2713 0548 00000000 		.word	s5
 2714 054c 00000000 		.word	previousOrientation
 2715 0550 00000000 		.word	s3
 2716 0554 00000000 		.word	s4
 2717 0558 00000000 		.word	currentDirection
 2718              		.cfi_endproc
 2719              	.LFE76:
 2720              		.size	CheckSensorDirection, .-CheckSensorDirection
 2721              		.section	.text.SetRobotMovement,"ax",%progbits
 2722              		.align	2
 2723              		.global	SetRobotMovement
 2724              		.thumb
 2725              		.thumb_func
 2726              		.type	SetRobotMovement, %function
 2727              	SetRobotMovement:
 2728              	.LFB77:
 603:main.c        **** 
 604:main.c        **** // Sets robot movement direction state according to currentDirection which is set by Check
 605:main.c        **** void SetRobotMovement() {
 2729              		.loc 1 605 0
 2730              		.cfi_startproc
 2731              		@ args = 0, pretend = 0, frame = 0
 2732              		@ frame_needed = 1, uses_anonymous_args = 0
 2733 0000 80B5     		push	{r7, lr}
 2734              		.cfi_def_cfa_offset 8
 2735              		.cfi_offset 7, -8
 2736              		.cfi_offset 14, -4
 2737 0002 00AF     		add	r7, sp, #0
 2738              		.cfi_def_cfa_register 7
 606:main.c        ****     currentDirection = getDirection();   
 2739              		.loc 1 606 0
 2740 0004 FFF7FEFF 		bl	getDirection
 2741 0008 0246     		mov	r2, r0
 2742 000a 1E4B     		ldr	r3, .L173
 2743 000c 1A60     		str	r2, [r3]
 607:main.c        ****     
 608:main.c        ****     switch (currentDirection) {
ARM GAS  C:\Users\ikui753\AppData\Local\Temp\ccTyn6zv.s 			page 61


 2744              		.loc 1 608 0
 2745 000e 1D4B     		ldr	r3, .L173
 2746 0010 1B68     		ldr	r3, [r3]
 2747 0012 0A2B     		cmp	r3, #10
 2748 0014 34D8     		bhi	.L171
 2749 0016 01A2     		adr	r2, .L160
 2750 0018 52F823F0 		ldr	pc, [r2, r3, lsl #2]
 2751              		.p2align 2
 2752              	.L160:
 2753 001c 49000000 		.word	.L159+1
 2754 0020 4F000000 		.word	.L161+1
 2755 0024 55000000 		.word	.L162+1
 2756 0028 61000000 		.word	.L163+1
 2757 002c 5B000000 		.word	.L164+1
 2758 0030 67000000 		.word	.L165+1
 2759 0034 7F000000 		.word	.L172+1
 2760 0038 7F000000 		.word	.L172+1
 2761 003c 6D000000 		.word	.L168+1
 2762 0040 73000000 		.word	.L169+1
 2763 0044 79000000 		.word	.L170+1
 2764              		.p2align 1
 2765              	.L159:
 609:main.c        ****         //Forward, TurnRight, TurnLeft, AdjustToTheRight, AdjustToTheLeft, Stop, Unknown
 610:main.c        ****         case Forward:
 611:main.c        ****             moveForward();
 2766              		.loc 1 611 0
 2767 0048 FFF7FEFF 		bl	moveForward
 612:main.c        ****             break;
 2768              		.loc 1 612 0
 2769 004c 18E0     		b	.L158
 2770              	.L161:
 613:main.c        ****         case TurnRight:
 614:main.c        ****             turnRight();
 2771              		.loc 1 614 0
 2772 004e FFF7FEFF 		bl	turnRight
 615:main.c        ****             break;
 2773              		.loc 1 615 0
 2774 0052 15E0     		b	.L158
 2775              	.L162:
 616:main.c        ****         case TurnLeft:
 617:main.c        ****             turnLeft(); // try course correction methods for L/R turn
 2776              		.loc 1 617 0
 2777 0054 FFF7FEFF 		bl	turnLeft
 618:main.c        ****             break;
 2778              		.loc 1 618 0
 2779 0058 12E0     		b	.L158
 2780              	.L164:
 619:main.c        ****         case AdjustToTheRight:
 620:main.c        ****             adjustRight();
 2781              		.loc 1 620 0
 2782 005a FFF7FEFF 		bl	adjustRight
 621:main.c        ****             break;
 2783              		.loc 1 621 0
 2784 005e 0FE0     		b	.L158
 2785              	.L163:
 622:main.c        ****         case AdjustToTheLeft:
 623:main.c        ****             adjustLeft();
ARM GAS  C:\Users\ikui753\AppData\Local\Temp\ccTyn6zv.s 			page 62


 2786              		.loc 1 623 0
 2787 0060 FFF7FEFF 		bl	adjustLeft
 624:main.c        ****             break;
 2788              		.loc 1 624 0
 2789 0064 0CE0     		b	.L158
 2790              	.L165:
 625:main.c        ****         case Stop:
 626:main.c        ****             stopMoving();
 2791              		.loc 1 626 0
 2792 0066 FFF7FEFF 		bl	stopMoving
 627:main.c        ****             break;
 2793              		.loc 1 627 0
 2794 006a 09E0     		b	.L158
 2795              	.L168:
 628:main.c        ****         case HardForward:
 629:main.c        ****             break;
 630:main.c        ****         case waitForTurn:
 631:main.c        ****             moveForward(); 
 2796              		.loc 1 631 0
 2797 006c FFF7FEFF 		bl	moveForward
 632:main.c        ****             break;
 2798              		.loc 1 632 0
 2799 0070 06E0     		b	.L158
 2800              	.L169:
 633:main.c        ****         case ForwardAfterTurn:
 634:main.c        ****             moveForward();
 2801              		.loc 1 634 0
 2802 0072 FFF7FEFF 		bl	moveForward
 635:main.c        ****             break;
 2803              		.loc 1 635 0
 2804 0076 03E0     		b	.L158
 2805              	.L170:
 636:main.c        ****         case Backward:
 637:main.c        ****             moveBackward();
 2806              		.loc 1 637 0
 2807 0078 FFF7FEFF 		bl	moveBackward
 638:main.c        ****             break;
 2808              		.loc 1 638 0
 2809 007c 00E0     		b	.L158
 2810              	.L172:
 639:main.c        ****         case Unknown:
 640:main.c        ****             // UNKNOWN CONFIGURATION
 641:main.c        ****             break;  
 2811              		.loc 1 641 0
 2812 007e 00BF     		nop
 2813              	.L158:
 2814              	.L171:
 642:main.c        ****     }
 643:main.c        **** }
 2815              		.loc 1 643 0
 2816 0080 00BF     		nop
 2817 0082 80BD     		pop	{r7, pc}
 2818              	.L174:
 2819              		.align	2
 2820              	.L173:
 2821 0084 00000000 		.word	currentDirection
 2822              		.cfi_endproc
ARM GAS  C:\Users\ikui753\AppData\Local\Temp\ccTyn6zv.s 			page 63


 2823              	.LFE77:
 2824              		.size	SetRobotMovement, .-SetRobotMovement
 2825              		.text
 2826              	.Letext0:
 2827              		.file 2 "c:\\program files (x86)\\cypress\\psoc creator\\4.2\\psoc creator\\import\\gnu\\arm\\5.4.
 2828              		.file 3 "c:\\program files (x86)\\cypress\\psoc creator\\4.2\\psoc creator\\import\\gnu\\arm\\5.4.
 2829              		.file 4 "Generated_Source\\PSoC5/cytypes.h"
 2830              		.file 5 "vars.h"
 2831              		.file 6 "Generated_Source\\PSoC5/core_cm3.h"
 2832              		.file 7 "map.h"
 2833              		.section	.debug_info,"",%progbits
 2834              	.Ldebug_info0:
 2835 0000 CF060000 		.4byte	0x6cf
 2836 0004 0400     		.2byte	0x4
 2837 0006 00000000 		.4byte	.Ldebug_abbrev0
 2838 000a 04       		.byte	0x4
 2839 000b 01       		.uleb128 0x1
 2840 000c AC000000 		.4byte	.LASF104
 2841 0010 0C       		.byte	0xc
 2842 0011 8A040000 		.4byte	.LASF105
 2843 0015 D1030000 		.4byte	.LASF106
 2844 0019 00000000 		.4byte	.Ldebug_ranges0+0
 2845 001d 00000000 		.4byte	0
 2846 0021 00000000 		.4byte	.Ldebug_line0
 2847 0025 02       		.uleb128 0x2
 2848 0026 01       		.byte	0x1
 2849 0027 06       		.byte	0x6
 2850 0028 F9020000 		.4byte	.LASF0
 2851 002c 02       		.uleb128 0x2
 2852 002d 01       		.byte	0x1
 2853 002e 08       		.byte	0x8
 2854 002f 6A020000 		.4byte	.LASF1
 2855 0033 02       		.uleb128 0x2
 2856 0034 02       		.byte	0x2
 2857 0035 05       		.byte	0x5
 2858 0036 68000000 		.4byte	.LASF2
 2859 003a 02       		.uleb128 0x2
 2860 003b 02       		.byte	0x2
 2861 003c 07       		.byte	0x7
 2862 003d 8D030000 		.4byte	.LASF3
 2863 0041 03       		.uleb128 0x3
 2864 0042 EC040000 		.4byte	.LASF12
 2865 0046 02       		.byte	0x2
 2866 0047 3F       		.byte	0x3f
 2867 0048 4C000000 		.4byte	0x4c
 2868 004c 02       		.uleb128 0x2
 2869 004d 04       		.byte	0x4
 2870 004e 05       		.byte	0x5
 2871 004f C0030000 		.4byte	.LASF4
 2872 0053 02       		.uleb128 0x2
 2873 0054 04       		.byte	0x4
 2874 0055 07       		.byte	0x7
 2875 0056 91040000 		.4byte	.LASF5
 2876 005a 02       		.uleb128 0x2
 2877 005b 08       		.byte	0x8
 2878 005c 05       		.byte	0x5
 2879 005d D9010000 		.4byte	.LASF6
ARM GAS  C:\Users\ikui753\AppData\Local\Temp\ccTyn6zv.s 			page 64


 2880 0061 02       		.uleb128 0x2
 2881 0062 08       		.byte	0x8
 2882 0063 07       		.byte	0x7
 2883 0064 0D030000 		.4byte	.LASF7
 2884 0068 04       		.uleb128 0x4
 2885 0069 04       		.byte	0x4
 2886 006a 05       		.byte	0x5
 2887 006b 696E7400 		.ascii	"int\000"
 2888 006f 02       		.uleb128 0x2
 2889 0070 04       		.byte	0x4
 2890 0071 07       		.byte	0x7
 2891 0072 35030000 		.4byte	.LASF8
 2892 0076 02       		.uleb128 0x2
 2893 0077 08       		.byte	0x8
 2894 0078 04       		.byte	0x4
 2895 0079 98020000 		.4byte	.LASF9
 2896 007d 02       		.uleb128 0x2
 2897 007e 04       		.byte	0x4
 2898 007f 07       		.byte	0x7
 2899 0080 7F000000 		.4byte	.LASF10
 2900 0084 02       		.uleb128 0x2
 2901 0085 01       		.byte	0x1
 2902 0086 08       		.byte	0x8
 2903 0087 BB030000 		.4byte	.LASF11
 2904 008b 03       		.uleb128 0x3
 2905 008c 05030000 		.4byte	.LASF13
 2906 0090 03       		.byte	0x3
 2907 0091 2C       		.byte	0x2c
 2908 0092 41000000 		.4byte	0x41
 2909 0096 05       		.uleb128 0x5
 2910 0097 A9010000 		.4byte	.LASF14
 2911 009b 04       		.byte	0x4
 2912 009c E701     		.2byte	0x1e7
 2913 009e 2C000000 		.4byte	0x2c
 2914 00a2 05       		.uleb128 0x5
 2915 00a3 75040000 		.4byte	.LASF15
 2916 00a7 04       		.byte	0x4
 2917 00a8 E801     		.2byte	0x1e8
 2918 00aa 3A000000 		.4byte	0x3a
 2919 00ae 05       		.uleb128 0x5
 2920 00af 83040000 		.4byte	.LASF16
 2921 00b3 04       		.byte	0x4
 2922 00b4 E901     		.2byte	0x1e9
 2923 00b6 53000000 		.4byte	0x53
 2924 00ba 05       		.uleb128 0x5
 2925 00bb E7010000 		.4byte	.LASF17
 2926 00bf 04       		.byte	0x4
 2927 00c0 EA01     		.2byte	0x1ea
 2928 00c2 25000000 		.4byte	0x25
 2929 00c6 05       		.uleb128 0x5
 2930 00c7 97010000 		.4byte	.LASF18
 2931 00cb 04       		.byte	0x4
 2932 00cc EB01     		.2byte	0x1eb
 2933 00ce 33000000 		.4byte	0x33
 2934 00d2 02       		.uleb128 0x2
 2935 00d3 04       		.byte	0x4
 2936 00d4 04       		.byte	0x4
ARM GAS  C:\Users\ikui753\AppData\Local\Temp\ccTyn6zv.s 			page 65


 2937 00d5 C1010000 		.4byte	.LASF19
 2938 00d9 02       		.uleb128 0x2
 2939 00da 08       		.byte	0x8
 2940 00db 04       		.byte	0x4
 2941 00dc AC040000 		.4byte	.LASF20
 2942 00e0 06       		.uleb128 0x6
 2943 00e1 A0030000 		.4byte	.LASF107
 2944 00e5 20       		.byte	0x20
 2945 00e6 05       		.byte	0x5
 2946 00e7 28       		.byte	0x28
 2947 00e8 B9010000 		.4byte	0x1b9
 2948 00ec 07       		.uleb128 0x7
 2949 00ed 93050000 		.4byte	.LASF21
 2950 00f1 05       		.byte	0x5
 2951 00f2 2A       		.byte	0x2a
 2952 00f3 BA000000 		.4byte	0xba
 2953 00f7 00       		.byte	0
 2954 00f8 07       		.uleb128 0x7
 2955 00f9 86010000 		.4byte	.LASF22
 2956 00fd 05       		.byte	0x5
 2957 00fe 2B       		.byte	0x2b
 2958 00ff 96000000 		.4byte	0x96
 2959 0103 01       		.byte	0x1
 2960 0104 07       		.uleb128 0x7
 2961 0105 60040000 		.4byte	.LASF23
 2962 0109 05       		.byte	0x5
 2963 010a 2C       		.byte	0x2c
 2964 010b C6000000 		.4byte	0xc6
 2965 010f 02       		.byte	0x2
 2966 0110 07       		.uleb128 0x7
 2967 0111 43050000 		.4byte	.LASF24
 2968 0115 05       		.byte	0x5
 2969 0116 2D       		.byte	0x2d
 2970 0117 C6000000 		.4byte	0xc6
 2971 011b 04       		.byte	0x4
 2972 011c 07       		.uleb128 0x7
 2973 011d 98050000 		.4byte	.LASF25
 2974 0121 05       		.byte	0x5
 2975 0122 2E       		.byte	0x2e
 2976 0123 C6000000 		.4byte	0xc6
 2977 0127 06       		.byte	0x6
 2978 0128 07       		.uleb128 0x7
 2979 0129 10020000 		.4byte	.LASF26
 2980 012d 05       		.byte	0x5
 2981 012e 2F       		.byte	0x2f
 2982 012f C6000000 		.4byte	0xc6
 2983 0133 08       		.byte	0x8
 2984 0134 07       		.uleb128 0x7
 2985 0135 FB040000 		.4byte	.LASF27
 2986 0139 05       		.byte	0x5
 2987 013a 30       		.byte	0x30
 2988 013b C6000000 		.4byte	0xc6
 2989 013f 0A       		.byte	0xa
 2990 0140 07       		.uleb128 0x7
 2991 0141 D9020000 		.4byte	.LASF28
 2992 0145 05       		.byte	0x5
 2993 0146 31       		.byte	0x31
ARM GAS  C:\Users\ikui753\AppData\Local\Temp\ccTyn6zv.s 			page 66


 2994 0147 C6000000 		.4byte	0xc6
 2995 014b 0C       		.byte	0xc
 2996 014c 07       		.uleb128 0x7
 2997 014d 03020000 		.4byte	.LASF29
 2998 0151 05       		.byte	0x5
 2999 0152 32       		.byte	0x32
 3000 0153 C6000000 		.4byte	0xc6
 3001 0157 0E       		.byte	0xe
 3002 0158 07       		.uleb128 0x7
 3003 0159 F1020000 		.4byte	.LASF30
 3004 015d 05       		.byte	0x5
 3005 015e 33       		.byte	0x33
 3006 015f C6000000 		.4byte	0xc6
 3007 0163 10       		.byte	0x10
 3008 0164 07       		.uleb128 0x7
 3009 0165 90020000 		.4byte	.LASF31
 3010 0169 05       		.byte	0x5
 3011 016a 34       		.byte	0x34
 3012 016b C6000000 		.4byte	0xc6
 3013 016f 12       		.byte	0x12
 3014 0170 07       		.uleb128 0x7
 3015 0171 49040000 		.4byte	.LASF32
 3016 0175 05       		.byte	0x5
 3017 0176 35       		.byte	0x35
 3018 0177 C6000000 		.4byte	0xc6
 3019 017b 14       		.byte	0x14
 3020 017c 07       		.uleb128 0x7
 3021 017d AF010000 		.4byte	.LASF33
 3022 0181 05       		.byte	0x5
 3023 0182 36       		.byte	0x36
 3024 0183 C6000000 		.4byte	0xc6
 3025 0187 16       		.byte	0x16
 3026 0188 07       		.uleb128 0x7
 3027 0189 60000000 		.4byte	.LASF34
 3028 018d 05       		.byte	0x5
 3029 018e 37       		.byte	0x37
 3030 018f C6000000 		.4byte	0xc6
 3031 0193 18       		.byte	0x18
 3032 0194 07       		.uleb128 0x7
 3033 0195 FB010000 		.4byte	.LASF35
 3034 0199 05       		.byte	0x5
 3035 019a 38       		.byte	0x38
 3036 019b C6000000 		.4byte	0xc6
 3037 019f 1A       		.byte	0x1a
 3038 01a0 07       		.uleb128 0x7
 3039 01a1 78030000 		.4byte	.LASF36
 3040 01a5 05       		.byte	0x5
 3041 01a6 39       		.byte	0x39
 3042 01a7 C6000000 		.4byte	0xc6
 3043 01ab 1C       		.byte	0x1c
 3044 01ac 07       		.uleb128 0x7
 3045 01ad 3C040000 		.4byte	.LASF37
 3046 01b1 05       		.byte	0x5
 3047 01b2 3A       		.byte	0x3a
 3048 01b3 C6000000 		.4byte	0xc6
 3049 01b7 1E       		.byte	0x1e
 3050 01b8 00       		.byte	0
ARM GAS  C:\Users\ikui753\AppData\Local\Temp\ccTyn6zv.s 			page 67


 3051 01b9 08       		.uleb128 0x8
 3052 01ba 93000000 		.4byte	.LASF49
 3053 01be 04       		.byte	0x4
 3054 01bf 6F000000 		.4byte	0x6f
 3055 01c3 01       		.byte	0x1
 3056 01c4 28       		.byte	0x28
 3057 01c5 0C020000 		.4byte	0x20c
 3058 01c9 09       		.uleb128 0x9
 3059 01ca C9030000 		.4byte	.LASF38
 3060 01ce 00       		.byte	0
 3061 01cf 09       		.uleb128 0x9
 3062 01d0 6B040000 		.4byte	.LASF39
 3063 01d4 01       		.byte	0x1
 3064 01d5 09       		.uleb128 0x9
 3065 01d6 0C000000 		.4byte	.LASF40
 3066 01da 02       		.byte	0x2
 3067 01db 09       		.uleb128 0x9
 3068 01dc 60010000 		.4byte	.LASF41
 3069 01e0 03       		.byte	0x3
 3070 01e1 09       		.uleb128 0x9
 3071 01e2 24030000 		.4byte	.LASF42
 3072 01e6 04       		.byte	0x4
 3073 01e7 09       		.uleb128 0x9
 3074 01e8 F6040000 		.4byte	.LASF43
 3075 01ec 05       		.byte	0x5
 3076 01ed 09       		.uleb128 0x9
 3077 01ee B3040000 		.4byte	.LASF44
 3078 01f2 06       		.byte	0x6
 3079 01f3 09       		.uleb128 0x9
 3080 01f4 9D010000 		.4byte	.LASF45
 3081 01f8 07       		.byte	0x7
 3082 01f9 09       		.uleb128 0x9
 3083 01fa 46000000 		.4byte	.LASF46
 3084 01fe 08       		.byte	0x8
 3085 01ff 09       		.uleb128 0x9
 3086 0200 29000000 		.4byte	.LASF47
 3087 0204 09       		.byte	0x9
 3088 0205 09       		.uleb128 0x9
 3089 0206 A3040000 		.4byte	.LASF48
 3090 020a 0A       		.byte	0xa
 3091 020b 00       		.byte	0
 3092 020c 08       		.uleb128 0x8
 3093 020d 30040000 		.4byte	.LASF50
 3094 0211 01       		.byte	0x1
 3095 0212 2C000000 		.4byte	0x2c
 3096 0216 01       		.byte	0x1
 3097 0217 2C       		.byte	0x2c
 3098 0218 34020000 		.4byte	0x234
 3099 021c 0A       		.uleb128 0xa
 3100 021d 557000   		.ascii	"Up\000"
 3101 0220 00       		.byte	0
 3102 0221 09       		.uleb128 0x9
 3103 0222 6E050000 		.4byte	.LASF51
 3104 0226 01       		.byte	0x1
 3105 0227 09       		.uleb128 0x9
 3106 0228 2C020000 		.4byte	.LASF52
 3107 022c 02       		.byte	0x2
ARM GAS  C:\Users\ikui753\AppData\Local\Temp\ccTyn6zv.s 			page 68


 3108 022d 09       		.uleb128 0x9
 3109 022e C7010000 		.4byte	.LASF53
 3110 0232 03       		.byte	0x3
 3111 0233 00       		.byte	0
 3112 0234 0B       		.uleb128 0xb
 3113 0235 8C010000 		.4byte	.LASF108
 3114 0239 01       		.byte	0x1
 3115 023a 3D       		.byte	0x3d
 3116 023b 00000000 		.4byte	.LFB64
 3117 023f EC000000 		.4byte	.LFE64-.LFB64
 3118 0243 01       		.uleb128 0x1
 3119 0244 9C       		.byte	0x9c
 3120 0245 62020000 		.4byte	0x262
 3121 0249 0C       		.uleb128 0xc
 3122 024a 50000000 		.4byte	.LBB2
 3123 024e 62000000 		.4byte	.LBE2-.LBB2
 3124 0252 0D       		.uleb128 0xd
 3125 0253 CD010000 		.4byte	.LASF62
 3126 0257 01       		.byte	0x1
 3127 0258 4A       		.byte	0x4a
 3128 0259 D2000000 		.4byte	0xd2
 3129 025d 02       		.uleb128 0x2
 3130 025e 91       		.byte	0x91
 3131 025f 6C       		.sleb128 -20
 3132 0260 00       		.byte	0
 3133 0261 00       		.byte	0
 3134 0262 0E       		.uleb128 0xe
 3135 0263 AA050000 		.4byte	.LASF54
 3136 0267 01       		.byte	0x1
 3137 0268 54       		.byte	0x54
 3138 0269 00000000 		.4byte	.LFB65
 3139 026d 18000000 		.4byte	.LFE65-.LFB65
 3140 0271 01       		.uleb128 0x1
 3141 0272 9C       		.byte	0x9c
 3142 0273 0E       		.uleb128 0xe
 3143 0274 46020000 		.4byte	.LASF55
 3144 0278 01       		.byte	0x1
 3145 0279 5B       		.byte	0x5b
 3146 027a 00000000 		.4byte	.LFB66
 3147 027e 18000000 		.4byte	.LFE66-.LFB66
 3148 0282 01       		.uleb128 0x1
 3149 0283 9C       		.byte	0x9c
 3150 0284 0E       		.uleb128 0xe
 3151 0285 C5040000 		.4byte	.LASF56
 3152 0289 01       		.byte	0x1
 3153 028a 62       		.byte	0x62
 3154 028b 00000000 		.4byte	.LFB67
 3155 028f 18000000 		.4byte	.LFE67-.LFB67
 3156 0293 01       		.uleb128 0x1
 3157 0294 9C       		.byte	0x9c
 3158 0295 0E       		.uleb128 0xe
 3159 0296 54010000 		.4byte	.LASF57
 3160 029a 01       		.byte	0x1
 3161 029b 68       		.byte	0x68
 3162 029c 00000000 		.4byte	.LFB68
 3163 02a0 18000000 		.4byte	.LFE68-.LFB68
 3164 02a4 01       		.uleb128 0x1
ARM GAS  C:\Users\ikui753\AppData\Local\Temp\ccTyn6zv.s 			page 69


 3165 02a5 9C       		.byte	0x9c
 3166 02a6 0E       		.uleb128 0xe
 3167 02a7 81030000 		.4byte	.LASF58
 3168 02ab 01       		.byte	0x1
 3169 02ac 6E       		.byte	0x6e
 3170 02ad 00000000 		.4byte	.LFB69
 3171 02b1 18000000 		.4byte	.LFE69-.LFB69
 3172 02b5 01       		.uleb128 0x1
 3173 02b6 9C       		.byte	0x9c
 3174 02b7 0E       		.uleb128 0xe
 3175 02b8 00000000 		.4byte	.LASF59
 3176 02bc 01       		.byte	0x1
 3177 02bd 74       		.byte	0x74
 3178 02be 00000000 		.4byte	.LFB70
 3179 02c2 18000000 		.4byte	.LFE70-.LFB70
 3180 02c6 01       		.uleb128 0x1
 3181 02c7 9C       		.byte	0x9c
 3182 02c8 0F       		.uleb128 0xf
 3183 02c9 6B030000 		.4byte	.LASF60
 3184 02cd 01       		.byte	0x1
 3185 02ce 7A       		.byte	0x7a
 3186 02cf 00000000 		.4byte	.LFB71
 3187 02d3 38000000 		.4byte	.LFE71-.LFB71
 3188 02d7 01       		.uleb128 0x1
 3189 02d8 9C       		.byte	0x9c
 3190 02d9 10       		.uleb128 0x10
 3191 02da 44010000 		.4byte	.LASF61
 3192 02de 01       		.byte	0x1
 3193 02df 87       		.byte	0x87
 3194 02e0 68000000 		.4byte	0x68
 3195 02e4 00000000 		.4byte	.LFB72
 3196 02e8 B0000000 		.4byte	.LFE72-.LFB72
 3197 02ec 01       		.uleb128 0x1
 3198 02ed 9C       		.byte	0x9c
 3199 02ee 11       		.uleb128 0x11
 3200 02ef 18050000 		.4byte	.LASF109
 3201 02f3 01       		.byte	0x1
 3202 02f4 C0       		.byte	0xc0
 3203 02f5 C6000000 		.4byte	0xc6
 3204 02f9 00000000 		.4byte	.LFB73
 3205 02fd 54000000 		.4byte	.LFE73-.LFB73
 3206 0301 01       		.uleb128 0x1
 3207 0302 9C       		.byte	0x9c
 3208 0303 32030000 		.4byte	0x332
 3209 0307 12       		.uleb128 0x12
 3210 0308 DA040000 		.4byte	.LASF110
 3211 030c 01       		.byte	0x1
 3212 030d C0       		.byte	0xc0
 3213 030e A2000000 		.4byte	0xa2
 3214 0312 02       		.uleb128 0x2
 3215 0313 91       		.byte	0x91
 3216 0314 66       		.sleb128 -26
 3217 0315 13       		.uleb128 0x13
 3218 0316 63707300 		.ascii	"cps\000"
 3219 031a 01       		.byte	0x1
 3220 031b C2       		.byte	0xc2
 3221 031c D2000000 		.4byte	0xd2
ARM GAS  C:\Users\ikui753\AppData\Local\Temp\ccTyn6zv.s 			page 70


 3222 0320 02       		.uleb128 0x2
 3223 0321 91       		.byte	0x91
 3224 0322 6C       		.sleb128 -20
 3225 0323 13       		.uleb128 0x13
 3226 0324 72706D00 		.ascii	"rpm\000"
 3227 0328 01       		.byte	0x1
 3228 0329 C3       		.byte	0xc3
 3229 032a C6000000 		.4byte	0xc6
 3230 032e 02       		.uleb128 0x2
 3231 032f 91       		.byte	0x91
 3232 0330 6A       		.sleb128 -22
 3233 0331 00       		.byte	0
 3234 0332 14       		.uleb128 0x14
 3235 0333 AA030000 		.4byte	.LASF65
 3236 0337 01       		.byte	0x1
 3237 0338 CB       		.byte	0xcb
 3238 0339 00000000 		.4byte	.LFB74
 3239 033d 48000000 		.4byte	.LFE74-.LFB74
 3240 0341 01       		.uleb128 0x1
 3241 0342 9C       		.byte	0x9c
 3242 0343 10       		.uleb128 0x10
 3243 0344 15000000 		.4byte	.LASF63
 3244 0348 01       		.byte	0x1
 3245 0349 DF       		.byte	0xdf
 3246 034a B9010000 		.4byte	0x1b9
 3247 034e 00000000 		.4byte	.LFB75
 3248 0352 84040000 		.4byte	.LFE75-.LFB75
 3249 0356 01       		.uleb128 0x1
 3250 0357 9C       		.byte	0x9c
 3251 0358 15       		.uleb128 0x15
 3252 0359 31020000 		.4byte	.LASF64
 3253 035d 01       		.byte	0x1
 3254 035e 7101     		.2byte	0x171
 3255 0360 B9010000 		.4byte	0x1b9
 3256 0364 00000000 		.4byte	.LFB76
 3257 0368 5C050000 		.4byte	.LFE76-.LFB76
 3258 036c 01       		.uleb128 0x1
 3259 036d 9C       		.byte	0x9c
 3260 036e 16       		.uleb128 0x16
 3261 036f 5A030000 		.4byte	.LASF66
 3262 0373 01       		.byte	0x1
 3263 0374 5D02     		.2byte	0x25d
 3264 0376 00000000 		.4byte	.LFB77
 3265 037a 88000000 		.4byte	.LFE77-.LFB77
 3266 037e 01       		.uleb128 0x1
 3267 037f 9C       		.byte	0x9c
 3268 0380 17       		.uleb128 0x17
 3269 0381 4E050000 		.4byte	.LASF67
 3270 0385 06       		.byte	0x6
 3271 0386 1207     		.2byte	0x712
 3272 0388 8C030000 		.4byte	0x38c
 3273 038c 18       		.uleb128 0x18
 3274 038d 8B000000 		.4byte	0x8b
 3275 0391 19       		.uleb128 0x19
 3276 0392 747300   		.ascii	"ts\000"
 3277 0395 05       		.byte	0x5
 3278 0396 10       		.byte	0x10
ARM GAS  C:\Users\ikui753\AppData\Local\Temp\ccTyn6zv.s 			page 71


 3279 0397 96000000 		.4byte	0x96
 3280 039b 05       		.uleb128 0x5
 3281 039c 03       		.byte	0x3
 3282 039d 00000000 		.4byte	ts
 3283 03a1 1A       		.uleb128 0x1a
 3284 03a2 22000000 		.4byte	.LASF68
 3285 03a6 05       		.byte	0x5
 3286 03a7 11       		.byte	0x11
 3287 03a8 A2000000 		.4byte	0xa2
 3288 03ac 05       		.uleb128 0x5
 3289 03ad 03       		.byte	0x3
 3290 03ae 00000000 		.4byte	ts_enc
 3291 03b2 1A       		.uleb128 0x1a
 3292 03b3 0E050000 		.4byte	.LASF69
 3293 03b7 05       		.byte	0x5
 3294 03b8 12       		.byte	0x12
 3295 03b9 A2000000 		.4byte	0xa2
 3296 03bd 05       		.uleb128 0x5
 3297 03be 03       		.byte	0x3
 3298 03bf 00000000 		.4byte	ts_update
 3299 03c3 1A       		.uleb128 0x1a
 3300 03c4 D1040000 		.4byte	.LASF70
 3301 03c8 05       		.byte	0x5
 3302 03c9 13       		.byte	0x13
 3303 03ca A2000000 		.4byte	0xa2
 3304 03ce 05       		.uleb128 0x5
 3305 03cf 03       		.byte	0x3
 3306 03d0 00000000 		.4byte	ts_speed
 3307 03d4 1A       		.uleb128 0x1a
 3308 03d5 03050000 		.4byte	.LASF71
 3309 03d9 05       		.byte	0x5
 3310 03da 14       		.byte	0x14
 3311 03db A2000000 		.4byte	0xa2
 3312 03df 05       		.uleb128 0x5
 3313 03e0 03       		.byte	0x3
 3314 03e1 00000000 		.4byte	ts_display
 3315 03e5 1A       		.uleb128 0x1a
 3316 03e6 E0040000 		.4byte	.LASF72
 3317 03ea 05       		.byte	0x5
 3318 03eb 16       		.byte	0x16
 3319 03ec 96000000 		.4byte	0x96
 3320 03f0 05       		.uleb128 0x5
 3321 03f1 03       		.byte	0x3
 3322 03f2 00000000 		.4byte	flag_ts_enc
 3323 03f6 1A       		.uleb128 0x1a
 3324 03f7 EC010000 		.4byte	.LASF73
 3325 03fb 05       		.byte	0x5
 3326 03fc 17       		.byte	0x17
 3327 03fd 96000000 		.4byte	0x96
 3328 0401 05       		.uleb128 0x5
 3329 0402 03       		.byte	0x3
 3330 0403 00000000 		.4byte	flag_ts_update
 3331 0407 1A       		.uleb128 0x1a
 3332 0408 52000000 		.4byte	.LASF74
 3333 040c 05       		.byte	0x5
 3334 040d 18       		.byte	0x18
 3335 040e 96000000 		.4byte	0x96
ARM GAS  C:\Users\ikui753\AppData\Local\Temp\ccTyn6zv.s 			page 72


 3336 0412 05       		.uleb128 0x5
 3337 0413 03       		.byte	0x3
 3338 0414 00000000 		.4byte	flag_ts_speed
 3339 0418 1A       		.uleb128 0x1a
 3340 0419 52020000 		.4byte	.LASF75
 3341 041d 05       		.byte	0x5
 3342 041e 19       		.byte	0x19
 3343 041f 96000000 		.4byte	0x96
 3344 0423 05       		.uleb128 0x5
 3345 0424 03       		.byte	0x3
 3346 0425 00000000 		.4byte	flag_ts_display
 3347 0429 1A       		.uleb128 0x1a
 3348 042a 62020000 		.4byte	.LASF76
 3349 042e 05       		.byte	0x5
 3350 042f 1B       		.byte	0x1b
 3351 0430 96000000 		.4byte	0x96
 3352 0434 05       		.uleb128 0x5
 3353 0435 03       		.byte	0x3
 3354 0436 00000000 		.4byte	flag_rx
 3355 043a 1A       		.uleb128 0x1a
 3356 043b 3A000000 		.4byte	.LASF77
 3357 043f 05       		.byte	0x5
 3358 0440 1C       		.byte	0x1c
 3359 0441 96000000 		.4byte	0x96
 3360 0445 05       		.uleb128 0x5
 3361 0446 03       		.byte	0x3
 3362 0447 00000000 		.4byte	flag_packet
 3363 044b 1A       		.uleb128 0x1a
 3364 044c 4B030000 		.4byte	.LASF78
 3365 0450 05       		.byte	0x5
 3366 0451 1D       		.byte	0x1d
 3367 0452 96000000 		.4byte	0x96
 3368 0456 05       		.uleb128 0x5
 3369 0457 03       		.byte	0x3
 3370 0458 00000000 		.4byte	flag_KB_string
 3371 045c 1A       		.uleb128 0x1a
 3372 045d E2020000 		.4byte	.LASF79
 3373 0461 05       		.byte	0x5
 3374 0462 1F       		.byte	0x1f
 3375 0463 96000000 		.4byte	0x96
 3376 0467 05       		.uleb128 0x5
 3377 0468 03       		.byte	0x3
 3378 0469 00000000 		.4byte	dataready_flag
 3379 046d 1A       		.uleb128 0x1a
 3380 046e 27050000 		.4byte	.LASF80
 3381 0472 05       		.byte	0x5
 3382 0473 21       		.byte	0x21
 3383 0474 96000000 		.4byte	0x96
 3384 0478 05       		.uleb128 0x5
 3385 0479 03       		.byte	0x3
 3386 047a 00000000 		.4byte	flag_rf_transmission_active
 3387 047e 1B       		.uleb128 0x1b
 3388 047f 84000000 		.4byte	0x84
 3389 0483 8E040000 		.4byte	0x48e
 3390 0487 1C       		.uleb128 0x1c
 3391 0488 7D000000 		.4byte	0x7d
 3392 048c 3F       		.byte	0x3f
ARM GAS  C:\Users\ikui753\AppData\Local\Temp\ccTyn6zv.s 			page 73


 3393 048d 00       		.byte	0
 3394 048e 1A       		.uleb128 0x1a
 3395 048f 52040000 		.4byte	.LASF81
 3396 0493 05       		.byte	0x5
 3397 0494 24       		.byte	0x24
 3398 0495 7E040000 		.4byte	0x47e
 3399 0499 05       		.uleb128 0x5
 3400 049a 03       		.byte	0x3
 3401 049b 00000000 		.4byte	displaystring
 3402 049f 1A       		.uleb128 0x1a
 3403 04a0 BC010000 		.4byte	.LASF82
 3404 04a4 05       		.byte	0x5
 3405 04a5 25       		.byte	0x25
 3406 04a6 7E040000 		.4byte	0x47e
 3407 04aa 05       		.uleb128 0x5
 3408 04ab 03       		.byte	0x3
 3409 04ac 00000000 		.4byte	line
 3410 04b0 1A       		.uleb128 0x1a
 3411 04b1 8A020000 		.4byte	.LASF83
 3412 04b5 05       		.byte	0x5
 3413 04b6 25       		.byte	0x25
 3414 04b7 7E040000 		.4byte	0x47e
 3415 04bb 05       		.uleb128 0x5
 3416 04bc 03       		.byte	0x3
 3417 04bd 00000000 		.4byte	entry
 3418 04c1 1B       		.uleb128 0x1b
 3419 04c2 96000000 		.4byte	0x96
 3420 04c6 D1040000 		.4byte	0x4d1
 3421 04ca 1C       		.uleb128 0x1c
 3422 04cb 7D000000 		.4byte	0x7d
 3423 04cf 3F       		.byte	0x3f
 3424 04d0 00       		.byte	0
 3425 04d1 1A       		.uleb128 0x1a
 3426 04d2 A2000000 		.4byte	.LASF84
 3427 04d6 05       		.byte	0x5
 3428 04d7 26       		.byte	0x26
 3429 04d8 C1040000 		.4byte	0x4c1
 3430 04dc 05       		.uleb128 0x5
 3431 04dd 03       		.byte	0x3
 3432 04de 00000000 		.4byte	usbBuffer
 3433 04e2 1A       		.uleb128 0x1a
 3434 04e3 72000000 		.4byte	.LASF85
 3435 04e7 05       		.byte	0x5
 3436 04e8 3C       		.byte	0x3c
 3437 04e9 E0000000 		.4byte	0xe0
 3438 04ed 05       		.uleb128 0x5
 3439 04ee 03       		.byte	0x3
 3440 04ef 00000000 		.4byte	system_state
 3441 04f3 1B       		.uleb128 0x1b
 3442 04f4 68000000 		.4byte	0x68
 3443 04f8 09050000 		.4byte	0x509
 3444 04fc 1C       		.uleb128 0x1c
 3445 04fd 7D000000 		.4byte	0x7d
 3446 0501 0E       		.byte	0xe
 3447 0502 1C       		.uleb128 0x1c
 3448 0503 7D000000 		.4byte	0x7d
 3449 0507 12       		.byte	0x12
ARM GAS  C:\Users\ikui753\AppData\Local\Temp\ccTyn6zv.s 			page 74


 3450 0508 00       		.byte	0
 3451 0509 19       		.uleb128 0x19
 3452 050a 6D617000 		.ascii	"map\000"
 3453 050e 07       		.byte	0x7
 3454 050f 14       		.byte	0x14
 3455 0510 F3040000 		.4byte	0x4f3
 3456 0514 05       		.uleb128 0x5
 3457 0515 03       		.byte	0x3
 3458 0516 00000000 		.4byte	map
 3459 051a 1B       		.uleb128 0x1b
 3460 051b 68000000 		.4byte	0x68
 3461 051f 30050000 		.4byte	0x530
 3462 0523 1C       		.uleb128 0x1c
 3463 0524 7D000000 		.4byte	0x7d
 3464 0528 04       		.byte	0x4
 3465 0529 1C       		.uleb128 0x1c
 3466 052a 7D000000 		.4byte	0x7d
 3467 052e 01       		.byte	0x1
 3468 052f 00       		.byte	0
 3469 0530 1A       		.uleb128 0x1a
 3470 0531 BB040000 		.4byte	.LASF86
 3471 0535 07       		.byte	0x7
 3472 0536 26       		.byte	0x26
 3473 0537 1A050000 		.4byte	0x51a
 3474 053b 05       		.uleb128 0x5
 3475 053c 03       		.byte	0x3
 3476 053d 00000000 		.4byte	food_list
 3477 0541 1A       		.uleb128 0x1a
 3478 0542 84050000 		.4byte	.LASF87
 3479 0546 01       		.byte	0x1
 3480 0547 2B       		.byte	0x2b
 3481 0548 B9010000 		.4byte	0x1b9
 3482 054c 05       		.uleb128 0x5
 3483 054d 03       		.byte	0x3
 3484 054e 00000000 		.4byte	directionState
 3485 0552 1A       		.uleb128 0x1a
 3486 0553 73050000 		.4byte	.LASF88
 3487 0557 01       		.byte	0x1
 3488 0558 2D       		.byte	0x2d
 3489 0559 B9010000 		.4byte	0x1b9
 3490 055d 05       		.uleb128 0x5
 3491 055e 03       		.byte	0x3
 3492 055f 00000000 		.4byte	currentDirection
 3493 0563 1A       		.uleb128 0x1a
 3494 0564 AF020000 		.4byte	.LASF89
 3495 0568 01       		.byte	0x1
 3496 0569 2E       		.byte	0x2e
 3497 056a B9010000 		.4byte	0x1b9
 3498 056e 05       		.uleb128 0x5
 3499 056f 03       		.byte	0x3
 3500 0570 00000000 		.4byte	previousDirection
 3501 0574 1A       		.uleb128 0x1a
 3502 0575 5B050000 		.4byte	.LASF90
 3503 0579 01       		.byte	0x1
 3504 057a 2F       		.byte	0x2f
 3505 057b 0C020000 		.4byte	0x20c
 3506 057f 05       		.uleb128 0x5
ARM GAS  C:\Users\ikui753\AppData\Local\Temp\ccTyn6zv.s 			page 75


 3507 0580 03       		.byte	0x3
 3508 0581 00000000 		.4byte	currentOrientation
 3509 0585 1A       		.uleb128 0x1a
 3510 0586 18020000 		.4byte	.LASF91
 3511 058a 01       		.byte	0x1
 3512 058b 30       		.byte	0x30
 3513 058c 0C020000 		.4byte	0x20c
 3514 0590 05       		.uleb128 0x5
 3515 0591 03       		.byte	0x3
 3516 0592 00000000 		.4byte	previousOrientation
 3517 0596 19       		.uleb128 0x19
 3518 0597 733100   		.ascii	"s1\000"
 3519 059a 01       		.byte	0x1
 3520 059b 32       		.byte	0x32
 3521 059c 96000000 		.4byte	0x96
 3522 05a0 05       		.uleb128 0x5
 3523 05a1 03       		.byte	0x3
 3524 05a2 00000000 		.4byte	s1
 3525 05a6 19       		.uleb128 0x19
 3526 05a7 733200   		.ascii	"s2\000"
 3527 05aa 01       		.byte	0x1
 3528 05ab 32       		.byte	0x32
 3529 05ac 96000000 		.4byte	0x96
 3530 05b0 05       		.uleb128 0x5
 3531 05b1 03       		.byte	0x3
 3532 05b2 00000000 		.4byte	s2
 3533 05b6 19       		.uleb128 0x19
 3534 05b7 733300   		.ascii	"s3\000"
 3535 05ba 01       		.byte	0x1
 3536 05bb 32       		.byte	0x32
 3537 05bc 96000000 		.4byte	0x96
 3538 05c0 05       		.uleb128 0x5
 3539 05c1 03       		.byte	0x3
 3540 05c2 00000000 		.4byte	s3
 3541 05c6 19       		.uleb128 0x19
 3542 05c7 733400   		.ascii	"s4\000"
 3543 05ca 01       		.byte	0x1
 3544 05cb 32       		.byte	0x32
 3545 05cc 96000000 		.4byte	0x96
 3546 05d0 05       		.uleb128 0x5
 3547 05d1 03       		.byte	0x3
 3548 05d2 00000000 		.4byte	s4
 3549 05d6 19       		.uleb128 0x19
 3550 05d7 733500   		.ascii	"s5\000"
 3551 05da 01       		.byte	0x1
 3552 05db 32       		.byte	0x32
 3553 05dc 96000000 		.4byte	0x96
 3554 05e0 05       		.uleb128 0x5
 3555 05e1 03       		.byte	0x3
 3556 05e2 00000000 		.4byte	s5
 3557 05e6 19       		.uleb128 0x19
 3558 05e7 733600   		.ascii	"s6\000"
 3559 05ea 01       		.byte	0x1
 3560 05eb 32       		.byte	0x32
 3561 05ec 96000000 		.4byte	0x96
 3562 05f0 05       		.uleb128 0x5
 3563 05f1 03       		.byte	0x3
ARM GAS  C:\Users\ikui753\AppData\Local\Temp\ccTyn6zv.s 			page 76


 3564 05f2 00000000 		.4byte	s6
 3565 05f6 1A       		.uleb128 0x1a
 3566 05f7 78020000 		.4byte	.LASF92
 3567 05fb 01       		.byte	0x1
 3568 05fc 34       		.byte	0x34
 3569 05fd AE000000 		.4byte	0xae
 3570 0601 05       		.uleb128 0x5
 3571 0602 03       		.byte	0x3
 3572 0603 00000000 		.4byte	totalMilliseconds
 3573 0607 1A       		.uleb128 0x1a
 3574 0608 C1020000 		.4byte	.LASF93
 3575 060c 01       		.byte	0x1
 3576 060d 35       		.byte	0x35
 3577 060e D2000000 		.4byte	0xd2
 3578 0612 05       		.uleb128 0x5
 3579 0613 03       		.byte	0x3
 3580 0614 00000000 		.4byte	totalDistance
 3581 0618 1B       		.uleb128 0x1b
 3582 0619 84000000 		.4byte	0x84
 3583 061d 28060000 		.4byte	0x628
 3584 0621 1C       		.uleb128 0x1c
 3585 0622 7D000000 		.4byte	0x7d
 3586 0626 44       		.byte	0x44
 3587 0627 00       		.byte	0
 3588 0628 1A       		.uleb128 0x1a
 3589 0629 7C040000 		.4byte	.LASF94
 3590 062d 01       		.byte	0x1
 3591 062e 37       		.byte	0x37
 3592 062f 18060000 		.4byte	0x618
 3593 0633 05       		.uleb128 0x5
 3594 0634 03       		.byte	0x3
 3595 0635 00000000 		.4byte	buffer
 3596 0639 1A       		.uleb128 0x1a
 3597 063a 22040000 		.4byte	.LASF95
 3598 063e 01       		.byte	0x1
 3599 063f 38       		.byte	0x38
 3600 0640 68000000 		.4byte	0x68
 3601 0644 05       		.uleb128 0x5
 3602 0645 03       		.byte	0x3
 3603 0646 00000000 		.4byte	quadDec2Count
 3604 064a 1A       		.uleb128 0x1a
 3605 064b 42030000 		.4byte	.LASF96
 3606 064f 01       		.byte	0x1
 3607 0650 39       		.byte	0x39
 3608 0651 68000000 		.4byte	0x68
 3609 0655 05       		.uleb128 0x5
 3610 0656 03       		.byte	0x3
 3611 0657 00000000 		.4byte	timerInt
 3612 065b 1A       		.uleb128 0x1a
 3613 065c CF020000 		.4byte	.LASF97
 3614 0660 01       		.byte	0x1
 3615 0661 3A       		.byte	0x3a
 3616 0662 68000000 		.4byte	0x68
 3617 0666 05       		.uleb128 0x5
 3618 0667 03       		.byte	0x3
 3619 0668 00000000 		.4byte	keepLedOn
 3620 066c 1A       		.uleb128 0x1a
ARM GAS  C:\Users\ikui753\AppData\Local\Temp\ccTyn6zv.s 			page 77


 3621 066d 88000000 		.4byte	.LASF98
 3622 0671 01       		.byte	0x1
 3623 0672 3B       		.byte	0x3b
 3624 0673 AE000000 		.4byte	0xae
 3625 0677 05       		.uleb128 0x5
 3626 0678 03       		.byte	0x3
 3627 0679 00000000 		.4byte	stopBuffer
 3628 067d 1A       		.uleb128 0x1a
 3629 067e 7B010000 		.4byte	.LASF99
 3630 0682 01       		.byte	0x1
 3631 0683 D9       		.byte	0xd9
 3632 0684 D2000000 		.4byte	0xd2
 3633 0688 05       		.uleb128 0x5
 3634 0689 03       		.byte	0x3
 3635 068a 00000000 		.4byte	yBlockSize
 3636 068e 1A       		.uleb128 0x1a
 3637 068f 49010000 		.4byte	.LASF100
 3638 0693 01       		.byte	0x1
 3639 0694 DA       		.byte	0xda
 3640 0695 D2000000 		.4byte	0xd2
 3641 0699 05       		.uleb128 0x5
 3642 069a 03       		.byte	0x3
 3643 069b 00000000 		.4byte	xBlockSize
 3644 069f 1A       		.uleb128 0x1a
 3645 06a0 3A010000 		.4byte	.LASF101
 3646 06a4 01       		.byte	0x1
 3647 06a5 DB       		.byte	0xdb
 3648 06a6 D2000000 		.4byte	0xd2
 3649 06aa 05       		.uleb128 0x5
 3650 06ab 03       		.byte	0x3
 3651 06ac 00000000 		.4byte	blockSize
 3652 06b0 1A       		.uleb128 0x1a
 3653 06b1 70010000 		.4byte	.LASF102
 3654 06b5 01       		.byte	0x1
 3655 06b6 DC       		.byte	0xdc
 3656 06b7 96000000 		.4byte	0x96
 3657 06bb 05       		.uleb128 0x5
 3658 06bc 03       		.byte	0x3
 3659 06bd 00000000 		.4byte	currentRow
 3660 06c1 1A       		.uleb128 0x1a
 3661 06c2 A4020000 		.4byte	.LASF103
 3662 06c6 01       		.byte	0x1
 3663 06c7 DD       		.byte	0xdd
 3664 06c8 96000000 		.4byte	0x96
 3665 06cc 05       		.uleb128 0x5
 3666 06cd 03       		.byte	0x3
 3667 06ce 00000000 		.4byte	currentCol
 3668 06d2 00       		.byte	0
 3669              		.section	.debug_abbrev,"",%progbits
 3670              	.Ldebug_abbrev0:
 3671 0000 01       		.uleb128 0x1
 3672 0001 11       		.uleb128 0x11
 3673 0002 01       		.byte	0x1
 3674 0003 25       		.uleb128 0x25
 3675 0004 0E       		.uleb128 0xe
 3676 0005 13       		.uleb128 0x13
 3677 0006 0B       		.uleb128 0xb
ARM GAS  C:\Users\ikui753\AppData\Local\Temp\ccTyn6zv.s 			page 78


 3678 0007 03       		.uleb128 0x3
 3679 0008 0E       		.uleb128 0xe
 3680 0009 1B       		.uleb128 0x1b
 3681 000a 0E       		.uleb128 0xe
 3682 000b 55       		.uleb128 0x55
 3683 000c 17       		.uleb128 0x17
 3684 000d 11       		.uleb128 0x11
 3685 000e 01       		.uleb128 0x1
 3686 000f 10       		.uleb128 0x10
 3687 0010 17       		.uleb128 0x17
 3688 0011 00       		.byte	0
 3689 0012 00       		.byte	0
 3690 0013 02       		.uleb128 0x2
 3691 0014 24       		.uleb128 0x24
 3692 0015 00       		.byte	0
 3693 0016 0B       		.uleb128 0xb
 3694 0017 0B       		.uleb128 0xb
 3695 0018 3E       		.uleb128 0x3e
 3696 0019 0B       		.uleb128 0xb
 3697 001a 03       		.uleb128 0x3
 3698 001b 0E       		.uleb128 0xe
 3699 001c 00       		.byte	0
 3700 001d 00       		.byte	0
 3701 001e 03       		.uleb128 0x3
 3702 001f 16       		.uleb128 0x16
 3703 0020 00       		.byte	0
 3704 0021 03       		.uleb128 0x3
 3705 0022 0E       		.uleb128 0xe
 3706 0023 3A       		.uleb128 0x3a
 3707 0024 0B       		.uleb128 0xb
 3708 0025 3B       		.uleb128 0x3b
 3709 0026 0B       		.uleb128 0xb
 3710 0027 49       		.uleb128 0x49
 3711 0028 13       		.uleb128 0x13
 3712 0029 00       		.byte	0
 3713 002a 00       		.byte	0
 3714 002b 04       		.uleb128 0x4
 3715 002c 24       		.uleb128 0x24
 3716 002d 00       		.byte	0
 3717 002e 0B       		.uleb128 0xb
 3718 002f 0B       		.uleb128 0xb
 3719 0030 3E       		.uleb128 0x3e
 3720 0031 0B       		.uleb128 0xb
 3721 0032 03       		.uleb128 0x3
 3722 0033 08       		.uleb128 0x8
 3723 0034 00       		.byte	0
 3724 0035 00       		.byte	0
 3725 0036 05       		.uleb128 0x5
 3726 0037 16       		.uleb128 0x16
 3727 0038 00       		.byte	0
 3728 0039 03       		.uleb128 0x3
 3729 003a 0E       		.uleb128 0xe
 3730 003b 3A       		.uleb128 0x3a
 3731 003c 0B       		.uleb128 0xb
 3732 003d 3B       		.uleb128 0x3b
 3733 003e 05       		.uleb128 0x5
 3734 003f 49       		.uleb128 0x49
ARM GAS  C:\Users\ikui753\AppData\Local\Temp\ccTyn6zv.s 			page 79


 3735 0040 13       		.uleb128 0x13
 3736 0041 00       		.byte	0
 3737 0042 00       		.byte	0
 3738 0043 06       		.uleb128 0x6
 3739 0044 13       		.uleb128 0x13
 3740 0045 01       		.byte	0x1
 3741 0046 03       		.uleb128 0x3
 3742 0047 0E       		.uleb128 0xe
 3743 0048 0B       		.uleb128 0xb
 3744 0049 0B       		.uleb128 0xb
 3745 004a 3A       		.uleb128 0x3a
 3746 004b 0B       		.uleb128 0xb
 3747 004c 3B       		.uleb128 0x3b
 3748 004d 0B       		.uleb128 0xb
 3749 004e 01       		.uleb128 0x1
 3750 004f 13       		.uleb128 0x13
 3751 0050 00       		.byte	0
 3752 0051 00       		.byte	0
 3753 0052 07       		.uleb128 0x7
 3754 0053 0D       		.uleb128 0xd
 3755 0054 00       		.byte	0
 3756 0055 03       		.uleb128 0x3
 3757 0056 0E       		.uleb128 0xe
 3758 0057 3A       		.uleb128 0x3a
 3759 0058 0B       		.uleb128 0xb
 3760 0059 3B       		.uleb128 0x3b
 3761 005a 0B       		.uleb128 0xb
 3762 005b 49       		.uleb128 0x49
 3763 005c 13       		.uleb128 0x13
 3764 005d 38       		.uleb128 0x38
 3765 005e 0B       		.uleb128 0xb
 3766 005f 00       		.byte	0
 3767 0060 00       		.byte	0
 3768 0061 08       		.uleb128 0x8
 3769 0062 04       		.uleb128 0x4
 3770 0063 01       		.byte	0x1
 3771 0064 03       		.uleb128 0x3
 3772 0065 0E       		.uleb128 0xe
 3773 0066 0B       		.uleb128 0xb
 3774 0067 0B       		.uleb128 0xb
 3775 0068 49       		.uleb128 0x49
 3776 0069 13       		.uleb128 0x13
 3777 006a 3A       		.uleb128 0x3a
 3778 006b 0B       		.uleb128 0xb
 3779 006c 3B       		.uleb128 0x3b
 3780 006d 0B       		.uleb128 0xb
 3781 006e 01       		.uleb128 0x1
 3782 006f 13       		.uleb128 0x13
 3783 0070 00       		.byte	0
 3784 0071 00       		.byte	0
 3785 0072 09       		.uleb128 0x9
 3786 0073 28       		.uleb128 0x28
 3787 0074 00       		.byte	0
 3788 0075 03       		.uleb128 0x3
 3789 0076 0E       		.uleb128 0xe
 3790 0077 1C       		.uleb128 0x1c
 3791 0078 0B       		.uleb128 0xb
ARM GAS  C:\Users\ikui753\AppData\Local\Temp\ccTyn6zv.s 			page 80


 3792 0079 00       		.byte	0
 3793 007a 00       		.byte	0
 3794 007b 0A       		.uleb128 0xa
 3795 007c 28       		.uleb128 0x28
 3796 007d 00       		.byte	0
 3797 007e 03       		.uleb128 0x3
 3798 007f 08       		.uleb128 0x8
 3799 0080 1C       		.uleb128 0x1c
 3800 0081 0B       		.uleb128 0xb
 3801 0082 00       		.byte	0
 3802 0083 00       		.byte	0
 3803 0084 0B       		.uleb128 0xb
 3804 0085 2E       		.uleb128 0x2e
 3805 0086 01       		.byte	0x1
 3806 0087 3F       		.uleb128 0x3f
 3807 0088 19       		.uleb128 0x19
 3808 0089 03       		.uleb128 0x3
 3809 008a 0E       		.uleb128 0xe
 3810 008b 3A       		.uleb128 0x3a
 3811 008c 0B       		.uleb128 0xb
 3812 008d 3B       		.uleb128 0x3b
 3813 008e 0B       		.uleb128 0xb
 3814 008f 27       		.uleb128 0x27
 3815 0090 19       		.uleb128 0x19
 3816 0091 11       		.uleb128 0x11
 3817 0092 01       		.uleb128 0x1
 3818 0093 12       		.uleb128 0x12
 3819 0094 06       		.uleb128 0x6
 3820 0095 40       		.uleb128 0x40
 3821 0096 18       		.uleb128 0x18
 3822 0097 9642     		.uleb128 0x2116
 3823 0099 19       		.uleb128 0x19
 3824 009a 01       		.uleb128 0x1
 3825 009b 13       		.uleb128 0x13
 3826 009c 00       		.byte	0
 3827 009d 00       		.byte	0
 3828 009e 0C       		.uleb128 0xc
 3829 009f 0B       		.uleb128 0xb
 3830 00a0 01       		.byte	0x1
 3831 00a1 11       		.uleb128 0x11
 3832 00a2 01       		.uleb128 0x1
 3833 00a3 12       		.uleb128 0x12
 3834 00a4 06       		.uleb128 0x6
 3835 00a5 00       		.byte	0
 3836 00a6 00       		.byte	0
 3837 00a7 0D       		.uleb128 0xd
 3838 00a8 34       		.uleb128 0x34
 3839 00a9 00       		.byte	0
 3840 00aa 03       		.uleb128 0x3
 3841 00ab 0E       		.uleb128 0xe
 3842 00ac 3A       		.uleb128 0x3a
 3843 00ad 0B       		.uleb128 0xb
 3844 00ae 3B       		.uleb128 0x3b
 3845 00af 0B       		.uleb128 0xb
 3846 00b0 49       		.uleb128 0x49
 3847 00b1 13       		.uleb128 0x13
 3848 00b2 02       		.uleb128 0x2
ARM GAS  C:\Users\ikui753\AppData\Local\Temp\ccTyn6zv.s 			page 81


 3849 00b3 18       		.uleb128 0x18
 3850 00b4 00       		.byte	0
 3851 00b5 00       		.byte	0
 3852 00b6 0E       		.uleb128 0xe
 3853 00b7 2E       		.uleb128 0x2e
 3854 00b8 00       		.byte	0
 3855 00b9 3F       		.uleb128 0x3f
 3856 00ba 19       		.uleb128 0x19
 3857 00bb 03       		.uleb128 0x3
 3858 00bc 0E       		.uleb128 0xe
 3859 00bd 3A       		.uleb128 0x3a
 3860 00be 0B       		.uleb128 0xb
 3861 00bf 3B       		.uleb128 0x3b
 3862 00c0 0B       		.uleb128 0xb
 3863 00c1 27       		.uleb128 0x27
 3864 00c2 19       		.uleb128 0x19
 3865 00c3 11       		.uleb128 0x11
 3866 00c4 01       		.uleb128 0x1
 3867 00c5 12       		.uleb128 0x12
 3868 00c6 06       		.uleb128 0x6
 3869 00c7 40       		.uleb128 0x40
 3870 00c8 18       		.uleb128 0x18
 3871 00c9 9742     		.uleb128 0x2117
 3872 00cb 19       		.uleb128 0x19
 3873 00cc 00       		.byte	0
 3874 00cd 00       		.byte	0
 3875 00ce 0F       		.uleb128 0xf
 3876 00cf 2E       		.uleb128 0x2e
 3877 00d0 00       		.byte	0
 3878 00d1 3F       		.uleb128 0x3f
 3879 00d2 19       		.uleb128 0x19
 3880 00d3 03       		.uleb128 0x3
 3881 00d4 0E       		.uleb128 0xe
 3882 00d5 3A       		.uleb128 0x3a
 3883 00d6 0B       		.uleb128 0xb
 3884 00d7 3B       		.uleb128 0x3b
 3885 00d8 0B       		.uleb128 0xb
 3886 00d9 27       		.uleb128 0x27
 3887 00da 19       		.uleb128 0x19
 3888 00db 11       		.uleb128 0x11
 3889 00dc 01       		.uleb128 0x1
 3890 00dd 12       		.uleb128 0x12
 3891 00de 06       		.uleb128 0x6
 3892 00df 40       		.uleb128 0x40
 3893 00e0 18       		.uleb128 0x18
 3894 00e1 9642     		.uleb128 0x2116
 3895 00e3 19       		.uleb128 0x19
 3896 00e4 00       		.byte	0
 3897 00e5 00       		.byte	0
 3898 00e6 10       		.uleb128 0x10
 3899 00e7 2E       		.uleb128 0x2e
 3900 00e8 00       		.byte	0
 3901 00e9 3F       		.uleb128 0x3f
 3902 00ea 19       		.uleb128 0x19
 3903 00eb 03       		.uleb128 0x3
 3904 00ec 0E       		.uleb128 0xe
 3905 00ed 3A       		.uleb128 0x3a
ARM GAS  C:\Users\ikui753\AppData\Local\Temp\ccTyn6zv.s 			page 82


 3906 00ee 0B       		.uleb128 0xb
 3907 00ef 3B       		.uleb128 0x3b
 3908 00f0 0B       		.uleb128 0xb
 3909 00f1 49       		.uleb128 0x49
 3910 00f2 13       		.uleb128 0x13
 3911 00f3 11       		.uleb128 0x11
 3912 00f4 01       		.uleb128 0x1
 3913 00f5 12       		.uleb128 0x12
 3914 00f6 06       		.uleb128 0x6
 3915 00f7 40       		.uleb128 0x40
 3916 00f8 18       		.uleb128 0x18
 3917 00f9 9642     		.uleb128 0x2116
 3918 00fb 19       		.uleb128 0x19
 3919 00fc 00       		.byte	0
 3920 00fd 00       		.byte	0
 3921 00fe 11       		.uleb128 0x11
 3922 00ff 2E       		.uleb128 0x2e
 3923 0100 01       		.byte	0x1
 3924 0101 3F       		.uleb128 0x3f
 3925 0102 19       		.uleb128 0x19
 3926 0103 03       		.uleb128 0x3
 3927 0104 0E       		.uleb128 0xe
 3928 0105 3A       		.uleb128 0x3a
 3929 0106 0B       		.uleb128 0xb
 3930 0107 3B       		.uleb128 0x3b
 3931 0108 0B       		.uleb128 0xb
 3932 0109 27       		.uleb128 0x27
 3933 010a 19       		.uleb128 0x19
 3934 010b 49       		.uleb128 0x49
 3935 010c 13       		.uleb128 0x13
 3936 010d 11       		.uleb128 0x11
 3937 010e 01       		.uleb128 0x1
 3938 010f 12       		.uleb128 0x12
 3939 0110 06       		.uleb128 0x6
 3940 0111 40       		.uleb128 0x40
 3941 0112 18       		.uleb128 0x18
 3942 0113 9642     		.uleb128 0x2116
 3943 0115 19       		.uleb128 0x19
 3944 0116 01       		.uleb128 0x1
 3945 0117 13       		.uleb128 0x13
 3946 0118 00       		.byte	0
 3947 0119 00       		.byte	0
 3948 011a 12       		.uleb128 0x12
 3949 011b 05       		.uleb128 0x5
 3950 011c 00       		.byte	0
 3951 011d 03       		.uleb128 0x3
 3952 011e 0E       		.uleb128 0xe
 3953 011f 3A       		.uleb128 0x3a
 3954 0120 0B       		.uleb128 0xb
 3955 0121 3B       		.uleb128 0x3b
 3956 0122 0B       		.uleb128 0xb
 3957 0123 49       		.uleb128 0x49
 3958 0124 13       		.uleb128 0x13
 3959 0125 02       		.uleb128 0x2
 3960 0126 18       		.uleb128 0x18
 3961 0127 00       		.byte	0
 3962 0128 00       		.byte	0
ARM GAS  C:\Users\ikui753\AppData\Local\Temp\ccTyn6zv.s 			page 83


 3963 0129 13       		.uleb128 0x13
 3964 012a 34       		.uleb128 0x34
 3965 012b 00       		.byte	0
 3966 012c 03       		.uleb128 0x3
 3967 012d 08       		.uleb128 0x8
 3968 012e 3A       		.uleb128 0x3a
 3969 012f 0B       		.uleb128 0xb
 3970 0130 3B       		.uleb128 0x3b
 3971 0131 0B       		.uleb128 0xb
 3972 0132 49       		.uleb128 0x49
 3973 0133 13       		.uleb128 0x13
 3974 0134 02       		.uleb128 0x2
 3975 0135 18       		.uleb128 0x18
 3976 0136 00       		.byte	0
 3977 0137 00       		.byte	0
 3978 0138 14       		.uleb128 0x14
 3979 0139 2E       		.uleb128 0x2e
 3980 013a 00       		.byte	0
 3981 013b 3F       		.uleb128 0x3f
 3982 013c 19       		.uleb128 0x19
 3983 013d 03       		.uleb128 0x3
 3984 013e 0E       		.uleb128 0xe
 3985 013f 3A       		.uleb128 0x3a
 3986 0140 0B       		.uleb128 0xb
 3987 0141 3B       		.uleb128 0x3b
 3988 0142 0B       		.uleb128 0xb
 3989 0143 11       		.uleb128 0x11
 3990 0144 01       		.uleb128 0x1
 3991 0145 12       		.uleb128 0x12
 3992 0146 06       		.uleb128 0x6
 3993 0147 40       		.uleb128 0x40
 3994 0148 18       		.uleb128 0x18
 3995 0149 9742     		.uleb128 0x2117
 3996 014b 19       		.uleb128 0x19
 3997 014c 00       		.byte	0
 3998 014d 00       		.byte	0
 3999 014e 15       		.uleb128 0x15
 4000 014f 2E       		.uleb128 0x2e
 4001 0150 00       		.byte	0
 4002 0151 3F       		.uleb128 0x3f
 4003 0152 19       		.uleb128 0x19
 4004 0153 03       		.uleb128 0x3
 4005 0154 0E       		.uleb128 0xe
 4006 0155 3A       		.uleb128 0x3a
 4007 0156 0B       		.uleb128 0xb
 4008 0157 3B       		.uleb128 0x3b
 4009 0158 05       		.uleb128 0x5
 4010 0159 49       		.uleb128 0x49
 4011 015a 13       		.uleb128 0x13
 4012 015b 11       		.uleb128 0x11
 4013 015c 01       		.uleb128 0x1
 4014 015d 12       		.uleb128 0x12
 4015 015e 06       		.uleb128 0x6
 4016 015f 40       		.uleb128 0x40
 4017 0160 18       		.uleb128 0x18
 4018 0161 9642     		.uleb128 0x2116
 4019 0163 19       		.uleb128 0x19
ARM GAS  C:\Users\ikui753\AppData\Local\Temp\ccTyn6zv.s 			page 84


 4020 0164 00       		.byte	0
 4021 0165 00       		.byte	0
 4022 0166 16       		.uleb128 0x16
 4023 0167 2E       		.uleb128 0x2e
 4024 0168 00       		.byte	0
 4025 0169 3F       		.uleb128 0x3f
 4026 016a 19       		.uleb128 0x19
 4027 016b 03       		.uleb128 0x3
 4028 016c 0E       		.uleb128 0xe
 4029 016d 3A       		.uleb128 0x3a
 4030 016e 0B       		.uleb128 0xb
 4031 016f 3B       		.uleb128 0x3b
 4032 0170 05       		.uleb128 0x5
 4033 0171 11       		.uleb128 0x11
 4034 0172 01       		.uleb128 0x1
 4035 0173 12       		.uleb128 0x12
 4036 0174 06       		.uleb128 0x6
 4037 0175 40       		.uleb128 0x40
 4038 0176 18       		.uleb128 0x18
 4039 0177 9642     		.uleb128 0x2116
 4040 0179 19       		.uleb128 0x19
 4041 017a 00       		.byte	0
 4042 017b 00       		.byte	0
 4043 017c 17       		.uleb128 0x17
 4044 017d 34       		.uleb128 0x34
 4045 017e 00       		.byte	0
 4046 017f 03       		.uleb128 0x3
 4047 0180 0E       		.uleb128 0xe
 4048 0181 3A       		.uleb128 0x3a
 4049 0182 0B       		.uleb128 0xb
 4050 0183 3B       		.uleb128 0x3b
 4051 0184 05       		.uleb128 0x5
 4052 0185 49       		.uleb128 0x49
 4053 0186 13       		.uleb128 0x13
 4054 0187 3F       		.uleb128 0x3f
 4055 0188 19       		.uleb128 0x19
 4056 0189 3C       		.uleb128 0x3c
 4057 018a 19       		.uleb128 0x19
 4058 018b 00       		.byte	0
 4059 018c 00       		.byte	0
 4060 018d 18       		.uleb128 0x18
 4061 018e 35       		.uleb128 0x35
 4062 018f 00       		.byte	0
 4063 0190 49       		.uleb128 0x49
 4064 0191 13       		.uleb128 0x13
 4065 0192 00       		.byte	0
 4066 0193 00       		.byte	0
 4067 0194 19       		.uleb128 0x19
 4068 0195 34       		.uleb128 0x34
 4069 0196 00       		.byte	0
 4070 0197 03       		.uleb128 0x3
 4071 0198 08       		.uleb128 0x8
 4072 0199 3A       		.uleb128 0x3a
 4073 019a 0B       		.uleb128 0xb
 4074 019b 3B       		.uleb128 0x3b
 4075 019c 0B       		.uleb128 0xb
 4076 019d 49       		.uleb128 0x49
ARM GAS  C:\Users\ikui753\AppData\Local\Temp\ccTyn6zv.s 			page 85


 4077 019e 13       		.uleb128 0x13
 4078 019f 3F       		.uleb128 0x3f
 4079 01a0 19       		.uleb128 0x19
 4080 01a1 02       		.uleb128 0x2
 4081 01a2 18       		.uleb128 0x18
 4082 01a3 00       		.byte	0
 4083 01a4 00       		.byte	0
 4084 01a5 1A       		.uleb128 0x1a
 4085 01a6 34       		.uleb128 0x34
 4086 01a7 00       		.byte	0
 4087 01a8 03       		.uleb128 0x3
 4088 01a9 0E       		.uleb128 0xe
 4089 01aa 3A       		.uleb128 0x3a
 4090 01ab 0B       		.uleb128 0xb
 4091 01ac 3B       		.uleb128 0x3b
 4092 01ad 0B       		.uleb128 0xb
 4093 01ae 49       		.uleb128 0x49
 4094 01af 13       		.uleb128 0x13
 4095 01b0 3F       		.uleb128 0x3f
 4096 01b1 19       		.uleb128 0x19
 4097 01b2 02       		.uleb128 0x2
 4098 01b3 18       		.uleb128 0x18
 4099 01b4 00       		.byte	0
 4100 01b5 00       		.byte	0
 4101 01b6 1B       		.uleb128 0x1b
 4102 01b7 01       		.uleb128 0x1
 4103 01b8 01       		.byte	0x1
 4104 01b9 49       		.uleb128 0x49
 4105 01ba 13       		.uleb128 0x13
 4106 01bb 01       		.uleb128 0x1
 4107 01bc 13       		.uleb128 0x13
 4108 01bd 00       		.byte	0
 4109 01be 00       		.byte	0
 4110 01bf 1C       		.uleb128 0x1c
 4111 01c0 21       		.uleb128 0x21
 4112 01c1 00       		.byte	0
 4113 01c2 49       		.uleb128 0x49
 4114 01c3 13       		.uleb128 0x13
 4115 01c4 2F       		.uleb128 0x2f
 4116 01c5 0B       		.uleb128 0xb
 4117 01c6 00       		.byte	0
 4118 01c7 00       		.byte	0
 4119 01c8 00       		.byte	0
 4120              		.section	.debug_aranges,"",%progbits
 4121 0000 84000000 		.4byte	0x84
 4122 0004 0200     		.2byte	0x2
 4123 0006 00000000 		.4byte	.Ldebug_info0
 4124 000a 04       		.byte	0x4
 4125 000b 00       		.byte	0
 4126 000c 0000     		.2byte	0
 4127 000e 0000     		.2byte	0
 4128 0010 00000000 		.4byte	.LFB64
 4129 0014 EC000000 		.4byte	.LFE64-.LFB64
 4130 0018 00000000 		.4byte	.LFB65
 4131 001c 18000000 		.4byte	.LFE65-.LFB65
 4132 0020 00000000 		.4byte	.LFB66
 4133 0024 18000000 		.4byte	.LFE66-.LFB66
ARM GAS  C:\Users\ikui753\AppData\Local\Temp\ccTyn6zv.s 			page 86


 4134 0028 00000000 		.4byte	.LFB67
 4135 002c 18000000 		.4byte	.LFE67-.LFB67
 4136 0030 00000000 		.4byte	.LFB68
 4137 0034 18000000 		.4byte	.LFE68-.LFB68
 4138 0038 00000000 		.4byte	.LFB69
 4139 003c 18000000 		.4byte	.LFE69-.LFB69
 4140 0040 00000000 		.4byte	.LFB70
 4141 0044 18000000 		.4byte	.LFE70-.LFB70
 4142 0048 00000000 		.4byte	.LFB71
 4143 004c 38000000 		.4byte	.LFE71-.LFB71
 4144 0050 00000000 		.4byte	.LFB72
 4145 0054 B0000000 		.4byte	.LFE72-.LFB72
 4146 0058 00000000 		.4byte	.LFB73
 4147 005c 54000000 		.4byte	.LFE73-.LFB73
 4148 0060 00000000 		.4byte	.LFB74
 4149 0064 48000000 		.4byte	.LFE74-.LFB74
 4150 0068 00000000 		.4byte	.LFB75
 4151 006c 84040000 		.4byte	.LFE75-.LFB75
 4152 0070 00000000 		.4byte	.LFB76
 4153 0074 5C050000 		.4byte	.LFE76-.LFB76
 4154 0078 00000000 		.4byte	.LFB77
 4155 007c 88000000 		.4byte	.LFE77-.LFB77
 4156 0080 00000000 		.4byte	0
 4157 0084 00000000 		.4byte	0
 4158              		.section	.debug_ranges,"",%progbits
 4159              	.Ldebug_ranges0:
 4160 0000 00000000 		.4byte	.LFB64
 4161 0004 EC000000 		.4byte	.LFE64
 4162 0008 00000000 		.4byte	.LFB65
 4163 000c 18000000 		.4byte	.LFE65
 4164 0010 00000000 		.4byte	.LFB66
 4165 0014 18000000 		.4byte	.LFE66
 4166 0018 00000000 		.4byte	.LFB67
 4167 001c 18000000 		.4byte	.LFE67
 4168 0020 00000000 		.4byte	.LFB68
 4169 0024 18000000 		.4byte	.LFE68
 4170 0028 00000000 		.4byte	.LFB69
 4171 002c 18000000 		.4byte	.LFE69
 4172 0030 00000000 		.4byte	.LFB70
 4173 0034 18000000 		.4byte	.LFE70
 4174 0038 00000000 		.4byte	.LFB71
 4175 003c 38000000 		.4byte	.LFE71
 4176 0040 00000000 		.4byte	.LFB72
 4177 0044 B0000000 		.4byte	.LFE72
 4178 0048 00000000 		.4byte	.LFB73
 4179 004c 54000000 		.4byte	.LFE73
 4180 0050 00000000 		.4byte	.LFB74
 4181 0054 48000000 		.4byte	.LFE74
 4182 0058 00000000 		.4byte	.LFB75
 4183 005c 84040000 		.4byte	.LFE75
 4184 0060 00000000 		.4byte	.LFB76
 4185 0064 5C050000 		.4byte	.LFE76
 4186 0068 00000000 		.4byte	.LFB77
 4187 006c 88000000 		.4byte	.LFE77
 4188 0070 00000000 		.4byte	0
 4189 0074 00000000 		.4byte	0
 4190              		.section	.debug_line,"",%progbits
ARM GAS  C:\Users\ikui753\AppData\Local\Temp\ccTyn6zv.s 			page 87


 4191              	.Ldebug_line0:
 4192 0000 70040000 		.section	.debug_str,"MS",%progbits,1
 4192      02005F01 
 4192      00000201 
 4192      FB0E0D00 
 4192      01010101 
 4193              	.LASF59:
 4194 0000 53365F44 		.ascii	"S6_DETECTED\000"
 4194      45544543 
 4194      54454400 
 4195              	.LASF40:
 4196 000c 5475726E 		.ascii	"TurnLeft\000"
 4196      4C656674 
 4196      00
 4197              	.LASF63:
 4198 0015 67657444 		.ascii	"getDirection\000"
 4198      69726563 
 4198      74696F6E 
 4198      00
 4199              	.LASF68:
 4200 0022 74735F65 		.ascii	"ts_enc\000"
 4200      6E6300
 4201              	.LASF47:
 4202 0029 466F7277 		.ascii	"ForwardAfterTurn\000"
 4202      61726441 
 4202      66746572 
 4202      5475726E 
 4202      00
 4203              	.LASF77:
 4204 003a 666C6167 		.ascii	"flag_packet\000"
 4204      5F706163 
 4204      6B657400 
 4205              	.LASF46:
 4206 0046 77616974 		.ascii	"waitForTurn\000"
 4206      466F7254 
 4206      75726E00 
 4207              	.LASF74:
 4208 0052 666C6167 		.ascii	"flag_ts_speed\000"
 4208      5F74735F 
 4208      73706565 
 4208      6400
 4209              	.LASF34:
 4210 0060 67325F78 		.ascii	"g2_xpos\000"
 4210      706F7300 
 4211              	.LASF2:
 4212 0068 73686F72 		.ascii	"short int\000"
 4212      7420696E 
 4212      7400
 4213              	.LASF85:
 4214 0072 73797374 		.ascii	"system_state\000"
 4214      656D5F73 
 4214      74617465 
 4214      00
 4215              	.LASF10:
 4216 007f 73697A65 		.ascii	"sizetype\000"
 4216      74797065 
 4216      00
ARM GAS  C:\Users\ikui753\AppData\Local\Temp\ccTyn6zv.s 			page 88


 4217              	.LASF98:
 4218 0088 73746F70 		.ascii	"stopBuffer\000"
 4218      42756666 
 4218      657200
 4219              	.LASF49:
 4220 0093 44697265 		.ascii	"DirectionState\000"
 4220      6374696F 
 4220      6E537461 
 4220      746500
 4221              	.LASF84:
 4222 00a2 75736242 		.ascii	"usbBuffer\000"
 4222      75666665 
 4222      7200
 4223              	.LASF104:
 4224 00ac 474E5520 		.ascii	"GNU C11 5.4.1 20160609 (release) [ARM/embedded-5-br"
 4224      43313120 
 4224      352E342E 
 4224      31203230 
 4224      31363036 
 4225 00df 616E6368 		.ascii	"anch revision 237715] -mcpu=cortex-m3 -mthumb -g -O"
 4225      20726576 
 4225      6973696F 
 4225      6E203233 
 4225      37373135 
 4226 0112 30202D66 		.ascii	"0 -ffunction-sections -ffat-lto-objects\000"
 4226      66756E63 
 4226      74696F6E 
 4226      2D736563 
 4226      74696F6E 
 4227              	.LASF101:
 4228 013a 626C6F63 		.ascii	"blockSize\000"
 4228      6B53697A 
 4228      6500
 4229              	.LASF61:
 4230 0144 6D61696E 		.ascii	"main\000"
 4230      00
 4231              	.LASF100:
 4232 0149 78426C6F 		.ascii	"xBlockSize\000"
 4232      636B5369 
 4232      7A6500
 4233              	.LASF57:
 4234 0154 53345F44 		.ascii	"S4_DETECTED\000"
 4234      45544543 
 4234      54454400 
 4235              	.LASF41:
 4236 0160 41646A75 		.ascii	"AdjustToTheLeft\000"
 4236      7374546F 
 4236      5468654C 
 4236      65667400 
 4237              	.LASF102:
 4238 0170 63757272 		.ascii	"currentRow\000"
 4238      656E7452 
 4238      6F7700
 4239              	.LASF99:
 4240 017b 79426C6F 		.ascii	"yBlockSize\000"
 4240      636B5369 
 4240      7A6500
ARM GAS  C:\Users\ikui753\AppData\Local\Temp\ccTyn6zv.s 			page 89


 4241              	.LASF22:
 4242 0186 696E6465 		.ascii	"index\000"
 4242      7800
 4243              	.LASF108:
 4244 018c 73706565 		.ascii	"speedTimer\000"
 4244      6454696D 
 4244      657200
 4245              	.LASF18:
 4246 0197 696E7431 		.ascii	"int16\000"
 4246      3600
 4247              	.LASF45:
 4248 019d 48617264 		.ascii	"HardForward\000"
 4248      466F7277 
 4248      61726400 
 4249              	.LASF14:
 4250 01a9 75696E74 		.ascii	"uint8\000"
 4250      3800
 4251              	.LASF33:
 4252 01af 67315F64 		.ascii	"g1_direction\000"
 4252      69726563 
 4252      74696F6E 
 4252      00
 4253              	.LASF82:
 4254 01bc 6C696E65 		.ascii	"line\000"
 4254      00
 4255              	.LASF19:
 4256 01c1 666C6F61 		.ascii	"float\000"
 4256      7400
 4257              	.LASF53:
 4258 01c7 52696768 		.ascii	"Right\000"
 4258      7400
 4259              	.LASF62:
 4260 01cd 6E657744 		.ascii	"newDistance\000"
 4260      69737461 
 4260      6E636500 
 4261              	.LASF6:
 4262 01d9 6C6F6E67 		.ascii	"long long int\000"
 4262      206C6F6E 
 4262      6720696E 
 4262      7400
 4263              	.LASF17:
 4264 01e7 696E7438 		.ascii	"int8\000"
 4264      00
 4265              	.LASF73:
 4266 01ec 666C6167 		.ascii	"flag_ts_update\000"
 4266      5F74735F 
 4266      75706461 
 4266      746500
 4267              	.LASF35:
 4268 01fb 67325F79 		.ascii	"g2_ypos\000"
 4268      706F7300 
 4269              	.LASF29:
 4270 0203 67305F64 		.ascii	"g0_direction\000"
 4270      69726563 
 4270      74696F6E 
 4270      00
 4271              	.LASF26:
ARM GAS  C:\Users\ikui753\AppData\Local\Temp\ccTyn6zv.s 			page 90


 4272 0210 67305F78 		.ascii	"g0_xpos\000"
 4272      706F7300 
 4273              	.LASF91:
 4274 0218 70726576 		.ascii	"previousOrientation\000"
 4274      696F7573 
 4274      4F726965 
 4274      6E746174 
 4274      696F6E00 
 4275              	.LASF52:
 4276 022c 4C656674 		.ascii	"Left\000"
 4276      00
 4277              	.LASF64:
 4278 0231 43686563 		.ascii	"CheckSensorDirection\000"
 4278      6B53656E 
 4278      736F7244 
 4278      69726563 
 4278      74696F6E 
 4279              	.LASF55:
 4280 0246 53325F44 		.ascii	"S2_DETECTED\000"
 4280      45544543 
 4280      54454400 
 4281              	.LASF75:
 4282 0252 666C6167 		.ascii	"flag_ts_display\000"
 4282      5F74735F 
 4282      64697370 
 4282      6C617900 
 4283              	.LASF76:
 4284 0262 666C6167 		.ascii	"flag_rx\000"
 4284      5F727800 
 4285              	.LASF1:
 4286 026a 756E7369 		.ascii	"unsigned char\000"
 4286      676E6564 
 4286      20636861 
 4286      7200
 4287              	.LASF92:
 4288 0278 746F7461 		.ascii	"totalMilliseconds\000"
 4288      6C4D696C 
 4288      6C697365 
 4288      636F6E64 
 4288      7300
 4289              	.LASF83:
 4290 028a 656E7472 		.ascii	"entry\000"
 4290      7900
 4291              	.LASF31:
 4292 0290 67315F79 		.ascii	"g1_ypos\000"
 4292      706F7300 
 4293              	.LASF9:
 4294 0298 6C6F6E67 		.ascii	"long double\000"
 4294      20646F75 
 4294      626C6500 
 4295              	.LASF103:
 4296 02a4 63757272 		.ascii	"currentCol\000"
 4296      656E7443 
 4296      6F6C00
 4297              	.LASF89:
 4298 02af 70726576 		.ascii	"previousDirection\000"
 4298      696F7573 
ARM GAS  C:\Users\ikui753\AppData\Local\Temp\ccTyn6zv.s 			page 91


 4298      44697265 
 4298      6374696F 
 4298      6E00
 4299              	.LASF93:
 4300 02c1 746F7461 		.ascii	"totalDistance\000"
 4300      6C446973 
 4300      74616E63 
 4300      6500
 4301              	.LASF97:
 4302 02cf 6B656570 		.ascii	"keepLedOn\000"
 4302      4C65644F 
 4302      6E00
 4303              	.LASF28:
 4304 02d9 67305F73 		.ascii	"g0_speed\000"
 4304      70656564 
 4304      00
 4305              	.LASF79:
 4306 02e2 64617461 		.ascii	"dataready_flag\000"
 4306      72656164 
 4306      795F666C 
 4306      616700
 4307              	.LASF30:
 4308 02f1 67315F78 		.ascii	"g1_xpos\000"
 4308      706F7300 
 4309              	.LASF0:
 4310 02f9 7369676E 		.ascii	"signed char\000"
 4310      65642063 
 4310      68617200 
 4311              	.LASF13:
 4312 0305 696E7433 		.ascii	"int32_t\000"
 4312      325F7400 
 4313              	.LASF7:
 4314 030d 6C6F6E67 		.ascii	"long long unsigned int\000"
 4314      206C6F6E 
 4314      6720756E 
 4314      7369676E 
 4314      65642069 
 4315              	.LASF42:
 4316 0324 41646A75 		.ascii	"AdjustToTheRight\000"
 4316      7374546F 
 4316      54686552 
 4316      69676874 
 4316      00
 4317              	.LASF8:
 4318 0335 756E7369 		.ascii	"unsigned int\000"
 4318      676E6564 
 4318      20696E74 
 4318      00
 4319              	.LASF96:
 4320 0342 74696D65 		.ascii	"timerInt\000"
 4320      72496E74 
 4320      00
 4321              	.LASF78:
 4322 034b 666C6167 		.ascii	"flag_KB_string\000"
 4322      5F4B425F 
 4322      73747269 
 4322      6E6700
ARM GAS  C:\Users\ikui753\AppData\Local\Temp\ccTyn6zv.s 			page 92


 4323              	.LASF66:
 4324 035a 53657452 		.ascii	"SetRobotMovement\000"
 4324      6F626F74 
 4324      4D6F7665 
 4324      6D656E74 
 4324      00
 4325              	.LASF60:
 4326 036b 54494D45 		.ascii	"TIMER_FINISH\000"
 4326      525F4649 
 4326      4E495348 
 4326      00
 4327              	.LASF36:
 4328 0378 67325F73 		.ascii	"g2_speed\000"
 4328      70656564 
 4328      00
 4329              	.LASF58:
 4330 0381 53355F44 		.ascii	"S5_DETECTED\000"
 4330      45544543 
 4330      54454400 
 4331              	.LASF3:
 4332 038d 73686F72 		.ascii	"short unsigned int\000"
 4332      7420756E 
 4332      7369676E 
 4332      65642069 
 4332      6E7400
 4333              	.LASF107:
 4334 03a0 64617461 		.ascii	"data_main\000"
 4334      5F6D6169 
 4334      6E00
 4335              	.LASF65:
 4336 03aa 52657365 		.ascii	"ResetSensorFlags\000"
 4336      7453656E 
 4336      736F7246 
 4336      6C616773 
 4336      00
 4337              	.LASF11:
 4338 03bb 63686172 		.ascii	"char\000"
 4338      00
 4339              	.LASF4:
 4340 03c0 6C6F6E67 		.ascii	"long int\000"
 4340      20696E74 
 4340      00
 4341              	.LASF38:
 4342 03c9 466F7277 		.ascii	"Forward\000"
 4342      61726400 
 4343              	.LASF106:
 4344 03d1 483A5C44 		.ascii	"H:\\Documents\\GitHub\\301-Robot\\psoc student pack"
 4344      6F63756D 
 4344      656E7473 
 4344      5C476974 
 4344      4875625C 
 4345 0400 5C70736F 		.ascii	"\\psoc_code_base\\CS301_Class.cydsn\000"
 4345      635F636F 
 4345      64655F62 
 4345      6173655C 
 4345      43533330 
 4346              	.LASF95:
ARM GAS  C:\Users\ikui753\AppData\Local\Temp\ccTyn6zv.s 			page 93


 4347 0422 71756164 		.ascii	"quadDec2Count\000"
 4347      44656332 
 4347      436F756E 
 4347      7400
 4348              	.LASF50:
 4349 0430 4F726965 		.ascii	"Orientation\000"
 4349      6E746174 
 4349      696F6E00 
 4350              	.LASF37:
 4351 043c 67325F64 		.ascii	"g2_direction\000"
 4351      69726563 
 4351      74696F6E 
 4351      00
 4352              	.LASF32:
 4353 0449 67315F73 		.ascii	"g1_speed\000"
 4353      70656564 
 4353      00
 4354              	.LASF81:
 4355 0452 64697370 		.ascii	"displaystring\000"
 4355      6C617973 
 4355      7472696E 
 4355      6700
 4356              	.LASF23:
 4357 0460 726F626F 		.ascii	"robot_xpos\000"
 4357      745F7870 
 4357      6F7300
 4358              	.LASF39:
 4359 046b 5475726E 		.ascii	"TurnRight\000"
 4359      52696768 
 4359      7400
 4360              	.LASF15:
 4361 0475 75696E74 		.ascii	"uint16\000"
 4361      313600
 4362              	.LASF94:
 4363 047c 62756666 		.ascii	"buffer\000"
 4363      657200
 4364              	.LASF16:
 4365 0483 75696E74 		.ascii	"uint32\000"
 4365      333200
 4366              	.LASF105:
 4367 048a 6D61696E 		.ascii	"main.c\000"
 4367      2E6300
 4368              	.LASF5:
 4369 0491 6C6F6E67 		.ascii	"long unsigned int\000"
 4369      20756E73 
 4369      69676E65 
 4369      6420696E 
 4369      7400
 4370              	.LASF48:
 4371 04a3 4261636B 		.ascii	"Backward\000"
 4371      77617264 
 4371      00
 4372              	.LASF20:
 4373 04ac 646F7562 		.ascii	"double\000"
 4373      6C6500
 4374              	.LASF44:
 4375 04b3 556E6B6E 		.ascii	"Unknown\000"
ARM GAS  C:\Users\ikui753\AppData\Local\Temp\ccTyn6zv.s 			page 94


 4375      6F776E00 
 4376              	.LASF86:
 4377 04bb 666F6F64 		.ascii	"food_list\000"
 4377      5F6C6973 
 4377      7400
 4378              	.LASF56:
 4379 04c5 53335F44 		.ascii	"S3_DETECTED\000"
 4379      45544543 
 4379      54454400 
 4380              	.LASF70:
 4381 04d1 74735F73 		.ascii	"ts_speed\000"
 4381      70656564 
 4381      00
 4382              	.LASF110:
 4383 04da 636F756E 		.ascii	"count\000"
 4383      7400
 4384              	.LASF72:
 4385 04e0 666C6167 		.ascii	"flag_ts_enc\000"
 4385      5F74735F 
 4385      656E6300 
 4386              	.LASF12:
 4387 04ec 5F5F696E 		.ascii	"__int32_t\000"
 4387      7433325F 
 4387      7400
 4388              	.LASF43:
 4389 04f6 53746F70 		.ascii	"Stop\000"
 4389      00
 4390              	.LASF27:
 4391 04fb 67305F79 		.ascii	"g0_ypos\000"
 4391      706F7300 
 4392              	.LASF71:
 4393 0503 74735F64 		.ascii	"ts_display\000"
 4393      6973706C 
 4393      617900
 4394              	.LASF69:
 4395 050e 74735F75 		.ascii	"ts_update\000"
 4395      70646174 
 4395      6500
 4396              	.LASF109:
 4397 0518 71756164 		.ascii	"quadCountToRPM\000"
 4397      436F756E 
 4397      74546F52 
 4397      504D00
 4398              	.LASF80:
 4399 0527 666C6167 		.ascii	"flag_rf_transmission_active\000"
 4399      5F72665F 
 4399      7472616E 
 4399      736D6973 
 4399      73696F6E 
 4400              	.LASF24:
 4401 0543 726F626F 		.ascii	"robot_ypos\000"
 4401      745F7970 
 4401      6F7300
 4402              	.LASF67:
 4403 054e 49544D5F 		.ascii	"ITM_RxBuffer\000"
 4403      52784275 
 4403      66666572 
ARM GAS  C:\Users\ikui753\AppData\Local\Temp\ccTyn6zv.s 			page 95


 4403      00
 4404              	.LASF90:
 4405 055b 63757272 		.ascii	"currentOrientation\000"
 4405      656E744F 
 4405      7269656E 
 4405      74617469 
 4405      6F6E00
 4406              	.LASF51:
 4407 056e 446F776E 		.ascii	"Down\000"
 4407      00
 4408              	.LASF88:
 4409 0573 63757272 		.ascii	"currentDirection\000"
 4409      656E7444 
 4409      69726563 
 4409      74696F6E 
 4409      00
 4410              	.LASF87:
 4411 0584 64697265 		.ascii	"directionState\000"
 4411      6374696F 
 4411      6E537461 
 4411      746500
 4412              	.LASF21:
 4413 0593 72737369 		.ascii	"rssi\000"
 4413      00
 4414              	.LASF25:
 4415 0598 726F626F 		.ascii	"robot_orientation\000"
 4415      745F6F72 
 4415      69656E74 
 4415      6174696F 
 4415      6E00
 4416              	.LASF54:
 4417 05aa 53315F44 		.ascii	"S1_DETECTED\000"
 4417      45544543 
 4417      54454400 
 4418              		.ident	"GCC: (GNU Tools for ARM Embedded Processors) 5.4.1 20160609 (release) [ARM/embedded-5-bran
