ARM GAS  C:\Users\rshu284\AppData\Local\Temp\ccuJOQzD.s 			page 1


   1              		.syntax unified
   2              		.cpu cortex-m3
   3              		.fpu softvfp
   4              		.eabi_attribute 20, 1
   5              		.eabi_attribute 21, 1
   6              		.eabi_attribute 23, 3
   7              		.eabi_attribute 24, 1
   8              		.eabi_attribute 25, 1
   9              		.eabi_attribute 26, 1
  10              		.eabi_attribute 30, 6
  11              		.eabi_attribute 34, 1
  12              		.eabi_attribute 18, 4
  13              		.thumb
  14              		.syntax unified
  15              		.file	"main.c"
  16              		.text
  17              	.Ltext0:
  18              		.cfi_sections	.debug_frame
  19              		.global	ts
  20              		.bss
  21              		.type	ts, %object
  22              		.size	ts, 1
  23              	ts:
  24 0000 00       		.space	1
  25              		.global	ts_enc
  26 0001 00       		.align	1
  27              		.type	ts_enc, %object
  28              		.size	ts_enc, 2
  29              	ts_enc:
  30 0002 0000     		.space	2
  31              		.global	ts_update
  32              		.align	1
  33              		.type	ts_update, %object
  34              		.size	ts_update, 2
  35              	ts_update:
  36 0004 0000     		.space	2
  37              		.global	ts_speed
  38              		.align	1
  39              		.type	ts_speed, %object
  40              		.size	ts_speed, 2
  41              	ts_speed:
  42 0006 0000     		.space	2
  43              		.global	ts_display
  44              		.align	1
  45              		.type	ts_display, %object
  46              		.size	ts_display, 2
  47              	ts_display:
  48 0008 0000     		.space	2
  49              		.global	flag_ts_enc
  50              		.type	flag_ts_enc, %object
  51              		.size	flag_ts_enc, 1
  52              	flag_ts_enc:
  53 000a 00       		.space	1
  54              		.global	flag_ts_update
  55              		.type	flag_ts_update, %object
  56              		.size	flag_ts_update, 1
  57              	flag_ts_update:
ARM GAS  C:\Users\rshu284\AppData\Local\Temp\ccuJOQzD.s 			page 2


  58 000b 00       		.space	1
  59              		.global	flag_ts_speed
  60              		.type	flag_ts_speed, %object
  61              		.size	flag_ts_speed, 1
  62              	flag_ts_speed:
  63 000c 00       		.space	1
  64              		.global	flag_ts_display
  65              		.type	flag_ts_display, %object
  66              		.size	flag_ts_display, 1
  67              	flag_ts_display:
  68 000d 00       		.space	1
  69              		.global	flag_rx
  70              		.type	flag_rx, %object
  71              		.size	flag_rx, 1
  72              	flag_rx:
  73 000e 00       		.space	1
  74              		.global	flag_packet
  75              		.type	flag_packet, %object
  76              		.size	flag_packet, 1
  77              	flag_packet:
  78 000f 00       		.space	1
  79              		.global	flag_KB_string
  80              		.type	flag_KB_string, %object
  81              		.size	flag_KB_string, 1
  82              	flag_KB_string:
  83 0010 00       		.space	1
  84              		.global	dataready_flag
  85              		.type	dataready_flag, %object
  86              		.size	dataready_flag, 1
  87              	dataready_flag:
  88 0011 00       		.space	1
  89              		.global	flag_rf_transmission_active
  90              		.data
  91              		.type	flag_rf_transmission_active, %object
  92              		.size	flag_rf_transmission_active, 1
  93              	flag_rf_transmission_active:
  94 0000 0A       		.byte	10
  95              		.global	displaystring
  96 0001 000000   		.align	2
  97              		.type	displaystring, %object
  98              		.size	displaystring, 64
  99              	displaystring:
 100 0004 43533330 		.ascii	"CS301 2016\012\015\000"
 100      31203230 
 100      31360A0D 
 100      00
 101 0011 00000000 		.space	51
 101      00000000 
 101      00000000 
 101      00000000 
 101      00000000 
 102              		.comm	line,64,4
 103              		.comm	entry,64,4
 104              		.comm	usbBuffer,64,4
 105              		.comm	system_state,32,4
 106              		.global	currentDirection
 107              		.align	2
ARM GAS  C:\Users\rshu284\AppData\Local\Temp\ccuJOQzD.s 			page 3


 108              		.type	currentDirection, %object
 109              		.size	currentDirection, 4
 110              	currentDirection:
 111 0044 05000000 		.word	5
 112              		.global	previousDirection
 113              		.align	2
 114              		.type	previousDirection, %object
 115              		.size	previousDirection, 4
 116              	previousDirection:
 117 0048 06000000 		.word	6
 118              		.global	s1
 119              		.bss
 120              		.type	s1, %object
 121              		.size	s1, 1
 122              	s1:
 123 0012 00       		.space	1
 124              		.global	s2
 125              		.type	s2, %object
 126              		.size	s2, 1
 127              	s2:
 128 0013 00       		.space	1
 129              		.global	s3
 130              		.type	s3, %object
 131              		.size	s3, 1
 132              	s3:
 133 0014 00       		.space	1
 134              		.global	s4
 135              		.type	s4, %object
 136              		.size	s4, 1
 137              	s4:
 138 0015 00       		.space	1
 139              		.global	s5
 140              		.type	s5, %object
 141              		.size	s5, 1
 142              	s5:
 143 0016 00       		.space	1
 144              		.global	s6
 145              		.type	s6, %object
 146              		.size	s6, 1
 147              	s6:
 148 0017 00       		.space	1
 149              		.global	totalMilliseconds
 150              		.align	2
 151              		.type	totalMilliseconds, %object
 152              		.size	totalMilliseconds, 4
 153              	totalMilliseconds:
 154 0018 00000000 		.space	4
 155              		.global	totalDistance
 156              		.align	2
 157              		.type	totalDistance, %object
 158              		.size	totalDistance, 4
 159              	totalDistance:
 160 001c 00000000 		.space	4
 161              		.comm	buffer,69,4
 162              		.global	quadDec2Count
 163              		.align	2
 164              		.type	quadDec2Count, %object
ARM GAS  C:\Users\rshu284\AppData\Local\Temp\ccuJOQzD.s 			page 4


 165              		.size	quadDec2Count, 4
 166              	quadDec2Count:
 167 0020 00000000 		.space	4
 168              		.global	timerInt
 169              		.align	2
 170              		.type	timerInt, %object
 171              		.size	timerInt, 4
 172              	timerInt:
 173 0024 00000000 		.space	4
 174              		.global	keepLedOn
 175              		.align	2
 176              		.type	keepLedOn, %object
 177              		.size	keepLedOn, 4
 178              	keepLedOn:
 179 0028 00000000 		.space	4
 180              		.global	stopBuffer
 181              		.align	2
 182              		.type	stopBuffer, %object
 183              		.size	stopBuffer, 4
 184              	stopBuffer:
 185 002c 00000000 		.space	4
 186              		.global	__aeabi_i2d
 187              		.global	__aeabi_dmul
 188              		.global	__aeabi_ddiv
 189              		.global	__aeabi_d2f
 190              		.global	__aeabi_fadd
 191              		.section	.text.speedTimer,"ax",%progbits
 192              		.align	2
 193              		.global	speedTimer
 194              		.thumb
 195              		.thumb_func
 196              		.type	speedTimer, %function
 197              	speedTimer:
 198              	.LFB64:
 199              		.file 1 "main.c"
   1:main.c        **** /* ========================================
   2:main.c        ****  * Fully working code: 
   3:main.c        ****  * PWM      : 
   4:main.c        ****  * Encoder  : 
   5:main.c        ****  * ADC      :
   6:main.c        ****  * USB      : port displays speed and position.
   7:main.c        ****  * CMD: "PW xx"
   8:main.c        ****  * Copyright Univ of Auckland, 2016
   9:main.c        ****  * All Rights Reserved
  10:main.c        ****  * UNPUBLISHED, LICENSED SOFTWARE.
  11:main.c        ****  *
  12:main.c        ****  * CONFIDENTIAL AND PROPRIETARY INFORMATION
  13:main.c        ****  * WHICH IS THE PROPERTY OF Univ of Auckland.
  14:main.c        ****  *
  15:main.c        ****  * ========================================
  16:main.c        **** */
  17:main.c        **** #include <stdio.h>
  18:main.c        **** #include <string.h>
  19:main.c        **** #include <stdlib.h>
  20:main.c        **** #include <project.h>
  21:main.c        **** //* ========================================
  22:main.c        **** #include "defines.h"
ARM GAS  C:\Users\rshu284\AppData\Local\Temp\ccuJOQzD.s 			page 5


  23:main.c        **** #include "vars.h"
  24:main.c        **** //#include "pathfinding.h"
  25:main.c        **** #include "initialise.h"
  26:main.c        **** #include "movement.h"
  27:main.c        **** #include "usbUART.h"
  28:main.c        **** //* ========================================
  29:main.c        **** // USBUART
  30:main.c        **** void usbPutString(char *s);
  31:main.c        **** void usbPutChar(char c);
  32:main.c        **** void handle_usb();
  33:main.c        **** //* ========================================
  34:main.c        **** int16 quadCountToRPM(uint16 count);
  35:main.c        **** //* ========================================
  36:main.c        **** // Sensors, Course correction and Movement Direction.
  37:main.c        **** void ResetSensorFlags();
  38:main.c        **** void SetRobotMovement();
  39:main.c        **** enum DirectionState CheckSensorDirection();
  40:main.c        **** enum DirectionState {Forward, TurnRight, TurnLeft, AdjustToTheLeft, AdjustToTheRight, Stop, Unknown
  41:main.c        **** enum DirectionState currentDirection = Stop;
  42:main.c        **** enum DirectionState previousDirection = Unknown;
  43:main.c        **** // --- YIPPE
  44:main.c        **** // ----------------------------------------
  45:main.c        **** uint8 s1 = 0; // black = 0, white = 1
  46:main.c        **** uint8 s2 = 0;
  47:main.c        **** uint8 s3 = 0;
  48:main.c        **** uint8 s4 = 0;
  49:main.c        **** uint8 s5 = 0;
  50:main.c        **** uint8 s6 = 0;
  51:main.c        **** //* ========================================
  52:main.c        **** // Calculating Distance
  53:main.c        **** #define WHEEL_DIAMETER_MM 64.5
  54:main.c        **** #define STOPPING_DISTANCE 5000 // in MM
  55:main.c        **** uint32 totalMilliseconds = 0;
  56:main.c        **** float totalDistance = 0; // in mm
  57:main.c        **** //* ========================================
  58:main.c        **** char buffer[69];
  59:main.c        **** int quadDec2Count = 0;
  60:main.c        **** int timerInt = 0;
  61:main.c        **** int keepLedOn = 0;
  62:main.c        **** uint32 stopBuffer = 0;
  63:main.c        **** 
  64:main.c        **** //char map[MAX_ROWS][MAX_COLS]; // global map array- stores the map
  65:main.c        **** 
  66:main.c        **** CY_ISR (speedTimer) {
 200              		.loc 1 66 0
 201              		.cfi_startproc
 202              		@ args = 0, pretend = 0, frame = 8
 203              		@ frame_needed = 1, uses_anonymous_args = 0
 204 0000 90B5     		push	{r4, r7, lr}
 205              		.cfi_def_cfa_offset 12
 206              		.cfi_offset 4, -12
 207              		.cfi_offset 7, -8
 208              		.cfi_offset 14, -4
 209 0002 83B0     		sub	sp, sp, #12
 210              		.cfi_def_cfa_offset 24
 211 0004 00AF     		add	r7, sp, #0
 212              		.cfi_def_cfa_register 7
ARM GAS  C:\Users\rshu284\AppData\Local\Temp\ccuJOQzD.s 			page 6


  67:main.c        ****     timerInt = 1;
 213              		.loc 1 67 0
 214 0006 344B     		ldr	r3, .L4+16
 215 0008 0122     		movs	r2, #1
 216 000a 1A60     		str	r2, [r3]
  68:main.c        ****     //quadDec_M1 used for turning macros
  69:main.c        ****     quadDec2Count = QuadDec_M2_GetCounter();
 217              		.loc 1 69 0
 218 000c FFF7FEFF 		bl	QuadDec_M2_GetCounter
 219 0010 0346     		mov	r3, r0
 220 0012 1A46     		mov	r2, r3
 221 0014 314B     		ldr	r3, .L4+20
 222 0016 1A60     		str	r2, [r3]
  70:main.c        ****     
  71:main.c        ****     if ((currentDirection == Forward || 
 223              		.loc 1 71 0
 224 0018 314B     		ldr	r3, .L4+24
 225 001a 1B68     		ldr	r3, [r3]
 226 001c 002B     		cmp	r3, #0
 227 001e 13D0     		beq	.L2
  72:main.c        ****         currentDirection == HardForward ||
 228              		.loc 1 72 0 discriminator 1
 229 0020 2F4B     		ldr	r3, .L4+24
 230 0022 1B68     		ldr	r3, [r3]
  71:main.c        ****         currentDirection == HardForward ||
 231              		.loc 1 71 0 discriminator 1
 232 0024 072B     		cmp	r3, #7
 233 0026 0FD0     		beq	.L2
  73:main.c        ****         currentDirection == waitForTurn || 
 234              		.loc 1 73 0
 235 0028 2D4B     		ldr	r3, .L4+24
 236 002a 1B68     		ldr	r3, [r3]
  72:main.c        ****         currentDirection == HardForward ||
 237              		.loc 1 72 0
 238 002c 082B     		cmp	r3, #8
 239 002e 0BD0     		beq	.L2
  74:main.c        ****         currentDirection == ForwardAfterTurn ||
 240              		.loc 1 74 0
 241 0030 2B4B     		ldr	r3, .L4+24
 242 0032 1B68     		ldr	r3, [r3]
  73:main.c        ****         currentDirection == waitForTurn || 
 243              		.loc 1 73 0
 244 0034 092B     		cmp	r3, #9
 245 0036 07D0     		beq	.L2
  75:main.c        ****         currentDirection == AdjustToTheLeft ||
 246              		.loc 1 75 0
 247 0038 294B     		ldr	r3, .L4+24
 248 003a 1B68     		ldr	r3, [r3]
  74:main.c        ****         currentDirection == ForwardAfterTurn ||
 249              		.loc 1 74 0
 250 003c 032B     		cmp	r3, #3
 251 003e 03D0     		beq	.L2
  76:main.c        ****         currentDirection == AdjustToTheRight) &&
 252              		.loc 1 76 0
 253 0040 274B     		ldr	r3, .L4+24
 254 0042 1B68     		ldr	r3, [r3]
  75:main.c        ****         currentDirection == AdjustToTheLeft ||
ARM GAS  C:\Users\rshu284\AppData\Local\Temp\ccuJOQzD.s 			page 7


 255              		.loc 1 75 0
 256 0044 042B     		cmp	r3, #4
 257 0046 34D1     		bne	.L3
 258              	.L2:
  77:main.c        ****         quadDec2Count != 0) {
 259              		.loc 1 77 0
 260 0048 244B     		ldr	r3, .L4+20
 261 004a 1B68     		ldr	r3, [r3]
  76:main.c        ****         currentDirection == AdjustToTheRight) &&
 262              		.loc 1 76 0
 263 004c 002B     		cmp	r3, #0
 264 004e 30D0     		beq	.L3
 265              	.LBB2:
  78:main.c        ****         //uint32 newDistance = ((abs(quadDec2Count) / 57.0) * CY_M_PI * WHEEL_DIAMETER_MM)/4;
  79:main.c        ****         float newDistance = (abs(quadDec2Count) * CY_M_PI * WHEEL_DIAMETER_MM)/228;
 266              		.loc 1 79 0
 267 0050 224B     		ldr	r3, .L4+20
 268 0052 1B68     		ldr	r3, [r3]
 269 0054 002B     		cmp	r3, #0
 270 0056 B8BF     		it	lt
 271 0058 5B42     		rsblt	r3, r3, #0
 272 005a 1846     		mov	r0, r3
 273 005c FFF7FEFF 		bl	__aeabi_i2d
 274 0060 19A3     		adr	r3, .L4
 275 0062 D3E90023 		ldrd	r2, [r3]
 276 0066 FFF7FEFF 		bl	__aeabi_dmul
 277 006a 0346     		mov	r3, r0
 278 006c 0C46     		mov	r4, r1
 279 006e 1846     		mov	r0, r3
 280 0070 2146     		mov	r1, r4
 281 0072 17A3     		adr	r3, .L4+8
 282 0074 D3E90023 		ldrd	r2, [r3]
 283 0078 FFF7FEFF 		bl	__aeabi_dmul
 284 007c 0346     		mov	r3, r0
 285 007e 0C46     		mov	r4, r1
 286 0080 1846     		mov	r0, r3
 287 0082 2146     		mov	r1, r4
 288 0084 4FF00002 		mov	r2, #0
 289 0088 164B     		ldr	r3, .L4+28
 290 008a FFF7FEFF 		bl	__aeabi_ddiv
 291 008e 0346     		mov	r3, r0
 292 0090 0C46     		mov	r4, r1
 293 0092 1846     		mov	r0, r3
 294 0094 2146     		mov	r1, r4
 295 0096 FFF7FEFF 		bl	__aeabi_d2f
 296 009a 0346     		mov	r3, r0
 297 009c 7B60     		str	r3, [r7, #4]	@ float
  80:main.c        ****         
  81:main.c        ****         totalDistance = totalDistance + newDistance;
 298              		.loc 1 81 0
 299 009e 124B     		ldr	r3, .L4+32
 300 00a0 1B68     		ldr	r3, [r3]	@ float
 301 00a2 7968     		ldr	r1, [r7, #4]	@ float
 302 00a4 1846     		mov	r0, r3
 303 00a6 FFF7FEFF 		bl	__aeabi_fadd
 304 00aa 0346     		mov	r3, r0
 305 00ac 1A46     		mov	r2, r3
ARM GAS  C:\Users\rshu284\AppData\Local\Temp\ccuJOQzD.s 			page 8


 306 00ae 0E4B     		ldr	r3, .L4+32
 307 00b0 1A60     		str	r2, [r3]	@ float
 308              	.L3:
 309              	.LBE2:
  82:main.c        ****     }
  83:main.c        ****     
  84:main.c        ****     QuadDec_M2_SetCounter(0); // reset count
 310              		.loc 1 84 0
 311 00b2 0020     		movs	r0, #0
 312 00b4 FFF7FEFF 		bl	QuadDec_M2_SetCounter
  85:main.c        ****     QuadDec_M2_Start(); // restart counter
 313              		.loc 1 85 0
 314 00b8 FFF7FEFF 		bl	QuadDec_M2_Start
  86:main.c        ****     
  87:main.c        ****     SpeedTimer_ReadStatusRegister(); // clear interrupt
 315              		.loc 1 87 0
 316 00bc FFF7FEFF 		bl	SpeedTimer_ReadStatusRegister
  88:main.c        **** }
 317              		.loc 1 88 0
 318 00c0 00BF     		nop
 319 00c2 0C37     		adds	r7, r7, #12
 320              		.cfi_def_cfa_offset 12
 321 00c4 BD46     		mov	sp, r7
 322              		.cfi_def_cfa_register 13
 323              		@ sp needed
 324 00c6 90BD     		pop	{r4, r7, pc}
 325              	.L5:
 326              		.align	3
 327              	.L4:
 328 00c8 182D4454 		.word	1413754136
 329 00cc FB210940 		.word	1074340347
 330 00d0 00000000 		.word	0
 331 00d4 00205040 		.word	1078992896
 332 00d8 00000000 		.word	timerInt
 333 00dc 00000000 		.word	quadDec2Count
 334 00e0 00000000 		.word	currentDirection
 335 00e4 00806C40 		.word	1080852480
 336 00e8 00000000 		.word	totalDistance
 337              		.cfi_endproc
 338              	.LFE64:
 339              		.size	speedTimer, .-speedTimer
 340              		.section	.text.S1_DETECTED,"ax",%progbits
 341              		.align	2
 342              		.global	S1_DETECTED
 343              		.thumb
 344              		.thumb_func
 345              		.type	S1_DETECTED, %function
 346              	S1_DETECTED:
 347              	.LFB65:
  89:main.c        **** 
  90:main.c        **** CY_ISR(S1_DETECTED) {
 348              		.loc 1 90 0
 349              		.cfi_startproc
 350              		@ args = 0, pretend = 0, frame = 0
 351              		@ frame_needed = 1, uses_anonymous_args = 0
 352              		@ link register save eliminated.
 353 0000 80B4     		push	{r7}
ARM GAS  C:\Users\rshu284\AppData\Local\Temp\ccuJOQzD.s 			page 9


 354              		.cfi_def_cfa_offset 4
 355              		.cfi_offset 7, -4
 356 0002 00AF     		add	r7, sp, #0
 357              		.cfi_def_cfa_register 7
  91:main.c        ****     // Sensor has detected WHITE
  92:main.c        ****     s1 = 1; // , Black = 0, White = 1
 358              		.loc 1 92 0
 359 0004 034B     		ldr	r3, .L7
 360 0006 0122     		movs	r2, #1
 361 0008 1A70     		strb	r2, [r3]
  93:main.c        ****     //LED_Write(1u);
  94:main.c        ****     //moveForward();
  95:main.c        **** }
 362              		.loc 1 95 0
 363 000a 00BF     		nop
 364 000c BD46     		mov	sp, r7
 365              		.cfi_def_cfa_register 13
 366              		@ sp needed
 367 000e 80BC     		pop	{r7}
 368              		.cfi_restore 7
 369              		.cfi_def_cfa_offset 0
 370 0010 7047     		bx	lr
 371              	.L8:
 372 0012 00BF     		.align	2
 373              	.L7:
 374 0014 00000000 		.word	s1
 375              		.cfi_endproc
 376              	.LFE65:
 377              		.size	S1_DETECTED, .-S1_DETECTED
 378              		.section	.text.S2_DETECTED,"ax",%progbits
 379              		.align	2
 380              		.global	S2_DETECTED
 381              		.thumb
 382              		.thumb_func
 383              		.type	S2_DETECTED, %function
 384              	S2_DETECTED:
 385              	.LFB66:
  96:main.c        **** 
  97:main.c        **** CY_ISR(S2_DETECTED) {
 386              		.loc 1 97 0
 387              		.cfi_startproc
 388              		@ args = 0, pretend = 0, frame = 0
 389              		@ frame_needed = 1, uses_anonymous_args = 0
 390              		@ link register save eliminated.
 391 0000 80B4     		push	{r7}
 392              		.cfi_def_cfa_offset 4
 393              		.cfi_offset 7, -4
 394 0002 00AF     		add	r7, sp, #0
 395              		.cfi_def_cfa_register 7
  98:main.c        ****     // Sensor has detected WHITE
  99:main.c        ****     s2 = 1; // , Black = 0, White = 1
 396              		.loc 1 99 0
 397 0004 034B     		ldr	r3, .L10
 398 0006 0122     		movs	r2, #1
 399 0008 1A70     		strb	r2, [r3]
 100:main.c        ****     //LED_Write(1u);
 101:main.c        ****     //moveForward();
ARM GAS  C:\Users\rshu284\AppData\Local\Temp\ccuJOQzD.s 			page 10


 102:main.c        **** }
 400              		.loc 1 102 0
 401 000a 00BF     		nop
 402 000c BD46     		mov	sp, r7
 403              		.cfi_def_cfa_register 13
 404              		@ sp needed
 405 000e 80BC     		pop	{r7}
 406              		.cfi_restore 7
 407              		.cfi_def_cfa_offset 0
 408 0010 7047     		bx	lr
 409              	.L11:
 410 0012 00BF     		.align	2
 411              	.L10:
 412 0014 00000000 		.word	s2
 413              		.cfi_endproc
 414              	.LFE66:
 415              		.size	S2_DETECTED, .-S2_DETECTED
 416              		.section	.text.S3_DETECTED,"ax",%progbits
 417              		.align	2
 418              		.global	S3_DETECTED
 419              		.thumb
 420              		.thumb_func
 421              		.type	S3_DETECTED, %function
 422              	S3_DETECTED:
 423              	.LFB67:
 103:main.c        **** 
 104:main.c        **** CY_ISR(S3_DETECTED) {
 424              		.loc 1 104 0
 425              		.cfi_startproc
 426              		@ args = 0, pretend = 0, frame = 0
 427              		@ frame_needed = 1, uses_anonymous_args = 0
 428              		@ link register save eliminated.
 429 0000 80B4     		push	{r7}
 430              		.cfi_def_cfa_offset 4
 431              		.cfi_offset 7, -4
 432 0002 00AF     		add	r7, sp, #0
 433              		.cfi_def_cfa_register 7
 105:main.c        ****     // Sensor has detected WHITE
 106:main.c        ****     s3 = 1; // , Black = 0, White = 1
 434              		.loc 1 106 0
 435 0004 034B     		ldr	r3, .L13
 436 0006 0122     		movs	r2, #1
 437 0008 1A70     		strb	r2, [r3]
 107:main.c        ****     //LED_Write(1u);
 108:main.c        **** }
 438              		.loc 1 108 0
 439 000a 00BF     		nop
 440 000c BD46     		mov	sp, r7
 441              		.cfi_def_cfa_register 13
 442              		@ sp needed
 443 000e 80BC     		pop	{r7}
 444              		.cfi_restore 7
 445              		.cfi_def_cfa_offset 0
 446 0010 7047     		bx	lr
 447              	.L14:
 448 0012 00BF     		.align	2
 449              	.L13:
ARM GAS  C:\Users\rshu284\AppData\Local\Temp\ccuJOQzD.s 			page 11


 450 0014 00000000 		.word	s3
 451              		.cfi_endproc
 452              	.LFE67:
 453              		.size	S3_DETECTED, .-S3_DETECTED
 454              		.section	.text.S4_DETECTED,"ax",%progbits
 455              		.align	2
 456              		.global	S4_DETECTED
 457              		.thumb
 458              		.thumb_func
 459              		.type	S4_DETECTED, %function
 460              	S4_DETECTED:
 461              	.LFB68:
 109:main.c        **** 
 110:main.c        **** CY_ISR(S4_DETECTED) {
 462              		.loc 1 110 0
 463              		.cfi_startproc
 464              		@ args = 0, pretend = 0, frame = 0
 465              		@ frame_needed = 1, uses_anonymous_args = 0
 466              		@ link register save eliminated.
 467 0000 80B4     		push	{r7}
 468              		.cfi_def_cfa_offset 4
 469              		.cfi_offset 7, -4
 470 0002 00AF     		add	r7, sp, #0
 471              		.cfi_def_cfa_register 7
 111:main.c        ****     // Sensor has detected WHITE
 112:main.c        ****     s4 = 1; // , Black = 0, White = 1
 472              		.loc 1 112 0
 473 0004 034B     		ldr	r3, .L16
 474 0006 0122     		movs	r2, #1
 475 0008 1A70     		strb	r2, [r3]
 113:main.c        ****     //LED_Write(1u);
 114:main.c        **** }
 476              		.loc 1 114 0
 477 000a 00BF     		nop
 478 000c BD46     		mov	sp, r7
 479              		.cfi_def_cfa_register 13
 480              		@ sp needed
 481 000e 80BC     		pop	{r7}
 482              		.cfi_restore 7
 483              		.cfi_def_cfa_offset 0
 484 0010 7047     		bx	lr
 485              	.L17:
 486 0012 00BF     		.align	2
 487              	.L16:
 488 0014 00000000 		.word	s4
 489              		.cfi_endproc
 490              	.LFE68:
 491              		.size	S4_DETECTED, .-S4_DETECTED
 492              		.section	.text.S5_DETECTED,"ax",%progbits
 493              		.align	2
 494              		.global	S5_DETECTED
 495              		.thumb
 496              		.thumb_func
 497              		.type	S5_DETECTED, %function
 498              	S5_DETECTED:
 499              	.LFB69:
 115:main.c        **** 
ARM GAS  C:\Users\rshu284\AppData\Local\Temp\ccuJOQzD.s 			page 12


 116:main.c        **** CY_ISR(S5_DETECTED) {
 500              		.loc 1 116 0
 501              		.cfi_startproc
 502              		@ args = 0, pretend = 0, frame = 0
 503              		@ frame_needed = 1, uses_anonymous_args = 0
 504              		@ link register save eliminated.
 505 0000 80B4     		push	{r7}
 506              		.cfi_def_cfa_offset 4
 507              		.cfi_offset 7, -4
 508 0002 00AF     		add	r7, sp, #0
 509              		.cfi_def_cfa_register 7
 117:main.c        ****     // Sensor has detected WHITE
 118:main.c        ****     s5 = 1; // , Black = 0, White = 1
 510              		.loc 1 118 0
 511 0004 034B     		ldr	r3, .L19
 512 0006 0122     		movs	r2, #1
 513 0008 1A70     		strb	r2, [r3]
 119:main.c        ****     //LED_Write(1u);
 120:main.c        **** }
 514              		.loc 1 120 0
 515 000a 00BF     		nop
 516 000c BD46     		mov	sp, r7
 517              		.cfi_def_cfa_register 13
 518              		@ sp needed
 519 000e 80BC     		pop	{r7}
 520              		.cfi_restore 7
 521              		.cfi_def_cfa_offset 0
 522 0010 7047     		bx	lr
 523              	.L20:
 524 0012 00BF     		.align	2
 525              	.L19:
 526 0014 00000000 		.word	s5
 527              		.cfi_endproc
 528              	.LFE69:
 529              		.size	S5_DETECTED, .-S5_DETECTED
 530              		.section	.text.S6_DETECTED,"ax",%progbits
 531              		.align	2
 532              		.global	S6_DETECTED
 533              		.thumb
 534              		.thumb_func
 535              		.type	S6_DETECTED, %function
 536              	S6_DETECTED:
 537              	.LFB70:
 121:main.c        **** 
 122:main.c        **** CY_ISR(S6_DETECTED) {
 538              		.loc 1 122 0
 539              		.cfi_startproc
 540              		@ args = 0, pretend = 0, frame = 0
 541              		@ frame_needed = 1, uses_anonymous_args = 0
 542              		@ link register save eliminated.
 543 0000 80B4     		push	{r7}
 544              		.cfi_def_cfa_offset 4
 545              		.cfi_offset 7, -4
 546 0002 00AF     		add	r7, sp, #0
 547              		.cfi_def_cfa_register 7
 123:main.c        ****     // Sensor has detected WHITE
 124:main.c        ****     s6 = 1; // , Black = 0, White = 1
ARM GAS  C:\Users\rshu284\AppData\Local\Temp\ccuJOQzD.s 			page 13


 548              		.loc 1 124 0
 549 0004 034B     		ldr	r3, .L22
 550 0006 0122     		movs	r2, #1
 551 0008 1A70     		strb	r2, [r3]
 125:main.c        ****     //LED_Write(1u);
 126:main.c        **** }
 552              		.loc 1 126 0
 553 000a 00BF     		nop
 554 000c BD46     		mov	sp, r7
 555              		.cfi_def_cfa_register 13
 556              		@ sp needed
 557 000e 80BC     		pop	{r7}
 558              		.cfi_restore 7
 559              		.cfi_def_cfa_offset 0
 560 0010 7047     		bx	lr
 561              	.L23:
 562 0012 00BF     		.align	2
 563              	.L22:
 564 0014 00000000 		.word	s6
 565              		.cfi_endproc
 566              	.LFE70:
 567              		.size	S6_DETECTED, .-S6_DETECTED
 568              		.section	.text.TIMER_FINISH,"ax",%progbits
 569              		.align	2
 570              		.global	TIMER_FINISH
 571              		.thumb
 572              		.thumb_func
 573              		.type	TIMER_FINISH, %function
 574              	TIMER_FINISH:
 575              	.LFB71:
 127:main.c        **** 
 128:main.c        **** CY_ISR(TIMER_FINISH) {
 576              		.loc 1 128 0
 577              		.cfi_startproc
 578              		@ args = 0, pretend = 0, frame = 0
 579              		@ frame_needed = 1, uses_anonymous_args = 0
 580 0000 80B5     		push	{r7, lr}
 581              		.cfi_def_cfa_offset 8
 582              		.cfi_offset 7, -8
 583              		.cfi_offset 14, -4
 584 0002 00AF     		add	r7, sp, #0
 585              		.cfi_def_cfa_register 7
 129:main.c        ****     //LED_Write(0u);
 130:main.c        ****     if (currentDirection == Stop) {
 586              		.loc 1 130 0
 587 0004 0A4B     		ldr	r3, .L27
 588 0006 1B68     		ldr	r3, [r3]
 589 0008 052B     		cmp	r3, #5
 590 000a 05D1     		bne	.L25
 131:main.c        ****         stopBuffer = stopBuffer + 1;
 591              		.loc 1 131 0
 592 000c 094B     		ldr	r3, .L27+4
 593 000e 1B68     		ldr	r3, [r3]
 594 0010 0133     		adds	r3, r3, #1
 595 0012 084A     		ldr	r2, .L27+4
 596 0014 1360     		str	r3, [r2]
 597 0016 02E0     		b	.L26
ARM GAS  C:\Users\rshu284\AppData\Local\Temp\ccuJOQzD.s 			page 14


 598              	.L25:
 132:main.c        ****     } else {
 133:main.c        ****         stopBuffer = 0;
 599              		.loc 1 133 0
 600 0018 064B     		ldr	r3, .L27+4
 601 001a 0022     		movs	r2, #0
 602 001c 1A60     		str	r2, [r3]
 603              	.L26:
 134:main.c        ****     }
 135:main.c        ****     SetRobotMovement(); 
 604              		.loc 1 135 0
 605 001e FFF7FEFF 		bl	SetRobotMovement
 136:main.c        ****     ResetSensorFlags(); // Reset Sensor Flags for Next rising Eddge
 606              		.loc 1 136 0
 607 0022 FFF7FEFF 		bl	ResetSensorFlags
 137:main.c        ****     Timer_LED_ReadStatusRegister();
 608              		.loc 1 137 0
 609 0026 FFF7FEFF 		bl	Timer_LED_ReadStatusRegister
 138:main.c        **** }
 610              		.loc 1 138 0
 611 002a 00BF     		nop
 612 002c 80BD     		pop	{r7, pc}
 613              	.L28:
 614 002e 00BF     		.align	2
 615              	.L27:
 616 0030 00000000 		.word	currentDirection
 617 0034 00000000 		.word	stopBuffer
 618              		.cfi_endproc
 619              	.LFE71:
 620              		.size	TIMER_FINISH, .-TIMER_FINISH
 621              		.section	.text.main,"ax",%progbits
 622              		.align	2
 623              		.global	main
 624              		.thumb
 625              		.thumb_func
 626              		.type	main, %function
 627              	main:
 628              	.LFB72:
 139:main.c        **** 
 140:main.c        **** 
 141:main.c        **** int main()
 142:main.c        **** {
 629              		.loc 1 142 0
 630              		.cfi_startproc
 631              		@ args = 0, pretend = 0, frame = 0
 632              		@ frame_needed = 1, uses_anonymous_args = 0
 633 0000 80B5     		push	{r7, lr}
 634              		.cfi_def_cfa_offset 8
 635              		.cfi_offset 7, -8
 636              		.cfi_offset 14, -4
 637 0002 00AF     		add	r7, sp, #0
 638              		.cfi_def_cfa_register 7
 143:main.c        **** // --------------------------------    
 144:main.c        **** // ----- INITIALIZATIONS ----------
 145:main.c        ****     CYGlobalIntEnable;
 639              		.loc 1 145 0
 640              		.syntax unified
ARM GAS  C:\Users\rshu284\AppData\Local\Temp\ccuJOQzD.s 			page 15


 641              	@ 145 "main.c" 1
 642 0004 62B6     		CPSIE   i
 643              	@ 0 "" 2
 146:main.c        ****     ResetSensorFlags();
 644              		.loc 1 146 0
 645              		.thumb
 646              		.syntax unified
 647 0006 FFF7FEFF 		bl	ResetSensorFlags
 147:main.c        ****     init(); // initialise clocks, pwms, adc, dac etc- done in header file
 648              		.loc 1 147 0
 649 000a FFF7FEFF 		bl	init
 148:main.c        ****     //findPath(map, "");// find shortest path- store this in map
 149:main.c        ****     isr_speed_StartEx(speedTimer); // start interrupt
 650              		.loc 1 149 0
 651 000e 1B48     		ldr	r0, .L33
 652 0010 FFF7FEFF 		bl	isr_speed_StartEx
 150:main.c        ****     isr_Timer_LED_StartEx(TIMER_FINISH);
 653              		.loc 1 150 0
 654 0014 1A48     		ldr	r0, .L33+4
 655 0016 FFF7FEFF 		bl	isr_Timer_LED_StartEx
 151:main.c        ****     S1_detected_StartEx(S1_DETECTED);
 656              		.loc 1 151 0
 657 001a 1A48     		ldr	r0, .L33+8
 658 001c FFF7FEFF 		bl	S1_detected_StartEx
 152:main.c        ****     S2_detected_StartEx(S2_DETECTED);
 659              		.loc 1 152 0
 660 0020 1948     		ldr	r0, .L33+12
 661 0022 FFF7FEFF 		bl	S2_detected_StartEx
 153:main.c        ****     S3_detected_StartEx(S3_DETECTED);
 662              		.loc 1 153 0
 663 0026 1948     		ldr	r0, .L33+16
 664 0028 FFF7FEFF 		bl	S3_detected_StartEx
 154:main.c        ****     S4_detected_StartEx(S4_DETECTED);
 665              		.loc 1 154 0
 666 002c 1848     		ldr	r0, .L33+20
 667 002e FFF7FEFF 		bl	S4_detected_StartEx
 155:main.c        ****     S5_detected_StartEx(S5_DETECTED);
 668              		.loc 1 155 0
 669 0032 1848     		ldr	r0, .L33+24
 670 0034 FFF7FEFF 		bl	S5_detected_StartEx
 156:main.c        ****     S6_detected_StartEx(S6_DETECTED);
 671              		.loc 1 156 0
 672 0038 1748     		ldr	r0, .L33+28
 673 003a FFF7FEFF 		bl	S6_detected_StartEx
 157:main.c        ****     Timer_LED_Start();
 674              		.loc 1 157 0
 675 003e FFF7FEFF 		bl	Timer_LED_Start
 158:main.c        ****     //stopMoving();
 159:main.c        **** 
 160:main.c        **** // ------USB SETUP ----------------    
 161:main.c        **** #ifdef USE_USB    
 162:main.c        ****     USBUART_Start(0,USBUART_5V_OPERATION);
 676              		.loc 1 162 0
 677 0042 0121     		movs	r1, #1
 678 0044 0020     		movs	r0, #0
 679 0046 FFF7FEFF 		bl	USBUART_Start
 163:main.c        **** #endif        
ARM GAS  C:\Users\rshu284\AppData\Local\Temp\ccuJOQzD.s 			page 16


 164:main.c        ****     RF_BT_SELECT_Write(0);
 680              		.loc 1 164 0
 681 004a 0020     		movs	r0, #0
 682 004c FFF7FEFF 		bl	RF_BT_SELECT_Write
 683              	.L32:
 165:main.c        ****     
 166:main.c        ****     //usbPutString("Initialised UART");
 167:main.c        ****     for(;;)
 168:main.c        ****     {
 169:main.c        ****         //traverseMap(map);
 170:main.c        ****         //rotationAntiClockwise();
 171:main.c        ****         //rotationClockwise();
 172:main.c        ****         
 173:main.c        ****         
 174:main.c        ****         
 175:main.c        ****         if(timerInt == 1) {
 684              		.loc 1 175 0
 685 0050 124B     		ldr	r3, .L33+32
 686 0052 1B68     		ldr	r3, [r3]
 687 0054 012B     		cmp	r3, #1
 688 0056 08D1     		bne	.L30
 176:main.c        ****             timerInt = 0;
 689              		.loc 1 176 0
 690 0058 104B     		ldr	r3, .L33+32
 691 005a 0022     		movs	r2, #0
 692 005c 1A60     		str	r2, [r3]
 177:main.c        ****             // calculate RPM of M2
 178:main.c        ****             quadCountToRPM(quadDec2Count);
 693              		.loc 1 178 0
 694 005e 104B     		ldr	r3, .L33+36
 695 0060 1B68     		ldr	r3, [r3]
 696 0062 9BB2     		uxth	r3, r3
 697 0064 1846     		mov	r0, r3
 698 0066 FFF7FEFF 		bl	quadCountToRPM
 699              	.L30:
 179:main.c        ****             //sprintf(buffer, "%lu", totalDistance);
 180:main.c        ****             //usbPutString(buffer);
 181:main.c        ****             //usbPutString(" ");
 182:main.c        ****         }
 183:main.c        ****         //handle_usb();
 184:main.c        ****         if (flag_KB_string == 1)
 700              		.loc 1 184 0
 701 006a 0E4B     		ldr	r3, .L33+40
 702 006c 1B78     		ldrb	r3, [r3]	@ zero_extendqisi2
 703 006e 012B     		cmp	r3, #1
 704 0070 EED1     		bne	.L32
 185:main.c        ****         {
 186:main.c        ****             //usbPutString("Total Distance: ");
 187:main.c        ****             //sprintf(buffer, "%lu", totalDistance);
 188:main.c        ****             //usbPutString(buffer);
 189:main.c        ****             flag_KB_string = 0;
 705              		.loc 1 189 0
 706 0072 0C4B     		ldr	r3, .L33+40
 707 0074 0022     		movs	r2, #0
 708 0076 1A70     		strb	r2, [r3]
 190:main.c        ****         }           
 191:main.c        ****     }
ARM GAS  C:\Users\rshu284\AppData\Local\Temp\ccuJOQzD.s 			page 17


 709              		.loc 1 191 0
 710 0078 EAE7     		b	.L32
 711              	.L34:
 712 007a 00BF     		.align	2
 713              	.L33:
 714 007c 00000000 		.word	speedTimer
 715 0080 00000000 		.word	TIMER_FINISH
 716 0084 00000000 		.word	S1_DETECTED
 717 0088 00000000 		.word	S2_DETECTED
 718 008c 00000000 		.word	S3_DETECTED
 719 0090 00000000 		.word	S4_DETECTED
 720 0094 00000000 		.word	S5_DETECTED
 721 0098 00000000 		.word	S6_DETECTED
 722 009c 00000000 		.word	timerInt
 723 00a0 00000000 		.word	quadDec2Count
 724 00a4 00000000 		.word	flag_KB_string
 725              		.cfi_endproc
 726              	.LFE72:
 727              		.size	main, .-main
 728              		.global	__aeabi_fmul
 729              		.global	__aeabi_f2iz
 730              		.section	.text.quadCountToRPM,"ax",%progbits
 731              		.align	2
 732              		.global	quadCountToRPM
 733              		.thumb
 734              		.thumb_func
 735              		.type	quadCountToRPM, %function
 736              	quadCountToRPM:
 737              	.LFB73:
 192:main.c        ****     return 0;
 193:main.c        **** }
 194:main.c        **** 
 195:main.c        **** // Calculations
 196:main.c        **** //* ========================================
 197:main.c        **** int16 quadCountToRPM(uint16 count)
 198:main.c        **** {
 738              		.loc 1 198 0
 739              		.cfi_startproc
 740              		@ args = 0, pretend = 0, frame = 16
 741              		@ frame_needed = 1, uses_anonymous_args = 0
 742 0000 90B5     		push	{r4, r7, lr}
 743              		.cfi_def_cfa_offset 12
 744              		.cfi_offset 4, -12
 745              		.cfi_offset 7, -8
 746              		.cfi_offset 14, -4
 747 0002 85B0     		sub	sp, sp, #20
 748              		.cfi_def_cfa_offset 32
 749 0004 00AF     		add	r7, sp, #0
 750              		.cfi_def_cfa_register 7
 751 0006 0346     		mov	r3, r0
 752 0008 FB80     		strh	r3, [r7, #6]	@ movhi
 199:main.c        ****     float cps = count/57.00;
 753              		.loc 1 199 0
 754 000a FB88     		ldrh	r3, [r7, #6]
 755 000c 1846     		mov	r0, r3
 756 000e FFF7FEFF 		bl	__aeabi_i2d
 757 0012 4FF00002 		mov	r2, #0
ARM GAS  C:\Users\rshu284\AppData\Local\Temp\ccuJOQzD.s 			page 18


 758 0016 0D4B     		ldr	r3, .L37
 759 0018 FFF7FEFF 		bl	__aeabi_ddiv
 760 001c 0346     		mov	r3, r0
 761 001e 0C46     		mov	r4, r1
 762 0020 1846     		mov	r0, r3
 763 0022 2146     		mov	r1, r4
 764 0024 FFF7FEFF 		bl	__aeabi_d2f
 765 0028 0346     		mov	r3, r0
 766 002a FB60     		str	r3, [r7, #12]	@ float
 200:main.c        ****     int16 rpm = (int16)(cps*15); // rpm value
 767              		.loc 1 200 0
 768 002c 0849     		ldr	r1, .L37+4
 769 002e F868     		ldr	r0, [r7, #12]	@ float
 770 0030 FFF7FEFF 		bl	__aeabi_fmul
 771 0034 0346     		mov	r3, r0
 772 0036 1846     		mov	r0, r3
 773 0038 FFF7FEFF 		bl	__aeabi_f2iz
 774 003c 0346     		mov	r3, r0
 775 003e 7B81     		strh	r3, [r7, #10]	@ movhi
 201:main.c        ****     //sprintf(buffer, "%d", rpm); // store in buffer
 202:main.c        ****     return rpm;
 776              		.loc 1 202 0
 777 0040 B7F90A30 		ldrsh	r3, [r7, #10]
 203:main.c        ****     //usbPutString(buffer);
 204:main.c        ****     //usbPutString("rpm ");
 205:main.c        **** }
 778              		.loc 1 205 0
 779 0044 1846     		mov	r0, r3
 780 0046 1437     		adds	r7, r7, #20
 781              		.cfi_def_cfa_offset 12
 782 0048 BD46     		mov	sp, r7
 783              		.cfi_def_cfa_register 13
 784              		@ sp needed
 785 004a 90BD     		pop	{r4, r7, pc}
 786              	.L38:
 787              		.align	2
 788              	.L37:
 789 004c 00804C40 		.word	1078755328
 790 0050 00007041 		.word	1097859072
 791              		.cfi_endproc
 792              	.LFE73:
 793              		.size	quadCountToRPM, .-quadCountToRPM
 794              		.section	.text.ResetSensorFlags,"ax",%progbits
 795              		.align	2
 796              		.global	ResetSensorFlags
 797              		.thumb
 798              		.thumb_func
 799              		.type	ResetSensorFlags, %function
 800              	ResetSensorFlags:
 801              	.LFB74:
 206:main.c        **** 
 207:main.c        **** // Resets all sensor flags to 0 - i.e. currently out of map
 208:main.c        **** void ResetSensorFlags() {
 802              		.loc 1 208 0
 803              		.cfi_startproc
 804              		@ args = 0, pretend = 0, frame = 0
 805              		@ frame_needed = 1, uses_anonymous_args = 0
ARM GAS  C:\Users\rshu284\AppData\Local\Temp\ccuJOQzD.s 			page 19


 806              		@ link register save eliminated.
 807 0000 80B4     		push	{r7}
 808              		.cfi_def_cfa_offset 4
 809              		.cfi_offset 7, -4
 810 0002 00AF     		add	r7, sp, #0
 811              		.cfi_def_cfa_register 7
 209:main.c        ****     s1 = 0;
 812              		.loc 1 209 0
 813 0004 0A4B     		ldr	r3, .L40
 814 0006 0022     		movs	r2, #0
 815 0008 1A70     		strb	r2, [r3]
 210:main.c        ****     s2 = 0;
 816              		.loc 1 210 0
 817 000a 0A4B     		ldr	r3, .L40+4
 818 000c 0022     		movs	r2, #0
 819 000e 1A70     		strb	r2, [r3]
 211:main.c        ****     s3 = 0;
 820              		.loc 1 211 0
 821 0010 094B     		ldr	r3, .L40+8
 822 0012 0022     		movs	r2, #0
 823 0014 1A70     		strb	r2, [r3]
 212:main.c        ****     s4 = 0;
 824              		.loc 1 212 0
 825 0016 094B     		ldr	r3, .L40+12
 826 0018 0022     		movs	r2, #0
 827 001a 1A70     		strb	r2, [r3]
 213:main.c        ****     s5 = 0;
 828              		.loc 1 213 0
 829 001c 084B     		ldr	r3, .L40+16
 830 001e 0022     		movs	r2, #0
 831 0020 1A70     		strb	r2, [r3]
 214:main.c        ****     s6 = 0;
 832              		.loc 1 214 0
 833 0022 084B     		ldr	r3, .L40+20
 834 0024 0022     		movs	r2, #0
 835 0026 1A70     		strb	r2, [r3]
 215:main.c        **** }
 836              		.loc 1 215 0
 837 0028 00BF     		nop
 838 002a BD46     		mov	sp, r7
 839              		.cfi_def_cfa_register 13
 840              		@ sp needed
 841 002c 80BC     		pop	{r7}
 842              		.cfi_restore 7
 843              		.cfi_def_cfa_offset 0
 844 002e 7047     		bx	lr
 845              	.L41:
 846              		.align	2
 847              	.L40:
 848 0030 00000000 		.word	s1
 849 0034 00000000 		.word	s2
 850 0038 00000000 		.word	s3
 851 003c 00000000 		.word	s4
 852 0040 00000000 		.word	s5
 853 0044 00000000 		.word	s6
 854              		.cfi_endproc
 855              	.LFE74:
ARM GAS  C:\Users\rshu284\AppData\Local\Temp\ccuJOQzD.s 			page 20


 856              		.size	ResetSensorFlags, .-ResetSensorFlags
 857              		.global	__aeabi_fcmpge
 858              		.section	.text.CheckSensorDirection,"ax",%progbits
 859              		.align	2
 860              		.global	CheckSensorDirection
 861              		.thumb
 862              		.thumb_func
 863              		.type	CheckSensorDirection, %function
 864              	CheckSensorDirection:
 865              	.LFB75:
 216:main.c        **** 
 217:main.c        **** // This function checks the sensor flags s1-s6 through a boolean truth table and
 218:main.c        **** // returns a enum direction state depending on the flag configuration
 219:main.c        **** // if no conditons are met, it returns Unknown -- need to fix this edge case
 220:main.c        **** // s1 = 0 -- Black
 221:main.c        **** // s1 = 1 -- White
 222:main.c        **** enum DirectionState CheckSensorDirection() {
 866              		.loc 1 222 0
 867              		.cfi_startproc
 868              		@ args = 0, pretend = 0, frame = 8
 869              		@ frame_needed = 1, uses_anonymous_args = 0
 870 0000 80B5     		push	{r7, lr}
 871              		.cfi_def_cfa_offset 8
 872              		.cfi_offset 7, -8
 873              		.cfi_offset 14, -4
 874 0002 82B0     		sub	sp, sp, #8
 875              		.cfi_def_cfa_offset 16
 876 0004 00AF     		add	r7, sp, #0
 877              		.cfi_def_cfa_register 7
 223:main.c        ****     enum DirectionState directionState = Stop;
 878              		.loc 1 223 0
 879 0006 0523     		movs	r3, #5
 880 0008 7B60     		str	r3, [r7, #4]
 224:main.c        ****     previousDirection = currentDirection;
 881              		.loc 1 224 0
 882 000a 8B4B     		ldr	r3, .L71
 883 000c 1B68     		ldr	r3, [r3]
 884 000e 8B4A     		ldr	r2, .L71+4
 885 0010 1360     		str	r3, [r2]
 225:main.c        ****     
 226:main.c        ****     if (totalDistance >= STOPPING_DISTANCE) {
 886              		.loc 1 226 0
 887 0012 8B4B     		ldr	r3, .L71+8
 888 0014 1B68     		ldr	r3, [r3]	@ float
 889 0016 8B49     		ldr	r1, .L71+12
 890 0018 1846     		mov	r0, r3
 891 001a FFF7FEFF 		bl	__aeabi_fcmpge
 892 001e 0346     		mov	r3, r0
 893 0020 002B     		cmp	r3, #0
 894 0022 03D0     		beq	.L70
 227:main.c        ****         directionState = Stop;
 895              		.loc 1 227 0
 896 0024 0523     		movs	r3, #5
 897 0026 7B60     		str	r3, [r7, #4]
 228:main.c        ****         return directionState;
 898              		.loc 1 228 0
 899 0028 7B68     		ldr	r3, [r7, #4]
ARM GAS  C:\Users\rshu284\AppData\Local\Temp\ccuJOQzD.s 			page 21


 900 002a 00E1     		b	.L45
 901              	.L70:
 229:main.c        ****     }
 230:main.c        ****    
 231:main.c        ****     if (previousDirection == Stop) {
 902              		.loc 1 231 0
 903 002c 834B     		ldr	r3, .L71+4
 904 002e 1B68     		ldr	r3, [r3]
 905 0030 052B     		cmp	r3, #5
 906 0032 0AD1     		bne	.L46
 232:main.c        ****         if (stopBuffer <= 10) {
 907              		.loc 1 232 0
 908 0034 844B     		ldr	r3, .L71+16
 909 0036 1B68     		ldr	r3, [r3]
 910 0038 0A2B     		cmp	r3, #10
 911 003a 02D8     		bhi	.L47
 233:main.c        ****             directionState = Stop;
 912              		.loc 1 233 0
 913 003c 0523     		movs	r3, #5
 914 003e 7B60     		str	r3, [r7, #4]
 915 0040 01E0     		b	.L48
 916              	.L47:
 234:main.c        ****         } else {
 235:main.c        ****             directionState = ForwardAfterTurn;
 917              		.loc 1 235 0
 918 0042 0923     		movs	r3, #9
 919 0044 7B60     		str	r3, [r7, #4]
 920              	.L48:
 236:main.c        ****         }
 237:main.c        ****         return directionState;
 921              		.loc 1 237 0
 922 0046 7B68     		ldr	r3, [r7, #4]
 923 0048 F1E0     		b	.L45
 924              	.L46:
 238:main.c        ****     }
 239:main.c        ****     
 240:main.c        ****     if (previousDirection == ForwardAfterTurn) {
 925              		.loc 1 240 0
 926 004a 7C4B     		ldr	r3, .L71+4
 927 004c 1B68     		ldr	r3, [r3]
 928 004e 092B     		cmp	r3, #9
 929 0050 0BD1     		bne	.L49
 241:main.c        ****         if (s3 || s4) {
 930              		.loc 1 241 0
 931 0052 7E4B     		ldr	r3, .L71+20
 932 0054 1B78     		ldrb	r3, [r3]	@ zero_extendqisi2
 933 0056 002B     		cmp	r3, #0
 934 0058 03D1     		bne	.L50
 935              		.loc 1 241 0 is_stmt 0 discriminator 1
 936 005a 7D4B     		ldr	r3, .L71+24
 937 005c 1B78     		ldrb	r3, [r3]	@ zero_extendqisi2
 938 005e 002B     		cmp	r3, #0
 939 0060 03D0     		beq	.L49
 940              	.L50:
 242:main.c        ****             directionState = Forward;
 941              		.loc 1 242 0 is_stmt 1
 942 0062 0023     		movs	r3, #0
ARM GAS  C:\Users\rshu284\AppData\Local\Temp\ccuJOQzD.s 			page 22


 943 0064 7B60     		str	r3, [r7, #4]
 243:main.c        ****             return directionState;
 944              		.loc 1 243 0
 945 0066 7B68     		ldr	r3, [r7, #4]
 946 0068 E1E0     		b	.L45
 947              	.L49:
 244:main.c        ****         }
 245:main.c        ****     }
 246:main.c        ****     
 247:main.c        **** 
 248:main.c        ****     if(previousDirection == TurnRight) {
 948              		.loc 1 248 0
 949 006a 744B     		ldr	r3, .L71+4
 950 006c 1B68     		ldr	r3, [r3]
 951 006e 012B     		cmp	r3, #1
 952 0070 17D1     		bne	.L51
 249:main.c        ****         if(s5 && s6) {
 953              		.loc 1 249 0
 954 0072 784B     		ldr	r3, .L71+28
 955 0074 1B78     		ldrb	r3, [r3]	@ zero_extendqisi2
 956 0076 002B     		cmp	r3, #0
 957 0078 07D0     		beq	.L52
 958              		.loc 1 249 0 is_stmt 0 discriminator 1
 959 007a 774B     		ldr	r3, .L71+32
 960 007c 1B78     		ldrb	r3, [r3]	@ zero_extendqisi2
 961 007e 002B     		cmp	r3, #0
 962 0080 03D0     		beq	.L52
 250:main.c        ****             directionState = TurnRight;
 963              		.loc 1 250 0 is_stmt 1
 964 0082 0123     		movs	r3, #1
 965 0084 7B60     		str	r3, [r7, #4]
 251:main.c        ****             return directionState;
 966              		.loc 1 251 0
 967 0086 7B68     		ldr	r3, [r7, #4]
 968 0088 D1E0     		b	.L45
 969              	.L52:
 252:main.c        ****         } 
 253:main.c        ****         else if (!s5 || !s6) {
 970              		.loc 1 253 0
 971 008a 724B     		ldr	r3, .L71+28
 972 008c 1B78     		ldrb	r3, [r3]	@ zero_extendqisi2
 973 008e 002B     		cmp	r3, #0
 974 0090 03D0     		beq	.L53
 975              		.loc 1 253 0 is_stmt 0 discriminator 1
 976 0092 714B     		ldr	r3, .L71+32
 977 0094 1B78     		ldrb	r3, [r3]	@ zero_extendqisi2
 978 0096 002B     		cmp	r3, #0
 979 0098 03D1     		bne	.L51
 980              	.L53:
 254:main.c        ****             directionState = Stop;
 981              		.loc 1 254 0 is_stmt 1
 982 009a 0523     		movs	r3, #5
 983 009c 7B60     		str	r3, [r7, #4]
 255:main.c        ****             return directionState;
 984              		.loc 1 255 0
 985 009e 7B68     		ldr	r3, [r7, #4]
 986 00a0 C5E0     		b	.L45
ARM GAS  C:\Users\rshu284\AppData\Local\Temp\ccuJOQzD.s 			page 23


 987              	.L51:
 256:main.c        ****         }
 257:main.c        ****     }    
 258:main.c        **** 
 259:main.c        ****     if(previousDirection == TurnLeft) {
 988              		.loc 1 259 0
 989 00a2 664B     		ldr	r3, .L71+4
 990 00a4 1B68     		ldr	r3, [r3]
 991 00a6 022B     		cmp	r3, #2
 992 00a8 17D1     		bne	.L54
 260:main.c        ****         if(s5 && s6) {
 993              		.loc 1 260 0
 994 00aa 6A4B     		ldr	r3, .L71+28
 995 00ac 1B78     		ldrb	r3, [r3]	@ zero_extendqisi2
 996 00ae 002B     		cmp	r3, #0
 997 00b0 07D0     		beq	.L55
 998              		.loc 1 260 0 is_stmt 0 discriminator 1
 999 00b2 694B     		ldr	r3, .L71+32
 1000 00b4 1B78     		ldrb	r3, [r3]	@ zero_extendqisi2
 1001 00b6 002B     		cmp	r3, #0
 1002 00b8 03D0     		beq	.L55
 261:main.c        ****             directionState = TurnLeft;
 1003              		.loc 1 261 0 is_stmt 1
 1004 00ba 0223     		movs	r3, #2
 1005 00bc 7B60     		str	r3, [r7, #4]
 262:main.c        ****             return directionState;
 1006              		.loc 1 262 0
 1007 00be 7B68     		ldr	r3, [r7, #4]
 1008 00c0 B5E0     		b	.L45
 1009              	.L55:
 263:main.c        ****         } 
 264:main.c        ****         else if (!s5 || !s6) {
 1010              		.loc 1 264 0
 1011 00c2 644B     		ldr	r3, .L71+28
 1012 00c4 1B78     		ldrb	r3, [r3]	@ zero_extendqisi2
 1013 00c6 002B     		cmp	r3, #0
 1014 00c8 03D0     		beq	.L56
 1015              		.loc 1 264 0 is_stmt 0 discriminator 1
 1016 00ca 634B     		ldr	r3, .L71+32
 1017 00cc 1B78     		ldrb	r3, [r3]	@ zero_extendqisi2
 1018 00ce 002B     		cmp	r3, #0
 1019 00d0 03D1     		bne	.L54
 1020              	.L56:
 265:main.c        ****             directionState = Stop;
 1021              		.loc 1 265 0 is_stmt 1
 1022 00d2 0523     		movs	r3, #5
 1023 00d4 7B60     		str	r3, [r7, #4]
 266:main.c        ****             return directionState;
 1024              		.loc 1 266 0
 1025 00d6 7B68     		ldr	r3, [r7, #4]
 1026 00d8 A9E0     		b	.L45
 1027              	.L54:
 267:main.c        ****         }
 268:main.c        ****     }
 269:main.c        ****     
 270:main.c        ****     if (previousDirection == waitForTurn) {
 1028              		.loc 1 270 0
ARM GAS  C:\Users\rshu284\AppData\Local\Temp\ccuJOQzD.s 			page 24


 1029 00da 584B     		ldr	r3, .L71+4
 1030 00dc 1B68     		ldr	r3, [r3]
 1031 00de 082B     		cmp	r3, #8
 1032 00e0 13D1     		bne	.L57
 271:main.c        ****         // If we are waiting for a turn, look for left sensor and right sensor, otherwise keep wait
 272:main.c        ****         if (!s3) {
 1033              		.loc 1 272 0
 1034 00e2 5A4B     		ldr	r3, .L71+20
 1035 00e4 1B78     		ldrb	r3, [r3]	@ zero_extendqisi2
 1036 00e6 002B     		cmp	r3, #0
 1037 00e8 03D1     		bne	.L58
 273:main.c        ****             directionState = TurnLeft;
 1038              		.loc 1 273 0
 1039 00ea 0223     		movs	r3, #2
 1040 00ec 7B60     		str	r3, [r7, #4]
 274:main.c        ****             return directionState;
 1041              		.loc 1 274 0
 1042 00ee 7B68     		ldr	r3, [r7, #4]
 1043 00f0 9DE0     		b	.L45
 1044              	.L58:
 275:main.c        ****         }
 276:main.c        ****         if (!s4) {
 1045              		.loc 1 276 0
 1046 00f2 574B     		ldr	r3, .L71+24
 1047 00f4 1B78     		ldrb	r3, [r3]	@ zero_extendqisi2
 1048 00f6 002B     		cmp	r3, #0
 1049 00f8 03D1     		bne	.L59
 277:main.c        ****             directionState = TurnRight;   
 1050              		.loc 1 277 0
 1051 00fa 0123     		movs	r3, #1
 1052 00fc 7B60     		str	r3, [r7, #4]
 278:main.c        ****             return directionState;
 1053              		.loc 1 278 0
 1054 00fe 7B68     		ldr	r3, [r7, #4]
 1055 0100 95E0     		b	.L45
 1056              	.L59:
 279:main.c        ****         }
 280:main.c        ****         directionState = waitForTurn;
 1057              		.loc 1 280 0
 1058 0102 0823     		movs	r3, #8
 1059 0104 7B60     		str	r3, [r7, #4]
 281:main.c        ****         return directionState;
 1060              		.loc 1 281 0
 1061 0106 7B68     		ldr	r3, [r7, #4]
 1062 0108 91E0     		b	.L45
 1063              	.L57:
 282:main.c        ****     }
 283:main.c        ****     
 284:main.c        **** 
 285:main.c        **** 
 286:main.c        ****     // wait for turn at end of line
 287:main.c        ****     if(s5 && s6 && (previousDirection == Forward || (previousDirection == AdjustToTheLeft || previo
 1064              		.loc 1 287 0
 1065 010a 524B     		ldr	r3, .L71+28
 1066 010c 1B78     		ldrb	r3, [r3]	@ zero_extendqisi2
 1067 010e 002B     		cmp	r3, #0
 1068 0110 13D0     		beq	.L60
ARM GAS  C:\Users\rshu284\AppData\Local\Temp\ccuJOQzD.s 			page 25


 1069              		.loc 1 287 0 is_stmt 0 discriminator 1
 1070 0112 514B     		ldr	r3, .L71+32
 1071 0114 1B78     		ldrb	r3, [r3]	@ zero_extendqisi2
 1072 0116 002B     		cmp	r3, #0
 1073 0118 0FD0     		beq	.L60
 1074              		.loc 1 287 0 discriminator 2
 1075 011a 484B     		ldr	r3, .L71+4
 1076 011c 1B68     		ldr	r3, [r3]
 1077 011e 002B     		cmp	r3, #0
 1078 0120 07D0     		beq	.L61
 1079              		.loc 1 287 0 discriminator 3
 1080 0122 464B     		ldr	r3, .L71+4
 1081 0124 1B68     		ldr	r3, [r3]
 1082 0126 032B     		cmp	r3, #3
 1083 0128 03D0     		beq	.L61
 1084              		.loc 1 287 0 discriminator 4
 1085 012a 444B     		ldr	r3, .L71+4
 1086 012c 1B68     		ldr	r3, [r3]
 1087 012e 042B     		cmp	r3, #4
 1088 0130 03D1     		bne	.L60
 1089              	.L61:
 288:main.c        ****         directionState = waitForTurn; // need to wait to check for a black line
 1090              		.loc 1 288 0 is_stmt 1
 1091 0132 0823     		movs	r3, #8
 1092 0134 7B60     		str	r3, [r7, #4]
 289:main.c        ****         return directionState;
 1093              		.loc 1 289 0
 1094 0136 7B68     		ldr	r3, [r7, #4]
 1095 0138 79E0     		b	.L45
 1096              	.L60:
 290:main.c        ****     }
 291:main.c        ****     
 292:main.c        ****     // course correction
 293:main.c        ****     if (previousDirection == Forward || previousDirection == AdjustToTheLeft || previousDirection =
 1097              		.loc 1 293 0
 1098 013a 404B     		ldr	r3, .L71+4
 1099 013c 1B68     		ldr	r3, [r3]
 1100 013e 002B     		cmp	r3, #0
 1101 0140 07D0     		beq	.L62
 1102              		.loc 1 293 0 is_stmt 0 discriminator 1
 1103 0142 3E4B     		ldr	r3, .L71+4
 1104 0144 1B68     		ldr	r3, [r3]
 1105 0146 032B     		cmp	r3, #3
 1106 0148 03D0     		beq	.L62
 1107              		.loc 1 293 0 discriminator 2
 1108 014a 3C4B     		ldr	r3, .L71+4
 1109 014c 1B68     		ldr	r3, [r3]
 1110 014e 042B     		cmp	r3, #4
 1111 0150 0FD1     		bne	.L63
 1112              	.L62:
 294:main.c        ****         
 295:main.c        ****         /*
 296:main.c        ****         // If both are on white, we assume we are off the line and use the back two sensors as back
 297:main.c        ****         if (s5 && s6) {
 298:main.c        ****             
 299:main.c        ****             if (s1 && s2) {
 300:main.c        ****                 directionState = Forward;
ARM GAS  C:\Users\rshu284\AppData\Local\Temp\ccuJOQzD.s 			page 26


 301:main.c        ****                 return directionState;
 302:main.c        ****             }
 303:main.c        ****             if (!s1) {
 304:main.c        ****                 directionState = AdjustToTheRight;
 305:main.c        ****                 return directionState;
 306:main.c        ****             }
 307:main.c        ****             if (!s2) {
 308:main.c        ****                 directionState = AdjustToTheLeft;
 309:main.c        ****                 return directionState;
 310:main.c        ****             }
 311:main.c        ****             
 312:main.c        ****             directionState = Forward;
 313:main.c        ****             return directionState;
 314:main.c        ****         }
 315:main.c        ****             */
 316:main.c        ****         
 317:main.c        ****         
 318:main.c        ****         if(s6) {
 1113              		.loc 1 318 0 is_stmt 1
 1114 0152 414B     		ldr	r3, .L71+32
 1115 0154 1B78     		ldrb	r3, [r3]	@ zero_extendqisi2
 1116 0156 002B     		cmp	r3, #0
 1117 0158 03D0     		beq	.L64
 319:main.c        ****             directionState = AdjustToTheLeft; // keep adjusting to the left
 1118              		.loc 1 319 0
 1119 015a 0323     		movs	r3, #3
 1120 015c 7B60     		str	r3, [r7, #4]
 320:main.c        ****             return directionState;
 1121              		.loc 1 320 0
 1122 015e 7B68     		ldr	r3, [r7, #4]
 1123 0160 65E0     		b	.L45
 1124              	.L64:
 321:main.c        ****         }
 322:main.c        ****         if(s5) {
 1125              		.loc 1 322 0
 1126 0162 3C4B     		ldr	r3, .L71+28
 1127 0164 1B78     		ldrb	r3, [r3]	@ zero_extendqisi2
 1128 0166 002B     		cmp	r3, #0
 1129 0168 03D0     		beq	.L63
 323:main.c        ****             directionState = AdjustToTheRight; // keep adjusting to the right
 1130              		.loc 1 323 0
 1131 016a 0423     		movs	r3, #4
 1132 016c 7B60     		str	r3, [r7, #4]
 324:main.c        ****             return directionState;
 1133              		.loc 1 324 0
 1134 016e 7B68     		ldr	r3, [r7, #4]
 1135 0170 5DE0     		b	.L45
 1136              	.L63:
 325:main.c        ****         }
 326:main.c        ****     }
 327:main.c        ****     
 328:main.c        ****     // forward 111100
 329:main.c        ****     if (s1 && s2 && s3 && s4 && !s5 && !s6) {
 1137              		.loc 1 329 0
 1138 0172 3A4B     		ldr	r3, .L71+36
 1139 0174 1B78     		ldrb	r3, [r3]	@ zero_extendqisi2
 1140 0176 002B     		cmp	r3, #0
ARM GAS  C:\Users\rshu284\AppData\Local\Temp\ccuJOQzD.s 			page 27


 1141 0178 17D0     		beq	.L65
 1142              		.loc 1 329 0 is_stmt 0 discriminator 1
 1143 017a 394B     		ldr	r3, .L71+40
 1144 017c 1B78     		ldrb	r3, [r3]	@ zero_extendqisi2
 1145 017e 002B     		cmp	r3, #0
 1146 0180 13D0     		beq	.L65
 1147              		.loc 1 329 0 discriminator 2
 1148 0182 324B     		ldr	r3, .L71+20
 1149 0184 1B78     		ldrb	r3, [r3]	@ zero_extendqisi2
 1150 0186 002B     		cmp	r3, #0
 1151 0188 0FD0     		beq	.L65
 1152              		.loc 1 329 0 discriminator 3
 1153 018a 314B     		ldr	r3, .L71+24
 1154 018c 1B78     		ldrb	r3, [r3]	@ zero_extendqisi2
 1155 018e 002B     		cmp	r3, #0
 1156 0190 0BD0     		beq	.L65
 1157              		.loc 1 329 0 discriminator 4
 1158 0192 304B     		ldr	r3, .L71+28
 1159 0194 1B78     		ldrb	r3, [r3]	@ zero_extendqisi2
 1160 0196 002B     		cmp	r3, #0
 1161 0198 07D1     		bne	.L65
 1162              		.loc 1 329 0 discriminator 5
 1163 019a 2F4B     		ldr	r3, .L71+32
 1164 019c 1B78     		ldrb	r3, [r3]	@ zero_extendqisi2
 1165 019e 002B     		cmp	r3, #0
 1166 01a0 03D1     		bne	.L65
 330:main.c        ****         directionState = Forward;
 1167              		.loc 1 330 0 is_stmt 1
 1168 01a2 0023     		movs	r3, #0
 1169 01a4 7B60     		str	r3, [r7, #4]
 331:main.c        ****         return directionState;   
 1170              		.loc 1 331 0
 1171 01a6 7B68     		ldr	r3, [r7, #4]
 1172 01a8 41E0     		b	.L45
 1173              	.L65:
 332:main.c        ****     }
 333:main.c        ****     
 334:main.c        ****     //turn left 110111
 335:main.c        ****     if (s1 && s2 && !s3 && s4 && s5 && s6) {
 1174              		.loc 1 335 0
 1175 01aa 2C4B     		ldr	r3, .L71+36
 1176 01ac 1B78     		ldrb	r3, [r3]	@ zero_extendqisi2
 1177 01ae 002B     		cmp	r3, #0
 1178 01b0 17D0     		beq	.L66
 1179              		.loc 1 335 0 is_stmt 0 discriminator 1
 1180 01b2 2B4B     		ldr	r3, .L71+40
 1181 01b4 1B78     		ldrb	r3, [r3]	@ zero_extendqisi2
 1182 01b6 002B     		cmp	r3, #0
 1183 01b8 13D0     		beq	.L66
 1184              		.loc 1 335 0 discriminator 2
 1185 01ba 244B     		ldr	r3, .L71+20
 1186 01bc 1B78     		ldrb	r3, [r3]	@ zero_extendqisi2
 1187 01be 002B     		cmp	r3, #0
 1188 01c0 0FD1     		bne	.L66
 1189              		.loc 1 335 0 discriminator 3
 1190 01c2 234B     		ldr	r3, .L71+24
 1191 01c4 1B78     		ldrb	r3, [r3]	@ zero_extendqisi2
ARM GAS  C:\Users\rshu284\AppData\Local\Temp\ccuJOQzD.s 			page 28


 1192 01c6 002B     		cmp	r3, #0
 1193 01c8 0BD0     		beq	.L66
 1194              		.loc 1 335 0 discriminator 4
 1195 01ca 224B     		ldr	r3, .L71+28
 1196 01cc 1B78     		ldrb	r3, [r3]	@ zero_extendqisi2
 1197 01ce 002B     		cmp	r3, #0
 1198 01d0 07D0     		beq	.L66
 1199              		.loc 1 335 0 discriminator 5
 1200 01d2 214B     		ldr	r3, .L71+32
 1201 01d4 1B78     		ldrb	r3, [r3]	@ zero_extendqisi2
 1202 01d6 002B     		cmp	r3, #0
 1203 01d8 03D0     		beq	.L66
 336:main.c        ****         directionState = TurnLeft;
 1204              		.loc 1 336 0 is_stmt 1
 1205 01da 0223     		movs	r3, #2
 1206 01dc 7B60     		str	r3, [r7, #4]
 337:main.c        ****         return directionState;
 1207              		.loc 1 337 0
 1208 01de 7B68     		ldr	r3, [r7, #4]
 1209 01e0 25E0     		b	.L45
 1210              	.L66:
 338:main.c        ****     }
 339:main.c        ****     
 340:main.c        ****     // turn right if 111011
 341:main.c        ****     if (s1 && s2 && s3 && !s4 && s5 && s6) {
 1211              		.loc 1 341 0
 1212 01e2 1E4B     		ldr	r3, .L71+36
 1213 01e4 1B78     		ldrb	r3, [r3]	@ zero_extendqisi2
 1214 01e6 002B     		cmp	r3, #0
 1215 01e8 17D0     		beq	.L67
 1216              		.loc 1 341 0 is_stmt 0 discriminator 1
 1217 01ea 1D4B     		ldr	r3, .L71+40
 1218 01ec 1B78     		ldrb	r3, [r3]	@ zero_extendqisi2
 1219 01ee 002B     		cmp	r3, #0
 1220 01f0 13D0     		beq	.L67
 1221              		.loc 1 341 0 discriminator 2
 1222 01f2 164B     		ldr	r3, .L71+20
 1223 01f4 1B78     		ldrb	r3, [r3]	@ zero_extendqisi2
 1224 01f6 002B     		cmp	r3, #0
 1225 01f8 0FD0     		beq	.L67
 1226              		.loc 1 341 0 discriminator 3
 1227 01fa 154B     		ldr	r3, .L71+24
 1228 01fc 1B78     		ldrb	r3, [r3]	@ zero_extendqisi2
 1229 01fe 002B     		cmp	r3, #0
 1230 0200 0BD1     		bne	.L67
 1231              		.loc 1 341 0 discriminator 4
 1232 0202 144B     		ldr	r3, .L71+28
 1233 0204 1B78     		ldrb	r3, [r3]	@ zero_extendqisi2
 1234 0206 002B     		cmp	r3, #0
 1235 0208 07D0     		beq	.L67
 1236              		.loc 1 341 0 discriminator 5
 1237 020a 134B     		ldr	r3, .L71+32
 1238 020c 1B78     		ldrb	r3, [r3]	@ zero_extendqisi2
 1239 020e 002B     		cmp	r3, #0
 1240 0210 03D0     		beq	.L67
 342:main.c        ****         directionState = TurnRight;
 1241              		.loc 1 342 0 is_stmt 1
ARM GAS  C:\Users\rshu284\AppData\Local\Temp\ccuJOQzD.s 			page 29


 1242 0212 0123     		movs	r3, #1
 1243 0214 7B60     		str	r3, [r7, #4]
 343:main.c        ****         return directionState;
 1244              		.loc 1 343 0
 1245 0216 7B68     		ldr	r3, [r7, #4]
 1246 0218 09E0     		b	.L45
 1247              	.L67:
 344:main.c        ****     }
 345:main.c        ****     
 346:main.c        ****     
 347:main.c        ****     // ====== After Initial turn ======
 348:main.c        ****     // -- This accounts for the transition period between turning at an intersection --
 349:main.c        ****     /*if (previousDirection == TurnRight || previousDirection == TurnLeft) {
 350:main.c        ****         if ((s1 && s2 && s3 && !s4 && !s5 && !s6) ||
 351:main.c        ****         (s1 && s2 && !s3 && s4 && !s5 && !s6)) {
 352:main.c        ****             directionState = HardForward;
 353:main.c        ****             return directionState;
 354:main.c        ****         }
 355:main.c        ****     }*/
 356:main.c        ****     
 357:main.c        ****     
 358:main.c        **** 
 359:main.c        ****     // If currentDirection is Unknown, we continue with the previous direction.
 360:main.c        ****     // However, if the previous direction is also Unknown, we will just move forward.
 361:main.c        ****     if (previousDirection == Unknown) {
 1248              		.loc 1 361 0
 1249 021a 084B     		ldr	r3, .L71+4
 1250 021c 1B68     		ldr	r3, [r3]
 1251 021e 062B     		cmp	r3, #6
 1252 0220 03D1     		bne	.L68
 362:main.c        ****         directionState = Forward;
 1253              		.loc 1 362 0
 1254 0222 0023     		movs	r3, #0
 1255 0224 7B60     		str	r3, [r7, #4]
 363:main.c        ****         return directionState;
 1256              		.loc 1 363 0
 1257 0226 7B68     		ldr	r3, [r7, #4]
 1258 0228 01E0     		b	.L45
 1259              	.L68:
 364:main.c        ****     }
 365:main.c        ****     
 366:main.c        ****     // Possible reason
 367:main.c        ****     return previousDirection;
 1260              		.loc 1 367 0
 1261 022a 044B     		ldr	r3, .L71+4
 1262 022c 1B68     		ldr	r3, [r3]
 1263              	.L45:
 368:main.c        **** }
 1264              		.loc 1 368 0
 1265 022e 1846     		mov	r0, r3
 1266 0230 0837     		adds	r7, r7, #8
 1267              		.cfi_def_cfa_offset 8
 1268 0232 BD46     		mov	sp, r7
 1269              		.cfi_def_cfa_register 13
 1270              		@ sp needed
 1271 0234 80BD     		pop	{r7, pc}
 1272              	.L72:
ARM GAS  C:\Users\rshu284\AppData\Local\Temp\ccuJOQzD.s 			page 30


 1273 0236 00BF     		.align	2
 1274              	.L71:
 1275 0238 00000000 		.word	currentDirection
 1276 023c 00000000 		.word	previousDirection
 1277 0240 00000000 		.word	totalDistance
 1278 0244 00409C45 		.word	1167867904
 1279 0248 00000000 		.word	stopBuffer
 1280 024c 00000000 		.word	s3
 1281 0250 00000000 		.word	s4
 1282 0254 00000000 		.word	s5
 1283 0258 00000000 		.word	s6
 1284 025c 00000000 		.word	s1
 1285 0260 00000000 		.word	s2
 1286              		.cfi_endproc
 1287              	.LFE75:
 1288              		.size	CheckSensorDirection, .-CheckSensorDirection
 1289              		.section	.text.SetRobotMovement,"ax",%progbits
 1290              		.align	2
 1291              		.global	SetRobotMovement
 1292              		.thumb
 1293              		.thumb_func
 1294              		.type	SetRobotMovement, %function
 1295              	SetRobotMovement:
 1296              	.LFB76:
 369:main.c        **** 
 370:main.c        **** // Sets robot movement direction state according to currentDirection which is set by Check
 371:main.c        **** void SetRobotMovement() {
 1297              		.loc 1 371 0
 1298              		.cfi_startproc
 1299              		@ args = 0, pretend = 0, frame = 0
 1300              		@ frame_needed = 1, uses_anonymous_args = 0
 1301 0000 80B5     		push	{r7, lr}
 1302              		.cfi_def_cfa_offset 8
 1303              		.cfi_offset 7, -8
 1304              		.cfi_offset 14, -4
 1305 0002 00AF     		add	r7, sp, #0
 1306              		.cfi_def_cfa_register 7
 372:main.c        ****     currentDirection = CheckSensorDirection();   
 1307              		.loc 1 372 0
 1308 0004 FFF7FEFF 		bl	CheckSensorDirection
 1309 0008 0246     		mov	r2, r0
 1310 000a 1E4B     		ldr	r3, .L89
 1311 000c 1A60     		str	r2, [r3]
 373:main.c        ****     
 374:main.c        ****     switch (currentDirection) {
 1312              		.loc 1 374 0
 1313 000e 1D4B     		ldr	r3, .L89
 1314 0010 1B68     		ldr	r3, [r3]
 1315 0012 0A2B     		cmp	r3, #10
 1316 0014 34D8     		bhi	.L87
 1317 0016 01A2     		adr	r2, .L76
 1318 0018 52F823F0 		ldr	pc, [r2, r3, lsl #2]
 1319              		.p2align 2
 1320              	.L76:
 1321 001c 49000000 		.word	.L75+1
 1322 0020 4F000000 		.word	.L77+1
 1323 0024 55000000 		.word	.L78+1
ARM GAS  C:\Users\rshu284\AppData\Local\Temp\ccuJOQzD.s 			page 31


 1324 0028 61000000 		.word	.L79+1
 1325 002c 5B000000 		.word	.L80+1
 1326 0030 67000000 		.word	.L81+1
 1327 0034 7F000000 		.word	.L88+1
 1328 0038 7F000000 		.word	.L88+1
 1329 003c 6D000000 		.word	.L84+1
 1330 0040 73000000 		.word	.L85+1
 1331 0044 79000000 		.word	.L86+1
 1332              		.p2align 1
 1333              	.L75:
 375:main.c        ****         //Forward, TurnRight, TurnLeft, AdjustToTheRight, AdjustToTheLeft, Stop, Unknown
 376:main.c        ****         case Forward:
 377:main.c        ****             moveForward();
 1334              		.loc 1 377 0
 1335 0048 FFF7FEFF 		bl	moveForward
 378:main.c        ****             break;
 1336              		.loc 1 378 0
 1337 004c 18E0     		b	.L74
 1338              	.L77:
 379:main.c        ****         case TurnRight:
 380:main.c        ****             turnRight();
 1339              		.loc 1 380 0
 1340 004e FFF7FEFF 		bl	turnRight
 381:main.c        ****             break;
 1341              		.loc 1 381 0
 1342 0052 15E0     		b	.L74
 1343              	.L78:
 382:main.c        ****         case TurnLeft:
 383:main.c        ****             turnLeft(); // try course correction methods for L/R turn
 1344              		.loc 1 383 0
 1345 0054 FFF7FEFF 		bl	turnLeft
 384:main.c        ****             break;
 1346              		.loc 1 384 0
 1347 0058 12E0     		b	.L74
 1348              	.L80:
 385:main.c        ****         case AdjustToTheRight:
 386:main.c        ****             adjustRight();
 1349              		.loc 1 386 0
 1350 005a FFF7FEFF 		bl	adjustRight
 387:main.c        ****             break;
 1351              		.loc 1 387 0
 1352 005e 0FE0     		b	.L74
 1353              	.L79:
 388:main.c        ****         case AdjustToTheLeft:
 389:main.c        ****             adjustLeft();
 1354              		.loc 1 389 0
 1355 0060 FFF7FEFF 		bl	adjustLeft
 390:main.c        ****             break;
 1356              		.loc 1 390 0
 1357 0064 0CE0     		b	.L74
 1358              	.L81:
 391:main.c        ****         case Stop:
 392:main.c        ****             stopMoving();
 1359              		.loc 1 392 0
 1360 0066 FFF7FEFF 		bl	stopMoving
 393:main.c        ****             break;
 1361              		.loc 1 393 0
ARM GAS  C:\Users\rshu284\AppData\Local\Temp\ccuJOQzD.s 			page 32


 1362 006a 09E0     		b	.L74
 1363              	.L84:
 394:main.c        ****         case HardForward:
 395:main.c        ****             break;
 396:main.c        ****         case waitForTurn:
 397:main.c        ****             moveForward(); 
 1364              		.loc 1 397 0
 1365 006c FFF7FEFF 		bl	moveForward
 398:main.c        ****             break;
 1366              		.loc 1 398 0
 1367 0070 06E0     		b	.L74
 1368              	.L85:
 399:main.c        ****         case ForwardAfterTurn:
 400:main.c        ****             moveForward();
 1369              		.loc 1 400 0
 1370 0072 FFF7FEFF 		bl	moveForward
 401:main.c        ****             break;
 1371              		.loc 1 401 0
 1372 0076 03E0     		b	.L74
 1373              	.L86:
 402:main.c        ****         case Backward:
 403:main.c        ****             moveBackward();
 1374              		.loc 1 403 0
 1375 0078 FFF7FEFF 		bl	moveBackward
 404:main.c        ****             break;
 1376              		.loc 1 404 0
 1377 007c 00E0     		b	.L74
 1378              	.L88:
 405:main.c        ****         case Unknown:
 406:main.c        ****             // UNKNOWN CONFIGURATION
 407:main.c        ****             break;  
 1379              		.loc 1 407 0
 1380 007e 00BF     		nop
 1381              	.L74:
 1382              	.L87:
 408:main.c        ****     }
 409:main.c        **** }
 1383              		.loc 1 409 0
 1384 0080 00BF     		nop
 1385 0082 80BD     		pop	{r7, pc}
 1386              	.L90:
 1387              		.align	2
 1388              	.L89:
 1389 0084 00000000 		.word	currentDirection
 1390              		.cfi_endproc
 1391              	.LFE76:
 1392              		.size	SetRobotMovement, .-SetRobotMovement
 1393              		.text
 1394              	.Letext0:
 1395              		.file 2 "c:\\program files (x86)\\cypress\\psoc creator\\4.2\\psoc creator\\import\\gnu\\arm\\5.4.
 1396              		.file 3 "c:\\program files (x86)\\cypress\\psoc creator\\4.2\\psoc creator\\import\\gnu\\arm\\5.4.
 1397              		.file 4 "Generated_Source\\PSoC5/cytypes.h"
 1398              		.file 5 "vars.h"
 1399              		.file 6 "Generated_Source\\PSoC5/core_cm3.h"
 1400              		.section	.debug_info,"",%progbits
 1401              	.Ldebug_info0:
 1402 0000 CE050000 		.4byte	0x5ce
ARM GAS  C:\Users\rshu284\AppData\Local\Temp\ccuJOQzD.s 			page 33


 1403 0004 0400     		.2byte	0x4
 1404 0006 00000000 		.4byte	.Ldebug_abbrev0
 1405 000a 04       		.byte	0x4
 1406 000b 01       		.uleb128 0x1
 1407 000c 24010000 		.4byte	.LASF91
 1408 0010 0C       		.byte	0xc
 1409 0011 50040000 		.4byte	.LASF92
 1410 0015 45000000 		.4byte	.LASF93
 1411 0019 00000000 		.4byte	.Ldebug_ranges0+0
 1412 001d 00000000 		.4byte	0
 1413 0021 00000000 		.4byte	.Ldebug_line0
 1414 0025 02       		.uleb128 0x2
 1415 0026 01       		.byte	0x1
 1416 0027 06       		.byte	0x6
 1417 0028 24030000 		.4byte	.LASF0
 1418 002c 02       		.uleb128 0x2
 1419 002d 01       		.byte	0x1
 1420 002e 08       		.byte	0x8
 1421 002f A8020000 		.4byte	.LASF1
 1422 0033 02       		.uleb128 0x2
 1423 0034 02       		.byte	0x2
 1424 0035 05       		.byte	0x5
 1425 0036 E0000000 		.4byte	.LASF2
 1426 003a 02       		.uleb128 0x2
 1427 003b 02       		.byte	0x2
 1428 003c 07       		.byte	0x7
 1429 003d B8030000 		.4byte	.LASF3
 1430 0041 03       		.uleb128 0x3
 1431 0042 A8040000 		.4byte	.LASF12
 1432 0046 02       		.byte	0x2
 1433 0047 3F       		.byte	0x3f
 1434 0048 4C000000 		.4byte	0x4c
 1435 004c 02       		.uleb128 0x2
 1436 004d 04       		.byte	0x4
 1437 004e 05       		.byte	0x5
 1438 004f 66020000 		.4byte	.LASF4
 1439 0053 02       		.uleb128 0x2
 1440 0054 04       		.byte	0x4
 1441 0055 07       		.byte	0x7
 1442 0056 57040000 		.4byte	.LASF5
 1443 005a 02       		.uleb128 0x2
 1444 005b 08       		.byte	0x8
 1445 005c 05       		.byte	0x5
 1446 005d 27020000 		.4byte	.LASF6
 1447 0061 02       		.uleb128 0x2
 1448 0062 08       		.byte	0x8
 1449 0063 07       		.byte	0x7
 1450 0064 38030000 		.4byte	.LASF7
 1451 0068 04       		.uleb128 0x4
 1452 0069 04       		.byte	0x4
 1453 006a 05       		.byte	0x5
 1454 006b 696E7400 		.ascii	"int\000"
 1455 006f 02       		.uleb128 0x2
 1456 0070 04       		.byte	0x4
 1457 0071 07       		.byte	0x7
 1458 0072 60030000 		.4byte	.LASF8
 1459 0076 02       		.uleb128 0x2
ARM GAS  C:\Users\rshu284\AppData\Local\Temp\ccuJOQzD.s 			page 34


 1460 0077 08       		.byte	0x8
 1461 0078 04       		.byte	0x4
 1462 0079 CE020000 		.4byte	.LASF9
 1463 007d 02       		.uleb128 0x2
 1464 007e 04       		.byte	0x4
 1465 007f 07       		.byte	0x7
 1466 0080 F7000000 		.4byte	.LASF10
 1467 0084 02       		.uleb128 0x2
 1468 0085 01       		.byte	0x1
 1469 0086 08       		.byte	0x8
 1470 0087 E6030000 		.4byte	.LASF11
 1471 008b 03       		.uleb128 0x3
 1472 008c 30030000 		.4byte	.LASF13
 1473 0090 03       		.byte	0x3
 1474 0091 2C       		.byte	0x2c
 1475 0092 41000000 		.4byte	0x41
 1476 0096 05       		.uleb128 0x5
 1477 0097 FD010000 		.4byte	.LASF14
 1478 009b 04       		.byte	0x4
 1479 009c E701     		.2byte	0x1e7
 1480 009e 2C000000 		.4byte	0x2c
 1481 00a2 05       		.uleb128 0x5
 1482 00a3 D3010000 		.4byte	.LASF15
 1483 00a7 04       		.byte	0x4
 1484 00a8 E801     		.2byte	0x1e8
 1485 00aa 3A000000 		.4byte	0x3a
 1486 00ae 05       		.uleb128 0x5
 1487 00af 49040000 		.4byte	.LASF16
 1488 00b3 04       		.byte	0x4
 1489 00b4 E901     		.2byte	0x1e9
 1490 00b6 53000000 		.4byte	0x53
 1491 00ba 05       		.uleb128 0x5
 1492 00bb 35020000 		.4byte	.LASF17
 1493 00bf 04       		.byte	0x4
 1494 00c0 EA01     		.2byte	0x1ea
 1495 00c2 25000000 		.4byte	0x25
 1496 00c6 05       		.uleb128 0x5
 1497 00c7 EB010000 		.4byte	.LASF18
 1498 00cb 04       		.byte	0x4
 1499 00cc EB01     		.2byte	0x1eb
 1500 00ce 33000000 		.4byte	0x33
 1501 00d2 02       		.uleb128 0x2
 1502 00d3 04       		.byte	0x4
 1503 00d4 04       		.byte	0x4
 1504 00d5 15020000 		.4byte	.LASF19
 1505 00d9 02       		.uleb128 0x2
 1506 00da 08       		.byte	0x8
 1507 00db 04       		.byte	0x4
 1508 00dc 72040000 		.4byte	.LASF20
 1509 00e0 06       		.uleb128 0x6
 1510 00e1 CB030000 		.4byte	.LASF94
 1511 00e5 20       		.byte	0x20
 1512 00e6 05       		.byte	0x5
 1513 00e7 29       		.byte	0x29
 1514 00e8 B9010000 		.4byte	0x1b9
 1515 00ec 07       		.uleb128 0x7
 1516 00ed 37050000 		.4byte	.LASF21
ARM GAS  C:\Users\rshu284\AppData\Local\Temp\ccuJOQzD.s 			page 35


 1517 00f1 05       		.byte	0x5
 1518 00f2 2A       		.byte	0x2a
 1519 00f3 BA000000 		.4byte	0xba
 1520 00f7 00       		.byte	0
 1521 00f8 07       		.uleb128 0x7
 1522 00f9 DA010000 		.4byte	.LASF22
 1523 00fd 05       		.byte	0x5
 1524 00fe 2B       		.byte	0x2b
 1525 00ff 96000000 		.4byte	0x96
 1526 0103 01       		.byte	0x1
 1527 0104 07       		.uleb128 0x7
 1528 0105 2D040000 		.4byte	.LASF23
 1529 0109 05       		.byte	0x5
 1530 010a 2C       		.byte	0x2c
 1531 010b C6000000 		.4byte	0xc6
 1532 010f 02       		.byte	0x2
 1533 0110 07       		.uleb128 0x7
 1534 0111 FF040000 		.4byte	.LASF24
 1535 0115 05       		.byte	0x5
 1536 0116 2D       		.byte	0x2d
 1537 0117 C6000000 		.4byte	0xc6
 1538 011b 04       		.byte	0x4
 1539 011c 07       		.uleb128 0x7
 1540 011d 3C050000 		.4byte	.LASF25
 1541 0121 05       		.byte	0x5
 1542 0122 2E       		.byte	0x2e
 1543 0123 C6000000 		.4byte	0xc6
 1544 0127 06       		.byte	0x6
 1545 0128 07       		.uleb128 0x7
 1546 0129 5E020000 		.4byte	.LASF26
 1547 012d 05       		.byte	0x5
 1548 012e 2F       		.byte	0x2f
 1549 012f C6000000 		.4byte	0xc6
 1550 0133 08       		.byte	0x8
 1551 0134 07       		.uleb128 0x7
 1552 0135 B7040000 		.4byte	.LASF27
 1553 0139 05       		.byte	0x5
 1554 013a 30       		.byte	0x30
 1555 013b C6000000 		.4byte	0xc6
 1556 013f 0A       		.byte	0xa
 1557 0140 07       		.uleb128 0x7
 1558 0141 04030000 		.4byte	.LASF28
 1559 0145 05       		.byte	0x5
 1560 0146 31       		.byte	0x31
 1561 0147 C6000000 		.4byte	0xc6
 1562 014b 0C       		.byte	0xc
 1563 014c 07       		.uleb128 0x7
 1564 014d 51020000 		.4byte	.LASF29
 1565 0151 05       		.byte	0x5
 1566 0152 32       		.byte	0x32
 1567 0153 C6000000 		.4byte	0xc6
 1568 0157 0E       		.byte	0xe
 1569 0158 07       		.uleb128 0x7
 1570 0159 1C030000 		.4byte	.LASF30
 1571 015d 05       		.byte	0x5
 1572 015e 33       		.byte	0x33
 1573 015f C6000000 		.4byte	0xc6
ARM GAS  C:\Users\rshu284\AppData\Local\Temp\ccuJOQzD.s 			page 36


 1574 0163 10       		.byte	0x10
 1575 0164 07       		.uleb128 0x7
 1576 0165 01040000 		.4byte	.LASF31
 1577 0169 05       		.byte	0x5
 1578 016a 34       		.byte	0x34
 1579 016b C6000000 		.4byte	0xc6
 1580 016f 12       		.byte	0x12
 1581 0170 07       		.uleb128 0x7
 1582 0171 16040000 		.4byte	.LASF32
 1583 0175 05       		.byte	0x5
 1584 0176 35       		.byte	0x35
 1585 0177 C6000000 		.4byte	0xc6
 1586 017b 14       		.byte	0x14
 1587 017c 07       		.uleb128 0x7
 1588 017d 03020000 		.4byte	.LASF33
 1589 0181 05       		.byte	0x5
 1590 0182 36       		.byte	0x36
 1591 0183 C6000000 		.4byte	0xc6
 1592 0187 16       		.byte	0x16
 1593 0188 07       		.uleb128 0x7
 1594 0189 D8000000 		.4byte	.LASF34
 1595 018d 05       		.byte	0x5
 1596 018e 37       		.byte	0x37
 1597 018f C6000000 		.4byte	0xc6
 1598 0193 18       		.byte	0x18
 1599 0194 07       		.uleb128 0x7
 1600 0195 49020000 		.4byte	.LASF35
 1601 0199 05       		.byte	0x5
 1602 019a 38       		.byte	0x38
 1603 019b C6000000 		.4byte	0xc6
 1604 019f 1A       		.byte	0x1a
 1605 01a0 07       		.uleb128 0x7
 1606 01a1 A3030000 		.4byte	.LASF36
 1607 01a5 05       		.byte	0x5
 1608 01a6 39       		.byte	0x39
 1609 01a7 C6000000 		.4byte	0xc6
 1610 01ab 1C       		.byte	0x1c
 1611 01ac 07       		.uleb128 0x7
 1612 01ad 09040000 		.4byte	.LASF37
 1613 01b1 05       		.byte	0x5
 1614 01b2 3A       		.byte	0x3a
 1615 01b3 C6000000 		.4byte	0xc6
 1616 01b7 1E       		.byte	0x1e
 1617 01b8 00       		.byte	0
 1618 01b9 08       		.uleb128 0x8
 1619 01ba 0B010000 		.4byte	.LASF95
 1620 01be 04       		.byte	0x4
 1621 01bf 6F000000 		.4byte	0x6f
 1622 01c3 01       		.byte	0x1
 1623 01c4 27       		.byte	0x27
 1624 01c5 0C020000 		.4byte	0x20c
 1625 01c9 09       		.uleb128 0x9
 1626 01ca EB030000 		.4byte	.LASF38
 1627 01ce 00       		.byte	0
 1628 01cf 09       		.uleb128 0x9
 1629 01d0 38040000 		.4byte	.LASF39
 1630 01d4 01       		.byte	0x1
ARM GAS  C:\Users\rshu284\AppData\Local\Temp\ccuJOQzD.s 			page 37


 1631 01d5 09       		.uleb128 0x9
 1632 01d6 0C000000 		.4byte	.LASF40
 1633 01da 02       		.byte	0x2
 1634 01db 09       		.uleb128 0x9
 1635 01dc C3010000 		.4byte	.LASF41
 1636 01e0 03       		.byte	0x3
 1637 01e1 09       		.uleb128 0x9
 1638 01e2 4F030000 		.4byte	.LASF42
 1639 01e6 04       		.byte	0x4
 1640 01e7 09       		.uleb128 0x9
 1641 01e8 B2040000 		.4byte	.LASF43
 1642 01ec 05       		.byte	0x5
 1643 01ed 09       		.uleb128 0x9
 1644 01ee 79040000 		.4byte	.LASF44
 1645 01f2 06       		.byte	0x6
 1646 01f3 09       		.uleb128 0x9
 1647 01f4 F1010000 		.4byte	.LASF45
 1648 01f8 07       		.byte	0x7
 1649 01f9 09       		.uleb128 0x9
 1650 01fa 39000000 		.4byte	.LASF46
 1651 01fe 08       		.byte	0x8
 1652 01ff 09       		.uleb128 0x9
 1653 0200 1C000000 		.4byte	.LASF47
 1654 0204 09       		.byte	0x9
 1655 0205 09       		.uleb128 0x9
 1656 0206 69040000 		.4byte	.LASF48
 1657 020a 0A       		.byte	0xa
 1658 020b 00       		.byte	0
 1659 020c 0A       		.uleb128 0xa
 1660 020d E0010000 		.4byte	.LASF58
 1661 0211 01       		.byte	0x1
 1662 0212 42       		.byte	0x42
 1663 0213 00000000 		.4byte	.LFB64
 1664 0217 EC000000 		.4byte	.LFE64-.LFB64
 1665 021b 01       		.uleb128 0x1
 1666 021c 9C       		.byte	0x9c
 1667 021d 3A020000 		.4byte	0x23a
 1668 0221 0B       		.uleb128 0xb
 1669 0222 50000000 		.4byte	.LBB2
 1670 0226 62000000 		.4byte	.LBE2-.LBB2
 1671 022a 0C       		.uleb128 0xc
 1672 022b 1B020000 		.4byte	.LASF57
 1673 022f 01       		.byte	0x1
 1674 0230 4F       		.byte	0x4f
 1675 0231 D2000000 		.4byte	0xd2
 1676 0235 02       		.uleb128 0x2
 1677 0236 91       		.byte	0x91
 1678 0237 6C       		.sleb128 -20
 1679 0238 00       		.byte	0
 1680 0239 00       		.byte	0
 1681 023a 0D       		.uleb128 0xd
 1682 023b 4E050000 		.4byte	.LASF49
 1683 023f 01       		.byte	0x1
 1684 0240 5A       		.byte	0x5a
 1685 0241 00000000 		.4byte	.LFB65
 1686 0245 18000000 		.4byte	.LFE65-.LFB65
 1687 0249 01       		.uleb128 0x1
ARM GAS  C:\Users\rshu284\AppData\Local\Temp\ccuJOQzD.s 			page 38


 1688 024a 9C       		.byte	0x9c
 1689 024b 0D       		.uleb128 0xd
 1690 024c 84020000 		.4byte	.LASF50
 1691 0250 01       		.byte	0x1
 1692 0251 61       		.byte	0x61
 1693 0252 00000000 		.4byte	.LFB66
 1694 0256 18000000 		.4byte	.LFE66-.LFB66
 1695 025a 01       		.uleb128 0x1
 1696 025b 9C       		.byte	0x9c
 1697 025c 0D       		.uleb128 0xd
 1698 025d 81040000 		.4byte	.LASF51
 1699 0261 01       		.byte	0x1
 1700 0262 68       		.byte	0x68
 1701 0263 00000000 		.4byte	.LFB67
 1702 0267 18000000 		.4byte	.LFE67-.LFB67
 1703 026b 01       		.uleb128 0x1
 1704 026c 9C       		.byte	0x9c
 1705 026d 0D       		.uleb128 0xd
 1706 026e B7010000 		.4byte	.LASF52
 1707 0272 01       		.byte	0x1
 1708 0273 6E       		.byte	0x6e
 1709 0274 00000000 		.4byte	.LFB68
 1710 0278 18000000 		.4byte	.LFE68-.LFB68
 1711 027c 01       		.uleb128 0x1
 1712 027d 9C       		.byte	0x9c
 1713 027e 0D       		.uleb128 0xd
 1714 027f AC030000 		.4byte	.LASF53
 1715 0283 01       		.byte	0x1
 1716 0284 74       		.byte	0x74
 1717 0285 00000000 		.4byte	.LFB69
 1718 0289 18000000 		.4byte	.LFE69-.LFB69
 1719 028d 01       		.uleb128 0x1
 1720 028e 9C       		.byte	0x9c
 1721 028f 0D       		.uleb128 0xd
 1722 0290 00000000 		.4byte	.LASF54
 1723 0294 01       		.byte	0x1
 1724 0295 7A       		.byte	0x7a
 1725 0296 00000000 		.4byte	.LFB70
 1726 029a 18000000 		.4byte	.LFE70-.LFB70
 1727 029e 01       		.uleb128 0x1
 1728 029f 9C       		.byte	0x9c
 1729 02a0 0E       		.uleb128 0xe
 1730 02a1 96030000 		.4byte	.LASF55
 1731 02a5 01       		.byte	0x1
 1732 02a6 80       		.byte	0x80
 1733 02a7 00000000 		.4byte	.LFB71
 1734 02ab 38000000 		.4byte	.LFE71-.LFB71
 1735 02af 01       		.uleb128 0x1
 1736 02b0 9C       		.byte	0x9c
 1737 02b1 0F       		.uleb128 0xf
 1738 02b2 B2010000 		.4byte	.LASF56
 1739 02b6 01       		.byte	0x1
 1740 02b7 8D       		.byte	0x8d
 1741 02b8 68000000 		.4byte	0x68
 1742 02bc 00000000 		.4byte	.LFB72
 1743 02c0 A8000000 		.4byte	.LFE72-.LFB72
 1744 02c4 01       		.uleb128 0x1
ARM GAS  C:\Users\rshu284\AppData\Local\Temp\ccuJOQzD.s 			page 39


 1745 02c5 9C       		.byte	0x9c
 1746 02c6 10       		.uleb128 0x10
 1747 02c7 D4040000 		.4byte	.LASF96
 1748 02cb 01       		.byte	0x1
 1749 02cc C5       		.byte	0xc5
 1750 02cd C6000000 		.4byte	0xc6
 1751 02d1 00000000 		.4byte	.LFB73
 1752 02d5 54000000 		.4byte	.LFE73-.LFB73
 1753 02d9 01       		.uleb128 0x1
 1754 02da 9C       		.byte	0x9c
 1755 02db 0A030000 		.4byte	0x30a
 1756 02df 11       		.uleb128 0x11
 1757 02e0 96040000 		.4byte	.LASF97
 1758 02e4 01       		.byte	0x1
 1759 02e5 C5       		.byte	0xc5
 1760 02e6 A2000000 		.4byte	0xa2
 1761 02ea 02       		.uleb128 0x2
 1762 02eb 91       		.byte	0x91
 1763 02ec 66       		.sleb128 -26
 1764 02ed 12       		.uleb128 0x12
 1765 02ee 63707300 		.ascii	"cps\000"
 1766 02f2 01       		.byte	0x1
 1767 02f3 C7       		.byte	0xc7
 1768 02f4 D2000000 		.4byte	0xd2
 1769 02f8 02       		.uleb128 0x2
 1770 02f9 91       		.byte	0x91
 1771 02fa 6C       		.sleb128 -20
 1772 02fb 12       		.uleb128 0x12
 1773 02fc 72706D00 		.ascii	"rpm\000"
 1774 0300 01       		.byte	0x1
 1775 0301 C8       		.byte	0xc8
 1776 0302 C6000000 		.4byte	0xc6
 1777 0306 02       		.uleb128 0x2
 1778 0307 91       		.byte	0x91
 1779 0308 6A       		.sleb128 -22
 1780 0309 00       		.byte	0
 1781 030a 13       		.uleb128 0x13
 1782 030b D5030000 		.4byte	.LASF61
 1783 030f 01       		.byte	0x1
 1784 0310 D0       		.byte	0xd0
 1785 0311 00000000 		.4byte	.LFB74
 1786 0315 48000000 		.4byte	.LFE74-.LFB74
 1787 0319 01       		.uleb128 0x1
 1788 031a 9C       		.byte	0x9c
 1789 031b 14       		.uleb128 0x14
 1790 031c 6F020000 		.4byte	.LASF59
 1791 0320 01       		.byte	0x1
 1792 0321 DE       		.byte	0xde
 1793 0322 B9010000 		.4byte	0x1b9
 1794 0326 00000000 		.4byte	.LFB75
 1795 032a 64020000 		.4byte	.LFE75-.LFB75
 1796 032e 01       		.uleb128 0x1
 1797 032f 9C       		.byte	0x9c
 1798 0330 43030000 		.4byte	0x343
 1799 0334 0C       		.uleb128 0xc
 1800 0335 28050000 		.4byte	.LASF60
 1801 0339 01       		.byte	0x1
ARM GAS  C:\Users\rshu284\AppData\Local\Temp\ccuJOQzD.s 			page 40


 1802 033a DF       		.byte	0xdf
 1803 033b B9010000 		.4byte	0x1b9
 1804 033f 02       		.uleb128 0x2
 1805 0340 91       		.byte	0x91
 1806 0341 74       		.sleb128 -12
 1807 0342 00       		.byte	0
 1808 0343 15       		.uleb128 0x15
 1809 0344 85030000 		.4byte	.LASF62
 1810 0348 01       		.byte	0x1
 1811 0349 7301     		.2byte	0x173
 1812 034b 00000000 		.4byte	.LFB76
 1813 034f 88000000 		.4byte	.LFE76-.LFB76
 1814 0353 01       		.uleb128 0x1
 1815 0354 9C       		.byte	0x9c
 1816 0355 16       		.uleb128 0x16
 1817 0356 0A050000 		.4byte	.LASF63
 1818 035a 06       		.byte	0x6
 1819 035b 1207     		.2byte	0x712
 1820 035d 61030000 		.4byte	0x361
 1821 0361 17       		.uleb128 0x17
 1822 0362 8B000000 		.4byte	0x8b
 1823 0366 18       		.uleb128 0x18
 1824 0367 747300   		.ascii	"ts\000"
 1825 036a 05       		.byte	0x5
 1826 036b 10       		.byte	0x10
 1827 036c 96000000 		.4byte	0x96
 1828 0370 05       		.uleb128 0x5
 1829 0371 03       		.byte	0x3
 1830 0372 00000000 		.4byte	ts
 1831 0376 19       		.uleb128 0x19
 1832 0377 15000000 		.4byte	.LASF64
 1833 037b 05       		.byte	0x5
 1834 037c 11       		.byte	0x11
 1835 037d A2000000 		.4byte	0xa2
 1836 0381 05       		.uleb128 0x5
 1837 0382 03       		.byte	0x3
 1838 0383 00000000 		.4byte	ts_enc
 1839 0387 19       		.uleb128 0x19
 1840 0388 CA040000 		.4byte	.LASF65
 1841 038c 05       		.byte	0x5
 1842 038d 12       		.byte	0x12
 1843 038e A2000000 		.4byte	0xa2
 1844 0392 05       		.uleb128 0x5
 1845 0393 03       		.byte	0x3
 1846 0394 00000000 		.4byte	ts_update
 1847 0398 19       		.uleb128 0x19
 1848 0399 8D040000 		.4byte	.LASF66
 1849 039d 05       		.byte	0x5
 1850 039e 13       		.byte	0x13
 1851 039f A2000000 		.4byte	0xa2
 1852 03a3 05       		.uleb128 0x5
 1853 03a4 03       		.byte	0x3
 1854 03a5 00000000 		.4byte	ts_speed
 1855 03a9 19       		.uleb128 0x19
 1856 03aa BF040000 		.4byte	.LASF67
 1857 03ae 05       		.byte	0x5
 1858 03af 14       		.byte	0x14
ARM GAS  C:\Users\rshu284\AppData\Local\Temp\ccuJOQzD.s 			page 41


 1859 03b0 A2000000 		.4byte	0xa2
 1860 03b4 05       		.uleb128 0x5
 1861 03b5 03       		.byte	0x3
 1862 03b6 00000000 		.4byte	ts_display
 1863 03ba 19       		.uleb128 0x19
 1864 03bb 9C040000 		.4byte	.LASF68
 1865 03bf 05       		.byte	0x5
 1866 03c0 16       		.byte	0x16
 1867 03c1 96000000 		.4byte	0x96
 1868 03c5 05       		.uleb128 0x5
 1869 03c6 03       		.byte	0x3
 1870 03c7 00000000 		.4byte	flag_ts_enc
 1871 03cb 19       		.uleb128 0x19
 1872 03cc 3A020000 		.4byte	.LASF69
 1873 03d0 05       		.byte	0x5
 1874 03d1 17       		.byte	0x17
 1875 03d2 96000000 		.4byte	0x96
 1876 03d6 05       		.uleb128 0x5
 1877 03d7 03       		.byte	0x3
 1878 03d8 00000000 		.4byte	flag_ts_update
 1879 03dc 19       		.uleb128 0x19
 1880 03dd CA000000 		.4byte	.LASF70
 1881 03e1 05       		.byte	0x5
 1882 03e2 18       		.byte	0x18
 1883 03e3 96000000 		.4byte	0x96
 1884 03e7 05       		.uleb128 0x5
 1885 03e8 03       		.byte	0x3
 1886 03e9 00000000 		.4byte	flag_ts_speed
 1887 03ed 19       		.uleb128 0x19
 1888 03ee 90020000 		.4byte	.LASF71
 1889 03f2 05       		.byte	0x5
 1890 03f3 19       		.byte	0x19
 1891 03f4 96000000 		.4byte	0x96
 1892 03f8 05       		.uleb128 0x5
 1893 03f9 03       		.byte	0x3
 1894 03fa 00000000 		.4byte	flag_ts_display
 1895 03fe 19       		.uleb128 0x19
 1896 03ff A0020000 		.4byte	.LASF72
 1897 0403 05       		.byte	0x5
 1898 0404 1C       		.byte	0x1c
 1899 0405 96000000 		.4byte	0x96
 1900 0409 05       		.uleb128 0x5
 1901 040a 03       		.byte	0x3
 1902 040b 00000000 		.4byte	flag_rx
 1903 040f 19       		.uleb128 0x19
 1904 0410 2D000000 		.4byte	.LASF73
 1905 0414 05       		.byte	0x5
 1906 0415 1D       		.byte	0x1d
 1907 0416 96000000 		.4byte	0x96
 1908 041a 05       		.uleb128 0x5
 1909 041b 03       		.byte	0x3
 1910 041c 00000000 		.4byte	flag_packet
 1911 0420 19       		.uleb128 0x19
 1912 0421 76030000 		.4byte	.LASF74
 1913 0425 05       		.byte	0x5
 1914 0426 1E       		.byte	0x1e
 1915 0427 96000000 		.4byte	0x96
ARM GAS  C:\Users\rshu284\AppData\Local\Temp\ccuJOQzD.s 			page 42


 1916 042b 05       		.uleb128 0x5
 1917 042c 03       		.byte	0x3
 1918 042d 00000000 		.4byte	flag_KB_string
 1919 0431 19       		.uleb128 0x19
 1920 0432 0D030000 		.4byte	.LASF75
 1921 0436 05       		.byte	0x5
 1922 0437 20       		.byte	0x20
 1923 0438 96000000 		.4byte	0x96
 1924 043c 05       		.uleb128 0x5
 1925 043d 03       		.byte	0x3
 1926 043e 00000000 		.4byte	dataready_flag
 1927 0442 19       		.uleb128 0x19
 1928 0443 E3040000 		.4byte	.LASF76
 1929 0447 05       		.byte	0x5
 1930 0448 22       		.byte	0x22
 1931 0449 96000000 		.4byte	0x96
 1932 044d 05       		.uleb128 0x5
 1933 044e 03       		.byte	0x3
 1934 044f 00000000 		.4byte	flag_rf_transmission_active
 1935 0453 1A       		.uleb128 0x1a
 1936 0454 84000000 		.4byte	0x84
 1937 0458 63040000 		.4byte	0x463
 1938 045c 1B       		.uleb128 0x1b
 1939 045d 7D000000 		.4byte	0x7d
 1940 0461 3F       		.byte	0x3f
 1941 0462 00       		.byte	0
 1942 0463 19       		.uleb128 0x19
 1943 0464 1F040000 		.4byte	.LASF77
 1944 0468 05       		.byte	0x5
 1945 0469 25       		.byte	0x25
 1946 046a 53040000 		.4byte	0x453
 1947 046e 05       		.uleb128 0x5
 1948 046f 03       		.byte	0x3
 1949 0470 00000000 		.4byte	displaystring
 1950 0474 19       		.uleb128 0x19
 1951 0475 10020000 		.4byte	.LASF78
 1952 0479 05       		.byte	0x5
 1953 047a 26       		.byte	0x26
 1954 047b 53040000 		.4byte	0x453
 1955 047f 05       		.uleb128 0x5
 1956 0480 03       		.byte	0x3
 1957 0481 00000000 		.4byte	line
 1958 0485 19       		.uleb128 0x19
 1959 0486 C8020000 		.4byte	.LASF79
 1960 048a 05       		.byte	0x5
 1961 048b 26       		.byte	0x26
 1962 048c 53040000 		.4byte	0x453
 1963 0490 05       		.uleb128 0x5
 1964 0491 03       		.byte	0x3
 1965 0492 00000000 		.4byte	entry
 1966 0496 1A       		.uleb128 0x1a
 1967 0497 96000000 		.4byte	0x96
 1968 049b A6040000 		.4byte	0x4a6
 1969 049f 1B       		.uleb128 0x1b
 1970 04a0 7D000000 		.4byte	0x7d
 1971 04a4 3F       		.byte	0x3f
 1972 04a5 00       		.byte	0
ARM GAS  C:\Users\rshu284\AppData\Local\Temp\ccuJOQzD.s 			page 43


 1973 04a6 19       		.uleb128 0x19
 1974 04a7 1A010000 		.4byte	.LASF80
 1975 04ab 05       		.byte	0x5
 1976 04ac 27       		.byte	0x27
 1977 04ad 96040000 		.4byte	0x496
 1978 04b1 05       		.uleb128 0x5
 1979 04b2 03       		.byte	0x3
 1980 04b3 00000000 		.4byte	usbBuffer
 1981 04b7 19       		.uleb128 0x19
 1982 04b8 EA000000 		.4byte	.LASF81
 1983 04bc 05       		.byte	0x5
 1984 04bd 3C       		.byte	0x3c
 1985 04be E0000000 		.4byte	0xe0
 1986 04c2 05       		.uleb128 0x5
 1987 04c3 03       		.byte	0x3
 1988 04c4 00000000 		.4byte	system_state
 1989 04c8 19       		.uleb128 0x19
 1990 04c9 17050000 		.4byte	.LASF82
 1991 04cd 01       		.byte	0x1
 1992 04ce 29       		.byte	0x29
 1993 04cf B9010000 		.4byte	0x1b9
 1994 04d3 05       		.uleb128 0x5
 1995 04d4 03       		.byte	0x3
 1996 04d5 00000000 		.4byte	currentDirection
 1997 04d9 19       		.uleb128 0x19
 1998 04da DA020000 		.4byte	.LASF83
 1999 04de 01       		.byte	0x1
 2000 04df 2A       		.byte	0x2a
 2001 04e0 B9010000 		.4byte	0x1b9
 2002 04e4 05       		.uleb128 0x5
 2003 04e5 03       		.byte	0x3
 2004 04e6 00000000 		.4byte	previousDirection
 2005 04ea 18       		.uleb128 0x18
 2006 04eb 733100   		.ascii	"s1\000"
 2007 04ee 01       		.byte	0x1
 2008 04ef 2D       		.byte	0x2d
 2009 04f0 96000000 		.4byte	0x96
 2010 04f4 05       		.uleb128 0x5
 2011 04f5 03       		.byte	0x3
 2012 04f6 00000000 		.4byte	s1
 2013 04fa 18       		.uleb128 0x18
 2014 04fb 733200   		.ascii	"s2\000"
 2015 04fe 01       		.byte	0x1
 2016 04ff 2E       		.byte	0x2e
 2017 0500 96000000 		.4byte	0x96
 2018 0504 05       		.uleb128 0x5
 2019 0505 03       		.byte	0x3
 2020 0506 00000000 		.4byte	s2
 2021 050a 18       		.uleb128 0x18
 2022 050b 733300   		.ascii	"s3\000"
 2023 050e 01       		.byte	0x1
 2024 050f 2F       		.byte	0x2f
 2025 0510 96000000 		.4byte	0x96
 2026 0514 05       		.uleb128 0x5
 2027 0515 03       		.byte	0x3
 2028 0516 00000000 		.4byte	s3
 2029 051a 18       		.uleb128 0x18
ARM GAS  C:\Users\rshu284\AppData\Local\Temp\ccuJOQzD.s 			page 44


 2030 051b 733400   		.ascii	"s4\000"
 2031 051e 01       		.byte	0x1
 2032 051f 30       		.byte	0x30
 2033 0520 96000000 		.4byte	0x96
 2034 0524 05       		.uleb128 0x5
 2035 0525 03       		.byte	0x3
 2036 0526 00000000 		.4byte	s4
 2037 052a 18       		.uleb128 0x18
 2038 052b 733500   		.ascii	"s5\000"
 2039 052e 01       		.byte	0x1
 2040 052f 31       		.byte	0x31
 2041 0530 96000000 		.4byte	0x96
 2042 0534 05       		.uleb128 0x5
 2043 0535 03       		.byte	0x3
 2044 0536 00000000 		.4byte	s5
 2045 053a 18       		.uleb128 0x18
 2046 053b 733600   		.ascii	"s6\000"
 2047 053e 01       		.byte	0x1
 2048 053f 32       		.byte	0x32
 2049 0540 96000000 		.4byte	0x96
 2050 0544 05       		.uleb128 0x5
 2051 0545 03       		.byte	0x3
 2052 0546 00000000 		.4byte	s6
 2053 054a 19       		.uleb128 0x19
 2054 054b B6020000 		.4byte	.LASF84
 2055 054f 01       		.byte	0x1
 2056 0550 37       		.byte	0x37
 2057 0551 AE000000 		.4byte	0xae
 2058 0555 05       		.uleb128 0x5
 2059 0556 03       		.byte	0x3
 2060 0557 00000000 		.4byte	totalMilliseconds
 2061 055b 19       		.uleb128 0x19
 2062 055c EC020000 		.4byte	.LASF85
 2063 0560 01       		.byte	0x1
 2064 0561 38       		.byte	0x38
 2065 0562 D2000000 		.4byte	0xd2
 2066 0566 05       		.uleb128 0x5
 2067 0567 03       		.byte	0x3
 2068 0568 00000000 		.4byte	totalDistance
 2069 056c 1A       		.uleb128 0x1a
 2070 056d 84000000 		.4byte	0x84
 2071 0571 7C050000 		.4byte	0x57c
 2072 0575 1B       		.uleb128 0x1b
 2073 0576 7D000000 		.4byte	0x7d
 2074 057a 44       		.byte	0x44
 2075 057b 00       		.byte	0
 2076 057c 19       		.uleb128 0x19
 2077 057d 42040000 		.4byte	.LASF86
 2078 0581 01       		.byte	0x1
 2079 0582 3A       		.byte	0x3a
 2080 0583 6C050000 		.4byte	0x56c
 2081 0587 05       		.uleb128 0x5
 2082 0588 03       		.byte	0x3
 2083 0589 00000000 		.4byte	buffer
 2084 058d 19       		.uleb128 0x19
 2085 058e F3030000 		.4byte	.LASF87
 2086 0592 01       		.byte	0x1
ARM GAS  C:\Users\rshu284\AppData\Local\Temp\ccuJOQzD.s 			page 45


 2087 0593 3B       		.byte	0x3b
 2088 0594 68000000 		.4byte	0x68
 2089 0598 05       		.uleb128 0x5
 2090 0599 03       		.byte	0x3
 2091 059a 00000000 		.4byte	quadDec2Count
 2092 059e 19       		.uleb128 0x19
 2093 059f 6D030000 		.4byte	.LASF88
 2094 05a3 01       		.byte	0x1
 2095 05a4 3C       		.byte	0x3c
 2096 05a5 68000000 		.4byte	0x68
 2097 05a9 05       		.uleb128 0x5
 2098 05aa 03       		.byte	0x3
 2099 05ab 00000000 		.4byte	timerInt
 2100 05af 19       		.uleb128 0x19
 2101 05b0 FA020000 		.4byte	.LASF89
 2102 05b4 01       		.byte	0x1
 2103 05b5 3D       		.byte	0x3d
 2104 05b6 68000000 		.4byte	0x68
 2105 05ba 05       		.uleb128 0x5
 2106 05bb 03       		.byte	0x3
 2107 05bc 00000000 		.4byte	keepLedOn
 2108 05c0 19       		.uleb128 0x19
 2109 05c1 00010000 		.4byte	.LASF90
 2110 05c5 01       		.byte	0x1
 2111 05c6 3E       		.byte	0x3e
 2112 05c7 AE000000 		.4byte	0xae
 2113 05cb 05       		.uleb128 0x5
 2114 05cc 03       		.byte	0x3
 2115 05cd 00000000 		.4byte	stopBuffer
 2116 05d1 00       		.byte	0
 2117              		.section	.debug_abbrev,"",%progbits
 2118              	.Ldebug_abbrev0:
 2119 0000 01       		.uleb128 0x1
 2120 0001 11       		.uleb128 0x11
 2121 0002 01       		.byte	0x1
 2122 0003 25       		.uleb128 0x25
 2123 0004 0E       		.uleb128 0xe
 2124 0005 13       		.uleb128 0x13
 2125 0006 0B       		.uleb128 0xb
 2126 0007 03       		.uleb128 0x3
 2127 0008 0E       		.uleb128 0xe
 2128 0009 1B       		.uleb128 0x1b
 2129 000a 0E       		.uleb128 0xe
 2130 000b 55       		.uleb128 0x55
 2131 000c 17       		.uleb128 0x17
 2132 000d 11       		.uleb128 0x11
 2133 000e 01       		.uleb128 0x1
 2134 000f 10       		.uleb128 0x10
 2135 0010 17       		.uleb128 0x17
 2136 0011 00       		.byte	0
 2137 0012 00       		.byte	0
 2138 0013 02       		.uleb128 0x2
 2139 0014 24       		.uleb128 0x24
 2140 0015 00       		.byte	0
 2141 0016 0B       		.uleb128 0xb
 2142 0017 0B       		.uleb128 0xb
 2143 0018 3E       		.uleb128 0x3e
ARM GAS  C:\Users\rshu284\AppData\Local\Temp\ccuJOQzD.s 			page 46


 2144 0019 0B       		.uleb128 0xb
 2145 001a 03       		.uleb128 0x3
 2146 001b 0E       		.uleb128 0xe
 2147 001c 00       		.byte	0
 2148 001d 00       		.byte	0
 2149 001e 03       		.uleb128 0x3
 2150 001f 16       		.uleb128 0x16
 2151 0020 00       		.byte	0
 2152 0021 03       		.uleb128 0x3
 2153 0022 0E       		.uleb128 0xe
 2154 0023 3A       		.uleb128 0x3a
 2155 0024 0B       		.uleb128 0xb
 2156 0025 3B       		.uleb128 0x3b
 2157 0026 0B       		.uleb128 0xb
 2158 0027 49       		.uleb128 0x49
 2159 0028 13       		.uleb128 0x13
 2160 0029 00       		.byte	0
 2161 002a 00       		.byte	0
 2162 002b 04       		.uleb128 0x4
 2163 002c 24       		.uleb128 0x24
 2164 002d 00       		.byte	0
 2165 002e 0B       		.uleb128 0xb
 2166 002f 0B       		.uleb128 0xb
 2167 0030 3E       		.uleb128 0x3e
 2168 0031 0B       		.uleb128 0xb
 2169 0032 03       		.uleb128 0x3
 2170 0033 08       		.uleb128 0x8
 2171 0034 00       		.byte	0
 2172 0035 00       		.byte	0
 2173 0036 05       		.uleb128 0x5
 2174 0037 16       		.uleb128 0x16
 2175 0038 00       		.byte	0
 2176 0039 03       		.uleb128 0x3
 2177 003a 0E       		.uleb128 0xe
 2178 003b 3A       		.uleb128 0x3a
 2179 003c 0B       		.uleb128 0xb
 2180 003d 3B       		.uleb128 0x3b
 2181 003e 05       		.uleb128 0x5
 2182 003f 49       		.uleb128 0x49
 2183 0040 13       		.uleb128 0x13
 2184 0041 00       		.byte	0
 2185 0042 00       		.byte	0
 2186 0043 06       		.uleb128 0x6
 2187 0044 13       		.uleb128 0x13
 2188 0045 01       		.byte	0x1
 2189 0046 03       		.uleb128 0x3
 2190 0047 0E       		.uleb128 0xe
 2191 0048 0B       		.uleb128 0xb
 2192 0049 0B       		.uleb128 0xb
 2193 004a 3A       		.uleb128 0x3a
 2194 004b 0B       		.uleb128 0xb
 2195 004c 3B       		.uleb128 0x3b
 2196 004d 0B       		.uleb128 0xb
 2197 004e 01       		.uleb128 0x1
 2198 004f 13       		.uleb128 0x13
 2199 0050 00       		.byte	0
 2200 0051 00       		.byte	0
ARM GAS  C:\Users\rshu284\AppData\Local\Temp\ccuJOQzD.s 			page 47


 2201 0052 07       		.uleb128 0x7
 2202 0053 0D       		.uleb128 0xd
 2203 0054 00       		.byte	0
 2204 0055 03       		.uleb128 0x3
 2205 0056 0E       		.uleb128 0xe
 2206 0057 3A       		.uleb128 0x3a
 2207 0058 0B       		.uleb128 0xb
 2208 0059 3B       		.uleb128 0x3b
 2209 005a 0B       		.uleb128 0xb
 2210 005b 49       		.uleb128 0x49
 2211 005c 13       		.uleb128 0x13
 2212 005d 38       		.uleb128 0x38
 2213 005e 0B       		.uleb128 0xb
 2214 005f 00       		.byte	0
 2215 0060 00       		.byte	0
 2216 0061 08       		.uleb128 0x8
 2217 0062 04       		.uleb128 0x4
 2218 0063 01       		.byte	0x1
 2219 0064 03       		.uleb128 0x3
 2220 0065 0E       		.uleb128 0xe
 2221 0066 0B       		.uleb128 0xb
 2222 0067 0B       		.uleb128 0xb
 2223 0068 49       		.uleb128 0x49
 2224 0069 13       		.uleb128 0x13
 2225 006a 3A       		.uleb128 0x3a
 2226 006b 0B       		.uleb128 0xb
 2227 006c 3B       		.uleb128 0x3b
 2228 006d 0B       		.uleb128 0xb
 2229 006e 01       		.uleb128 0x1
 2230 006f 13       		.uleb128 0x13
 2231 0070 00       		.byte	0
 2232 0071 00       		.byte	0
 2233 0072 09       		.uleb128 0x9
 2234 0073 28       		.uleb128 0x28
 2235 0074 00       		.byte	0
 2236 0075 03       		.uleb128 0x3
 2237 0076 0E       		.uleb128 0xe
 2238 0077 1C       		.uleb128 0x1c
 2239 0078 0B       		.uleb128 0xb
 2240 0079 00       		.byte	0
 2241 007a 00       		.byte	0
 2242 007b 0A       		.uleb128 0xa
 2243 007c 2E       		.uleb128 0x2e
 2244 007d 01       		.byte	0x1
 2245 007e 3F       		.uleb128 0x3f
 2246 007f 19       		.uleb128 0x19
 2247 0080 03       		.uleb128 0x3
 2248 0081 0E       		.uleb128 0xe
 2249 0082 3A       		.uleb128 0x3a
 2250 0083 0B       		.uleb128 0xb
 2251 0084 3B       		.uleb128 0x3b
 2252 0085 0B       		.uleb128 0xb
 2253 0086 27       		.uleb128 0x27
 2254 0087 19       		.uleb128 0x19
 2255 0088 11       		.uleb128 0x11
 2256 0089 01       		.uleb128 0x1
 2257 008a 12       		.uleb128 0x12
ARM GAS  C:\Users\rshu284\AppData\Local\Temp\ccuJOQzD.s 			page 48


 2258 008b 06       		.uleb128 0x6
 2259 008c 40       		.uleb128 0x40
 2260 008d 18       		.uleb128 0x18
 2261 008e 9642     		.uleb128 0x2116
 2262 0090 19       		.uleb128 0x19
 2263 0091 01       		.uleb128 0x1
 2264 0092 13       		.uleb128 0x13
 2265 0093 00       		.byte	0
 2266 0094 00       		.byte	0
 2267 0095 0B       		.uleb128 0xb
 2268 0096 0B       		.uleb128 0xb
 2269 0097 01       		.byte	0x1
 2270 0098 11       		.uleb128 0x11
 2271 0099 01       		.uleb128 0x1
 2272 009a 12       		.uleb128 0x12
 2273 009b 06       		.uleb128 0x6
 2274 009c 00       		.byte	0
 2275 009d 00       		.byte	0
 2276 009e 0C       		.uleb128 0xc
 2277 009f 34       		.uleb128 0x34
 2278 00a0 00       		.byte	0
 2279 00a1 03       		.uleb128 0x3
 2280 00a2 0E       		.uleb128 0xe
 2281 00a3 3A       		.uleb128 0x3a
 2282 00a4 0B       		.uleb128 0xb
 2283 00a5 3B       		.uleb128 0x3b
 2284 00a6 0B       		.uleb128 0xb
 2285 00a7 49       		.uleb128 0x49
 2286 00a8 13       		.uleb128 0x13
 2287 00a9 02       		.uleb128 0x2
 2288 00aa 18       		.uleb128 0x18
 2289 00ab 00       		.byte	0
 2290 00ac 00       		.byte	0
 2291 00ad 0D       		.uleb128 0xd
 2292 00ae 2E       		.uleb128 0x2e
 2293 00af 00       		.byte	0
 2294 00b0 3F       		.uleb128 0x3f
 2295 00b1 19       		.uleb128 0x19
 2296 00b2 03       		.uleb128 0x3
 2297 00b3 0E       		.uleb128 0xe
 2298 00b4 3A       		.uleb128 0x3a
 2299 00b5 0B       		.uleb128 0xb
 2300 00b6 3B       		.uleb128 0x3b
 2301 00b7 0B       		.uleb128 0xb
 2302 00b8 27       		.uleb128 0x27
 2303 00b9 19       		.uleb128 0x19
 2304 00ba 11       		.uleb128 0x11
 2305 00bb 01       		.uleb128 0x1
 2306 00bc 12       		.uleb128 0x12
 2307 00bd 06       		.uleb128 0x6
 2308 00be 40       		.uleb128 0x40
 2309 00bf 18       		.uleb128 0x18
 2310 00c0 9742     		.uleb128 0x2117
 2311 00c2 19       		.uleb128 0x19
 2312 00c3 00       		.byte	0
 2313 00c4 00       		.byte	0
 2314 00c5 0E       		.uleb128 0xe
ARM GAS  C:\Users\rshu284\AppData\Local\Temp\ccuJOQzD.s 			page 49


 2315 00c6 2E       		.uleb128 0x2e
 2316 00c7 00       		.byte	0
 2317 00c8 3F       		.uleb128 0x3f
 2318 00c9 19       		.uleb128 0x19
 2319 00ca 03       		.uleb128 0x3
 2320 00cb 0E       		.uleb128 0xe
 2321 00cc 3A       		.uleb128 0x3a
 2322 00cd 0B       		.uleb128 0xb
 2323 00ce 3B       		.uleb128 0x3b
 2324 00cf 0B       		.uleb128 0xb
 2325 00d0 27       		.uleb128 0x27
 2326 00d1 19       		.uleb128 0x19
 2327 00d2 11       		.uleb128 0x11
 2328 00d3 01       		.uleb128 0x1
 2329 00d4 12       		.uleb128 0x12
 2330 00d5 06       		.uleb128 0x6
 2331 00d6 40       		.uleb128 0x40
 2332 00d7 18       		.uleb128 0x18
 2333 00d8 9642     		.uleb128 0x2116
 2334 00da 19       		.uleb128 0x19
 2335 00db 00       		.byte	0
 2336 00dc 00       		.byte	0
 2337 00dd 0F       		.uleb128 0xf
 2338 00de 2E       		.uleb128 0x2e
 2339 00df 00       		.byte	0
 2340 00e0 3F       		.uleb128 0x3f
 2341 00e1 19       		.uleb128 0x19
 2342 00e2 03       		.uleb128 0x3
 2343 00e3 0E       		.uleb128 0xe
 2344 00e4 3A       		.uleb128 0x3a
 2345 00e5 0B       		.uleb128 0xb
 2346 00e6 3B       		.uleb128 0x3b
 2347 00e7 0B       		.uleb128 0xb
 2348 00e8 49       		.uleb128 0x49
 2349 00e9 13       		.uleb128 0x13
 2350 00ea 11       		.uleb128 0x11
 2351 00eb 01       		.uleb128 0x1
 2352 00ec 12       		.uleb128 0x12
 2353 00ed 06       		.uleb128 0x6
 2354 00ee 40       		.uleb128 0x40
 2355 00ef 18       		.uleb128 0x18
 2356 00f0 9642     		.uleb128 0x2116
 2357 00f2 19       		.uleb128 0x19
 2358 00f3 00       		.byte	0
 2359 00f4 00       		.byte	0
 2360 00f5 10       		.uleb128 0x10
 2361 00f6 2E       		.uleb128 0x2e
 2362 00f7 01       		.byte	0x1
 2363 00f8 3F       		.uleb128 0x3f
 2364 00f9 19       		.uleb128 0x19
 2365 00fa 03       		.uleb128 0x3
 2366 00fb 0E       		.uleb128 0xe
 2367 00fc 3A       		.uleb128 0x3a
 2368 00fd 0B       		.uleb128 0xb
 2369 00fe 3B       		.uleb128 0x3b
 2370 00ff 0B       		.uleb128 0xb
 2371 0100 27       		.uleb128 0x27
ARM GAS  C:\Users\rshu284\AppData\Local\Temp\ccuJOQzD.s 			page 50


 2372 0101 19       		.uleb128 0x19
 2373 0102 49       		.uleb128 0x49
 2374 0103 13       		.uleb128 0x13
 2375 0104 11       		.uleb128 0x11
 2376 0105 01       		.uleb128 0x1
 2377 0106 12       		.uleb128 0x12
 2378 0107 06       		.uleb128 0x6
 2379 0108 40       		.uleb128 0x40
 2380 0109 18       		.uleb128 0x18
 2381 010a 9642     		.uleb128 0x2116
 2382 010c 19       		.uleb128 0x19
 2383 010d 01       		.uleb128 0x1
 2384 010e 13       		.uleb128 0x13
 2385 010f 00       		.byte	0
 2386 0110 00       		.byte	0
 2387 0111 11       		.uleb128 0x11
 2388 0112 05       		.uleb128 0x5
 2389 0113 00       		.byte	0
 2390 0114 03       		.uleb128 0x3
 2391 0115 0E       		.uleb128 0xe
 2392 0116 3A       		.uleb128 0x3a
 2393 0117 0B       		.uleb128 0xb
 2394 0118 3B       		.uleb128 0x3b
 2395 0119 0B       		.uleb128 0xb
 2396 011a 49       		.uleb128 0x49
 2397 011b 13       		.uleb128 0x13
 2398 011c 02       		.uleb128 0x2
 2399 011d 18       		.uleb128 0x18
 2400 011e 00       		.byte	0
 2401 011f 00       		.byte	0
 2402 0120 12       		.uleb128 0x12
 2403 0121 34       		.uleb128 0x34
 2404 0122 00       		.byte	0
 2405 0123 03       		.uleb128 0x3
 2406 0124 08       		.uleb128 0x8
 2407 0125 3A       		.uleb128 0x3a
 2408 0126 0B       		.uleb128 0xb
 2409 0127 3B       		.uleb128 0x3b
 2410 0128 0B       		.uleb128 0xb
 2411 0129 49       		.uleb128 0x49
 2412 012a 13       		.uleb128 0x13
 2413 012b 02       		.uleb128 0x2
 2414 012c 18       		.uleb128 0x18
 2415 012d 00       		.byte	0
 2416 012e 00       		.byte	0
 2417 012f 13       		.uleb128 0x13
 2418 0130 2E       		.uleb128 0x2e
 2419 0131 00       		.byte	0
 2420 0132 3F       		.uleb128 0x3f
 2421 0133 19       		.uleb128 0x19
 2422 0134 03       		.uleb128 0x3
 2423 0135 0E       		.uleb128 0xe
 2424 0136 3A       		.uleb128 0x3a
 2425 0137 0B       		.uleb128 0xb
 2426 0138 3B       		.uleb128 0x3b
 2427 0139 0B       		.uleb128 0xb
 2428 013a 11       		.uleb128 0x11
ARM GAS  C:\Users\rshu284\AppData\Local\Temp\ccuJOQzD.s 			page 51


 2429 013b 01       		.uleb128 0x1
 2430 013c 12       		.uleb128 0x12
 2431 013d 06       		.uleb128 0x6
 2432 013e 40       		.uleb128 0x40
 2433 013f 18       		.uleb128 0x18
 2434 0140 9742     		.uleb128 0x2117
 2435 0142 19       		.uleb128 0x19
 2436 0143 00       		.byte	0
 2437 0144 00       		.byte	0
 2438 0145 14       		.uleb128 0x14
 2439 0146 2E       		.uleb128 0x2e
 2440 0147 01       		.byte	0x1
 2441 0148 3F       		.uleb128 0x3f
 2442 0149 19       		.uleb128 0x19
 2443 014a 03       		.uleb128 0x3
 2444 014b 0E       		.uleb128 0xe
 2445 014c 3A       		.uleb128 0x3a
 2446 014d 0B       		.uleb128 0xb
 2447 014e 3B       		.uleb128 0x3b
 2448 014f 0B       		.uleb128 0xb
 2449 0150 49       		.uleb128 0x49
 2450 0151 13       		.uleb128 0x13
 2451 0152 11       		.uleb128 0x11
 2452 0153 01       		.uleb128 0x1
 2453 0154 12       		.uleb128 0x12
 2454 0155 06       		.uleb128 0x6
 2455 0156 40       		.uleb128 0x40
 2456 0157 18       		.uleb128 0x18
 2457 0158 9642     		.uleb128 0x2116
 2458 015a 19       		.uleb128 0x19
 2459 015b 01       		.uleb128 0x1
 2460 015c 13       		.uleb128 0x13
 2461 015d 00       		.byte	0
 2462 015e 00       		.byte	0
 2463 015f 15       		.uleb128 0x15
 2464 0160 2E       		.uleb128 0x2e
 2465 0161 00       		.byte	0
 2466 0162 3F       		.uleb128 0x3f
 2467 0163 19       		.uleb128 0x19
 2468 0164 03       		.uleb128 0x3
 2469 0165 0E       		.uleb128 0xe
 2470 0166 3A       		.uleb128 0x3a
 2471 0167 0B       		.uleb128 0xb
 2472 0168 3B       		.uleb128 0x3b
 2473 0169 05       		.uleb128 0x5
 2474 016a 11       		.uleb128 0x11
 2475 016b 01       		.uleb128 0x1
 2476 016c 12       		.uleb128 0x12
 2477 016d 06       		.uleb128 0x6
 2478 016e 40       		.uleb128 0x40
 2479 016f 18       		.uleb128 0x18
 2480 0170 9642     		.uleb128 0x2116
 2481 0172 19       		.uleb128 0x19
 2482 0173 00       		.byte	0
 2483 0174 00       		.byte	0
 2484 0175 16       		.uleb128 0x16
 2485 0176 34       		.uleb128 0x34
ARM GAS  C:\Users\rshu284\AppData\Local\Temp\ccuJOQzD.s 			page 52


 2486 0177 00       		.byte	0
 2487 0178 03       		.uleb128 0x3
 2488 0179 0E       		.uleb128 0xe
 2489 017a 3A       		.uleb128 0x3a
 2490 017b 0B       		.uleb128 0xb
 2491 017c 3B       		.uleb128 0x3b
 2492 017d 05       		.uleb128 0x5
 2493 017e 49       		.uleb128 0x49
 2494 017f 13       		.uleb128 0x13
 2495 0180 3F       		.uleb128 0x3f
 2496 0181 19       		.uleb128 0x19
 2497 0182 3C       		.uleb128 0x3c
 2498 0183 19       		.uleb128 0x19
 2499 0184 00       		.byte	0
 2500 0185 00       		.byte	0
 2501 0186 17       		.uleb128 0x17
 2502 0187 35       		.uleb128 0x35
 2503 0188 00       		.byte	0
 2504 0189 49       		.uleb128 0x49
 2505 018a 13       		.uleb128 0x13
 2506 018b 00       		.byte	0
 2507 018c 00       		.byte	0
 2508 018d 18       		.uleb128 0x18
 2509 018e 34       		.uleb128 0x34
 2510 018f 00       		.byte	0
 2511 0190 03       		.uleb128 0x3
 2512 0191 08       		.uleb128 0x8
 2513 0192 3A       		.uleb128 0x3a
 2514 0193 0B       		.uleb128 0xb
 2515 0194 3B       		.uleb128 0x3b
 2516 0195 0B       		.uleb128 0xb
 2517 0196 49       		.uleb128 0x49
 2518 0197 13       		.uleb128 0x13
 2519 0198 3F       		.uleb128 0x3f
 2520 0199 19       		.uleb128 0x19
 2521 019a 02       		.uleb128 0x2
 2522 019b 18       		.uleb128 0x18
 2523 019c 00       		.byte	0
 2524 019d 00       		.byte	0
 2525 019e 19       		.uleb128 0x19
 2526 019f 34       		.uleb128 0x34
 2527 01a0 00       		.byte	0
 2528 01a1 03       		.uleb128 0x3
 2529 01a2 0E       		.uleb128 0xe
 2530 01a3 3A       		.uleb128 0x3a
 2531 01a4 0B       		.uleb128 0xb
 2532 01a5 3B       		.uleb128 0x3b
 2533 01a6 0B       		.uleb128 0xb
 2534 01a7 49       		.uleb128 0x49
 2535 01a8 13       		.uleb128 0x13
 2536 01a9 3F       		.uleb128 0x3f
 2537 01aa 19       		.uleb128 0x19
 2538 01ab 02       		.uleb128 0x2
 2539 01ac 18       		.uleb128 0x18
 2540 01ad 00       		.byte	0
 2541 01ae 00       		.byte	0
 2542 01af 1A       		.uleb128 0x1a
ARM GAS  C:\Users\rshu284\AppData\Local\Temp\ccuJOQzD.s 			page 53


 2543 01b0 01       		.uleb128 0x1
 2544 01b1 01       		.byte	0x1
 2545 01b2 49       		.uleb128 0x49
 2546 01b3 13       		.uleb128 0x13
 2547 01b4 01       		.uleb128 0x1
 2548 01b5 13       		.uleb128 0x13
 2549 01b6 00       		.byte	0
 2550 01b7 00       		.byte	0
 2551 01b8 1B       		.uleb128 0x1b
 2552 01b9 21       		.uleb128 0x21
 2553 01ba 00       		.byte	0
 2554 01bb 49       		.uleb128 0x49
 2555 01bc 13       		.uleb128 0x13
 2556 01bd 2F       		.uleb128 0x2f
 2557 01be 0B       		.uleb128 0xb
 2558 01bf 00       		.byte	0
 2559 01c0 00       		.byte	0
 2560 01c1 00       		.byte	0
 2561              		.section	.debug_aranges,"",%progbits
 2562 0000 7C000000 		.4byte	0x7c
 2563 0004 0200     		.2byte	0x2
 2564 0006 00000000 		.4byte	.Ldebug_info0
 2565 000a 04       		.byte	0x4
 2566 000b 00       		.byte	0
 2567 000c 0000     		.2byte	0
 2568 000e 0000     		.2byte	0
 2569 0010 00000000 		.4byte	.LFB64
 2570 0014 EC000000 		.4byte	.LFE64-.LFB64
 2571 0018 00000000 		.4byte	.LFB65
 2572 001c 18000000 		.4byte	.LFE65-.LFB65
 2573 0020 00000000 		.4byte	.LFB66
 2574 0024 18000000 		.4byte	.LFE66-.LFB66
 2575 0028 00000000 		.4byte	.LFB67
 2576 002c 18000000 		.4byte	.LFE67-.LFB67
 2577 0030 00000000 		.4byte	.LFB68
 2578 0034 18000000 		.4byte	.LFE68-.LFB68
 2579 0038 00000000 		.4byte	.LFB69
 2580 003c 18000000 		.4byte	.LFE69-.LFB69
 2581 0040 00000000 		.4byte	.LFB70
 2582 0044 18000000 		.4byte	.LFE70-.LFB70
 2583 0048 00000000 		.4byte	.LFB71
 2584 004c 38000000 		.4byte	.LFE71-.LFB71
 2585 0050 00000000 		.4byte	.LFB72
 2586 0054 A8000000 		.4byte	.LFE72-.LFB72
 2587 0058 00000000 		.4byte	.LFB73
 2588 005c 54000000 		.4byte	.LFE73-.LFB73
 2589 0060 00000000 		.4byte	.LFB74
 2590 0064 48000000 		.4byte	.LFE74-.LFB74
 2591 0068 00000000 		.4byte	.LFB75
 2592 006c 64020000 		.4byte	.LFE75-.LFB75
 2593 0070 00000000 		.4byte	.LFB76
 2594 0074 88000000 		.4byte	.LFE76-.LFB76
 2595 0078 00000000 		.4byte	0
 2596 007c 00000000 		.4byte	0
 2597              		.section	.debug_ranges,"",%progbits
 2598              	.Ldebug_ranges0:
 2599 0000 00000000 		.4byte	.LFB64
ARM GAS  C:\Users\rshu284\AppData\Local\Temp\ccuJOQzD.s 			page 54


 2600 0004 EC000000 		.4byte	.LFE64
 2601 0008 00000000 		.4byte	.LFB65
 2602 000c 18000000 		.4byte	.LFE65
 2603 0010 00000000 		.4byte	.LFB66
 2604 0014 18000000 		.4byte	.LFE66
 2605 0018 00000000 		.4byte	.LFB67
 2606 001c 18000000 		.4byte	.LFE67
 2607 0020 00000000 		.4byte	.LFB68
 2608 0024 18000000 		.4byte	.LFE68
 2609 0028 00000000 		.4byte	.LFB69
 2610 002c 18000000 		.4byte	.LFE69
 2611 0030 00000000 		.4byte	.LFB70
 2612 0034 18000000 		.4byte	.LFE70
 2613 0038 00000000 		.4byte	.LFB71
 2614 003c 38000000 		.4byte	.LFE71
 2615 0040 00000000 		.4byte	.LFB72
 2616 0044 A8000000 		.4byte	.LFE72
 2617 0048 00000000 		.4byte	.LFB73
 2618 004c 54000000 		.4byte	.LFE73
 2619 0050 00000000 		.4byte	.LFB74
 2620 0054 48000000 		.4byte	.LFE74
 2621 0058 00000000 		.4byte	.LFB75
 2622 005c 64020000 		.4byte	.LFE75
 2623 0060 00000000 		.4byte	.LFB76
 2624 0064 88000000 		.4byte	.LFE76
 2625 0068 00000000 		.4byte	0
 2626 006c 00000000 		.4byte	0
 2627              		.section	.debug_line,"",%progbits
 2628              	.Ldebug_line0:
 2629 0000 6E030000 		.section	.debug_str,"MS",%progbits,1
 2629      02005601 
 2629      00000201 
 2629      FB0E0D00 
 2629      01010101 
 2630              	.LASF54:
 2631 0000 53365F44 		.ascii	"S6_DETECTED\000"
 2631      45544543 
 2631      54454400 
 2632              	.LASF40:
 2633 000c 5475726E 		.ascii	"TurnLeft\000"
 2633      4C656674 
 2633      00
 2634              	.LASF64:
 2635 0015 74735F65 		.ascii	"ts_enc\000"
 2635      6E6300
 2636              	.LASF47:
 2637 001c 466F7277 		.ascii	"ForwardAfterTurn\000"
 2637      61726441 
 2637      66746572 
 2637      5475726E 
 2637      00
 2638              	.LASF73:
 2639 002d 666C6167 		.ascii	"flag_packet\000"
 2639      5F706163 
 2639      6B657400 
 2640              	.LASF46:
 2641 0039 77616974 		.ascii	"waitForTurn\000"
ARM GAS  C:\Users\rshu284\AppData\Local\Temp\ccuJOQzD.s 			page 55


 2641      466F7254 
 2641      75726E00 
 2642              	.LASF93:
 2643 0045 433A5C55 		.ascii	"C:\\Users\\rshu284\\OneDrive - The University of Au"
 2643      73657273 
 2643      5C727368 
 2643      75323834 
 2643      5C4F6E65 
 2644 0075 636B6C61 		.ascii	"ckland\\Documents\\GitHub\\301-Robot\\psoc student "
 2644      6E645C44 
 2644      6F63756D 
 2644      656E7473 
 2644      5C476974 
 2645 00a4 7061636B 		.ascii	"pack\\psoc_code_base\\CS301_Class.cydsn\000"
 2645      5C70736F 
 2645      635F636F 
 2645      64655F62 
 2645      6173655C 
 2646              	.LASF70:
 2647 00ca 666C6167 		.ascii	"flag_ts_speed\000"
 2647      5F74735F 
 2647      73706565 
 2647      6400
 2648              	.LASF34:
 2649 00d8 67325F78 		.ascii	"g2_xpos\000"
 2649      706F7300 
 2650              	.LASF2:
 2651 00e0 73686F72 		.ascii	"short int\000"
 2651      7420696E 
 2651      7400
 2652              	.LASF81:
 2653 00ea 73797374 		.ascii	"system_state\000"
 2653      656D5F73 
 2653      74617465 
 2653      00
 2654              	.LASF10:
 2655 00f7 73697A65 		.ascii	"sizetype\000"
 2655      74797065 
 2655      00
 2656              	.LASF90:
 2657 0100 73746F70 		.ascii	"stopBuffer\000"
 2657      42756666 
 2657      657200
 2658              	.LASF95:
 2659 010b 44697265 		.ascii	"DirectionState\000"
 2659      6374696F 
 2659      6E537461 
 2659      746500
 2660              	.LASF80:
 2661 011a 75736242 		.ascii	"usbBuffer\000"
 2661      75666665 
 2661      7200
 2662              	.LASF91:
 2663 0124 474E5520 		.ascii	"GNU C11 5.4.1 20160609 (release) [ARM/embedded-5-br"
 2663      43313120 
 2663      352E342E 
 2663      31203230 
ARM GAS  C:\Users\rshu284\AppData\Local\Temp\ccuJOQzD.s 			page 56


 2663      31363036 
 2664 0157 616E6368 		.ascii	"anch revision 237715] -mcpu=cortex-m3 -mthumb -g -O"
 2664      20726576 
 2664      6973696F 
 2664      6E203233 
 2664      37373135 
 2665 018a 30202D66 		.ascii	"0 -ffunction-sections -ffat-lto-objects\000"
 2665      66756E63 
 2665      74696F6E 
 2665      2D736563 
 2665      74696F6E 
 2666              	.LASF56:
 2667 01b2 6D61696E 		.ascii	"main\000"
 2667      00
 2668              	.LASF52:
 2669 01b7 53345F44 		.ascii	"S4_DETECTED\000"
 2669      45544543 
 2669      54454400 
 2670              	.LASF41:
 2671 01c3 41646A75 		.ascii	"AdjustToTheLeft\000"
 2671      7374546F 
 2671      5468654C 
 2671      65667400 
 2672              	.LASF15:
 2673 01d3 75696E74 		.ascii	"uint16\000"
 2673      313600
 2674              	.LASF22:
 2675 01da 696E6465 		.ascii	"index\000"
 2675      7800
 2676              	.LASF58:
 2677 01e0 73706565 		.ascii	"speedTimer\000"
 2677      6454696D 
 2677      657200
 2678              	.LASF18:
 2679 01eb 696E7431 		.ascii	"int16\000"
 2679      3600
 2680              	.LASF45:
 2681 01f1 48617264 		.ascii	"HardForward\000"
 2681      466F7277 
 2681      61726400 
 2682              	.LASF14:
 2683 01fd 75696E74 		.ascii	"uint8\000"
 2683      3800
 2684              	.LASF33:
 2685 0203 67315F64 		.ascii	"g1_direction\000"
 2685      69726563 
 2685      74696F6E 
 2685      00
 2686              	.LASF78:
 2687 0210 6C696E65 		.ascii	"line\000"
 2687      00
 2688              	.LASF19:
 2689 0215 666C6F61 		.ascii	"float\000"
 2689      7400
 2690              	.LASF57:
 2691 021b 6E657744 		.ascii	"newDistance\000"
 2691      69737461 
ARM GAS  C:\Users\rshu284\AppData\Local\Temp\ccuJOQzD.s 			page 57


 2691      6E636500 
 2692              	.LASF6:
 2693 0227 6C6F6E67 		.ascii	"long long int\000"
 2693      206C6F6E 
 2693      6720696E 
 2693      7400
 2694              	.LASF17:
 2695 0235 696E7438 		.ascii	"int8\000"
 2695      00
 2696              	.LASF69:
 2697 023a 666C6167 		.ascii	"flag_ts_update\000"
 2697      5F74735F 
 2697      75706461 
 2697      746500
 2698              	.LASF35:
 2699 0249 67325F79 		.ascii	"g2_ypos\000"
 2699      706F7300 
 2700              	.LASF29:
 2701 0251 67305F64 		.ascii	"g0_direction\000"
 2701      69726563 
 2701      74696F6E 
 2701      00
 2702              	.LASF26:
 2703 025e 67305F78 		.ascii	"g0_xpos\000"
 2703      706F7300 
 2704              	.LASF4:
 2705 0266 6C6F6E67 		.ascii	"long int\000"
 2705      20696E74 
 2705      00
 2706              	.LASF59:
 2707 026f 43686563 		.ascii	"CheckSensorDirection\000"
 2707      6B53656E 
 2707      736F7244 
 2707      69726563 
 2707      74696F6E 
 2708              	.LASF50:
 2709 0284 53325F44 		.ascii	"S2_DETECTED\000"
 2709      45544543 
 2709      54454400 
 2710              	.LASF71:
 2711 0290 666C6167 		.ascii	"flag_ts_display\000"
 2711      5F74735F 
 2711      64697370 
 2711      6C617900 
 2712              	.LASF72:
 2713 02a0 666C6167 		.ascii	"flag_rx\000"
 2713      5F727800 
 2714              	.LASF1:
 2715 02a8 756E7369 		.ascii	"unsigned char\000"
 2715      676E6564 
 2715      20636861 
 2715      7200
 2716              	.LASF84:
 2717 02b6 746F7461 		.ascii	"totalMilliseconds\000"
 2717      6C4D696C 
 2717      6C697365 
 2717      636F6E64 
ARM GAS  C:\Users\rshu284\AppData\Local\Temp\ccuJOQzD.s 			page 58


 2717      7300
 2718              	.LASF79:
 2719 02c8 656E7472 		.ascii	"entry\000"
 2719      7900
 2720              	.LASF9:
 2721 02ce 6C6F6E67 		.ascii	"long double\000"
 2721      20646F75 
 2721      626C6500 
 2722              	.LASF83:
 2723 02da 70726576 		.ascii	"previousDirection\000"
 2723      696F7573 
 2723      44697265 
 2723      6374696F 
 2723      6E00
 2724              	.LASF85:
 2725 02ec 746F7461 		.ascii	"totalDistance\000"
 2725      6C446973 
 2725      74616E63 
 2725      6500
 2726              	.LASF89:
 2727 02fa 6B656570 		.ascii	"keepLedOn\000"
 2727      4C65644F 
 2727      6E00
 2728              	.LASF28:
 2729 0304 67305F73 		.ascii	"g0_speed\000"
 2729      70656564 
 2729      00
 2730              	.LASF75:
 2731 030d 64617461 		.ascii	"dataready_flag\000"
 2731      72656164 
 2731      795F666C 
 2731      616700
 2732              	.LASF30:
 2733 031c 67315F78 		.ascii	"g1_xpos\000"
 2733      706F7300 
 2734              	.LASF0:
 2735 0324 7369676E 		.ascii	"signed char\000"
 2735      65642063 
 2735      68617200 
 2736              	.LASF13:
 2737 0330 696E7433 		.ascii	"int32_t\000"
 2737      325F7400 
 2738              	.LASF7:
 2739 0338 6C6F6E67 		.ascii	"long long unsigned int\000"
 2739      206C6F6E 
 2739      6720756E 
 2739      7369676E 
 2739      65642069 
 2740              	.LASF42:
 2741 034f 41646A75 		.ascii	"AdjustToTheRight\000"
 2741      7374546F 
 2741      54686552 
 2741      69676874 
 2741      00
 2742              	.LASF8:
 2743 0360 756E7369 		.ascii	"unsigned int\000"
 2743      676E6564 
ARM GAS  C:\Users\rshu284\AppData\Local\Temp\ccuJOQzD.s 			page 59


 2743      20696E74 
 2743      00
 2744              	.LASF88:
 2745 036d 74696D65 		.ascii	"timerInt\000"
 2745      72496E74 
 2745      00
 2746              	.LASF74:
 2747 0376 666C6167 		.ascii	"flag_KB_string\000"
 2747      5F4B425F 
 2747      73747269 
 2747      6E6700
 2748              	.LASF62:
 2749 0385 53657452 		.ascii	"SetRobotMovement\000"
 2749      6F626F74 
 2749      4D6F7665 
 2749      6D656E74 
 2749      00
 2750              	.LASF55:
 2751 0396 54494D45 		.ascii	"TIMER_FINISH\000"
 2751      525F4649 
 2751      4E495348 
 2751      00
 2752              	.LASF36:
 2753 03a3 67325F73 		.ascii	"g2_speed\000"
 2753      70656564 
 2753      00
 2754              	.LASF53:
 2755 03ac 53355F44 		.ascii	"S5_DETECTED\000"
 2755      45544543 
 2755      54454400 
 2756              	.LASF3:
 2757 03b8 73686F72 		.ascii	"short unsigned int\000"
 2757      7420756E 
 2757      7369676E 
 2757      65642069 
 2757      6E7400
 2758              	.LASF94:
 2759 03cb 64617461 		.ascii	"data_main\000"
 2759      5F6D6169 
 2759      6E00
 2760              	.LASF61:
 2761 03d5 52657365 		.ascii	"ResetSensorFlags\000"
 2761      7453656E 
 2761      736F7246 
 2761      6C616773 
 2761      00
 2762              	.LASF11:
 2763 03e6 63686172 		.ascii	"char\000"
 2763      00
 2764              	.LASF38:
 2765 03eb 466F7277 		.ascii	"Forward\000"
 2765      61726400 
 2766              	.LASF87:
 2767 03f3 71756164 		.ascii	"quadDec2Count\000"
 2767      44656332 
 2767      436F756E 
 2767      7400
ARM GAS  C:\Users\rshu284\AppData\Local\Temp\ccuJOQzD.s 			page 60


 2768              	.LASF31:
 2769 0401 67315F79 		.ascii	"g1_ypos\000"
 2769      706F7300 
 2770              	.LASF37:
 2771 0409 67325F64 		.ascii	"g2_direction\000"
 2771      69726563 
 2771      74696F6E 
 2771      00
 2772              	.LASF32:
 2773 0416 67315F73 		.ascii	"g1_speed\000"
 2773      70656564 
 2773      00
 2774              	.LASF77:
 2775 041f 64697370 		.ascii	"displaystring\000"
 2775      6C617973 
 2775      7472696E 
 2775      6700
 2776              	.LASF23:
 2777 042d 726F626F 		.ascii	"robot_xpos\000"
 2777      745F7870 
 2777      6F7300
 2778              	.LASF39:
 2779 0438 5475726E 		.ascii	"TurnRight\000"
 2779      52696768 
 2779      7400
 2780              	.LASF86:
 2781 0442 62756666 		.ascii	"buffer\000"
 2781      657200
 2782              	.LASF16:
 2783 0449 75696E74 		.ascii	"uint32\000"
 2783      333200
 2784              	.LASF92:
 2785 0450 6D61696E 		.ascii	"main.c\000"
 2785      2E6300
 2786              	.LASF5:
 2787 0457 6C6F6E67 		.ascii	"long unsigned int\000"
 2787      20756E73 
 2787      69676E65 
 2787      6420696E 
 2787      7400
 2788              	.LASF48:
 2789 0469 4261636B 		.ascii	"Backward\000"
 2789      77617264 
 2789      00
 2790              	.LASF20:
 2791 0472 646F7562 		.ascii	"double\000"
 2791      6C6500
 2792              	.LASF44:
 2793 0479 556E6B6E 		.ascii	"Unknown\000"
 2793      6F776E00 
 2794              	.LASF51:
 2795 0481 53335F44 		.ascii	"S3_DETECTED\000"
 2795      45544543 
 2795      54454400 
 2796              	.LASF66:
 2797 048d 74735F73 		.ascii	"ts_speed\000"
 2797      70656564 
ARM GAS  C:\Users\rshu284\AppData\Local\Temp\ccuJOQzD.s 			page 61


 2797      00
 2798              	.LASF97:
 2799 0496 636F756E 		.ascii	"count\000"
 2799      7400
 2800              	.LASF68:
 2801 049c 666C6167 		.ascii	"flag_ts_enc\000"
 2801      5F74735F 
 2801      656E6300 
 2802              	.LASF12:
 2803 04a8 5F5F696E 		.ascii	"__int32_t\000"
 2803      7433325F 
 2803      7400
 2804              	.LASF43:
 2805 04b2 53746F70 		.ascii	"Stop\000"
 2805      00
 2806              	.LASF27:
 2807 04b7 67305F79 		.ascii	"g0_ypos\000"
 2807      706F7300 
 2808              	.LASF67:
 2809 04bf 74735F64 		.ascii	"ts_display\000"
 2809      6973706C 
 2809      617900
 2810              	.LASF65:
 2811 04ca 74735F75 		.ascii	"ts_update\000"
 2811      70646174 
 2811      6500
 2812              	.LASF96:
 2813 04d4 71756164 		.ascii	"quadCountToRPM\000"
 2813      436F756E 
 2813      74546F52 
 2813      504D00
 2814              	.LASF76:
 2815 04e3 666C6167 		.ascii	"flag_rf_transmission_active\000"
 2815      5F72665F 
 2815      7472616E 
 2815      736D6973 
 2815      73696F6E 
 2816              	.LASF24:
 2817 04ff 726F626F 		.ascii	"robot_ypos\000"
 2817      745F7970 
 2817      6F7300
 2818              	.LASF63:
 2819 050a 49544D5F 		.ascii	"ITM_RxBuffer\000"
 2819      52784275 
 2819      66666572 
 2819      00
 2820              	.LASF82:
 2821 0517 63757272 		.ascii	"currentDirection\000"
 2821      656E7444 
 2821      69726563 
 2821      74696F6E 
 2821      00
 2822              	.LASF60:
 2823 0528 64697265 		.ascii	"directionState\000"
 2823      6374696F 
 2823      6E537461 
 2823      746500
ARM GAS  C:\Users\rshu284\AppData\Local\Temp\ccuJOQzD.s 			page 62


 2824              	.LASF21:
 2825 0537 72737369 		.ascii	"rssi\000"
 2825      00
 2826              	.LASF25:
 2827 053c 726F626F 		.ascii	"robot_orientation\000"
 2827      745F6F72 
 2827      69656E74 
 2827      6174696F 
 2827      6E00
 2828              	.LASF49:
 2829 054e 53315F44 		.ascii	"S1_DETECTED\000"
 2829      45544543 
 2829      54454400 
 2830              		.ident	"GCC: (GNU Tools for ARM Embedded Processors) 5.4.1 20160609 (release) [ARM/embedded-5-bran
