ARM GAS  C:\Users\ikui753\AppData\Local\Temp\ccDFj6Ue.s 			page 1


   1              		.syntax unified
   2              		.cpu cortex-m3
   3              		.fpu softvfp
   4              		.eabi_attribute 20, 1
   5              		.eabi_attribute 21, 1
   6              		.eabi_attribute 23, 3
   7              		.eabi_attribute 24, 1
   8              		.eabi_attribute 25, 1
   9              		.eabi_attribute 26, 1
  10              		.eabi_attribute 30, 6
  11              		.eabi_attribute 34, 1
  12              		.eabi_attribute 18, 4
  13              		.thumb
  14              		.syntax unified
  15              		.file	"main.c"
  16              		.text
  17              	.Ltext0:
  18              		.cfi_sections	.debug_frame
  19              		.global	ts
  20              		.bss
  21              		.type	ts, %object
  22              		.size	ts, 1
  23              	ts:
  24 0000 00       		.space	1
  25              		.global	ts_enc
  26 0001 00       		.align	1
  27              		.type	ts_enc, %object
  28              		.size	ts_enc, 2
  29              	ts_enc:
  30 0002 0000     		.space	2
  31              		.global	ts_update
  32              		.align	1
  33              		.type	ts_update, %object
  34              		.size	ts_update, 2
  35              	ts_update:
  36 0004 0000     		.space	2
  37              		.global	ts_speed
  38              		.align	1
  39              		.type	ts_speed, %object
  40              		.size	ts_speed, 2
  41              	ts_speed:
  42 0006 0000     		.space	2
  43              		.global	ts_display
  44              		.align	1
  45              		.type	ts_display, %object
  46              		.size	ts_display, 2
  47              	ts_display:
  48 0008 0000     		.space	2
  49              		.global	flag_ts_enc
  50              		.type	flag_ts_enc, %object
  51              		.size	flag_ts_enc, 1
  52              	flag_ts_enc:
  53 000a 00       		.space	1
  54              		.global	flag_ts_update
  55              		.type	flag_ts_update, %object
  56              		.size	flag_ts_update, 1
  57              	flag_ts_update:
ARM GAS  C:\Users\ikui753\AppData\Local\Temp\ccDFj6Ue.s 			page 2


  58 000b 00       		.space	1
  59              		.global	flag_ts_speed
  60              		.type	flag_ts_speed, %object
  61              		.size	flag_ts_speed, 1
  62              	flag_ts_speed:
  63 000c 00       		.space	1
  64              		.global	flag_ts_display
  65              		.type	flag_ts_display, %object
  66              		.size	flag_ts_display, 1
  67              	flag_ts_display:
  68 000d 00       		.space	1
  69              		.global	flag_rx
  70              		.type	flag_rx, %object
  71              		.size	flag_rx, 1
  72              	flag_rx:
  73 000e 00       		.space	1
  74              		.global	flag_packet
  75              		.type	flag_packet, %object
  76              		.size	flag_packet, 1
  77              	flag_packet:
  78 000f 00       		.space	1
  79              		.global	flag_KB_string
  80              		.type	flag_KB_string, %object
  81              		.size	flag_KB_string, 1
  82              	flag_KB_string:
  83 0010 00       		.space	1
  84              		.global	dataready_flag
  85              		.type	dataready_flag, %object
  86              		.size	dataready_flag, 1
  87              	dataready_flag:
  88 0011 00       		.space	1
  89              		.global	flag_rf_transmission_active
  90              		.data
  91              		.type	flag_rf_transmission_active, %object
  92              		.size	flag_rf_transmission_active, 1
  93              	flag_rf_transmission_active:
  94 0000 0A       		.byte	10
  95              		.global	displaystring
  96 0001 000000   		.align	2
  97              		.type	displaystring, %object
  98              		.size	displaystring, 64
  99              	displaystring:
 100 0004 43533330 		.ascii	"CS301 2016\012\015\000"
 100      31203230 
 100      31360A0D 
 100      00
 101 0011 00000000 		.space	51
 101      00000000 
 101      00000000 
 101      00000000 
 101      00000000 
 102              		.comm	line,64,4
 103              		.comm	entry,64,4
 104              		.comm	usbBuffer,64,4
 105              		.comm	system_state,32,4
 106              		.global	currentDirection
 107              		.align	2
ARM GAS  C:\Users\ikui753\AppData\Local\Temp\ccDFj6Ue.s 			page 3


 108              		.type	currentDirection, %object
 109              		.size	currentDirection, 4
 110              	currentDirection:
 111 0044 05000000 		.word	5
 112              		.global	previousDirection
 113              		.align	2
 114              		.type	previousDirection, %object
 115              		.size	previousDirection, 4
 116              	previousDirection:
 117 0048 06000000 		.word	6
 118              		.global	s1
 119              		.bss
 120              		.type	s1, %object
 121              		.size	s1, 1
 122              	s1:
 123 0012 00       		.space	1
 124              		.global	s2
 125              		.type	s2, %object
 126              		.size	s2, 1
 127              	s2:
 128 0013 00       		.space	1
 129              		.global	s3
 130              		.type	s3, %object
 131              		.size	s3, 1
 132              	s3:
 133 0014 00       		.space	1
 134              		.global	s4
 135              		.type	s4, %object
 136              		.size	s4, 1
 137              	s4:
 138 0015 00       		.space	1
 139              		.global	s5
 140              		.type	s5, %object
 141              		.size	s5, 1
 142              	s5:
 143 0016 00       		.space	1
 144              		.global	s6
 145              		.type	s6, %object
 146              		.size	s6, 1
 147              	s6:
 148 0017 00       		.space	1
 149              		.global	totalMilliseconds
 150              		.align	2
 151              		.type	totalMilliseconds, %object
 152              		.size	totalMilliseconds, 4
 153              	totalMilliseconds:
 154 0018 00000000 		.space	4
 155              		.global	totalDistance
 156              		.align	2
 157              		.type	totalDistance, %object
 158              		.size	totalDistance, 4
 159              	totalDistance:
 160 001c 00000000 		.space	4
 161              		.comm	buffer,69,4
 162              		.global	quadDec2Count
 163              		.align	2
 164              		.type	quadDec2Count, %object
ARM GAS  C:\Users\ikui753\AppData\Local\Temp\ccDFj6Ue.s 			page 4


 165              		.size	quadDec2Count, 4
 166              	quadDec2Count:
 167 0020 00000000 		.space	4
 168              		.global	timerInt
 169              		.align	2
 170              		.type	timerInt, %object
 171              		.size	timerInt, 4
 172              	timerInt:
 173 0024 00000000 		.space	4
 174              		.global	keepLedOn
 175              		.align	2
 176              		.type	keepLedOn, %object
 177              		.size	keepLedOn, 4
 178              	keepLedOn:
 179 0028 00000000 		.space	4
 180              		.global	__aeabi_ui2d
 181              		.global	__aeabi_i2d
 182              		.global	__aeabi_ddiv
 183              		.global	__aeabi_dmul
 184              		.global	__aeabi_dadd
 185              		.global	__aeabi_d2uiz
 186              		.section	.text.speedTimer,"ax",%progbits
 187              		.align	2
 188              		.global	speedTimer
 189              		.thumb
 190              		.thumb_func
 191              		.type	speedTimer, %function
 192              	speedTimer:
 193              	.LFB64:
 194              		.file 1 "main.c"
   1:main.c        **** /* ========================================
   2:main.c        ****  * Fully working code: 
   3:main.c        ****  * PWM      : 
   4:main.c        ****  * Encoder  : 
   5:main.c        ****  * ADC      :
   6:main.c        ****  * USB      : port displays speed and position.
   7:main.c        ****  * CMD: "PW xx"
   8:main.c        ****  * Copyright Univ of Auckland, 2016
   9:main.c        ****  * All Rights Reserved
  10:main.c        ****  * UNPUBLISHED, LICENSED SOFTWARE.
  11:main.c        ****  *
  12:main.c        ****  * CONFIDENTIAL AND PROPRIETARY INFORMATION
  13:main.c        ****  * WHICH IS THE PROPERTY OF Univ of Auckland.
  14:main.c        ****  *
  15:main.c        ****  * ========================================
  16:main.c        **** */
  17:main.c        **** #include <stdio.h>
  18:main.c        **** #include <string.h>
  19:main.c        **** #include <stdlib.h>
  20:main.c        **** #include <project.h>
  21:main.c        **** //* ========================================
  22:main.c        **** #include "defines.h"
  23:main.c        **** #include "vars.h"
  24:main.c        **** //#include "pathfinding.h"
  25:main.c        **** #include "initialise.h"
  26:main.c        **** #include "movement.h"
  27:main.c        **** //#include "usbUART.h"
ARM GAS  C:\Users\ikui753\AppData\Local\Temp\ccDFj6Ue.s 			page 5


  28:main.c        **** //* ========================================
  29:main.c        **** // USBUART
  30:main.c        **** void usbPutString(char *s);
  31:main.c        **** void usbPutChar(char c);
  32:main.c        **** void handle_usb();
  33:main.c        **** //* ========================================
  34:main.c        **** int16 quadCountToRPM(uint16 count);
  35:main.c        **** //* ========================================
  36:main.c        **** // Sensors, Course correction and Movement Direction.
  37:main.c        **** void ResetSensorFlags();
  38:main.c        **** void SetRobotMovement();
  39:main.c        **** enum DirectionState CheckSensorDirection();
  40:main.c        **** enum DirectionState {Forward, TurnRight, TurnLeft, AdjustToTheLeft, AdjustToTheRight, Stop, Unknown
  41:main.c        **** enum DirectionState currentDirection = Stop;
  42:main.c        **** enum DirectionState previousDirection = Unknown;
  43:main.c        **** // --- YIPPE
  44:main.c        **** // ----------------------------------------
  45:main.c        **** uint8 s1 = 0; // black = 0, white = 1
  46:main.c        **** uint8 s2 = 0;
  47:main.c        **** uint8 s3 = 0;
  48:main.c        **** uint8 s4 = 0;
  49:main.c        **** uint8 s5 = 0;
  50:main.c        **** uint8 s6 = 0;
  51:main.c        **** //* ========================================
  52:main.c        **** // Calculating Distance
  53:main.c        **** #define WHEEL_DIAMETER_MM 65
  54:main.c        **** uint32 totalMilliseconds = 0;
  55:main.c        **** uint32 totalDistance = 0; // in mm
  56:main.c        **** //* ========================================
  57:main.c        **** char buffer[69];
  58:main.c        **** int quadDec2Count = 0;
  59:main.c        **** int timerInt = 0;
  60:main.c        **** int keepLedOn = 0;
  61:main.c        **** 
  62:main.c        **** 
  63:main.c        **** //char map[MAX_ROWS][MAX_COLS]; // global map array- stores the map
  64:main.c        **** 
  65:main.c        **** CY_ISR (speedTimer) {
 195              		.loc 1 65 0
 196              		.cfi_startproc
 197              		@ args = 0, pretend = 0, frame = 0
 198              		@ frame_needed = 1, uses_anonymous_args = 0
 199 0000 B0B5     		push	{r4, r5, r7, lr}
 200              		.cfi_def_cfa_offset 16
 201              		.cfi_offset 4, -16
 202              		.cfi_offset 5, -12
 203              		.cfi_offset 7, -8
 204              		.cfi_offset 14, -4
 205 0002 00AF     		add	r7, sp, #0
 206              		.cfi_def_cfa_register 7
  66:main.c        ****     timerInt = 1;
 207              		.loc 1 66 0
 208 0004 2A4B     		ldr	r3, .L3+8
 209 0006 0122     		movs	r2, #1
 210 0008 1A60     		str	r2, [r3]
  67:main.c        ****     //quadDec_M1 used for turning macros
  68:main.c        ****     quadDec2Count = QuadDec_M2_GetCounter();
ARM GAS  C:\Users\ikui753\AppData\Local\Temp\ccDFj6Ue.s 			page 6


 211              		.loc 1 68 0
 212 000a FFF7FEFF 		bl	QuadDec_M2_GetCounter
 213 000e 0346     		mov	r3, r0
 214 0010 1A46     		mov	r2, r3
 215 0012 284B     		ldr	r3, .L3+12
 216 0014 1A60     		str	r2, [r3]
  69:main.c        ****     
  70:main.c        ****     if (currentDirection == Forward && quadDec2Count != 0) {
 217              		.loc 1 70 0
 218 0016 284B     		ldr	r3, .L3+16
 219 0018 1B68     		ldr	r3, [r3]
 220 001a 002B     		cmp	r3, #0
 221 001c 38D1     		bne	.L2
 222              		.loc 1 70 0 is_stmt 0 discriminator 1
 223 001e 254B     		ldr	r3, .L3+12
 224 0020 1B68     		ldr	r3, [r3]
 225 0022 002B     		cmp	r3, #0
 226 0024 34D0     		beq	.L2
  71:main.c        ****         totalDistance = totalDistance + (abs(quadDec2Count) / 57.0) * CY_M_PI * WHEEL_DIAMETER_MM;
 227              		.loc 1 71 0 is_stmt 1
 228 0026 254B     		ldr	r3, .L3+20
 229 0028 1B68     		ldr	r3, [r3]
 230 002a 1846     		mov	r0, r3
 231 002c FFF7FEFF 		bl	__aeabi_ui2d
 232 0030 0446     		mov	r4, r0
 233 0032 0D46     		mov	r5, r1
 234 0034 1F4B     		ldr	r3, .L3+12
 235 0036 1B68     		ldr	r3, [r3]
 236 0038 002B     		cmp	r3, #0
 237 003a B8BF     		it	lt
 238 003c 5B42     		rsblt	r3, r3, #0
 239 003e 1846     		mov	r0, r3
 240 0040 FFF7FEFF 		bl	__aeabi_i2d
 241 0044 4FF00002 		mov	r2, #0
 242 0048 1D4B     		ldr	r3, .L3+24
 243 004a FFF7FEFF 		bl	__aeabi_ddiv
 244 004e 0246     		mov	r2, r0
 245 0050 0B46     		mov	r3, r1
 246 0052 1046     		mov	r0, r2
 247 0054 1946     		mov	r1, r3
 248 0056 14A3     		adr	r3, .L3
 249 0058 D3E90023 		ldrd	r2, [r3]
 250 005c FFF7FEFF 		bl	__aeabi_dmul
 251 0060 0246     		mov	r2, r0
 252 0062 0B46     		mov	r3, r1
 253 0064 1046     		mov	r0, r2
 254 0066 1946     		mov	r1, r3
 255 0068 4FF00002 		mov	r2, #0
 256 006c 154B     		ldr	r3, .L3+28
 257 006e FFF7FEFF 		bl	__aeabi_dmul
 258 0072 0246     		mov	r2, r0
 259 0074 0B46     		mov	r3, r1
 260 0076 2046     		mov	r0, r4
 261 0078 2946     		mov	r1, r5
 262 007a FFF7FEFF 		bl	__aeabi_dadd
 263 007e 0346     		mov	r3, r0
 264 0080 0C46     		mov	r4, r1
ARM GAS  C:\Users\ikui753\AppData\Local\Temp\ccDFj6Ue.s 			page 7


 265 0082 1846     		mov	r0, r3
 266 0084 2146     		mov	r1, r4
 267 0086 FFF7FEFF 		bl	__aeabi_d2uiz
 268 008a 0246     		mov	r2, r0
 269 008c 0B4B     		ldr	r3, .L3+20
 270 008e 1A60     		str	r2, [r3]
 271              	.L2:
  72:main.c        ****     }
  73:main.c        ****     
  74:main.c        ****     QuadDec_M2_SetCounter(0); // reset count
 272              		.loc 1 74 0
 273 0090 0020     		movs	r0, #0
 274 0092 FFF7FEFF 		bl	QuadDec_M2_SetCounter
  75:main.c        ****     QuadDec_M2_Start(); // restart counter
 275              		.loc 1 75 0
 276 0096 FFF7FEFF 		bl	QuadDec_M2_Start
  76:main.c        ****     SpeedTimer_ReadStatusRegister(); // clear interrupt
 277              		.loc 1 76 0
 278 009a FFF7FEFF 		bl	SpeedTimer_ReadStatusRegister
  77:main.c        **** }
 279              		.loc 1 77 0
 280 009e 00BF     		nop
 281 00a0 B0BD     		pop	{r4, r5, r7, pc}
 282              	.L4:
 283 00a2 00BFAFF3 		.align	3
 283      0080
 284              	.L3:
 285 00a8 182D4454 		.word	1413754136
 286 00ac FB210940 		.word	1074340347
 287 00b0 00000000 		.word	timerInt
 288 00b4 00000000 		.word	quadDec2Count
 289 00b8 00000000 		.word	currentDirection
 290 00bc 00000000 		.word	totalDistance
 291 00c0 00804C40 		.word	1078755328
 292 00c4 00405040 		.word	1079001088
 293              		.cfi_endproc
 294              	.LFE64:
 295              		.size	speedTimer, .-speedTimer
 296              		.section	.text.S1_DETECTED,"ax",%progbits
 297              		.align	2
 298              		.global	S1_DETECTED
 299              		.thumb
 300              		.thumb_func
 301              		.type	S1_DETECTED, %function
 302              	S1_DETECTED:
 303              	.LFB65:
  78:main.c        **** 
  79:main.c        **** CY_ISR(S1_DETECTED) {
 304              		.loc 1 79 0
 305              		.cfi_startproc
 306              		@ args = 0, pretend = 0, frame = 0
 307              		@ frame_needed = 1, uses_anonymous_args = 0
 308              		@ link register save eliminated.
 309 0000 80B4     		push	{r7}
 310              		.cfi_def_cfa_offset 4
 311              		.cfi_offset 7, -4
 312 0002 00AF     		add	r7, sp, #0
ARM GAS  C:\Users\ikui753\AppData\Local\Temp\ccDFj6Ue.s 			page 8


 313              		.cfi_def_cfa_register 7
  80:main.c        ****     // Sensor has detected WHITE
  81:main.c        ****     s1 = 1; // , Black = 0, White = 1
 314              		.loc 1 81 0
 315 0004 034B     		ldr	r3, .L6
 316 0006 0122     		movs	r2, #1
 317 0008 1A70     		strb	r2, [r3]
  82:main.c        ****     //LED_Write(1u);
  83:main.c        ****     //moveForward();
  84:main.c        **** }
 318              		.loc 1 84 0
 319 000a 00BF     		nop
 320 000c BD46     		mov	sp, r7
 321              		.cfi_def_cfa_register 13
 322              		@ sp needed
 323 000e 80BC     		pop	{r7}
 324              		.cfi_restore 7
 325              		.cfi_def_cfa_offset 0
 326 0010 7047     		bx	lr
 327              	.L7:
 328 0012 00BF     		.align	2
 329              	.L6:
 330 0014 00000000 		.word	s1
 331              		.cfi_endproc
 332              	.LFE65:
 333              		.size	S1_DETECTED, .-S1_DETECTED
 334              		.section	.text.S2_DETECTED,"ax",%progbits
 335              		.align	2
 336              		.global	S2_DETECTED
 337              		.thumb
 338              		.thumb_func
 339              		.type	S2_DETECTED, %function
 340              	S2_DETECTED:
 341              	.LFB66:
  85:main.c        **** 
  86:main.c        **** CY_ISR(S2_DETECTED) {
 342              		.loc 1 86 0
 343              		.cfi_startproc
 344              		@ args = 0, pretend = 0, frame = 0
 345              		@ frame_needed = 1, uses_anonymous_args = 0
 346              		@ link register save eliminated.
 347 0000 80B4     		push	{r7}
 348              		.cfi_def_cfa_offset 4
 349              		.cfi_offset 7, -4
 350 0002 00AF     		add	r7, sp, #0
 351              		.cfi_def_cfa_register 7
  87:main.c        ****     // Sensor has detected WHITE
  88:main.c        ****     s2 = 1; // , Black = 0, White = 1
 352              		.loc 1 88 0
 353 0004 034B     		ldr	r3, .L9
 354 0006 0122     		movs	r2, #1
 355 0008 1A70     		strb	r2, [r3]
  89:main.c        ****     //LED_Write(1u);
  90:main.c        ****     //moveForward();
  91:main.c        **** }
 356              		.loc 1 91 0
 357 000a 00BF     		nop
ARM GAS  C:\Users\ikui753\AppData\Local\Temp\ccDFj6Ue.s 			page 9


 358 000c BD46     		mov	sp, r7
 359              		.cfi_def_cfa_register 13
 360              		@ sp needed
 361 000e 80BC     		pop	{r7}
 362              		.cfi_restore 7
 363              		.cfi_def_cfa_offset 0
 364 0010 7047     		bx	lr
 365              	.L10:
 366 0012 00BF     		.align	2
 367              	.L9:
 368 0014 00000000 		.word	s2
 369              		.cfi_endproc
 370              	.LFE66:
 371              		.size	S2_DETECTED, .-S2_DETECTED
 372              		.section	.text.S3_DETECTED,"ax",%progbits
 373              		.align	2
 374              		.global	S3_DETECTED
 375              		.thumb
 376              		.thumb_func
 377              		.type	S3_DETECTED, %function
 378              	S3_DETECTED:
 379              	.LFB67:
  92:main.c        **** 
  93:main.c        **** CY_ISR(S3_DETECTED) {
 380              		.loc 1 93 0
 381              		.cfi_startproc
 382              		@ args = 0, pretend = 0, frame = 0
 383              		@ frame_needed = 1, uses_anonymous_args = 0
 384              		@ link register save eliminated.
 385 0000 80B4     		push	{r7}
 386              		.cfi_def_cfa_offset 4
 387              		.cfi_offset 7, -4
 388 0002 00AF     		add	r7, sp, #0
 389              		.cfi_def_cfa_register 7
  94:main.c        ****     // Sensor has detected WHITE
  95:main.c        ****     s3 = 1; // , Black = 0, White = 1
 390              		.loc 1 95 0
 391 0004 034B     		ldr	r3, .L12
 392 0006 0122     		movs	r2, #1
 393 0008 1A70     		strb	r2, [r3]
  96:main.c        ****     //LED_Write(1u);
  97:main.c        **** }
 394              		.loc 1 97 0
 395 000a 00BF     		nop
 396 000c BD46     		mov	sp, r7
 397              		.cfi_def_cfa_register 13
 398              		@ sp needed
 399 000e 80BC     		pop	{r7}
 400              		.cfi_restore 7
 401              		.cfi_def_cfa_offset 0
 402 0010 7047     		bx	lr
 403              	.L13:
 404 0012 00BF     		.align	2
 405              	.L12:
 406 0014 00000000 		.word	s3
 407              		.cfi_endproc
 408              	.LFE67:
ARM GAS  C:\Users\ikui753\AppData\Local\Temp\ccDFj6Ue.s 			page 10


 409              		.size	S3_DETECTED, .-S3_DETECTED
 410              		.section	.text.S4_DETECTED,"ax",%progbits
 411              		.align	2
 412              		.global	S4_DETECTED
 413              		.thumb
 414              		.thumb_func
 415              		.type	S4_DETECTED, %function
 416              	S4_DETECTED:
 417              	.LFB68:
  98:main.c        **** 
  99:main.c        **** CY_ISR(S4_DETECTED) {
 418              		.loc 1 99 0
 419              		.cfi_startproc
 420              		@ args = 0, pretend = 0, frame = 0
 421              		@ frame_needed = 1, uses_anonymous_args = 0
 422              		@ link register save eliminated.
 423 0000 80B4     		push	{r7}
 424              		.cfi_def_cfa_offset 4
 425              		.cfi_offset 7, -4
 426 0002 00AF     		add	r7, sp, #0
 427              		.cfi_def_cfa_register 7
 100:main.c        ****     // Sensor has detected WHITE
 101:main.c        ****     s4 = 1; // , Black = 0, White = 1
 428              		.loc 1 101 0
 429 0004 034B     		ldr	r3, .L15
 430 0006 0122     		movs	r2, #1
 431 0008 1A70     		strb	r2, [r3]
 102:main.c        ****     //LED_Write(1u);
 103:main.c        **** }
 432              		.loc 1 103 0
 433 000a 00BF     		nop
 434 000c BD46     		mov	sp, r7
 435              		.cfi_def_cfa_register 13
 436              		@ sp needed
 437 000e 80BC     		pop	{r7}
 438              		.cfi_restore 7
 439              		.cfi_def_cfa_offset 0
 440 0010 7047     		bx	lr
 441              	.L16:
 442 0012 00BF     		.align	2
 443              	.L15:
 444 0014 00000000 		.word	s4
 445              		.cfi_endproc
 446              	.LFE68:
 447              		.size	S4_DETECTED, .-S4_DETECTED
 448              		.section	.text.S5_DETECTED,"ax",%progbits
 449              		.align	2
 450              		.global	S5_DETECTED
 451              		.thumb
 452              		.thumb_func
 453              		.type	S5_DETECTED, %function
 454              	S5_DETECTED:
 455              	.LFB69:
 104:main.c        **** 
 105:main.c        **** CY_ISR(S5_DETECTED) {
 456              		.loc 1 105 0
 457              		.cfi_startproc
ARM GAS  C:\Users\ikui753\AppData\Local\Temp\ccDFj6Ue.s 			page 11


 458              		@ args = 0, pretend = 0, frame = 0
 459              		@ frame_needed = 1, uses_anonymous_args = 0
 460              		@ link register save eliminated.
 461 0000 80B4     		push	{r7}
 462              		.cfi_def_cfa_offset 4
 463              		.cfi_offset 7, -4
 464 0002 00AF     		add	r7, sp, #0
 465              		.cfi_def_cfa_register 7
 106:main.c        ****     // Sensor has detected WHITE
 107:main.c        ****     s5 = 1; // , Black = 0, White = 1
 466              		.loc 1 107 0
 467 0004 034B     		ldr	r3, .L18
 468 0006 0122     		movs	r2, #1
 469 0008 1A70     		strb	r2, [r3]
 108:main.c        ****     //LED_Write(1u);
 109:main.c        **** }
 470              		.loc 1 109 0
 471 000a 00BF     		nop
 472 000c BD46     		mov	sp, r7
 473              		.cfi_def_cfa_register 13
 474              		@ sp needed
 475 000e 80BC     		pop	{r7}
 476              		.cfi_restore 7
 477              		.cfi_def_cfa_offset 0
 478 0010 7047     		bx	lr
 479              	.L19:
 480 0012 00BF     		.align	2
 481              	.L18:
 482 0014 00000000 		.word	s5
 483              		.cfi_endproc
 484              	.LFE69:
 485              		.size	S5_DETECTED, .-S5_DETECTED
 486              		.section	.text.S6_DETECTED,"ax",%progbits
 487              		.align	2
 488              		.global	S6_DETECTED
 489              		.thumb
 490              		.thumb_func
 491              		.type	S6_DETECTED, %function
 492              	S6_DETECTED:
 493              	.LFB70:
 110:main.c        **** 
 111:main.c        **** CY_ISR(S6_DETECTED) {
 494              		.loc 1 111 0
 495              		.cfi_startproc
 496              		@ args = 0, pretend = 0, frame = 0
 497              		@ frame_needed = 1, uses_anonymous_args = 0
 498              		@ link register save eliminated.
 499 0000 80B4     		push	{r7}
 500              		.cfi_def_cfa_offset 4
 501              		.cfi_offset 7, -4
 502 0002 00AF     		add	r7, sp, #0
 503              		.cfi_def_cfa_register 7
 112:main.c        ****     // Sensor has detected WHITE
 113:main.c        ****     s6 = 1; // , Black = 0, White = 1
 504              		.loc 1 113 0
 505 0004 034B     		ldr	r3, .L21
 506 0006 0122     		movs	r2, #1
ARM GAS  C:\Users\ikui753\AppData\Local\Temp\ccDFj6Ue.s 			page 12


 507 0008 1A70     		strb	r2, [r3]
 114:main.c        ****     //LED_Write(1u);
 115:main.c        **** }
 508              		.loc 1 115 0
 509 000a 00BF     		nop
 510 000c BD46     		mov	sp, r7
 511              		.cfi_def_cfa_register 13
 512              		@ sp needed
 513 000e 80BC     		pop	{r7}
 514              		.cfi_restore 7
 515              		.cfi_def_cfa_offset 0
 516 0010 7047     		bx	lr
 517              	.L22:
 518 0012 00BF     		.align	2
 519              	.L21:
 520 0014 00000000 		.word	s6
 521              		.cfi_endproc
 522              	.LFE70:
 523              		.size	S6_DETECTED, .-S6_DETECTED
 524              		.section	.text.SIGNAL_TIMER_FINISH,"ax",%progbits
 525              		.align	2
 526              		.global	SIGNAL_TIMER_FINISH
 527              		.thumb
 528              		.thumb_func
 529              		.type	SIGNAL_TIMER_FINISH, %function
 530              	SIGNAL_TIMER_FINISH:
 531              	.LFB71:
 116:main.c        **** 
 117:main.c        **** CY_ISR(SIGNAL_TIMER_FINISH) {
 532              		.loc 1 117 0
 533              		.cfi_startproc
 534              		@ args = 0, pretend = 0, frame = 0
 535              		@ frame_needed = 1, uses_anonymous_args = 0
 536 0000 80B5     		push	{r7, lr}
 537              		.cfi_def_cfa_offset 8
 538              		.cfi_offset 7, -8
 539              		.cfi_offset 14, -4
 540 0002 00AF     		add	r7, sp, #0
 541              		.cfi_def_cfa_register 7
 118:main.c        ****     // Reset Sensor Flags for Next rising Eddge
 119:main.c        ****     // (s1 = 0, s2 = 0... etc.)
 120:main.c        ****     //LED_Write(0u);
 121:main.c        ****     SetRobotMovement();
 542              		.loc 1 121 0
 543 0004 FFF7FEFF 		bl	SetRobotMovement
 122:main.c        ****     ResetSensorFlags();
 544              		.loc 1 122 0
 545 0008 FFF7FEFF 		bl	ResetSensorFlags
 123:main.c        **** 
 124:main.c        ****     Timer_LED_ReadStatusRegister();
 546              		.loc 1 124 0
 547 000c FFF7FEFF 		bl	Timer_LED_ReadStatusRegister
 125:main.c        **** }
 548              		.loc 1 125 0
 549 0010 00BF     		nop
 550 0012 80BD     		pop	{r7, pc}
 551              		.cfi_endproc
ARM GAS  C:\Users\ikui753\AppData\Local\Temp\ccDFj6Ue.s 			page 13


 552              	.LFE71:
 553              		.size	SIGNAL_TIMER_FINISH, .-SIGNAL_TIMER_FINISH
 554              		.section	.text.main,"ax",%progbits
 555              		.align	2
 556              		.global	main
 557              		.thumb
 558              		.thumb_func
 559              		.type	main, %function
 560              	main:
 561              	.LFB72:
 126:main.c        **** 
 127:main.c        **** 
 128:main.c        **** int main()
 129:main.c        **** {
 562              		.loc 1 129 0
 563              		.cfi_startproc
 564              		@ args = 0, pretend = 0, frame = 0
 565              		@ frame_needed = 1, uses_anonymous_args = 0
 566 0000 80B5     		push	{r7, lr}
 567              		.cfi_def_cfa_offset 8
 568              		.cfi_offset 7, -8
 569              		.cfi_offset 14, -4
 570 0002 00AF     		add	r7, sp, #0
 571              		.cfi_def_cfa_register 7
 130:main.c        **** // --------------------------------    
 131:main.c        **** // ----- INITIALIZATIONS ----------
 132:main.c        ****     CYGlobalIntEnable;
 572              		.loc 1 132 0
 573              		.syntax unified
 574              	@ 132 "main.c" 1
 575 0004 62B6     		CPSIE   i
 576              	@ 0 "" 2
 133:main.c        ****     init(); // initialise clocks, pwms, adc, dac etc- done in header file
 577              		.loc 1 133 0
 578              		.thumb
 579              		.syntax unified
 580 0006 FFF7FEFF 		bl	init
 134:main.c        ****     //findPath(map, "");// find shortest path- store this in map
 135:main.c        ****     isr_speed_StartEx(speedTimer); // start interrupt
 581              		.loc 1 135 0
 582 000a 1D48     		ldr	r0, .L28
 583 000c FFF7FEFF 		bl	isr_speed_StartEx
 136:main.c        ****     isr_Timer_LED_StartEx(SIGNAL_TIMER_FINISH);
 584              		.loc 1 136 0
 585 0010 1C48     		ldr	r0, .L28+4
 586 0012 FFF7FEFF 		bl	isr_Timer_LED_StartEx
 137:main.c        ****     S1_detected_StartEx(S1_DETECTED);
 587              		.loc 1 137 0
 588 0016 1C48     		ldr	r0, .L28+8
 589 0018 FFF7FEFF 		bl	S1_detected_StartEx
 138:main.c        ****     S2_detected_StartEx(S2_DETECTED);
 590              		.loc 1 138 0
 591 001c 1B48     		ldr	r0, .L28+12
 592 001e FFF7FEFF 		bl	S2_detected_StartEx
 139:main.c        ****     S3_detected_StartEx(S3_DETECTED);
 593              		.loc 1 139 0
 594 0022 1B48     		ldr	r0, .L28+16
ARM GAS  C:\Users\ikui753\AppData\Local\Temp\ccDFj6Ue.s 			page 14


 595 0024 FFF7FEFF 		bl	S3_detected_StartEx
 140:main.c        ****     S4_detected_StartEx(S4_DETECTED);
 596              		.loc 1 140 0
 597 0028 1A48     		ldr	r0, .L28+20
 598 002a FFF7FEFF 		bl	S4_detected_StartEx
 141:main.c        ****     S5_detected_StartEx(S5_DETECTED);
 599              		.loc 1 141 0
 600 002e 1A48     		ldr	r0, .L28+24
 601 0030 FFF7FEFF 		bl	S5_detected_StartEx
 142:main.c        ****     S6_detected_StartEx(S6_DETECTED);
 602              		.loc 1 142 0
 603 0034 1948     		ldr	r0, .L28+28
 604 0036 FFF7FEFF 		bl	S6_detected_StartEx
 143:main.c        ****     Timer_LED_Start();
 605              		.loc 1 143 0
 606 003a FFF7FEFF 		bl	Timer_LED_Start
 144:main.c        ****     stopMoving();
 607              		.loc 1 144 0
 608 003e FFF7FEFF 		bl	stopMoving
 145:main.c        **** 
 146:main.c        **** // ------USB SETUP ----------------    
 147:main.c        **** #ifdef USE_USB    
 148:main.c        ****     USBUART_Start(0,USBUART_5V_OPERATION);
 609              		.loc 1 148 0
 610 0042 0121     		movs	r1, #1
 611 0044 0020     		movs	r0, #0
 612 0046 FFF7FEFF 		bl	USBUART_Start
 149:main.c        **** #endif        
 150:main.c        ****     RF_BT_SELECT_Write(0);
 613              		.loc 1 150 0
 614 004a 0020     		movs	r0, #0
 615 004c FFF7FEFF 		bl	RF_BT_SELECT_Write
 616              	.L27:
 151:main.c        ****     
 152:main.c        ****     //usbPutString("Initialised UART");
 153:main.c        ****     for(;;)
 154:main.c        ****     {
 155:main.c        ****         //traverseMap(map);
 156:main.c        ****         //rotationAntiClockwise();
 157:main.c        ****         //rotationClockwise();
 158:main.c        ****         
 159:main.c        ****         
 160:main.c        ****         
 161:main.c        ****         if(timerInt == 1) {
 617              		.loc 1 161 0
 618 0050 134B     		ldr	r3, .L28+32
 619 0052 1B68     		ldr	r3, [r3]
 620 0054 012B     		cmp	r3, #1
 621 0056 08D1     		bne	.L25
 162:main.c        ****             timerInt = 0;
 622              		.loc 1 162 0
 623 0058 114B     		ldr	r3, .L28+32
 624 005a 0022     		movs	r2, #0
 625 005c 1A60     		str	r2, [r3]
 163:main.c        ****             // calculate RPM of M2
 164:main.c        ****             quadCountToRPM(quadDec2Count);
 626              		.loc 1 164 0
ARM GAS  C:\Users\ikui753\AppData\Local\Temp\ccDFj6Ue.s 			page 15


 627 005e 114B     		ldr	r3, .L28+36
 628 0060 1B68     		ldr	r3, [r3]
 629 0062 9BB2     		uxth	r3, r3
 630 0064 1846     		mov	r0, r3
 631 0066 FFF7FEFF 		bl	quadCountToRPM
 632              	.L25:
 165:main.c        ****             //sprintf(buffer, "%lu", totalDistance);
 166:main.c        ****             //usbPutString(buffer);
 167:main.c        ****             //usbPutString(" ");
 168:main.c        ****         }
 169:main.c        ****         handle_usb();
 633              		.loc 1 169 0
 634 006a FFF7FEFF 		bl	handle_usb
 170:main.c        ****         if (flag_KB_string == 1)
 635              		.loc 1 170 0
 636 006e 0E4B     		ldr	r3, .L28+40
 637 0070 1B78     		ldrb	r3, [r3]	@ zero_extendqisi2
 638 0072 012B     		cmp	r3, #1
 639 0074 ECD1     		bne	.L27
 171:main.c        ****         {
 172:main.c        ****             //usbPutString("Total Distance: ");
 173:main.c        ****             //sprintf(buffer, "%lu", totalDistance);
 174:main.c        ****             //usbPutString(buffer);
 175:main.c        ****             flag_KB_string = 0;
 640              		.loc 1 175 0
 641 0076 0C4B     		ldr	r3, .L28+40
 642 0078 0022     		movs	r2, #0
 643 007a 1A70     		strb	r2, [r3]
 176:main.c        ****         }           
 177:main.c        ****     }
 644              		.loc 1 177 0
 645 007c E8E7     		b	.L27
 646              	.L29:
 647 007e 00BF     		.align	2
 648              	.L28:
 649 0080 00000000 		.word	speedTimer
 650 0084 00000000 		.word	SIGNAL_TIMER_FINISH
 651 0088 00000000 		.word	S1_DETECTED
 652 008c 00000000 		.word	S2_DETECTED
 653 0090 00000000 		.word	S3_DETECTED
 654 0094 00000000 		.word	S4_DETECTED
 655 0098 00000000 		.word	S5_DETECTED
 656 009c 00000000 		.word	S6_DETECTED
 657 00a0 00000000 		.word	timerInt
 658 00a4 00000000 		.word	quadDec2Count
 659 00a8 00000000 		.word	flag_KB_string
 660              		.cfi_endproc
 661              	.LFE72:
 662              		.size	main, .-main
 663              		.global	__aeabi_d2f
 664              		.global	__aeabi_fmul
 665              		.global	__aeabi_f2iz
 666              		.section	.rodata
 667              		.align	2
 668              	.LC0:
 669 0000 256400   		.ascii	"%d\000"
 670              		.section	.text.quadCountToRPM,"ax",%progbits
ARM GAS  C:\Users\ikui753\AppData\Local\Temp\ccDFj6Ue.s 			page 16


 671              		.align	2
 672              		.global	quadCountToRPM
 673              		.thumb
 674              		.thumb_func
 675              		.type	quadCountToRPM, %function
 676              	quadCountToRPM:
 677              	.LFB73:
 178:main.c        ****     return 0;
 179:main.c        **** }
 180:main.c        **** 
 181:main.c        **** // Calculations
 182:main.c        **** //* ========================================
 183:main.c        **** int16 quadCountToRPM(uint16 count)
 184:main.c        **** {
 678              		.loc 1 184 0
 679              		.cfi_startproc
 680              		@ args = 0, pretend = 0, frame = 16
 681              		@ frame_needed = 1, uses_anonymous_args = 0
 682 0000 90B5     		push	{r4, r7, lr}
 683              		.cfi_def_cfa_offset 12
 684              		.cfi_offset 4, -12
 685              		.cfi_offset 7, -8
 686              		.cfi_offset 14, -4
 687 0002 85B0     		sub	sp, sp, #20
 688              		.cfi_def_cfa_offset 32
 689 0004 00AF     		add	r7, sp, #0
 690              		.cfi_def_cfa_register 7
 691 0006 0346     		mov	r3, r0
 692 0008 FB80     		strh	r3, [r7, #6]	@ movhi
 185:main.c        ****     float cps = count/57.00;
 693              		.loc 1 185 0
 694 000a FB88     		ldrh	r3, [r7, #6]
 695 000c 1846     		mov	r0, r3
 696 000e FFF7FEFF 		bl	__aeabi_i2d
 697 0012 4FF00002 		mov	r2, #0
 698 0016 114B     		ldr	r3, .L32
 699 0018 FFF7FEFF 		bl	__aeabi_ddiv
 700 001c 0346     		mov	r3, r0
 701 001e 0C46     		mov	r4, r1
 702 0020 1846     		mov	r0, r3
 703 0022 2146     		mov	r1, r4
 704 0024 FFF7FEFF 		bl	__aeabi_d2f
 705 0028 0346     		mov	r3, r0
 706 002a FB60     		str	r3, [r7, #12]	@ float
 186:main.c        ****     int16 rpm = (int16)(cps*15); // rpm value
 707              		.loc 1 186 0
 708 002c 0C49     		ldr	r1, .L32+4
 709 002e F868     		ldr	r0, [r7, #12]	@ float
 710 0030 FFF7FEFF 		bl	__aeabi_fmul
 711 0034 0346     		mov	r3, r0
 712 0036 1846     		mov	r0, r3
 713 0038 FFF7FEFF 		bl	__aeabi_f2iz
 714 003c 0346     		mov	r3, r0
 715 003e 7B81     		strh	r3, [r7, #10]	@ movhi
 187:main.c        ****     sprintf(buffer, "%d", rpm); // store in buffer
 716              		.loc 1 187 0
 717 0040 B7F90A30 		ldrsh	r3, [r7, #10]
ARM GAS  C:\Users\ikui753\AppData\Local\Temp\ccDFj6Ue.s 			page 17


 718 0044 1A46     		mov	r2, r3
 719 0046 0749     		ldr	r1, .L32+8
 720 0048 0748     		ldr	r0, .L32+12
 721 004a FFF7FEFF 		bl	sprintf
 188:main.c        ****     return rpm;
 722              		.loc 1 188 0
 723 004e B7F90A30 		ldrsh	r3, [r7, #10]
 189:main.c        ****     //usbPutString(buffer);
 190:main.c        ****     //usbPutString("rpm ");
 191:main.c        **** }
 724              		.loc 1 191 0
 725 0052 1846     		mov	r0, r3
 726 0054 1437     		adds	r7, r7, #20
 727              		.cfi_def_cfa_offset 12
 728 0056 BD46     		mov	sp, r7
 729              		.cfi_def_cfa_register 13
 730              		@ sp needed
 731 0058 90BD     		pop	{r4, r7, pc}
 732              	.L33:
 733 005a 00BF     		.align	2
 734              	.L32:
 735 005c 00804C40 		.word	1078755328
 736 0060 00007041 		.word	1097859072
 737 0064 00000000 		.word	.LC0
 738 0068 00000000 		.word	buffer
 739              		.cfi_endproc
 740              	.LFE73:
 741              		.size	quadCountToRPM, .-quadCountToRPM
 742              		.section	.text.ResetSensorFlags,"ax",%progbits
 743              		.align	2
 744              		.global	ResetSensorFlags
 745              		.thumb
 746              		.thumb_func
 747              		.type	ResetSensorFlags, %function
 748              	ResetSensorFlags:
 749              	.LFB74:
 192:main.c        **** 
 193:main.c        **** // Resets all sensor flags to 0 - i.e. currently out of map
 194:main.c        **** void ResetSensorFlags() {
 750              		.loc 1 194 0
 751              		.cfi_startproc
 752              		@ args = 0, pretend = 0, frame = 0
 753              		@ frame_needed = 1, uses_anonymous_args = 0
 754              		@ link register save eliminated.
 755 0000 80B4     		push	{r7}
 756              		.cfi_def_cfa_offset 4
 757              		.cfi_offset 7, -4
 758 0002 00AF     		add	r7, sp, #0
 759              		.cfi_def_cfa_register 7
 195:main.c        ****     s1 = 0;
 760              		.loc 1 195 0
 761 0004 0A4B     		ldr	r3, .L35
 762 0006 0022     		movs	r2, #0
 763 0008 1A70     		strb	r2, [r3]
 196:main.c        ****     s2 = 0;
 764              		.loc 1 196 0
 765 000a 0A4B     		ldr	r3, .L35+4
ARM GAS  C:\Users\ikui753\AppData\Local\Temp\ccDFj6Ue.s 			page 18


 766 000c 0022     		movs	r2, #0
 767 000e 1A70     		strb	r2, [r3]
 197:main.c        ****     s3 = 0;
 768              		.loc 1 197 0
 769 0010 094B     		ldr	r3, .L35+8
 770 0012 0022     		movs	r2, #0
 771 0014 1A70     		strb	r2, [r3]
 198:main.c        ****     s4 = 0;
 772              		.loc 1 198 0
 773 0016 094B     		ldr	r3, .L35+12
 774 0018 0022     		movs	r2, #0
 775 001a 1A70     		strb	r2, [r3]
 199:main.c        ****     s5 = 0;
 776              		.loc 1 199 0
 777 001c 084B     		ldr	r3, .L35+16
 778 001e 0022     		movs	r2, #0
 779 0020 1A70     		strb	r2, [r3]
 200:main.c        ****     s6 = 0;
 780              		.loc 1 200 0
 781 0022 084B     		ldr	r3, .L35+20
 782 0024 0022     		movs	r2, #0
 783 0026 1A70     		strb	r2, [r3]
 201:main.c        **** }
 784              		.loc 1 201 0
 785 0028 00BF     		nop
 786 002a BD46     		mov	sp, r7
 787              		.cfi_def_cfa_register 13
 788              		@ sp needed
 789 002c 80BC     		pop	{r7}
 790              		.cfi_restore 7
 791              		.cfi_def_cfa_offset 0
 792 002e 7047     		bx	lr
 793              	.L36:
 794              		.align	2
 795              	.L35:
 796 0030 00000000 		.word	s1
 797 0034 00000000 		.word	s2
 798 0038 00000000 		.word	s3
 799 003c 00000000 		.word	s4
 800 0040 00000000 		.word	s5
 801 0044 00000000 		.word	s6
 802              		.cfi_endproc
 803              	.LFE74:
 804              		.size	ResetSensorFlags, .-ResetSensorFlags
 805              		.section	.text.CheckSensorDirection,"ax",%progbits
 806              		.align	2
 807              		.global	CheckSensorDirection
 808              		.thumb
 809              		.thumb_func
 810              		.type	CheckSensorDirection, %function
 811              	CheckSensorDirection:
 812              	.LFB75:
 202:main.c        **** 
 203:main.c        **** // This function checks the sensor flags s1-s6 through a boolean truth table and
 204:main.c        **** // returns a enum direction state depending on the flag configuration
 205:main.c        **** // if no conditons are met, it returns Unknown -- need to fix this edge case
 206:main.c        **** // s1 = 0 -- Black
ARM GAS  C:\Users\ikui753\AppData\Local\Temp\ccDFj6Ue.s 			page 19


 207:main.c        **** // s1 = 1 -- White
 208:main.c        **** enum DirectionState CheckSensorDirection() {
 813              		.loc 1 208 0
 814              		.cfi_startproc
 815              		@ args = 0, pretend = 0, frame = 8
 816              		@ frame_needed = 1, uses_anonymous_args = 0
 817 0000 80B5     		push	{r7, lr}
 818              		.cfi_def_cfa_offset 8
 819              		.cfi_offset 7, -8
 820              		.cfi_offset 14, -4
 821 0002 82B0     		sub	sp, sp, #8
 822              		.cfi_def_cfa_offset 16
 823 0004 00AF     		add	r7, sp, #0
 824              		.cfi_def_cfa_register 7
 209:main.c        ****     enum DirectionState directionState = Stop;
 825              		.loc 1 209 0
 826 0006 0523     		movs	r3, #5
 827 0008 7B60     		str	r3, [r7, #4]
 210:main.c        ****     previousDirection = currentDirection;
 828              		.loc 1 210 0
 829 000a 694B     		ldr	r3, .L53
 830 000c 1B68     		ldr	r3, [r3]
 831 000e 694A     		ldr	r2, .L53+4
 832 0010 1360     		str	r3, [r2]
 211:main.c        ****     
 212:main.c        ****     // if previous directions were turning directions
 213:main.c        ****     // we move forward instead
 214:main.c        ****     /*if (previousDirection == TurnLeft || previousDirection == TurnRight) {
 215:main.c        ****         directionState = Forward;
 216:main.c        ****         return directionState;
 217:main.c        ****     }*/
 218:main.c        ****     if(s1 && s2 && s3 && s4 && s5) {
 833              		.loc 1 218 0
 834 0012 694B     		ldr	r3, .L53+8
 835 0014 1B78     		ldrb	r3, [r3]	@ zero_extendqisi2
 836 0016 002B     		cmp	r3, #0
 837 0018 11D0     		beq	.L38
 838              		.loc 1 218 0 is_stmt 0 discriminator 1
 839 001a 684B     		ldr	r3, .L53+12
 840 001c 1B78     		ldrb	r3, [r3]	@ zero_extendqisi2
 841 001e 002B     		cmp	r3, #0
 842 0020 0DD0     		beq	.L38
 843              		.loc 1 218 0 discriminator 2
 844 0022 674B     		ldr	r3, .L53+16
 845 0024 1B78     		ldrb	r3, [r3]	@ zero_extendqisi2
 846 0026 002B     		cmp	r3, #0
 847 0028 09D0     		beq	.L38
 848              		.loc 1 218 0 discriminator 3
 849 002a 664B     		ldr	r3, .L53+20
 850 002c 1B78     		ldrb	r3, [r3]	@ zero_extendqisi2
 851 002e 002B     		cmp	r3, #0
 852 0030 05D0     		beq	.L38
 853              		.loc 1 218 0 discriminator 4
 854 0032 654B     		ldr	r3, .L53+24
 855 0034 1B78     		ldrb	r3, [r3]	@ zero_extendqisi2
 856 0036 002B     		cmp	r3, #0
 857 0038 01D0     		beq	.L38
ARM GAS  C:\Users\ikui753\AppData\Local\Temp\ccDFj6Ue.s 			page 20


 219:main.c        ****         stopMoving();
 858              		.loc 1 219 0 is_stmt 1
 859 003a FFF7FEFF 		bl	stopMoving
 860              	.L38:
 220:main.c        ****     }
 221:main.c        **** 
 222:main.c        ****     if (!(s1 && s2 && s3 && s4 && s5)) {
 861              		.loc 1 222 0
 862 003e 5E4B     		ldr	r3, .L53+8
 863 0040 1B78     		ldrb	r3, [r3]	@ zero_extendqisi2
 864 0042 002B     		cmp	r3, #0
 865 0044 0FD0     		beq	.L39
 866              		.loc 1 222 0 is_stmt 0 discriminator 1
 867 0046 5D4B     		ldr	r3, .L53+12
 868 0048 1B78     		ldrb	r3, [r3]	@ zero_extendqisi2
 869 004a 002B     		cmp	r3, #0
 870 004c 0BD0     		beq	.L39
 871              		.loc 1 222 0 discriminator 2
 872 004e 5C4B     		ldr	r3, .L53+16
 873 0050 1B78     		ldrb	r3, [r3]	@ zero_extendqisi2
 874 0052 002B     		cmp	r3, #0
 875 0054 07D0     		beq	.L39
 876              		.loc 1 222 0 discriminator 3
 877 0056 5B4B     		ldr	r3, .L53+20
 878 0058 1B78     		ldrb	r3, [r3]	@ zero_extendqisi2
 879 005a 002B     		cmp	r3, #0
 880 005c 03D0     		beq	.L39
 881              		.loc 1 222 0 discriminator 4
 882 005e 5A4B     		ldr	r3, .L53+24
 883 0060 1B78     		ldrb	r3, [r3]	@ zero_extendqisi2
 884 0062 002B     		cmp	r3, #0
 885 0064 01D1     		bne	.L40
 886              	.L39:
 223:main.c        ****         stopMoving();
 887              		.loc 1 223 0 is_stmt 1
 888 0066 FFF7FEFF 		bl	stopMoving
 889              	.L40:
 224:main.c        ****     }
 225:main.c        ****     
 226:main.c        ****     //forward if 111100
 227:main.c        ****     if (s1 && s2 && s3 && s4 && !s5 && !s6) {
 890              		.loc 1 227 0
 891 006a 534B     		ldr	r3, .L53+8
 892 006c 1B78     		ldrb	r3, [r3]	@ zero_extendqisi2
 893 006e 002B     		cmp	r3, #0
 894 0070 17D0     		beq	.L41
 895              		.loc 1 227 0 is_stmt 0 discriminator 1
 896 0072 524B     		ldr	r3, .L53+12
 897 0074 1B78     		ldrb	r3, [r3]	@ zero_extendqisi2
 898 0076 002B     		cmp	r3, #0
 899 0078 13D0     		beq	.L41
 900              		.loc 1 227 0 discriminator 2
 901 007a 514B     		ldr	r3, .L53+16
 902 007c 1B78     		ldrb	r3, [r3]	@ zero_extendqisi2
 903 007e 002B     		cmp	r3, #0
 904 0080 0FD0     		beq	.L41
 905              		.loc 1 227 0 discriminator 3
ARM GAS  C:\Users\ikui753\AppData\Local\Temp\ccDFj6Ue.s 			page 21


 906 0082 504B     		ldr	r3, .L53+20
 907 0084 1B78     		ldrb	r3, [r3]	@ zero_extendqisi2
 908 0086 002B     		cmp	r3, #0
 909 0088 0BD0     		beq	.L41
 910              		.loc 1 227 0 discriminator 4
 911 008a 4F4B     		ldr	r3, .L53+24
 912 008c 1B78     		ldrb	r3, [r3]	@ zero_extendqisi2
 913 008e 002B     		cmp	r3, #0
 914 0090 07D1     		bne	.L41
 915              		.loc 1 227 0 discriminator 5
 916 0092 4E4B     		ldr	r3, .L53+28
 917 0094 1B78     		ldrb	r3, [r3]	@ zero_extendqisi2
 918 0096 002B     		cmp	r3, #0
 919 0098 03D1     		bne	.L41
 228:main.c        ****         directionState = Forward;
 920              		.loc 1 228 0 is_stmt 1
 921 009a 0023     		movs	r3, #0
 922 009c 7B60     		str	r3, [r7, #4]
 229:main.c        ****         return directionState;   
 923              		.loc 1 229 0
 924 009e 7B68     		ldr	r3, [r7, #4]
 925 00a0 81E0     		b	.L42
 926              	.L41:
 230:main.c        ****     }
 231:main.c        ****     
 232:main.c        ****     /* COURSE CORRECTION COURSE CORRECTION COURSE CORRECTION */
 233:main.c        ****     // Only need to course correct when direction state is forward
 234:main.c        ****     
 235:main.c        ****     if (previousDirection == Forward || previousDirection == AdjustToTheLeft || previousDirection =
 927              		.loc 1 235 0
 928 00a2 444B     		ldr	r3, .L53+4
 929 00a4 1B68     		ldr	r3, [r3]
 930 00a6 002B     		cmp	r3, #0
 931 00a8 07D0     		beq	.L43
 932              		.loc 1 235 0 is_stmt 0 discriminator 1
 933 00aa 424B     		ldr	r3, .L53+4
 934 00ac 1B68     		ldr	r3, [r3]
 935 00ae 032B     		cmp	r3, #3
 936 00b0 03D0     		beq	.L43
 937              		.loc 1 235 0 discriminator 2
 938 00b2 404B     		ldr	r3, .L53+4
 939 00b4 1B68     		ldr	r3, [r3]
 940 00b6 042B     		cmp	r3, #4
 941 00b8 17D1     		bne	.L44
 942              	.L43:
 236:main.c        ****         // If robot is deviating to the left where top left or bottom right is on white
 237:main.c        ****         if (s5 || !s1) {
 943              		.loc 1 237 0 is_stmt 1
 944 00ba 434B     		ldr	r3, .L53+24
 945 00bc 1B78     		ldrb	r3, [r3]	@ zero_extendqisi2
 946 00be 002B     		cmp	r3, #0
 947 00c0 03D1     		bne	.L45
 948              		.loc 1 237 0 is_stmt 0 discriminator 1
 949 00c2 3D4B     		ldr	r3, .L53+8
 950 00c4 1B78     		ldrb	r3, [r3]	@ zero_extendqisi2
 951 00c6 002B     		cmp	r3, #0
 952 00c8 03D1     		bne	.L46
ARM GAS  C:\Users\ikui753\AppData\Local\Temp\ccDFj6Ue.s 			page 22


 953              	.L45:
 238:main.c        ****             directionState = AdjustToTheRight;
 954              		.loc 1 238 0 is_stmt 1
 955 00ca 0423     		movs	r3, #4
 956 00cc 7B60     		str	r3, [r7, #4]
 239:main.c        ****             return directionState;
 957              		.loc 1 239 0
 958 00ce 7B68     		ldr	r3, [r7, #4]
 959 00d0 69E0     		b	.L42
 960              	.L46:
 240:main.c        ****         }
 241:main.c        ****         
 242:main.c        ****         // If robot is deviating to the right where top right sensor or bottom left on white
 243:main.c        ****         if (s6 || !s2) {
 961              		.loc 1 243 0
 962 00d2 3E4B     		ldr	r3, .L53+28
 963 00d4 1B78     		ldrb	r3, [r3]	@ zero_extendqisi2
 964 00d6 002B     		cmp	r3, #0
 965 00d8 03D1     		bne	.L47
 966              		.loc 1 243 0 is_stmt 0 discriminator 1
 967 00da 384B     		ldr	r3, .L53+12
 968 00dc 1B78     		ldrb	r3, [r3]	@ zero_extendqisi2
 969 00de 002B     		cmp	r3, #0
 970 00e0 03D1     		bne	.L44
 971              	.L47:
 244:main.c        ****             directionState = AdjustToTheLeft;
 972              		.loc 1 244 0 is_stmt 1
 973 00e2 0323     		movs	r3, #3
 974 00e4 7B60     		str	r3, [r7, #4]
 245:main.c        ****             return directionState;
 975              		.loc 1 245 0
 976 00e6 7B68     		ldr	r3, [r7, #4]
 977 00e8 5DE0     		b	.L42
 978              	.L44:
 246:main.c        ****         }
 247:main.c        ****     }
 248:main.c        ****     /* COURSE CORRECTION COURSE CORRECTION COURSE CORRECTION */
 249:main.c        ****     
 250:main.c        ****     // Left sensor is on black and right sensor is on white
 251:main.c        ****     
 252:main.c        ****     //turn left if 110100
 253:main.c        ****     if (s1 && s2 && !s3 && s4 && !s5 && !s6) {
 979              		.loc 1 253 0
 980 00ea 334B     		ldr	r3, .L53+8
 981 00ec 1B78     		ldrb	r3, [r3]	@ zero_extendqisi2
 982 00ee 002B     		cmp	r3, #0
 983 00f0 17D0     		beq	.L48
 984              		.loc 1 253 0 is_stmt 0 discriminator 1
 985 00f2 324B     		ldr	r3, .L53+12
 986 00f4 1B78     		ldrb	r3, [r3]	@ zero_extendqisi2
 987 00f6 002B     		cmp	r3, #0
 988 00f8 13D0     		beq	.L48
 989              		.loc 1 253 0 discriminator 2
 990 00fa 314B     		ldr	r3, .L53+16
 991 00fc 1B78     		ldrb	r3, [r3]	@ zero_extendqisi2
 992 00fe 002B     		cmp	r3, #0
 993 0100 0FD1     		bne	.L48
ARM GAS  C:\Users\ikui753\AppData\Local\Temp\ccDFj6Ue.s 			page 23


 994              		.loc 1 253 0 discriminator 3
 995 0102 304B     		ldr	r3, .L53+20
 996 0104 1B78     		ldrb	r3, [r3]	@ zero_extendqisi2
 997 0106 002B     		cmp	r3, #0
 998 0108 0BD0     		beq	.L48
 999              		.loc 1 253 0 discriminator 4
 1000 010a 2F4B     		ldr	r3, .L53+24
 1001 010c 1B78     		ldrb	r3, [r3]	@ zero_extendqisi2
 1002 010e 002B     		cmp	r3, #0
 1003 0110 07D1     		bne	.L48
 1004              		.loc 1 253 0 discriminator 5
 1005 0112 2E4B     		ldr	r3, .L53+28
 1006 0114 1B78     		ldrb	r3, [r3]	@ zero_extendqisi2
 1007 0116 002B     		cmp	r3, #0
 1008 0118 03D1     		bne	.L48
 254:main.c        ****         directionState = TurnLeft;
 1009              		.loc 1 254 0 is_stmt 1
 1010 011a 0223     		movs	r3, #2
 1011 011c 7B60     		str	r3, [r7, #4]
 255:main.c        ****         return directionState;
 1012              		.loc 1 255 0
 1013 011e 7B68     		ldr	r3, [r7, #4]
 1014 0120 41E0     		b	.L42
 1015              	.L48:
 256:main.c        ****     }
 257:main.c        ****     
 258:main.c        ****     // Right sensor is on white and right sensor is on black
 259:main.c        ****     // everything else is on white
 260:main.c        ****     //turn right if 110100
 261:main.c        ****     if (s1 && s2 && !s3 && s4 && !s5 && !s6) {
 1016              		.loc 1 261 0
 1017 0122 254B     		ldr	r3, .L53+8
 1018 0124 1B78     		ldrb	r3, [r3]	@ zero_extendqisi2
 1019 0126 002B     		cmp	r3, #0
 1020 0128 17D0     		beq	.L49
 1021              		.loc 1 261 0 is_stmt 0 discriminator 1
 1022 012a 244B     		ldr	r3, .L53+12
 1023 012c 1B78     		ldrb	r3, [r3]	@ zero_extendqisi2
 1024 012e 002B     		cmp	r3, #0
 1025 0130 13D0     		beq	.L49
 1026              		.loc 1 261 0 discriminator 2
 1027 0132 234B     		ldr	r3, .L53+16
 1028 0134 1B78     		ldrb	r3, [r3]	@ zero_extendqisi2
 1029 0136 002B     		cmp	r3, #0
 1030 0138 0FD1     		bne	.L49
 1031              		.loc 1 261 0 discriminator 3
 1032 013a 224B     		ldr	r3, .L53+20
 1033 013c 1B78     		ldrb	r3, [r3]	@ zero_extendqisi2
 1034 013e 002B     		cmp	r3, #0
 1035 0140 0BD0     		beq	.L49
 1036              		.loc 1 261 0 discriminator 4
 1037 0142 214B     		ldr	r3, .L53+24
 1038 0144 1B78     		ldrb	r3, [r3]	@ zero_extendqisi2
 1039 0146 002B     		cmp	r3, #0
 1040 0148 07D1     		bne	.L49
 1041              		.loc 1 261 0 discriminator 5
 1042 014a 204B     		ldr	r3, .L53+28
ARM GAS  C:\Users\ikui753\AppData\Local\Temp\ccDFj6Ue.s 			page 24


 1043 014c 1B78     		ldrb	r3, [r3]	@ zero_extendqisi2
 1044 014e 002B     		cmp	r3, #0
 1045 0150 03D1     		bne	.L49
 262:main.c        ****         directionState = TurnRight;
 1046              		.loc 1 262 0 is_stmt 1
 1047 0152 0123     		movs	r3, #1
 1048 0154 7B60     		str	r3, [r7, #4]
 263:main.c        ****         return directionState;
 1049              		.loc 1 263 0
 1050 0156 7B68     		ldr	r3, [r7, #4]
 1051 0158 25E0     		b	.L42
 1052              	.L49:
 264:main.c        ****     }
 265:main.c        ****     
 266:main.c        ****     // if all sensors are on black -- we are currently in darkness so don't move
 267:main.c        ****     // stop 000000
 268:main.c        ****     if (!(s1 && s2 && s3 && s4&& s5 && s6)) {
 1053              		.loc 1 268 0
 1054 015a 174B     		ldr	r3, .L53+8
 1055 015c 1B78     		ldrb	r3, [r3]	@ zero_extendqisi2
 1056 015e 002B     		cmp	r3, #0
 1057 0160 13D0     		beq	.L50
 1058              		.loc 1 268 0 is_stmt 0 discriminator 1
 1059 0162 164B     		ldr	r3, .L53+12
 1060 0164 1B78     		ldrb	r3, [r3]	@ zero_extendqisi2
 1061 0166 002B     		cmp	r3, #0
 1062 0168 0FD0     		beq	.L50
 1063              		.loc 1 268 0 discriminator 2
 1064 016a 154B     		ldr	r3, .L53+16
 1065 016c 1B78     		ldrb	r3, [r3]	@ zero_extendqisi2
 1066 016e 002B     		cmp	r3, #0
 1067 0170 0BD0     		beq	.L50
 1068              		.loc 1 268 0 discriminator 3
 1069 0172 144B     		ldr	r3, .L53+20
 1070 0174 1B78     		ldrb	r3, [r3]	@ zero_extendqisi2
 1071 0176 002B     		cmp	r3, #0
 1072 0178 07D0     		beq	.L50
 1073              		.loc 1 268 0 discriminator 4
 1074 017a 134B     		ldr	r3, .L53+24
 1075 017c 1B78     		ldrb	r3, [r3]	@ zero_extendqisi2
 1076 017e 002B     		cmp	r3, #0
 1077 0180 03D0     		beq	.L50
 1078              		.loc 1 268 0 discriminator 5
 1079 0182 124B     		ldr	r3, .L53+28
 1080 0184 1B78     		ldrb	r3, [r3]	@ zero_extendqisi2
 1081 0186 002B     		cmp	r3, #0
 1082 0188 03D1     		bne	.L51
 1083              	.L50:
 269:main.c        ****         directionState = Stop;
 1084              		.loc 1 269 0 is_stmt 1
 1085 018a 0523     		movs	r3, #5
 1086 018c 7B60     		str	r3, [r7, #4]
 270:main.c        ****         return directionState;
 1087              		.loc 1 270 0
 1088 018e 7B68     		ldr	r3, [r7, #4]
 1089 0190 09E0     		b	.L42
 1090              	.L51:
ARM GAS  C:\Users\ikui753\AppData\Local\Temp\ccDFj6Ue.s 			page 25


 271:main.c        ****     }
 272:main.c        ****     
 273:main.c        ****     // If the code gets up to this point then no conditions have been met
 274:main.c        ****     // The sensors are in a configuration that has not been covered
 275:main.c        ****     // The currentDirection to turn into is unknown.
 276:main.c        ****     
 277:main.c        ****     // if currentDirection is Unknown, we continue with the previous direction
 278:main.c        ****     // However, if the previous direction is also Unknown, we will just move forward.
 279:main.c        ****     if (previousDirection == Unknown) {
 1091              		.loc 1 279 0
 1092 0192 084B     		ldr	r3, .L53+4
 1093 0194 1B68     		ldr	r3, [r3]
 1094 0196 062B     		cmp	r3, #6
 1095 0198 03D1     		bne	.L52
 280:main.c        ****         directionState = Forward;
 1096              		.loc 1 280 0
 1097 019a 0023     		movs	r3, #0
 1098 019c 7B60     		str	r3, [r7, #4]
 281:main.c        ****         return directionState;
 1099              		.loc 1 281 0
 1100 019e 7B68     		ldr	r3, [r7, #4]
 1101 01a0 01E0     		b	.L42
 1102              	.L52:
 282:main.c        ****     }
 283:main.c        ****             
 284:main.c        ****     return previousDirection;
 1103              		.loc 1 284 0
 1104 01a2 044B     		ldr	r3, .L53+4
 1105 01a4 1B68     		ldr	r3, [r3]
 1106              	.L42:
 285:main.c        **** }
 1107              		.loc 1 285 0
 1108 01a6 1846     		mov	r0, r3
 1109 01a8 0837     		adds	r7, r7, #8
 1110              		.cfi_def_cfa_offset 8
 1111 01aa BD46     		mov	sp, r7
 1112              		.cfi_def_cfa_register 13
 1113              		@ sp needed
 1114 01ac 80BD     		pop	{r7, pc}
 1115              	.L54:
 1116 01ae 00BF     		.align	2
 1117              	.L53:
 1118 01b0 00000000 		.word	currentDirection
 1119 01b4 00000000 		.word	previousDirection
 1120 01b8 00000000 		.word	s1
 1121 01bc 00000000 		.word	s2
 1122 01c0 00000000 		.word	s3
 1123 01c4 00000000 		.word	s4
 1124 01c8 00000000 		.word	s5
 1125 01cc 00000000 		.word	s6
 1126              		.cfi_endproc
 1127              	.LFE75:
 1128              		.size	CheckSensorDirection, .-CheckSensorDirection
 1129              		.section	.text.SetRobotMovement,"ax",%progbits
 1130              		.align	2
 1131              		.global	SetRobotMovement
 1132              		.thumb
ARM GAS  C:\Users\ikui753\AppData\Local\Temp\ccDFj6Ue.s 			page 26


 1133              		.thumb_func
 1134              		.type	SetRobotMovement, %function
 1135              	SetRobotMovement:
 1136              	.LFB76:
 286:main.c        **** 
 287:main.c        **** // Sets robot movement direction state according to currentDirection which is set by Check
 288:main.c        **** void SetRobotMovement() {
 1137              		.loc 1 288 0
 1138              		.cfi_startproc
 1139              		@ args = 0, pretend = 0, frame = 0
 1140              		@ frame_needed = 1, uses_anonymous_args = 0
 1141 0000 80B5     		push	{r7, lr}
 1142              		.cfi_def_cfa_offset 8
 1143              		.cfi_offset 7, -8
 1144              		.cfi_offset 14, -4
 1145 0002 00AF     		add	r7, sp, #0
 1146              		.cfi_def_cfa_register 7
 289:main.c        ****     currentDirection = CheckSensorDirection();   
 1147              		.loc 1 289 0
 1148 0004 FFF7FEFF 		bl	CheckSensorDirection
 1149 0008 0246     		mov	r2, r0
 1150 000a 444B     		ldr	r3, .L75
 1151 000c 1A60     		str	r2, [r3]
 290:main.c        ****     
 291:main.c        ****     switch (currentDirection) {
 1152              		.loc 1 291 0
 1153 000e 434B     		ldr	r3, .L75
 1154 0010 1B68     		ldr	r3, [r3]
 1155 0012 062B     		cmp	r3, #6
 1156 0014 7FD8     		bhi	.L73
 1157 0016 01A2     		adr	r2, .L58
 1158 0018 52F823F0 		ldr	pc, [r2, r3, lsl #2]
 1159              		.p2align 2
 1160              	.L58:
 1161 001c 39000000 		.word	.L57+1
 1162 0020 43000000 		.word	.L65+1
 1163 0024 79000000 		.word	.L67+1
 1164 0028 DD000000 		.word	.L71+1
 1165 002c A7000000 		.word	.L69+1
 1166 0030 0F010000 		.word	.L63+1
 1167 0034 15010000 		.word	.L74+1
 1168              		.p2align 1
 1169              	.L57:
 292:main.c        ****         //Forward, TurnRight, TurnLeft, AdjustToTheRight, AdjustToTheLeft, Stop, Unknown
 293:main.c        ****         case Forward:
 294:main.c        ****             moveForward();
 1170              		.loc 1 294 0
 1171 0038 FFF7FEFF 		bl	moveForward
 295:main.c        ****             break;
 1172              		.loc 1 295 0
 1173 003c 6BE0     		b	.L56
 1174              	.L66:
 296:main.c        ****         case TurnRight:
 297:main.c        ****             // turn until 11000
 298:main.c        ****             while(!(s1 && s2 && !s3 && s4 && !s5 && !s6)) {
 299:main.c        ****                 rotationAntiClockwise();
 1175              		.loc 1 299 0
ARM GAS  C:\Users\ikui753\AppData\Local\Temp\ccDFj6Ue.s 			page 27


 1176 003e FFF7FEFF 		bl	rotationAntiClockwise
 1177              	.L65:
 298:main.c        ****                 rotationAntiClockwise();
 1178              		.loc 1 298 0
 1179 0042 374B     		ldr	r3, .L75+4
 1180 0044 1B78     		ldrb	r3, [r3]	@ zero_extendqisi2
 1181 0046 002B     		cmp	r3, #0
 1182 0048 F9D0     		beq	.L66
 298:main.c        ****                 rotationAntiClockwise();
 1183              		.loc 1 298 0 is_stmt 0 discriminator 1
 1184 004a 364B     		ldr	r3, .L75+8
 1185 004c 1B78     		ldrb	r3, [r3]	@ zero_extendqisi2
 1186 004e 002B     		cmp	r3, #0
 1187 0050 F5D0     		beq	.L66
 298:main.c        ****                 rotationAntiClockwise();
 1188              		.loc 1 298 0 discriminator 2
 1189 0052 354B     		ldr	r3, .L75+12
 1190 0054 1B78     		ldrb	r3, [r3]	@ zero_extendqisi2
 1191 0056 002B     		cmp	r3, #0
 1192 0058 F1D1     		bne	.L66
 298:main.c        ****                 rotationAntiClockwise();
 1193              		.loc 1 298 0 discriminator 3
 1194 005a 344B     		ldr	r3, .L75+16
 1195 005c 1B78     		ldrb	r3, [r3]	@ zero_extendqisi2
 1196 005e 002B     		cmp	r3, #0
 1197 0060 EDD0     		beq	.L66
 298:main.c        ****                 rotationAntiClockwise();
 1198              		.loc 1 298 0 discriminator 4
 1199 0062 334B     		ldr	r3, .L75+20
 1200 0064 1B78     		ldrb	r3, [r3]	@ zero_extendqisi2
 1201 0066 002B     		cmp	r3, #0
 1202 0068 E9D1     		bne	.L66
 298:main.c        ****                 rotationAntiClockwise();
 1203              		.loc 1 298 0 discriminator 5
 1204 006a 324B     		ldr	r3, .L75+24
 1205 006c 1B78     		ldrb	r3, [r3]	@ zero_extendqisi2
 1206 006e 002B     		cmp	r3, #0
 1207 0070 E5D1     		bne	.L66
 300:main.c        ****             }
 301:main.c        ****             break;
 1208              		.loc 1 301 0 is_stmt 1
 1209 0072 50E0     		b	.L56
 1210              	.L68:
 302:main.c        ****         case TurnLeft:
 303:main.c        ****             // turn until XX0X00
 304:main.c        ****             while(!(s1 && s2 && !s3 && !s5 && !s6)) {
 305:main.c        ****                 rotationAntiClockwise();
 1211              		.loc 1 305 0
 1212 0074 FFF7FEFF 		bl	rotationAntiClockwise
 1213              	.L67:
 304:main.c        ****                 rotationAntiClockwise();
 1214              		.loc 1 304 0
 1215 0078 294B     		ldr	r3, .L75+4
 1216 007a 1B78     		ldrb	r3, [r3]	@ zero_extendqisi2
 1217 007c 002B     		cmp	r3, #0
 1218 007e F9D0     		beq	.L68
 304:main.c        ****                 rotationAntiClockwise();
ARM GAS  C:\Users\ikui753\AppData\Local\Temp\ccDFj6Ue.s 			page 28


 1219              		.loc 1 304 0 is_stmt 0 discriminator 1
 1220 0080 284B     		ldr	r3, .L75+8
 1221 0082 1B78     		ldrb	r3, [r3]	@ zero_extendqisi2
 1222 0084 002B     		cmp	r3, #0
 1223 0086 F5D0     		beq	.L68
 304:main.c        ****                 rotationAntiClockwise();
 1224              		.loc 1 304 0 discriminator 2
 1225 0088 274B     		ldr	r3, .L75+12
 1226 008a 1B78     		ldrb	r3, [r3]	@ zero_extendqisi2
 1227 008c 002B     		cmp	r3, #0
 1228 008e F1D1     		bne	.L68
 304:main.c        ****                 rotationAntiClockwise();
 1229              		.loc 1 304 0 discriminator 3
 1230 0090 274B     		ldr	r3, .L75+20
 1231 0092 1B78     		ldrb	r3, [r3]	@ zero_extendqisi2
 1232 0094 002B     		cmp	r3, #0
 1233 0096 EDD1     		bne	.L68
 304:main.c        ****                 rotationAntiClockwise();
 1234              		.loc 1 304 0 discriminator 4
 1235 0098 264B     		ldr	r3, .L75+24
 1236 009a 1B78     		ldrb	r3, [r3]	@ zero_extendqisi2
 1237 009c 002B     		cmp	r3, #0
 1238 009e E9D1     		bne	.L68
 306:main.c        ****             }
 307:main.c        ****             break;
 1239              		.loc 1 307 0 is_stmt 1
 1240 00a0 39E0     		b	.L56
 1241              	.L70:
 308:main.c        ****         case AdjustToTheRight: // rotate clockwise until s5 is on black and forward configuration
 309:main.c        ****             // rotate until 111100
 310:main.c        ****             while(!(s1 && s2 && s3 && s4 && !s5 && !s6)) {
 311:main.c        ****                 rotationClockwise();
 1242              		.loc 1 311 0
 1243 00a2 FFF7FEFF 		bl	rotationClockwise
 1244              	.L69:
 310:main.c        ****                 rotationClockwise();
 1245              		.loc 1 310 0
 1246 00a6 1E4B     		ldr	r3, .L75+4
 1247 00a8 1B78     		ldrb	r3, [r3]	@ zero_extendqisi2
 1248 00aa 002B     		cmp	r3, #0
 1249 00ac F9D0     		beq	.L70
 310:main.c        ****                 rotationClockwise();
 1250              		.loc 1 310 0 is_stmt 0 discriminator 1
 1251 00ae 1D4B     		ldr	r3, .L75+8
 1252 00b0 1B78     		ldrb	r3, [r3]	@ zero_extendqisi2
 1253 00b2 002B     		cmp	r3, #0
 1254 00b4 F5D0     		beq	.L70
 310:main.c        ****                 rotationClockwise();
 1255              		.loc 1 310 0 discriminator 2
 1256 00b6 1C4B     		ldr	r3, .L75+12
 1257 00b8 1B78     		ldrb	r3, [r3]	@ zero_extendqisi2
 1258 00ba 002B     		cmp	r3, #0
 1259 00bc F1D0     		beq	.L70
 310:main.c        ****                 rotationClockwise();
 1260              		.loc 1 310 0 discriminator 3
 1261 00be 1B4B     		ldr	r3, .L75+16
 1262 00c0 1B78     		ldrb	r3, [r3]	@ zero_extendqisi2
ARM GAS  C:\Users\ikui753\AppData\Local\Temp\ccDFj6Ue.s 			page 29


 1263 00c2 002B     		cmp	r3, #0
 1264 00c4 EDD0     		beq	.L70
 310:main.c        ****                 rotationClockwise();
 1265              		.loc 1 310 0 discriminator 4
 1266 00c6 1A4B     		ldr	r3, .L75+20
 1267 00c8 1B78     		ldrb	r3, [r3]	@ zero_extendqisi2
 1268 00ca 002B     		cmp	r3, #0
 1269 00cc E9D1     		bne	.L70
 310:main.c        ****                 rotationClockwise();
 1270              		.loc 1 310 0 discriminator 5
 1271 00ce 194B     		ldr	r3, .L75+24
 1272 00d0 1B78     		ldrb	r3, [r3]	@ zero_extendqisi2
 1273 00d2 002B     		cmp	r3, #0
 1274 00d4 E5D1     		bne	.L70
 312:main.c        ****             }
 313:main.c        ****             break;
 1275              		.loc 1 313 0 is_stmt 1
 1276 00d6 1EE0     		b	.L56
 1277              	.L72:
 314:main.c        ****         case AdjustToTheLeft: // rotate anticlockwise until s6 is on black
 315:main.c        ****             // rotate until 111100
 316:main.c        ****             while(!(s1 && s2 && s3 && s4 && !s6 && !s5)) {
 317:main.c        ****                 rotationAntiClockwise();
 1278              		.loc 1 317 0
 1279 00d8 FFF7FEFF 		bl	rotationAntiClockwise
 1280              	.L71:
 316:main.c        ****                 rotationAntiClockwise();
 1281              		.loc 1 316 0
 1282 00dc 104B     		ldr	r3, .L75+4
 1283 00de 1B78     		ldrb	r3, [r3]	@ zero_extendqisi2
 1284 00e0 002B     		cmp	r3, #0
 1285 00e2 F9D0     		beq	.L72
 316:main.c        ****                 rotationAntiClockwise();
 1286              		.loc 1 316 0 is_stmt 0 discriminator 1
 1287 00e4 0F4B     		ldr	r3, .L75+8
 1288 00e6 1B78     		ldrb	r3, [r3]	@ zero_extendqisi2
 1289 00e8 002B     		cmp	r3, #0
 1290 00ea F5D0     		beq	.L72
 316:main.c        ****                 rotationAntiClockwise();
 1291              		.loc 1 316 0 discriminator 2
 1292 00ec 0E4B     		ldr	r3, .L75+12
 1293 00ee 1B78     		ldrb	r3, [r3]	@ zero_extendqisi2
 1294 00f0 002B     		cmp	r3, #0
 1295 00f2 F1D0     		beq	.L72
 316:main.c        ****                 rotationAntiClockwise();
 1296              		.loc 1 316 0 discriminator 3
 1297 00f4 0D4B     		ldr	r3, .L75+16
 1298 00f6 1B78     		ldrb	r3, [r3]	@ zero_extendqisi2
 1299 00f8 002B     		cmp	r3, #0
 1300 00fa EDD0     		beq	.L72
 316:main.c        ****                 rotationAntiClockwise();
 1301              		.loc 1 316 0 discriminator 4
 1302 00fc 0D4B     		ldr	r3, .L75+24
 1303 00fe 1B78     		ldrb	r3, [r3]	@ zero_extendqisi2
 1304 0100 002B     		cmp	r3, #0
 1305 0102 E9D1     		bne	.L72
 316:main.c        ****                 rotationAntiClockwise();
ARM GAS  C:\Users\ikui753\AppData\Local\Temp\ccDFj6Ue.s 			page 30


 1306              		.loc 1 316 0 discriminator 5
 1307 0104 0A4B     		ldr	r3, .L75+20
 1308 0106 1B78     		ldrb	r3, [r3]	@ zero_extendqisi2
 1309 0108 002B     		cmp	r3, #0
 1310 010a E5D1     		bne	.L72
 318:main.c        ****             }
 319:main.c        ****             break;
 1311              		.loc 1 319 0 is_stmt 1
 1312 010c 03E0     		b	.L56
 1313              	.L63:
 320:main.c        ****         case Stop:
 321:main.c        ****             stopMoving();
 1314              		.loc 1 321 0
 1315 010e FFF7FEFF 		bl	stopMoving
 322:main.c        ****             break;
 1316              		.loc 1 322 0
 1317 0112 00E0     		b	.L56
 1318              	.L74:
 323:main.c        ****         case Unknown:
 324:main.c        ****             // UNKNOWN CONFIGURATION
 325:main.c        ****             break;  
 1319              		.loc 1 325 0
 1320 0114 00BF     		nop
 1321              	.L56:
 1322              	.L73:
 326:main.c        ****     }
 327:main.c        **** }
 1323              		.loc 1 327 0
 1324 0116 00BF     		nop
 1325 0118 80BD     		pop	{r7, pc}
 1326              	.L76:
 1327 011a 00BF     		.align	2
 1328              	.L75:
 1329 011c 00000000 		.word	currentDirection
 1330 0120 00000000 		.word	s1
 1331 0124 00000000 		.word	s2
 1332 0128 00000000 		.word	s3
 1333 012c 00000000 		.word	s4
 1334 0130 00000000 		.word	s5
 1335 0134 00000000 		.word	s6
 1336              		.cfi_endproc
 1337              	.LFE76:
 1338              		.size	SetRobotMovement, .-SetRobotMovement
 1339              		.section	.text.usbPutString,"ax",%progbits
 1340              		.align	2
 1341              		.global	usbPutString
 1342              		.thumb
 1343              		.thumb_func
 1344              		.type	usbPutString, %function
 1345              	usbPutString:
 1346              	.LFB77:
 328:main.c        **** 
 329:main.c        **** // ======================================
 330:main.c        **** // USBUART
 331:main.c        **** //* ========================================
 332:main.c        ****     void usbPutString(char *s)
 333:main.c        **** {
ARM GAS  C:\Users\ikui753\AppData\Local\Temp\ccDFj6Ue.s 			page 31


 1347              		.loc 1 333 0
 1348              		.cfi_startproc
 1349              		@ args = 0, pretend = 0, frame = 8
 1350              		@ frame_needed = 1, uses_anonymous_args = 0
 1351 0000 80B5     		push	{r7, lr}
 1352              		.cfi_def_cfa_offset 8
 1353              		.cfi_offset 7, -8
 1354              		.cfi_offset 14, -4
 1355 0002 82B0     		sub	sp, sp, #8
 1356              		.cfi_def_cfa_offset 16
 1357 0004 00AF     		add	r7, sp, #0
 1358              		.cfi_def_cfa_register 7
 1359 0006 7860     		str	r0, [r7, #4]
 334:main.c        **** // !! Assumes that *s is a string with allocated space >=64 chars     
 335:main.c        **** //  Since USB implementation retricts data packets to 64 chars, this function truncates the
 336:main.c        **** //  length to 62 char (63rd char is a '!')
 337:main.c        **** 
 338:main.c        **** #ifdef USE_USB     
 339:main.c        ****     while (USBUART_CDCIsReady() == 0);
 1360              		.loc 1 339 0
 1361 0008 00BF     		nop
 1362              	.L78:
 1363              		.loc 1 339 0 is_stmt 0 discriminator 1
 1364 000a FFF7FEFF 		bl	USBUART_CDCIsReady
 1365 000e 0346     		mov	r3, r0
 1366 0010 002B     		cmp	r3, #0
 1367 0012 FAD0     		beq	.L78
 340:main.c        ****     s[63]='\0';
 1368              		.loc 1 340 0 is_stmt 1
 1369 0014 7B68     		ldr	r3, [r7, #4]
 1370 0016 3F33     		adds	r3, r3, #63
 1371 0018 0022     		movs	r2, #0
 1372 001a 1A70     		strb	r2, [r3]
 341:main.c        ****     s[62]='!';
 1373              		.loc 1 341 0
 1374 001c 7B68     		ldr	r3, [r7, #4]
 1375 001e 3E33     		adds	r3, r3, #62
 1376 0020 2122     		movs	r2, #33
 1377 0022 1A70     		strb	r2, [r3]
 342:main.c        ****     USBUART_PutData((uint8*)s,strlen(s));
 1378              		.loc 1 342 0
 1379 0024 7868     		ldr	r0, [r7, #4]
 1380 0026 FFF7FEFF 		bl	strlen
 1381 002a 0346     		mov	r3, r0
 1382 002c 9BB2     		uxth	r3, r3
 1383 002e 1946     		mov	r1, r3
 1384 0030 7868     		ldr	r0, [r7, #4]
 1385 0032 FFF7FEFF 		bl	USBUART_PutData
 343:main.c        **** #endif
 344:main.c        **** }
 1386              		.loc 1 344 0
 1387 0036 00BF     		nop
 1388 0038 0837     		adds	r7, r7, #8
 1389              		.cfi_def_cfa_offset 8
 1390 003a BD46     		mov	sp, r7
 1391              		.cfi_def_cfa_register 13
 1392              		@ sp needed
ARM GAS  C:\Users\ikui753\AppData\Local\Temp\ccDFj6Ue.s 			page 32


 1393 003c 80BD     		pop	{r7, pc}
 1394              		.cfi_endproc
 1395              	.LFE77:
 1396              		.size	usbPutString, .-usbPutString
 1397 003e 00BF     		.section	.text.usbPutChar,"ax",%progbits
 1398              		.align	2
 1399              		.global	usbPutChar
 1400              		.thumb
 1401              		.thumb_func
 1402              		.type	usbPutChar, %function
 1403              	usbPutChar:
 1404              	.LFB78:
 345:main.c        **** //* ========================================
 346:main.c        **** void usbPutChar(char c)
 347:main.c        **** {
 1405              		.loc 1 347 0
 1406              		.cfi_startproc
 1407              		@ args = 0, pretend = 0, frame = 8
 1408              		@ frame_needed = 1, uses_anonymous_args = 0
 1409 0000 80B5     		push	{r7, lr}
 1410              		.cfi_def_cfa_offset 8
 1411              		.cfi_offset 7, -8
 1412              		.cfi_offset 14, -4
 1413 0002 82B0     		sub	sp, sp, #8
 1414              		.cfi_def_cfa_offset 16
 1415 0004 00AF     		add	r7, sp, #0
 1416              		.cfi_def_cfa_register 7
 1417 0006 0346     		mov	r3, r0
 1418 0008 FB71     		strb	r3, [r7, #7]
 348:main.c        **** #ifdef USE_USB     
 349:main.c        ****     while (USBUART_CDCIsReady() == 0);
 1419              		.loc 1 349 0
 1420 000a 00BF     		nop
 1421              	.L80:
 1422              		.loc 1 349 0 is_stmt 0 discriminator 1
 1423 000c FFF7FEFF 		bl	USBUART_CDCIsReady
 1424 0010 0346     		mov	r3, r0
 1425 0012 002B     		cmp	r3, #0
 1426 0014 FAD0     		beq	.L80
 350:main.c        ****     USBUART_PutChar(c);
 1427              		.loc 1 350 0 is_stmt 1
 1428 0016 FB79     		ldrb	r3, [r7, #7]	@ zero_extendqisi2
 1429 0018 1846     		mov	r0, r3
 1430 001a FFF7FEFF 		bl	USBUART_PutChar
 351:main.c        **** #endif    
 352:main.c        **** }
 1431              		.loc 1 352 0
 1432 001e 00BF     		nop
 1433 0020 0837     		adds	r7, r7, #8
 1434              		.cfi_def_cfa_offset 8
 1435 0022 BD46     		mov	sp, r7
 1436              		.cfi_def_cfa_register 13
 1437              		@ sp needed
 1438 0024 80BD     		pop	{r7, pc}
 1439              		.cfi_endproc
 1440              	.LFE78:
 1441              		.size	usbPutChar, .-usbPutChar
ARM GAS  C:\Users\ikui753\AppData\Local\Temp\ccDFj6Ue.s 			page 33


 1442 0026 00BF     		.section	.text.handle_usb,"ax",%progbits
 1443              		.align	2
 1444              		.global	handle_usb
 1445              		.thumb
 1446              		.thumb_func
 1447              		.type	handle_usb, %function
 1448              	handle_usb:
 1449              	.LFB79:
 353:main.c        **** //* ========================================
 354:main.c        **** void handle_usb()
 355:main.c        **** {
 1450              		.loc 1 355 0
 1451              		.cfi_startproc
 1452              		@ args = 0, pretend = 0, frame = 8
 1453              		@ frame_needed = 1, uses_anonymous_args = 0
 1454 0000 80B5     		push	{r7, lr}
 1455              		.cfi_def_cfa_offset 8
 1456              		.cfi_offset 7, -8
 1457              		.cfi_offset 14, -4
 1458 0002 82B0     		sub	sp, sp, #8
 1459              		.cfi_def_cfa_offset 16
 1460 0004 00AF     		add	r7, sp, #0
 1461              		.cfi_def_cfa_register 7
 356:main.c        ****     // handles input at terminal, echos it back to the terminal
 357:main.c        ****     // turn echo OFF, key emulation: only CR
 358:main.c        ****     // entered string is made available in 'line' and 'flag_KB_string' is set
 359:main.c        ****     
 360:main.c        ****     static uint8 usbStarted = FALSE;
 361:main.c        ****     static uint16 usbBufCount = 0;
 362:main.c        ****     uint8 c; 
 363:main.c        ****     
 364:main.c        **** 
 365:main.c        ****     if (!usbStarted)
 1462              		.loc 1 365 0
 1463 0006 2B4B     		ldr	r3, .L91
 1464 0008 1B78     		ldrb	r3, [r3]	@ zero_extendqisi2
 1465 000a 002B     		cmp	r3, #0
 1466 000c 0AD1     		bne	.L82
 366:main.c        ****     {
 367:main.c        ****         if (USBUART_GetConfiguration())
 1467              		.loc 1 367 0
 1468 000e FFF7FEFF 		bl	USBUART_GetConfiguration
 1469 0012 0346     		mov	r3, r0
 1470 0014 002B     		cmp	r3, #0
 1471 0016 49D0     		beq	.L90
 368:main.c        ****         {
 369:main.c        ****             USBUART_CDC_Init();
 1472              		.loc 1 369 0
 1473 0018 FFF7FEFF 		bl	USBUART_CDC_Init
 370:main.c        ****             usbStarted = TRUE;
 1474              		.loc 1 370 0
 1475 001c 254B     		ldr	r3, .L91
 1476 001e 0122     		movs	r2, #1
 1477 0020 1A70     		strb	r2, [r3]
 371:main.c        ****         }
 372:main.c        ****     }
 373:main.c        ****     else
ARM GAS  C:\Users\ikui753\AppData\Local\Temp\ccDFj6Ue.s 			page 34


 374:main.c        ****     {
 375:main.c        ****         if (USBUART_DataIsReady() != 0)
 376:main.c        ****         {  
 377:main.c        ****             c = USBUART_GetChar();
 378:main.c        **** 
 379:main.c        ****             if ((c == 13) || (c == 10))
 380:main.c        ****             {
 381:main.c        **** //                if (usbBufCount > 0)
 382:main.c        ****                 {
 383:main.c        ****                     entry[usbBufCount]= '\0';
 384:main.c        ****                     strcpy(line,entry);
 385:main.c        ****                     usbBufCount = 0;
 386:main.c        ****                     flag_KB_string = 1;
 387:main.c        ****                 }
 388:main.c        ****             }
 389:main.c        ****             else 
 390:main.c        ****             {
 391:main.c        ****                 if (((c == CHAR_BACKSP) || (c == CHAR_DEL) ) && (usbBufCount > 0) )
 392:main.c        ****                     usbBufCount--;
 393:main.c        ****                 else
 394:main.c        ****                 {
 395:main.c        ****                     if (usbBufCount > (BUF_SIZE-2) ) // one less else strtok triggers a crash
 396:main.c        ****                     {
 397:main.c        ****                        USBUART_PutChar('!');        
 398:main.c        ****                     }
 399:main.c        ****                     else
 400:main.c        ****                         entry[usbBufCount++] = c;  
 401:main.c        ****                 }  
 402:main.c        ****             }
 403:main.c        ****         }
 404:main.c        ****     }    
 405:main.c        **** }
 1478              		.loc 1 405 0
 1479 0022 43E0     		b	.L90
 1480              	.L82:
 375:main.c        ****         {  
 1481              		.loc 1 375 0
 1482 0024 FFF7FEFF 		bl	USBUART_DataIsReady
 1483 0028 0346     		mov	r3, r0
 1484 002a 002B     		cmp	r3, #0
 1485 002c 3ED0     		beq	.L90
 377:main.c        **** 
 1486              		.loc 1 377 0
 1487 002e FFF7FEFF 		bl	USBUART_GetChar
 1488 0032 0346     		mov	r3, r0
 1489 0034 FB71     		strb	r3, [r7, #7]
 379:main.c        ****             {
 1490              		.loc 1 379 0
 1491 0036 FB79     		ldrb	r3, [r7, #7]	@ zero_extendqisi2
 1492 0038 0D2B     		cmp	r3, #13
 1493 003a 02D0     		beq	.L85
 379:main.c        ****             {
 1494              		.loc 1 379 0 is_stmt 0 discriminator 1
 1495 003c FB79     		ldrb	r3, [r7, #7]	@ zero_extendqisi2
 1496 003e 0A2B     		cmp	r3, #10
 1497 0040 10D1     		bne	.L86
 1498              	.L85:
ARM GAS  C:\Users\ikui753\AppData\Local\Temp\ccDFj6Ue.s 			page 35


 383:main.c        ****                     strcpy(line,entry);
 1499              		.loc 1 383 0 is_stmt 1
 1500 0042 1D4B     		ldr	r3, .L91+4
 1501 0044 1B88     		ldrh	r3, [r3]
 1502 0046 1A46     		mov	r2, r3
 1503 0048 1C4B     		ldr	r3, .L91+8
 1504 004a 0021     		movs	r1, #0
 1505 004c 9954     		strb	r1, [r3, r2]
 384:main.c        ****                     usbBufCount = 0;
 1506              		.loc 1 384 0
 1507 004e 1B49     		ldr	r1, .L91+8
 1508 0050 1B48     		ldr	r0, .L91+12
 1509 0052 FFF7FEFF 		bl	strcpy
 385:main.c        ****                     flag_KB_string = 1;
 1510              		.loc 1 385 0
 1511 0056 184B     		ldr	r3, .L91+4
 1512 0058 0022     		movs	r2, #0
 1513 005a 1A80     		strh	r2, [r3]	@ movhi
 386:main.c        ****                 }
 1514              		.loc 1 386 0
 1515 005c 194B     		ldr	r3, .L91+16
 1516 005e 0122     		movs	r2, #1
 1517 0060 1A70     		strb	r2, [r3]
 1518 0062 23E0     		b	.L84
 1519              	.L86:
 391:main.c        ****                     usbBufCount--;
 1520              		.loc 1 391 0
 1521 0064 FB79     		ldrb	r3, [r7, #7]	@ zero_extendqisi2
 1522 0066 082B     		cmp	r3, #8
 1523 0068 02D0     		beq	.L87
 391:main.c        ****                     usbBufCount--;
 1524              		.loc 1 391 0 is_stmt 0 discriminator 2
 1525 006a FB79     		ldrb	r3, [r7, #7]	@ zero_extendqisi2
 1526 006c 7F2B     		cmp	r3, #127
 1527 006e 0AD1     		bne	.L88
 1528              	.L87:
 391:main.c        ****                     usbBufCount--;
 1529              		.loc 1 391 0 discriminator 3
 1530 0070 114B     		ldr	r3, .L91+4
 1531 0072 1B88     		ldrh	r3, [r3]
 1532 0074 002B     		cmp	r3, #0
 1533 0076 06D0     		beq	.L88
 392:main.c        ****                 else
 1534              		.loc 1 392 0 is_stmt 1
 1535 0078 0F4B     		ldr	r3, .L91+4
 1536 007a 1B88     		ldrh	r3, [r3]
 1537 007c 013B     		subs	r3, r3, #1
 1538 007e 9AB2     		uxth	r2, r3
 1539 0080 0D4B     		ldr	r3, .L91+4
 1540 0082 1A80     		strh	r2, [r3]	@ movhi
 1541 0084 12E0     		b	.L84
 1542              	.L88:
 395:main.c        ****                     {
 1543              		.loc 1 395 0
 1544 0086 0C4B     		ldr	r3, .L91+4
 1545 0088 1B88     		ldrh	r3, [r3]
 1546 008a 3E2B     		cmp	r3, #62
ARM GAS  C:\Users\ikui753\AppData\Local\Temp\ccDFj6Ue.s 			page 36


 1547 008c 03D9     		bls	.L89
 397:main.c        ****                     }
 1548              		.loc 1 397 0
 1549 008e 2120     		movs	r0, #33
 1550 0090 FFF7FEFF 		bl	USBUART_PutChar
 1551              		.loc 1 405 0
 1552 0094 0AE0     		b	.L90
 1553              	.L89:
 400:main.c        ****                 }  
 1554              		.loc 1 400 0
 1555 0096 084B     		ldr	r3, .L91+4
 1556 0098 1B88     		ldrh	r3, [r3]
 1557 009a 5A1C     		adds	r2, r3, #1
 1558 009c 91B2     		uxth	r1, r2
 1559 009e 064A     		ldr	r2, .L91+4
 1560 00a0 1180     		strh	r1, [r2]	@ movhi
 1561 00a2 1946     		mov	r1, r3
 1562 00a4 054A     		ldr	r2, .L91+8
 1563 00a6 FB79     		ldrb	r3, [r7, #7]
 1564 00a8 5354     		strb	r3, [r2, r1]
 1565              		.loc 1 405 0
 1566 00aa FFE7     		b	.L90
 1567              	.L84:
 1568              	.L90:
 1569 00ac 00BF     		nop
 1570 00ae 0837     		adds	r7, r7, #8
 1571              		.cfi_def_cfa_offset 8
 1572 00b0 BD46     		mov	sp, r7
 1573              		.cfi_def_cfa_register 13
 1574              		@ sp needed
 1575 00b2 80BD     		pop	{r7, pc}
 1576              	.L92:
 1577              		.align	2
 1578              	.L91:
 1579 00b4 2C000000 		.word	usbStarted.8248
 1580 00b8 2E000000 		.word	usbBufCount.8249
 1581 00bc 00000000 		.word	entry
 1582 00c0 00000000 		.word	line
 1583 00c4 00000000 		.word	flag_KB_string
 1584              		.cfi_endproc
 1585              	.LFE79:
 1586              		.size	handle_usb, .-handle_usb
 1587              		.bss
 1588              	usbStarted.8248:
 1589 002c 00       		.space	1
 1590 002d 00       		.align	1
 1591              	usbBufCount.8249:
 1592 002e 0000     		.space	2
 1593              		.text
 1594              	.Letext0:
 1595              		.file 2 "c:\\program files (x86)\\cypress\\psoc creator\\4.2\\psoc creator\\import\\gnu\\arm\\5.4.
 1596              		.file 3 "c:\\program files (x86)\\cypress\\psoc creator\\4.2\\psoc creator\\import\\gnu\\arm\\5.4.
 1597              		.file 4 "Generated_Source\\PSoC5/cytypes.h"
 1598              		.file 5 "vars.h"
 1599              		.file 6 "Generated_Source\\PSoC5/core_cm3.h"
 1600              		.section	.debug_info,"",%progbits
 1601              	.Ldebug_info0:
ARM GAS  C:\Users\ikui753\AppData\Local\Temp\ccDFj6Ue.s 			page 37


 1602 0000 1E060000 		.4byte	0x61e
 1603 0004 0400     		.2byte	0x4
 1604 0006 00000000 		.4byte	.Ldebug_abbrev0
 1605 000a 04       		.byte	0x4
 1606 000b 01       		.uleb128 0x1
 1607 000c 9D000000 		.4byte	.LASF90
 1608 0010 0C       		.byte	0xc
 1609 0011 42040000 		.4byte	.LASF91
 1610 0015 FE010000 		.4byte	.LASF92
 1611 0019 00000000 		.4byte	.Ldebug_ranges0+0
 1612 001d 00000000 		.4byte	0
 1613 0021 00000000 		.4byte	.Ldebug_line0
 1614 0025 02       		.uleb128 0x2
 1615 0026 01       		.byte	0x1
 1616 0027 06       		.byte	0x6
 1617 0028 17030000 		.4byte	.LASF0
 1618 002c 02       		.uleb128 0x2
 1619 002d 01       		.byte	0x1
 1620 002e 08       		.byte	0x8
 1621 002f 9B020000 		.4byte	.LASF1
 1622 0033 02       		.uleb128 0x2
 1623 0034 02       		.byte	0x2
 1624 0035 05       		.byte	0x5
 1625 0036 50000000 		.4byte	.LASF2
 1626 003a 02       		.uleb128 0x2
 1627 003b 02       		.byte	0x2
 1628 003c 07       		.byte	0x7
 1629 003d AA030000 		.4byte	.LASF3
 1630 0041 03       		.uleb128 0x3
 1631 0042 95040000 		.4byte	.LASF12
 1632 0046 02       		.byte	0x2
 1633 0047 3F       		.byte	0x3f
 1634 0048 4C000000 		.4byte	0x4c
 1635 004c 02       		.uleb128 0x2
 1636 004d 04       		.byte	0x4
 1637 004e 05       		.byte	0x5
 1638 004f D4010000 		.4byte	.LASF4
 1639 0053 02       		.uleb128 0x2
 1640 0054 04       		.byte	0x4
 1641 0055 07       		.byte	0x7
 1642 0056 49040000 		.4byte	.LASF5
 1643 005a 02       		.uleb128 0x2
 1644 005b 08       		.byte	0x8
 1645 005c 05       		.byte	0x5
 1646 005d 88010000 		.4byte	.LASF6
 1647 0061 02       		.uleb128 0x2
 1648 0062 08       		.byte	0x8
 1649 0063 07       		.byte	0x7
 1650 0064 2B030000 		.4byte	.LASF7
 1651 0068 04       		.uleb128 0x4
 1652 0069 04       		.byte	0x4
 1653 006a 05       		.byte	0x5
 1654 006b 696E7400 		.ascii	"int\000"
 1655 006f 02       		.uleb128 0x2
 1656 0070 04       		.byte	0x4
 1657 0071 07       		.byte	0x7
 1658 0072 53030000 		.4byte	.LASF8
ARM GAS  C:\Users\ikui753\AppData\Local\Temp\ccDFj6Ue.s 			page 38


 1659 0076 02       		.uleb128 0x2
 1660 0077 08       		.byte	0x8
 1661 0078 04       		.byte	0x4
 1662 0079 C1020000 		.4byte	.LASF9
 1663 007d 02       		.uleb128 0x2
 1664 007e 04       		.byte	0x4
 1665 007f 07       		.byte	0x7
 1666 0080 7B000000 		.4byte	.LASF10
 1667 0084 05       		.uleb128 0x5
 1668 0085 04       		.byte	0x4
 1669 0086 8A000000 		.4byte	0x8a
 1670 008a 02       		.uleb128 0x2
 1671 008b 01       		.byte	0x1
 1672 008c 08       		.byte	0x8
 1673 008d D8030000 		.4byte	.LASF11
 1674 0091 03       		.uleb128 0x3
 1675 0092 23030000 		.4byte	.LASF13
 1676 0096 03       		.byte	0x3
 1677 0097 2C       		.byte	0x2c
 1678 0098 41000000 		.4byte	0x41
 1679 009c 06       		.uleb128 0x6
 1680 009d 6A010000 		.4byte	.LASF14
 1681 00a1 04       		.byte	0x4
 1682 00a2 E701     		.2byte	0x1e7
 1683 00a4 2C000000 		.4byte	0x2c
 1684 00a8 06       		.uleb128 0x6
 1685 00a9 4C010000 		.4byte	.LASF15
 1686 00ad 04       		.byte	0x4
 1687 00ae E801     		.2byte	0x1e8
 1688 00b0 3A000000 		.4byte	0x3a
 1689 00b4 06       		.uleb128 0x6
 1690 00b5 3B040000 		.4byte	.LASF16
 1691 00b9 04       		.byte	0x4
 1692 00ba E901     		.2byte	0x1e9
 1693 00bc 53000000 		.4byte	0x53
 1694 00c0 06       		.uleb128 0x6
 1695 00c1 A3010000 		.4byte	.LASF17
 1696 00c5 04       		.byte	0x4
 1697 00c6 EA01     		.2byte	0x1ea
 1698 00c8 25000000 		.4byte	0x25
 1699 00cc 06       		.uleb128 0x6
 1700 00cd 64010000 		.4byte	.LASF18
 1701 00d1 04       		.byte	0x4
 1702 00d2 EB01     		.2byte	0x1eb
 1703 00d4 33000000 		.4byte	0x33
 1704 00d8 02       		.uleb128 0x2
 1705 00d9 04       		.byte	0x4
 1706 00da 04       		.byte	0x4
 1707 00db 82010000 		.4byte	.LASF19
 1708 00df 02       		.uleb128 0x2
 1709 00e0 08       		.byte	0x8
 1710 00e1 04       		.byte	0x4
 1711 00e2 27000000 		.4byte	.LASF20
 1712 00e6 07       		.uleb128 0x7
 1713 00e7 BD030000 		.4byte	.LASF93
 1714 00eb 20       		.byte	0x20
 1715 00ec 05       		.byte	0x5
ARM GAS  C:\Users\ikui753\AppData\Local\Temp\ccDFj6Ue.s 			page 39


 1716 00ed 29       		.byte	0x29
 1717 00ee BF010000 		.4byte	0x1bf
 1718 00f2 08       		.uleb128 0x8
 1719 00f3 2F050000 		.4byte	.LASF21
 1720 00f7 05       		.byte	0x5
 1721 00f8 2A       		.byte	0x2a
 1722 00f9 C0000000 		.4byte	0xc0
 1723 00fd 00       		.byte	0
 1724 00fe 08       		.uleb128 0x8
 1725 00ff 53010000 		.4byte	.LASF22
 1726 0103 05       		.byte	0x5
 1727 0104 2B       		.byte	0x2b
 1728 0105 9C000000 		.4byte	0x9c
 1729 0109 01       		.byte	0x1
 1730 010a 08       		.uleb128 0x8
 1731 010b 1F040000 		.4byte	.LASF23
 1732 010f 05       		.byte	0x5
 1733 0110 2C       		.byte	0x2c
 1734 0111 CC000000 		.4byte	0xcc
 1735 0115 02       		.byte	0x2
 1736 0116 08       		.uleb128 0x8
 1737 0117 F7040000 		.4byte	.LASF24
 1738 011b 05       		.byte	0x5
 1739 011c 2D       		.byte	0x2d
 1740 011d CC000000 		.4byte	0xcc
 1741 0121 04       		.byte	0x4
 1742 0122 08       		.uleb128 0x8
 1743 0123 34050000 		.4byte	.LASF25
 1744 0127 05       		.byte	0x5
 1745 0128 2E       		.byte	0x2e
 1746 0129 CC000000 		.4byte	0xcc
 1747 012d 06       		.byte	0x6
 1748 012e 08       		.uleb128 0x8
 1749 012f CC010000 		.4byte	.LASF26
 1750 0133 05       		.byte	0x5
 1751 0134 2F       		.byte	0x2f
 1752 0135 CC000000 		.4byte	0xcc
 1753 0139 08       		.byte	0x8
 1754 013a 08       		.uleb128 0x8
 1755 013b A4040000 		.4byte	.LASF27
 1756 013f 05       		.byte	0x5
 1757 0140 30       		.byte	0x30
 1758 0141 CC000000 		.4byte	0xcc
 1759 0145 0A       		.byte	0xa
 1760 0146 08       		.uleb128 0x8
 1761 0147 F7020000 		.4byte	.LASF28
 1762 014b 05       		.byte	0x5
 1763 014c 31       		.byte	0x31
 1764 014d CC000000 		.4byte	0xcc
 1765 0151 0C       		.byte	0xc
 1766 0152 08       		.uleb128 0x8
 1767 0153 BF010000 		.4byte	.LASF29
 1768 0157 05       		.byte	0x5
 1769 0158 32       		.byte	0x32
 1770 0159 CC000000 		.4byte	0xcc
 1771 015d 0E       		.byte	0xe
 1772 015e 08       		.uleb128 0x8
ARM GAS  C:\Users\ikui753\AppData\Local\Temp\ccDFj6Ue.s 			page 40


 1773 015f 0F030000 		.4byte	.LASF30
 1774 0163 05       		.byte	0x5
 1775 0164 33       		.byte	0x33
 1776 0165 CC000000 		.4byte	0xcc
 1777 0169 10       		.byte	0x10
 1778 016a 08       		.uleb128 0x8
 1779 016b F3030000 		.4byte	.LASF31
 1780 016f 05       		.byte	0x5
 1781 0170 34       		.byte	0x34
 1782 0171 CC000000 		.4byte	0xcc
 1783 0175 12       		.byte	0x12
 1784 0176 08       		.uleb128 0x8
 1785 0177 08040000 		.4byte	.LASF32
 1786 017b 05       		.byte	0x5
 1787 017c 35       		.byte	0x35
 1788 017d CC000000 		.4byte	0xcc
 1789 0181 14       		.byte	0x14
 1790 0182 08       		.uleb128 0x8
 1791 0183 70010000 		.4byte	.LASF33
 1792 0187 05       		.byte	0x5
 1793 0188 36       		.byte	0x36
 1794 0189 CC000000 		.4byte	0xcc
 1795 018d 16       		.byte	0x16
 1796 018e 08       		.uleb128 0x8
 1797 018f 48000000 		.4byte	.LASF34
 1798 0193 05       		.byte	0x5
 1799 0194 37       		.byte	0x37
 1800 0195 CC000000 		.4byte	0xcc
 1801 0199 18       		.byte	0x18
 1802 019a 08       		.uleb128 0x8
 1803 019b B7010000 		.4byte	.LASF35
 1804 019f 05       		.byte	0x5
 1805 01a0 38       		.byte	0x38
 1806 01a1 CC000000 		.4byte	0xcc
 1807 01a5 1A       		.byte	0x1a
 1808 01a6 08       		.uleb128 0x8
 1809 01a7 95030000 		.4byte	.LASF36
 1810 01ab 05       		.byte	0x5
 1811 01ac 39       		.byte	0x39
 1812 01ad CC000000 		.4byte	0xcc
 1813 01b1 1C       		.byte	0x1c
 1814 01b2 08       		.uleb128 0x8
 1815 01b3 FB030000 		.4byte	.LASF37
 1816 01b7 05       		.byte	0x5
 1817 01b8 3A       		.byte	0x3a
 1818 01b9 CC000000 		.4byte	0xcc
 1819 01bd 1E       		.byte	0x1e
 1820 01be 00       		.byte	0
 1821 01bf 09       		.uleb128 0x9
 1822 01c0 84000000 		.4byte	.LASF94
 1823 01c4 04       		.byte	0x4
 1824 01c5 6F000000 		.4byte	0x6f
 1825 01c9 01       		.byte	0x1
 1826 01ca 27       		.byte	0x27
 1827 01cb FA010000 		.4byte	0x1fa
 1828 01cf 0A       		.uleb128 0xa
 1829 01d0 DD030000 		.4byte	.LASF38
ARM GAS  C:\Users\ikui753\AppData\Local\Temp\ccDFj6Ue.s 			page 41


 1830 01d4 00       		.byte	0
 1831 01d5 0A       		.uleb128 0xa
 1832 01d6 2A040000 		.4byte	.LASF39
 1833 01da 01       		.byte	0x1
 1834 01db 0A       		.uleb128 0xa
 1835 01dc 17000000 		.4byte	.LASF40
 1836 01e0 02       		.byte	0x2
 1837 01e1 0A       		.uleb128 0xa
 1838 01e2 3C010000 		.4byte	.LASF41
 1839 01e6 03       		.byte	0x3
 1840 01e7 0A       		.uleb128 0xa
 1841 01e8 42030000 		.4byte	.LASF42
 1842 01ec 04       		.byte	0x4
 1843 01ed 0A       		.uleb128 0xa
 1844 01ee 9F040000 		.4byte	.LASF43
 1845 01f2 05       		.byte	0x5
 1846 01f3 0A       		.uleb128 0xa
 1847 01f4 66040000 		.4byte	.LASF44
 1848 01f8 06       		.byte	0x6
 1849 01f9 00       		.byte	0
 1850 01fa 0B       		.uleb128 0xb
 1851 01fb 59010000 		.4byte	.LASF45
 1852 01ff 01       		.byte	0x1
 1853 0200 41       		.byte	0x41
 1854 0201 00000000 		.4byte	.LFB64
 1855 0205 C8000000 		.4byte	.LFE64-.LFB64
 1856 0209 01       		.uleb128 0x1
 1857 020a 9C       		.byte	0x9c
 1858 020b 0C       		.uleb128 0xc
 1859 020c 46050000 		.4byte	.LASF46
 1860 0210 01       		.byte	0x1
 1861 0211 4F       		.byte	0x4f
 1862 0212 00000000 		.4byte	.LFB65
 1863 0216 18000000 		.4byte	.LFE65-.LFB65
 1864 021a 01       		.uleb128 0x1
 1865 021b 9C       		.byte	0x9c
 1866 021c 0C       		.uleb128 0xc
 1867 021d F2010000 		.4byte	.LASF47
 1868 0221 01       		.byte	0x1
 1869 0222 56       		.byte	0x56
 1870 0223 00000000 		.4byte	.LFB66
 1871 0227 18000000 		.4byte	.LFE66-.LFB66
 1872 022b 01       		.uleb128 0x1
 1873 022c 9C       		.byte	0x9c
 1874 022d 0C       		.uleb128 0xc
 1875 022e 6E040000 		.4byte	.LASF48
 1876 0232 01       		.byte	0x1
 1877 0233 5D       		.byte	0x5d
 1878 0234 00000000 		.4byte	.LFB67
 1879 0238 18000000 		.4byte	.LFE67-.LFB67
 1880 023c 01       		.uleb128 0x1
 1881 023d 9C       		.byte	0x9c
 1882 023e 0C       		.uleb128 0xc
 1883 023f 30010000 		.4byte	.LASF49
 1884 0243 01       		.byte	0x1
 1885 0244 63       		.byte	0x63
 1886 0245 00000000 		.4byte	.LFB68
ARM GAS  C:\Users\ikui753\AppData\Local\Temp\ccDFj6Ue.s 			page 42


 1887 0249 18000000 		.4byte	.LFE68-.LFB68
 1888 024d 01       		.uleb128 0x1
 1889 024e 9C       		.byte	0x9c
 1890 024f 0C       		.uleb128 0xc
 1891 0250 9E030000 		.4byte	.LASF50
 1892 0254 01       		.byte	0x1
 1893 0255 69       		.byte	0x69
 1894 0256 00000000 		.4byte	.LFB69
 1895 025a 18000000 		.4byte	.LFE69-.LFB69
 1896 025e 01       		.uleb128 0x1
 1897 025f 9C       		.byte	0x9c
 1898 0260 0C       		.uleb128 0xc
 1899 0261 00000000 		.4byte	.LASF51
 1900 0265 01       		.byte	0x1
 1901 0266 6F       		.byte	0x6f
 1902 0267 00000000 		.4byte	.LFB70
 1903 026b 18000000 		.4byte	.LFE70-.LFB70
 1904 026f 01       		.uleb128 0x1
 1905 0270 9C       		.byte	0x9c
 1906 0271 0B       		.uleb128 0xb
 1907 0272 5A000000 		.4byte	.LASF52
 1908 0276 01       		.byte	0x1
 1909 0277 75       		.byte	0x75
 1910 0278 00000000 		.4byte	.LFB71
 1911 027c 14000000 		.4byte	.LFE71-.LFB71
 1912 0280 01       		.uleb128 0x1
 1913 0281 9C       		.byte	0x9c
 1914 0282 0D       		.uleb128 0xd
 1915 0283 2B010000 		.4byte	.LASF53
 1916 0287 01       		.byte	0x1
 1917 0288 80       		.byte	0x80
 1918 0289 68000000 		.4byte	0x68
 1919 028d 00000000 		.4byte	.LFB72
 1920 0291 AC000000 		.4byte	.LFE72-.LFB72
 1921 0295 01       		.uleb128 0x1
 1922 0296 9C       		.byte	0x9c
 1923 0297 0E       		.uleb128 0xe
 1924 0298 CC040000 		.4byte	.LASF95
 1925 029c 01       		.byte	0x1
 1926 029d B7       		.byte	0xb7
 1927 029e CC000000 		.4byte	0xcc
 1928 02a2 00000000 		.4byte	.LFB73
 1929 02a6 6C000000 		.4byte	.LFE73-.LFB73
 1930 02aa 01       		.uleb128 0x1
 1931 02ab 9C       		.byte	0x9c
 1932 02ac DB020000 		.4byte	0x2db
 1933 02b0 0F       		.uleb128 0xf
 1934 02b1 83040000 		.4byte	.LASF59
 1935 02b5 01       		.byte	0x1
 1936 02b6 B7       		.byte	0xb7
 1937 02b7 A8000000 		.4byte	0xa8
 1938 02bb 02       		.uleb128 0x2
 1939 02bc 91       		.byte	0x91
 1940 02bd 66       		.sleb128 -26
 1941 02be 10       		.uleb128 0x10
 1942 02bf 63707300 		.ascii	"cps\000"
 1943 02c3 01       		.byte	0x1
ARM GAS  C:\Users\ikui753\AppData\Local\Temp\ccDFj6Ue.s 			page 43


 1944 02c4 B9       		.byte	0xb9
 1945 02c5 D8000000 		.4byte	0xd8
 1946 02c9 02       		.uleb128 0x2
 1947 02ca 91       		.byte	0x91
 1948 02cb 6C       		.sleb128 -20
 1949 02cc 10       		.uleb128 0x10
 1950 02cd 72706D00 		.ascii	"rpm\000"
 1951 02d1 01       		.byte	0x1
 1952 02d2 BA       		.byte	0xba
 1953 02d3 CC000000 		.4byte	0xcc
 1954 02d7 02       		.uleb128 0x2
 1955 02d8 91       		.byte	0x91
 1956 02d9 6A       		.sleb128 -22
 1957 02da 00       		.byte	0
 1958 02db 11       		.uleb128 0x11
 1959 02dc C7030000 		.4byte	.LASF55
 1960 02e0 01       		.byte	0x1
 1961 02e1 C2       		.byte	0xc2
 1962 02e2 00000000 		.4byte	.LFB74
 1963 02e6 48000000 		.4byte	.LFE74-.LFB74
 1964 02ea 01       		.uleb128 0x1
 1965 02eb 9C       		.byte	0x9c
 1966 02ec 12       		.uleb128 0x12
 1967 02ed DD010000 		.4byte	.LASF57
 1968 02f1 01       		.byte	0x1
 1969 02f2 D0       		.byte	0xd0
 1970 02f3 BF010000 		.4byte	0x1bf
 1971 02f7 00000000 		.4byte	.LFB75
 1972 02fb D0010000 		.4byte	.LFE75-.LFB75
 1973 02ff 01       		.uleb128 0x1
 1974 0300 9C       		.byte	0x9c
 1975 0301 14030000 		.4byte	0x314
 1976 0305 13       		.uleb128 0x13
 1977 0306 20050000 		.4byte	.LASF54
 1978 030a 01       		.byte	0x1
 1979 030b D1       		.byte	0xd1
 1980 030c BF010000 		.4byte	0x1bf
 1981 0310 02       		.uleb128 0x2
 1982 0311 91       		.byte	0x91
 1983 0312 74       		.sleb128 -12
 1984 0313 00       		.byte	0
 1985 0314 14       		.uleb128 0x14
 1986 0315 84030000 		.4byte	.LASF56
 1987 0319 01       		.byte	0x1
 1988 031a 2001     		.2byte	0x120
 1989 031c 00000000 		.4byte	.LFB76
 1990 0320 38010000 		.4byte	.LFE76-.LFB76
 1991 0324 01       		.uleb128 0x1
 1992 0325 9C       		.byte	0x9c
 1993 0326 15       		.uleb128 0x15
 1994 0327 96010000 		.4byte	.LASF58
 1995 032b 01       		.byte	0x1
 1996 032c 4C01     		.2byte	0x14c
 1997 032e 00000000 		.4byte	.LFB77
 1998 0332 3E000000 		.4byte	.LFE77-.LFB77
 1999 0336 01       		.uleb128 0x1
 2000 0337 9C       		.byte	0x9c
ARM GAS  C:\Users\ikui753\AppData\Local\Temp\ccDFj6Ue.s 			page 44


 2001 0338 4A030000 		.4byte	0x34a
 2002 033c 16       		.uleb128 0x16
 2003 033d 7300     		.ascii	"s\000"
 2004 033f 01       		.byte	0x1
 2005 0340 4C01     		.2byte	0x14c
 2006 0342 84000000 		.4byte	0x84
 2007 0346 02       		.uleb128 0x2
 2008 0347 91       		.byte	0x91
 2009 0348 74       		.sleb128 -12
 2010 0349 00       		.byte	0
 2011 034a 15       		.uleb128 0x15
 2012 034b 0C000000 		.4byte	.LASF60
 2013 034f 01       		.byte	0x1
 2014 0350 5A01     		.2byte	0x15a
 2015 0352 00000000 		.4byte	.LFB78
 2016 0356 26000000 		.4byte	.LFE78-.LFB78
 2017 035a 01       		.uleb128 0x1
 2018 035b 9C       		.byte	0x9c
 2019 035c 6E030000 		.4byte	0x36e
 2020 0360 16       		.uleb128 0x16
 2021 0361 6300     		.ascii	"c\000"
 2022 0363 01       		.byte	0x1
 2023 0364 5A01     		.2byte	0x15a
 2024 0366 8A000000 		.4byte	0x8a
 2025 036a 02       		.uleb128 0x2
 2026 036b 91       		.byte	0x91
 2027 036c 77       		.sleb128 -9
 2028 036d 00       		.byte	0
 2029 036e 17       		.uleb128 0x17
 2030 036f C1040000 		.4byte	.LASF96
 2031 0373 01       		.byte	0x1
 2032 0374 6201     		.2byte	0x162
 2033 0376 00000000 		.4byte	.LFB79
 2034 037a C8000000 		.4byte	.LFE79-.LFB79
 2035 037e 01       		.uleb128 0x1
 2036 037f 9C       		.byte	0x9c
 2037 0380 B6030000 		.4byte	0x3b6
 2038 0384 18       		.uleb128 0x18
 2039 0385 5B040000 		.4byte	.LASF61
 2040 0389 01       		.byte	0x1
 2041 038a 6801     		.2byte	0x168
 2042 038c 9C000000 		.4byte	0x9c
 2043 0390 05       		.uleb128 0x5
 2044 0391 03       		.byte	0x3
 2045 0392 2C000000 		.4byte	usbStarted.8248
 2046 0396 18       		.uleb128 0x18
 2047 0397 78030000 		.4byte	.LASF62
 2048 039b 01       		.byte	0x1
 2049 039c 6901     		.2byte	0x169
 2050 039e A8000000 		.4byte	0xa8
 2051 03a2 05       		.uleb128 0x5
 2052 03a3 03       		.byte	0x3
 2053 03a4 2E000000 		.4byte	usbBufCount.8249
 2054 03a8 19       		.uleb128 0x19
 2055 03a9 6300     		.ascii	"c\000"
 2056 03ab 01       		.byte	0x1
 2057 03ac 6A01     		.2byte	0x16a
ARM GAS  C:\Users\ikui753\AppData\Local\Temp\ccDFj6Ue.s 			page 45


 2058 03ae 9C000000 		.4byte	0x9c
 2059 03b2 02       		.uleb128 0x2
 2060 03b3 91       		.byte	0x91
 2061 03b4 77       		.sleb128 -9
 2062 03b5 00       		.byte	0
 2063 03b6 1A       		.uleb128 0x1a
 2064 03b7 02050000 		.4byte	.LASF63
 2065 03bb 06       		.byte	0x6
 2066 03bc 1207     		.2byte	0x712
 2067 03be C2030000 		.4byte	0x3c2
 2068 03c2 1B       		.uleb128 0x1b
 2069 03c3 91000000 		.4byte	0x91
 2070 03c7 1C       		.uleb128 0x1c
 2071 03c8 747300   		.ascii	"ts\000"
 2072 03cb 05       		.byte	0x5
 2073 03cc 10       		.byte	0x10
 2074 03cd 9C000000 		.4byte	0x9c
 2075 03d1 05       		.uleb128 0x5
 2076 03d2 03       		.byte	0x3
 2077 03d3 00000000 		.4byte	ts
 2078 03d7 1D       		.uleb128 0x1d
 2079 03d8 20000000 		.4byte	.LASF64
 2080 03dc 05       		.byte	0x5
 2081 03dd 11       		.byte	0x11
 2082 03de A8000000 		.4byte	0xa8
 2083 03e2 05       		.uleb128 0x5
 2084 03e3 03       		.byte	0x3
 2085 03e4 00000000 		.4byte	ts_enc
 2086 03e8 1D       		.uleb128 0x1d
 2087 03e9 B7040000 		.4byte	.LASF65
 2088 03ed 05       		.byte	0x5
 2089 03ee 12       		.byte	0x12
 2090 03ef A8000000 		.4byte	0xa8
 2091 03f3 05       		.uleb128 0x5
 2092 03f4 03       		.byte	0x3
 2093 03f5 00000000 		.4byte	ts_update
 2094 03f9 1D       		.uleb128 0x1d
 2095 03fa 7A040000 		.4byte	.LASF66
 2096 03fe 05       		.byte	0x5
 2097 03ff 13       		.byte	0x13
 2098 0400 A8000000 		.4byte	0xa8
 2099 0404 05       		.uleb128 0x5
 2100 0405 03       		.byte	0x3
 2101 0406 00000000 		.4byte	ts_speed
 2102 040a 1D       		.uleb128 0x1d
 2103 040b AC040000 		.4byte	.LASF67
 2104 040f 05       		.byte	0x5
 2105 0410 14       		.byte	0x14
 2106 0411 A8000000 		.4byte	0xa8
 2107 0415 05       		.uleb128 0x5
 2108 0416 03       		.byte	0x3
 2109 0417 00000000 		.4byte	ts_display
 2110 041b 1D       		.uleb128 0x1d
 2111 041c 89040000 		.4byte	.LASF68
 2112 0420 05       		.byte	0x5
 2113 0421 16       		.byte	0x16
 2114 0422 9C000000 		.4byte	0x9c
ARM GAS  C:\Users\ikui753\AppData\Local\Temp\ccDFj6Ue.s 			page 46


 2115 0426 05       		.uleb128 0x5
 2116 0427 03       		.byte	0x3
 2117 0428 00000000 		.4byte	flag_ts_enc
 2118 042c 1D       		.uleb128 0x1d
 2119 042d A8010000 		.4byte	.LASF69
 2120 0431 05       		.byte	0x5
 2121 0432 17       		.byte	0x17
 2122 0433 9C000000 		.4byte	0x9c
 2123 0437 05       		.uleb128 0x5
 2124 0438 03       		.byte	0x3
 2125 0439 00000000 		.4byte	flag_ts_update
 2126 043d 1D       		.uleb128 0x1d
 2127 043e 3A000000 		.4byte	.LASF70
 2128 0442 05       		.byte	0x5
 2129 0443 18       		.byte	0x18
 2130 0444 9C000000 		.4byte	0x9c
 2131 0448 05       		.uleb128 0x5
 2132 0449 03       		.byte	0x3
 2133 044a 00000000 		.4byte	flag_ts_speed
 2134 044e 1D       		.uleb128 0x1d
 2135 044f 83020000 		.4byte	.LASF71
 2136 0453 05       		.byte	0x5
 2137 0454 19       		.byte	0x19
 2138 0455 9C000000 		.4byte	0x9c
 2139 0459 05       		.uleb128 0x5
 2140 045a 03       		.byte	0x3
 2141 045b 00000000 		.4byte	flag_ts_display
 2142 045f 1D       		.uleb128 0x1d
 2143 0460 93020000 		.4byte	.LASF72
 2144 0464 05       		.byte	0x5
 2145 0465 1C       		.byte	0x1c
 2146 0466 9C000000 		.4byte	0x9c
 2147 046a 05       		.uleb128 0x5
 2148 046b 03       		.byte	0x3
 2149 046c 00000000 		.4byte	flag_rx
 2150 0470 1D       		.uleb128 0x1d
 2151 0471 2E000000 		.4byte	.LASF73
 2152 0475 05       		.byte	0x5
 2153 0476 1D       		.byte	0x1d
 2154 0477 9C000000 		.4byte	0x9c
 2155 047b 05       		.uleb128 0x5
 2156 047c 03       		.byte	0x3
 2157 047d 00000000 		.4byte	flag_packet
 2158 0481 1D       		.uleb128 0x1d
 2159 0482 69030000 		.4byte	.LASF74
 2160 0486 05       		.byte	0x5
 2161 0487 1E       		.byte	0x1e
 2162 0488 9C000000 		.4byte	0x9c
 2163 048c 05       		.uleb128 0x5
 2164 048d 03       		.byte	0x3
 2165 048e 00000000 		.4byte	flag_KB_string
 2166 0492 1D       		.uleb128 0x1d
 2167 0493 00030000 		.4byte	.LASF75
 2168 0497 05       		.byte	0x5
 2169 0498 20       		.byte	0x20
 2170 0499 9C000000 		.4byte	0x9c
 2171 049d 05       		.uleb128 0x5
ARM GAS  C:\Users\ikui753\AppData\Local\Temp\ccDFj6Ue.s 			page 47


 2172 049e 03       		.byte	0x3
 2173 049f 00000000 		.4byte	dataready_flag
 2174 04a3 1D       		.uleb128 0x1d
 2175 04a4 DB040000 		.4byte	.LASF76
 2176 04a8 05       		.byte	0x5
 2177 04a9 22       		.byte	0x22
 2178 04aa 9C000000 		.4byte	0x9c
 2179 04ae 05       		.uleb128 0x5
 2180 04af 03       		.byte	0x3
 2181 04b0 00000000 		.4byte	flag_rf_transmission_active
 2182 04b4 1E       		.uleb128 0x1e
 2183 04b5 8A000000 		.4byte	0x8a
 2184 04b9 C4040000 		.4byte	0x4c4
 2185 04bd 1F       		.uleb128 0x1f
 2186 04be 7D000000 		.4byte	0x7d
 2187 04c2 3F       		.byte	0x3f
 2188 04c3 00       		.byte	0
 2189 04c4 1D       		.uleb128 0x1d
 2190 04c5 11040000 		.4byte	.LASF77
 2191 04c9 05       		.byte	0x5
 2192 04ca 25       		.byte	0x25
 2193 04cb B4040000 		.4byte	0x4b4
 2194 04cf 05       		.uleb128 0x5
 2195 04d0 03       		.byte	0x3
 2196 04d1 00000000 		.4byte	displaystring
 2197 04d5 1D       		.uleb128 0x1d
 2198 04d6 7D010000 		.4byte	.LASF78
 2199 04da 05       		.byte	0x5
 2200 04db 26       		.byte	0x26
 2201 04dc B4040000 		.4byte	0x4b4
 2202 04e0 05       		.uleb128 0x5
 2203 04e1 03       		.byte	0x3
 2204 04e2 00000000 		.4byte	line
 2205 04e6 1D       		.uleb128 0x1d
 2206 04e7 BB020000 		.4byte	.LASF79
 2207 04eb 05       		.byte	0x5
 2208 04ec 26       		.byte	0x26
 2209 04ed B4040000 		.4byte	0x4b4
 2210 04f1 05       		.uleb128 0x5
 2211 04f2 03       		.byte	0x3
 2212 04f3 00000000 		.4byte	entry
 2213 04f7 1E       		.uleb128 0x1e
 2214 04f8 9C000000 		.4byte	0x9c
 2215 04fc 07050000 		.4byte	0x507
 2216 0500 1F       		.uleb128 0x1f
 2217 0501 7D000000 		.4byte	0x7d
 2218 0505 3F       		.byte	0x3f
 2219 0506 00       		.byte	0
 2220 0507 1D       		.uleb128 0x1d
 2221 0508 93000000 		.4byte	.LASF80
 2222 050c 05       		.byte	0x5
 2223 050d 27       		.byte	0x27
 2224 050e F7040000 		.4byte	0x4f7
 2225 0512 05       		.uleb128 0x5
 2226 0513 03       		.byte	0x3
 2227 0514 00000000 		.4byte	usbBuffer
 2228 0518 1D       		.uleb128 0x1d
ARM GAS  C:\Users\ikui753\AppData\Local\Temp\ccDFj6Ue.s 			page 48


 2229 0519 6E000000 		.4byte	.LASF81
 2230 051d 05       		.byte	0x5
 2231 051e 3C       		.byte	0x3c
 2232 051f E6000000 		.4byte	0xe6
 2233 0523 05       		.uleb128 0x5
 2234 0524 03       		.byte	0x3
 2235 0525 00000000 		.4byte	system_state
 2236 0529 1D       		.uleb128 0x1d
 2237 052a 0F050000 		.4byte	.LASF82
 2238 052e 01       		.byte	0x1
 2239 052f 29       		.byte	0x29
 2240 0530 BF010000 		.4byte	0x1bf
 2241 0534 05       		.uleb128 0x5
 2242 0535 03       		.byte	0x3
 2243 0536 00000000 		.4byte	currentDirection
 2244 053a 1D       		.uleb128 0x1d
 2245 053b CD020000 		.4byte	.LASF83
 2246 053f 01       		.byte	0x1
 2247 0540 2A       		.byte	0x2a
 2248 0541 BF010000 		.4byte	0x1bf
 2249 0545 05       		.uleb128 0x5
 2250 0546 03       		.byte	0x3
 2251 0547 00000000 		.4byte	previousDirection
 2252 054b 1C       		.uleb128 0x1c
 2253 054c 733100   		.ascii	"s1\000"
 2254 054f 01       		.byte	0x1
 2255 0550 2D       		.byte	0x2d
 2256 0551 9C000000 		.4byte	0x9c
 2257 0555 05       		.uleb128 0x5
 2258 0556 03       		.byte	0x3
 2259 0557 00000000 		.4byte	s1
 2260 055b 1C       		.uleb128 0x1c
 2261 055c 733200   		.ascii	"s2\000"
 2262 055f 01       		.byte	0x1
 2263 0560 2E       		.byte	0x2e
 2264 0561 9C000000 		.4byte	0x9c
 2265 0565 05       		.uleb128 0x5
 2266 0566 03       		.byte	0x3
 2267 0567 00000000 		.4byte	s2
 2268 056b 1C       		.uleb128 0x1c
 2269 056c 733300   		.ascii	"s3\000"
 2270 056f 01       		.byte	0x1
 2271 0570 2F       		.byte	0x2f
 2272 0571 9C000000 		.4byte	0x9c
 2273 0575 05       		.uleb128 0x5
 2274 0576 03       		.byte	0x3
 2275 0577 00000000 		.4byte	s3
 2276 057b 1C       		.uleb128 0x1c
 2277 057c 733400   		.ascii	"s4\000"
 2278 057f 01       		.byte	0x1
 2279 0580 30       		.byte	0x30
 2280 0581 9C000000 		.4byte	0x9c
 2281 0585 05       		.uleb128 0x5
 2282 0586 03       		.byte	0x3
 2283 0587 00000000 		.4byte	s4
 2284 058b 1C       		.uleb128 0x1c
 2285 058c 733500   		.ascii	"s5\000"
ARM GAS  C:\Users\ikui753\AppData\Local\Temp\ccDFj6Ue.s 			page 49


 2286 058f 01       		.byte	0x1
 2287 0590 31       		.byte	0x31
 2288 0591 9C000000 		.4byte	0x9c
 2289 0595 05       		.uleb128 0x5
 2290 0596 03       		.byte	0x3
 2291 0597 00000000 		.4byte	s5
 2292 059b 1C       		.uleb128 0x1c
 2293 059c 733600   		.ascii	"s6\000"
 2294 059f 01       		.byte	0x1
 2295 05a0 32       		.byte	0x32
 2296 05a1 9C000000 		.4byte	0x9c
 2297 05a5 05       		.uleb128 0x5
 2298 05a6 03       		.byte	0x3
 2299 05a7 00000000 		.4byte	s6
 2300 05ab 1D       		.uleb128 0x1d
 2301 05ac A9020000 		.4byte	.LASF84
 2302 05b0 01       		.byte	0x1
 2303 05b1 36       		.byte	0x36
 2304 05b2 B4000000 		.4byte	0xb4
 2305 05b6 05       		.uleb128 0x5
 2306 05b7 03       		.byte	0x3
 2307 05b8 00000000 		.4byte	totalMilliseconds
 2308 05bc 1D       		.uleb128 0x1d
 2309 05bd DF020000 		.4byte	.LASF85
 2310 05c1 01       		.byte	0x1
 2311 05c2 37       		.byte	0x37
 2312 05c3 B4000000 		.4byte	0xb4
 2313 05c7 05       		.uleb128 0x5
 2314 05c8 03       		.byte	0x3
 2315 05c9 00000000 		.4byte	totalDistance
 2316 05cd 1E       		.uleb128 0x1e
 2317 05ce 8A000000 		.4byte	0x8a
 2318 05d2 DD050000 		.4byte	0x5dd
 2319 05d6 1F       		.uleb128 0x1f
 2320 05d7 7D000000 		.4byte	0x7d
 2321 05db 44       		.byte	0x44
 2322 05dc 00       		.byte	0
 2323 05dd 1D       		.uleb128 0x1d
 2324 05de 34040000 		.4byte	.LASF86
 2325 05e2 01       		.byte	0x1
 2326 05e3 39       		.byte	0x39
 2327 05e4 CD050000 		.4byte	0x5cd
 2328 05e8 05       		.uleb128 0x5
 2329 05e9 03       		.byte	0x3
 2330 05ea 00000000 		.4byte	buffer
 2331 05ee 1D       		.uleb128 0x1d
 2332 05ef E5030000 		.4byte	.LASF87
 2333 05f3 01       		.byte	0x1
 2334 05f4 3A       		.byte	0x3a
 2335 05f5 68000000 		.4byte	0x68
 2336 05f9 05       		.uleb128 0x5
 2337 05fa 03       		.byte	0x3
 2338 05fb 00000000 		.4byte	quadDec2Count
 2339 05ff 1D       		.uleb128 0x1d
 2340 0600 60030000 		.4byte	.LASF88
 2341 0604 01       		.byte	0x1
 2342 0605 3B       		.byte	0x3b
ARM GAS  C:\Users\ikui753\AppData\Local\Temp\ccDFj6Ue.s 			page 50


 2343 0606 68000000 		.4byte	0x68
 2344 060a 05       		.uleb128 0x5
 2345 060b 03       		.byte	0x3
 2346 060c 00000000 		.4byte	timerInt
 2347 0610 1D       		.uleb128 0x1d
 2348 0611 ED020000 		.4byte	.LASF89
 2349 0615 01       		.byte	0x1
 2350 0616 3C       		.byte	0x3c
 2351 0617 68000000 		.4byte	0x68
 2352 061b 05       		.uleb128 0x5
 2353 061c 03       		.byte	0x3
 2354 061d 00000000 		.4byte	keepLedOn
 2355 0621 00       		.byte	0
 2356              		.section	.debug_abbrev,"",%progbits
 2357              	.Ldebug_abbrev0:
 2358 0000 01       		.uleb128 0x1
 2359 0001 11       		.uleb128 0x11
 2360 0002 01       		.byte	0x1
 2361 0003 25       		.uleb128 0x25
 2362 0004 0E       		.uleb128 0xe
 2363 0005 13       		.uleb128 0x13
 2364 0006 0B       		.uleb128 0xb
 2365 0007 03       		.uleb128 0x3
 2366 0008 0E       		.uleb128 0xe
 2367 0009 1B       		.uleb128 0x1b
 2368 000a 0E       		.uleb128 0xe
 2369 000b 55       		.uleb128 0x55
 2370 000c 17       		.uleb128 0x17
 2371 000d 11       		.uleb128 0x11
 2372 000e 01       		.uleb128 0x1
 2373 000f 10       		.uleb128 0x10
 2374 0010 17       		.uleb128 0x17
 2375 0011 00       		.byte	0
 2376 0012 00       		.byte	0
 2377 0013 02       		.uleb128 0x2
 2378 0014 24       		.uleb128 0x24
 2379 0015 00       		.byte	0
 2380 0016 0B       		.uleb128 0xb
 2381 0017 0B       		.uleb128 0xb
 2382 0018 3E       		.uleb128 0x3e
 2383 0019 0B       		.uleb128 0xb
 2384 001a 03       		.uleb128 0x3
 2385 001b 0E       		.uleb128 0xe
 2386 001c 00       		.byte	0
 2387 001d 00       		.byte	0
 2388 001e 03       		.uleb128 0x3
 2389 001f 16       		.uleb128 0x16
 2390 0020 00       		.byte	0
 2391 0021 03       		.uleb128 0x3
 2392 0022 0E       		.uleb128 0xe
 2393 0023 3A       		.uleb128 0x3a
 2394 0024 0B       		.uleb128 0xb
 2395 0025 3B       		.uleb128 0x3b
 2396 0026 0B       		.uleb128 0xb
 2397 0027 49       		.uleb128 0x49
 2398 0028 13       		.uleb128 0x13
 2399 0029 00       		.byte	0
ARM GAS  C:\Users\ikui753\AppData\Local\Temp\ccDFj6Ue.s 			page 51


 2400 002a 00       		.byte	0
 2401 002b 04       		.uleb128 0x4
 2402 002c 24       		.uleb128 0x24
 2403 002d 00       		.byte	0
 2404 002e 0B       		.uleb128 0xb
 2405 002f 0B       		.uleb128 0xb
 2406 0030 3E       		.uleb128 0x3e
 2407 0031 0B       		.uleb128 0xb
 2408 0032 03       		.uleb128 0x3
 2409 0033 08       		.uleb128 0x8
 2410 0034 00       		.byte	0
 2411 0035 00       		.byte	0
 2412 0036 05       		.uleb128 0x5
 2413 0037 0F       		.uleb128 0xf
 2414 0038 00       		.byte	0
 2415 0039 0B       		.uleb128 0xb
 2416 003a 0B       		.uleb128 0xb
 2417 003b 49       		.uleb128 0x49
 2418 003c 13       		.uleb128 0x13
 2419 003d 00       		.byte	0
 2420 003e 00       		.byte	0
 2421 003f 06       		.uleb128 0x6
 2422 0040 16       		.uleb128 0x16
 2423 0041 00       		.byte	0
 2424 0042 03       		.uleb128 0x3
 2425 0043 0E       		.uleb128 0xe
 2426 0044 3A       		.uleb128 0x3a
 2427 0045 0B       		.uleb128 0xb
 2428 0046 3B       		.uleb128 0x3b
 2429 0047 05       		.uleb128 0x5
 2430 0048 49       		.uleb128 0x49
 2431 0049 13       		.uleb128 0x13
 2432 004a 00       		.byte	0
 2433 004b 00       		.byte	0
 2434 004c 07       		.uleb128 0x7
 2435 004d 13       		.uleb128 0x13
 2436 004e 01       		.byte	0x1
 2437 004f 03       		.uleb128 0x3
 2438 0050 0E       		.uleb128 0xe
 2439 0051 0B       		.uleb128 0xb
 2440 0052 0B       		.uleb128 0xb
 2441 0053 3A       		.uleb128 0x3a
 2442 0054 0B       		.uleb128 0xb
 2443 0055 3B       		.uleb128 0x3b
 2444 0056 0B       		.uleb128 0xb
 2445 0057 01       		.uleb128 0x1
 2446 0058 13       		.uleb128 0x13
 2447 0059 00       		.byte	0
 2448 005a 00       		.byte	0
 2449 005b 08       		.uleb128 0x8
 2450 005c 0D       		.uleb128 0xd
 2451 005d 00       		.byte	0
 2452 005e 03       		.uleb128 0x3
 2453 005f 0E       		.uleb128 0xe
 2454 0060 3A       		.uleb128 0x3a
 2455 0061 0B       		.uleb128 0xb
 2456 0062 3B       		.uleb128 0x3b
ARM GAS  C:\Users\ikui753\AppData\Local\Temp\ccDFj6Ue.s 			page 52


 2457 0063 0B       		.uleb128 0xb
 2458 0064 49       		.uleb128 0x49
 2459 0065 13       		.uleb128 0x13
 2460 0066 38       		.uleb128 0x38
 2461 0067 0B       		.uleb128 0xb
 2462 0068 00       		.byte	0
 2463 0069 00       		.byte	0
 2464 006a 09       		.uleb128 0x9
 2465 006b 04       		.uleb128 0x4
 2466 006c 01       		.byte	0x1
 2467 006d 03       		.uleb128 0x3
 2468 006e 0E       		.uleb128 0xe
 2469 006f 0B       		.uleb128 0xb
 2470 0070 0B       		.uleb128 0xb
 2471 0071 49       		.uleb128 0x49
 2472 0072 13       		.uleb128 0x13
 2473 0073 3A       		.uleb128 0x3a
 2474 0074 0B       		.uleb128 0xb
 2475 0075 3B       		.uleb128 0x3b
 2476 0076 0B       		.uleb128 0xb
 2477 0077 01       		.uleb128 0x1
 2478 0078 13       		.uleb128 0x13
 2479 0079 00       		.byte	0
 2480 007a 00       		.byte	0
 2481 007b 0A       		.uleb128 0xa
 2482 007c 28       		.uleb128 0x28
 2483 007d 00       		.byte	0
 2484 007e 03       		.uleb128 0x3
 2485 007f 0E       		.uleb128 0xe
 2486 0080 1C       		.uleb128 0x1c
 2487 0081 0B       		.uleb128 0xb
 2488 0082 00       		.byte	0
 2489 0083 00       		.byte	0
 2490 0084 0B       		.uleb128 0xb
 2491 0085 2E       		.uleb128 0x2e
 2492 0086 00       		.byte	0
 2493 0087 3F       		.uleb128 0x3f
 2494 0088 19       		.uleb128 0x19
 2495 0089 03       		.uleb128 0x3
 2496 008a 0E       		.uleb128 0xe
 2497 008b 3A       		.uleb128 0x3a
 2498 008c 0B       		.uleb128 0xb
 2499 008d 3B       		.uleb128 0x3b
 2500 008e 0B       		.uleb128 0xb
 2501 008f 27       		.uleb128 0x27
 2502 0090 19       		.uleb128 0x19
 2503 0091 11       		.uleb128 0x11
 2504 0092 01       		.uleb128 0x1
 2505 0093 12       		.uleb128 0x12
 2506 0094 06       		.uleb128 0x6
 2507 0095 40       		.uleb128 0x40
 2508 0096 18       		.uleb128 0x18
 2509 0097 9642     		.uleb128 0x2116
 2510 0099 19       		.uleb128 0x19
 2511 009a 00       		.byte	0
 2512 009b 00       		.byte	0
 2513 009c 0C       		.uleb128 0xc
ARM GAS  C:\Users\ikui753\AppData\Local\Temp\ccDFj6Ue.s 			page 53


 2514 009d 2E       		.uleb128 0x2e
 2515 009e 00       		.byte	0
 2516 009f 3F       		.uleb128 0x3f
 2517 00a0 19       		.uleb128 0x19
 2518 00a1 03       		.uleb128 0x3
 2519 00a2 0E       		.uleb128 0xe
 2520 00a3 3A       		.uleb128 0x3a
 2521 00a4 0B       		.uleb128 0xb
 2522 00a5 3B       		.uleb128 0x3b
 2523 00a6 0B       		.uleb128 0xb
 2524 00a7 27       		.uleb128 0x27
 2525 00a8 19       		.uleb128 0x19
 2526 00a9 11       		.uleb128 0x11
 2527 00aa 01       		.uleb128 0x1
 2528 00ab 12       		.uleb128 0x12
 2529 00ac 06       		.uleb128 0x6
 2530 00ad 40       		.uleb128 0x40
 2531 00ae 18       		.uleb128 0x18
 2532 00af 9742     		.uleb128 0x2117
 2533 00b1 19       		.uleb128 0x19
 2534 00b2 00       		.byte	0
 2535 00b3 00       		.byte	0
 2536 00b4 0D       		.uleb128 0xd
 2537 00b5 2E       		.uleb128 0x2e
 2538 00b6 00       		.byte	0
 2539 00b7 3F       		.uleb128 0x3f
 2540 00b8 19       		.uleb128 0x19
 2541 00b9 03       		.uleb128 0x3
 2542 00ba 0E       		.uleb128 0xe
 2543 00bb 3A       		.uleb128 0x3a
 2544 00bc 0B       		.uleb128 0xb
 2545 00bd 3B       		.uleb128 0x3b
 2546 00be 0B       		.uleb128 0xb
 2547 00bf 49       		.uleb128 0x49
 2548 00c0 13       		.uleb128 0x13
 2549 00c1 11       		.uleb128 0x11
 2550 00c2 01       		.uleb128 0x1
 2551 00c3 12       		.uleb128 0x12
 2552 00c4 06       		.uleb128 0x6
 2553 00c5 40       		.uleb128 0x40
 2554 00c6 18       		.uleb128 0x18
 2555 00c7 9642     		.uleb128 0x2116
 2556 00c9 19       		.uleb128 0x19
 2557 00ca 00       		.byte	0
 2558 00cb 00       		.byte	0
 2559 00cc 0E       		.uleb128 0xe
 2560 00cd 2E       		.uleb128 0x2e
 2561 00ce 01       		.byte	0x1
 2562 00cf 3F       		.uleb128 0x3f
 2563 00d0 19       		.uleb128 0x19
 2564 00d1 03       		.uleb128 0x3
 2565 00d2 0E       		.uleb128 0xe
 2566 00d3 3A       		.uleb128 0x3a
 2567 00d4 0B       		.uleb128 0xb
 2568 00d5 3B       		.uleb128 0x3b
 2569 00d6 0B       		.uleb128 0xb
 2570 00d7 27       		.uleb128 0x27
ARM GAS  C:\Users\ikui753\AppData\Local\Temp\ccDFj6Ue.s 			page 54


 2571 00d8 19       		.uleb128 0x19
 2572 00d9 49       		.uleb128 0x49
 2573 00da 13       		.uleb128 0x13
 2574 00db 11       		.uleb128 0x11
 2575 00dc 01       		.uleb128 0x1
 2576 00dd 12       		.uleb128 0x12
 2577 00de 06       		.uleb128 0x6
 2578 00df 40       		.uleb128 0x40
 2579 00e0 18       		.uleb128 0x18
 2580 00e1 9642     		.uleb128 0x2116
 2581 00e3 19       		.uleb128 0x19
 2582 00e4 01       		.uleb128 0x1
 2583 00e5 13       		.uleb128 0x13
 2584 00e6 00       		.byte	0
 2585 00e7 00       		.byte	0
 2586 00e8 0F       		.uleb128 0xf
 2587 00e9 05       		.uleb128 0x5
 2588 00ea 00       		.byte	0
 2589 00eb 03       		.uleb128 0x3
 2590 00ec 0E       		.uleb128 0xe
 2591 00ed 3A       		.uleb128 0x3a
 2592 00ee 0B       		.uleb128 0xb
 2593 00ef 3B       		.uleb128 0x3b
 2594 00f0 0B       		.uleb128 0xb
 2595 00f1 49       		.uleb128 0x49
 2596 00f2 13       		.uleb128 0x13
 2597 00f3 02       		.uleb128 0x2
 2598 00f4 18       		.uleb128 0x18
 2599 00f5 00       		.byte	0
 2600 00f6 00       		.byte	0
 2601 00f7 10       		.uleb128 0x10
 2602 00f8 34       		.uleb128 0x34
 2603 00f9 00       		.byte	0
 2604 00fa 03       		.uleb128 0x3
 2605 00fb 08       		.uleb128 0x8
 2606 00fc 3A       		.uleb128 0x3a
 2607 00fd 0B       		.uleb128 0xb
 2608 00fe 3B       		.uleb128 0x3b
 2609 00ff 0B       		.uleb128 0xb
 2610 0100 49       		.uleb128 0x49
 2611 0101 13       		.uleb128 0x13
 2612 0102 02       		.uleb128 0x2
 2613 0103 18       		.uleb128 0x18
 2614 0104 00       		.byte	0
 2615 0105 00       		.byte	0
 2616 0106 11       		.uleb128 0x11
 2617 0107 2E       		.uleb128 0x2e
 2618 0108 00       		.byte	0
 2619 0109 3F       		.uleb128 0x3f
 2620 010a 19       		.uleb128 0x19
 2621 010b 03       		.uleb128 0x3
 2622 010c 0E       		.uleb128 0xe
 2623 010d 3A       		.uleb128 0x3a
 2624 010e 0B       		.uleb128 0xb
 2625 010f 3B       		.uleb128 0x3b
 2626 0110 0B       		.uleb128 0xb
 2627 0111 11       		.uleb128 0x11
ARM GAS  C:\Users\ikui753\AppData\Local\Temp\ccDFj6Ue.s 			page 55


 2628 0112 01       		.uleb128 0x1
 2629 0113 12       		.uleb128 0x12
 2630 0114 06       		.uleb128 0x6
 2631 0115 40       		.uleb128 0x40
 2632 0116 18       		.uleb128 0x18
 2633 0117 9742     		.uleb128 0x2117
 2634 0119 19       		.uleb128 0x19
 2635 011a 00       		.byte	0
 2636 011b 00       		.byte	0
 2637 011c 12       		.uleb128 0x12
 2638 011d 2E       		.uleb128 0x2e
 2639 011e 01       		.byte	0x1
 2640 011f 3F       		.uleb128 0x3f
 2641 0120 19       		.uleb128 0x19
 2642 0121 03       		.uleb128 0x3
 2643 0122 0E       		.uleb128 0xe
 2644 0123 3A       		.uleb128 0x3a
 2645 0124 0B       		.uleb128 0xb
 2646 0125 3B       		.uleb128 0x3b
 2647 0126 0B       		.uleb128 0xb
 2648 0127 49       		.uleb128 0x49
 2649 0128 13       		.uleb128 0x13
 2650 0129 11       		.uleb128 0x11
 2651 012a 01       		.uleb128 0x1
 2652 012b 12       		.uleb128 0x12
 2653 012c 06       		.uleb128 0x6
 2654 012d 40       		.uleb128 0x40
 2655 012e 18       		.uleb128 0x18
 2656 012f 9642     		.uleb128 0x2116
 2657 0131 19       		.uleb128 0x19
 2658 0132 01       		.uleb128 0x1
 2659 0133 13       		.uleb128 0x13
 2660 0134 00       		.byte	0
 2661 0135 00       		.byte	0
 2662 0136 13       		.uleb128 0x13
 2663 0137 34       		.uleb128 0x34
 2664 0138 00       		.byte	0
 2665 0139 03       		.uleb128 0x3
 2666 013a 0E       		.uleb128 0xe
 2667 013b 3A       		.uleb128 0x3a
 2668 013c 0B       		.uleb128 0xb
 2669 013d 3B       		.uleb128 0x3b
 2670 013e 0B       		.uleb128 0xb
 2671 013f 49       		.uleb128 0x49
 2672 0140 13       		.uleb128 0x13
 2673 0141 02       		.uleb128 0x2
 2674 0142 18       		.uleb128 0x18
 2675 0143 00       		.byte	0
 2676 0144 00       		.byte	0
 2677 0145 14       		.uleb128 0x14
 2678 0146 2E       		.uleb128 0x2e
 2679 0147 00       		.byte	0
 2680 0148 3F       		.uleb128 0x3f
 2681 0149 19       		.uleb128 0x19
 2682 014a 03       		.uleb128 0x3
 2683 014b 0E       		.uleb128 0xe
 2684 014c 3A       		.uleb128 0x3a
ARM GAS  C:\Users\ikui753\AppData\Local\Temp\ccDFj6Ue.s 			page 56


 2685 014d 0B       		.uleb128 0xb
 2686 014e 3B       		.uleb128 0x3b
 2687 014f 05       		.uleb128 0x5
 2688 0150 11       		.uleb128 0x11
 2689 0151 01       		.uleb128 0x1
 2690 0152 12       		.uleb128 0x12
 2691 0153 06       		.uleb128 0x6
 2692 0154 40       		.uleb128 0x40
 2693 0155 18       		.uleb128 0x18
 2694 0156 9642     		.uleb128 0x2116
 2695 0158 19       		.uleb128 0x19
 2696 0159 00       		.byte	0
 2697 015a 00       		.byte	0
 2698 015b 15       		.uleb128 0x15
 2699 015c 2E       		.uleb128 0x2e
 2700 015d 01       		.byte	0x1
 2701 015e 3F       		.uleb128 0x3f
 2702 015f 19       		.uleb128 0x19
 2703 0160 03       		.uleb128 0x3
 2704 0161 0E       		.uleb128 0xe
 2705 0162 3A       		.uleb128 0x3a
 2706 0163 0B       		.uleb128 0xb
 2707 0164 3B       		.uleb128 0x3b
 2708 0165 05       		.uleb128 0x5
 2709 0166 27       		.uleb128 0x27
 2710 0167 19       		.uleb128 0x19
 2711 0168 11       		.uleb128 0x11
 2712 0169 01       		.uleb128 0x1
 2713 016a 12       		.uleb128 0x12
 2714 016b 06       		.uleb128 0x6
 2715 016c 40       		.uleb128 0x40
 2716 016d 18       		.uleb128 0x18
 2717 016e 9642     		.uleb128 0x2116
 2718 0170 19       		.uleb128 0x19
 2719 0171 01       		.uleb128 0x1
 2720 0172 13       		.uleb128 0x13
 2721 0173 00       		.byte	0
 2722 0174 00       		.byte	0
 2723 0175 16       		.uleb128 0x16
 2724 0176 05       		.uleb128 0x5
 2725 0177 00       		.byte	0
 2726 0178 03       		.uleb128 0x3
 2727 0179 08       		.uleb128 0x8
 2728 017a 3A       		.uleb128 0x3a
 2729 017b 0B       		.uleb128 0xb
 2730 017c 3B       		.uleb128 0x3b
 2731 017d 05       		.uleb128 0x5
 2732 017e 49       		.uleb128 0x49
 2733 017f 13       		.uleb128 0x13
 2734 0180 02       		.uleb128 0x2
 2735 0181 18       		.uleb128 0x18
 2736 0182 00       		.byte	0
 2737 0183 00       		.byte	0
 2738 0184 17       		.uleb128 0x17
 2739 0185 2E       		.uleb128 0x2e
 2740 0186 01       		.byte	0x1
 2741 0187 3F       		.uleb128 0x3f
ARM GAS  C:\Users\ikui753\AppData\Local\Temp\ccDFj6Ue.s 			page 57


 2742 0188 19       		.uleb128 0x19
 2743 0189 03       		.uleb128 0x3
 2744 018a 0E       		.uleb128 0xe
 2745 018b 3A       		.uleb128 0x3a
 2746 018c 0B       		.uleb128 0xb
 2747 018d 3B       		.uleb128 0x3b
 2748 018e 05       		.uleb128 0x5
 2749 018f 11       		.uleb128 0x11
 2750 0190 01       		.uleb128 0x1
 2751 0191 12       		.uleb128 0x12
 2752 0192 06       		.uleb128 0x6
 2753 0193 40       		.uleb128 0x40
 2754 0194 18       		.uleb128 0x18
 2755 0195 9642     		.uleb128 0x2116
 2756 0197 19       		.uleb128 0x19
 2757 0198 01       		.uleb128 0x1
 2758 0199 13       		.uleb128 0x13
 2759 019a 00       		.byte	0
 2760 019b 00       		.byte	0
 2761 019c 18       		.uleb128 0x18
 2762 019d 34       		.uleb128 0x34
 2763 019e 00       		.byte	0
 2764 019f 03       		.uleb128 0x3
 2765 01a0 0E       		.uleb128 0xe
 2766 01a1 3A       		.uleb128 0x3a
 2767 01a2 0B       		.uleb128 0xb
 2768 01a3 3B       		.uleb128 0x3b
 2769 01a4 05       		.uleb128 0x5
 2770 01a5 49       		.uleb128 0x49
 2771 01a6 13       		.uleb128 0x13
 2772 01a7 02       		.uleb128 0x2
 2773 01a8 18       		.uleb128 0x18
 2774 01a9 00       		.byte	0
 2775 01aa 00       		.byte	0
 2776 01ab 19       		.uleb128 0x19
 2777 01ac 34       		.uleb128 0x34
 2778 01ad 00       		.byte	0
 2779 01ae 03       		.uleb128 0x3
 2780 01af 08       		.uleb128 0x8
 2781 01b0 3A       		.uleb128 0x3a
 2782 01b1 0B       		.uleb128 0xb
 2783 01b2 3B       		.uleb128 0x3b
 2784 01b3 05       		.uleb128 0x5
 2785 01b4 49       		.uleb128 0x49
 2786 01b5 13       		.uleb128 0x13
 2787 01b6 02       		.uleb128 0x2
 2788 01b7 18       		.uleb128 0x18
 2789 01b8 00       		.byte	0
 2790 01b9 00       		.byte	0
 2791 01ba 1A       		.uleb128 0x1a
 2792 01bb 34       		.uleb128 0x34
 2793 01bc 00       		.byte	0
 2794 01bd 03       		.uleb128 0x3
 2795 01be 0E       		.uleb128 0xe
 2796 01bf 3A       		.uleb128 0x3a
 2797 01c0 0B       		.uleb128 0xb
 2798 01c1 3B       		.uleb128 0x3b
ARM GAS  C:\Users\ikui753\AppData\Local\Temp\ccDFj6Ue.s 			page 58


 2799 01c2 05       		.uleb128 0x5
 2800 01c3 49       		.uleb128 0x49
 2801 01c4 13       		.uleb128 0x13
 2802 01c5 3F       		.uleb128 0x3f
 2803 01c6 19       		.uleb128 0x19
 2804 01c7 3C       		.uleb128 0x3c
 2805 01c8 19       		.uleb128 0x19
 2806 01c9 00       		.byte	0
 2807 01ca 00       		.byte	0
 2808 01cb 1B       		.uleb128 0x1b
 2809 01cc 35       		.uleb128 0x35
 2810 01cd 00       		.byte	0
 2811 01ce 49       		.uleb128 0x49
 2812 01cf 13       		.uleb128 0x13
 2813 01d0 00       		.byte	0
 2814 01d1 00       		.byte	0
 2815 01d2 1C       		.uleb128 0x1c
 2816 01d3 34       		.uleb128 0x34
 2817 01d4 00       		.byte	0
 2818 01d5 03       		.uleb128 0x3
 2819 01d6 08       		.uleb128 0x8
 2820 01d7 3A       		.uleb128 0x3a
 2821 01d8 0B       		.uleb128 0xb
 2822 01d9 3B       		.uleb128 0x3b
 2823 01da 0B       		.uleb128 0xb
 2824 01db 49       		.uleb128 0x49
 2825 01dc 13       		.uleb128 0x13
 2826 01dd 3F       		.uleb128 0x3f
 2827 01de 19       		.uleb128 0x19
 2828 01df 02       		.uleb128 0x2
 2829 01e0 18       		.uleb128 0x18
 2830 01e1 00       		.byte	0
 2831 01e2 00       		.byte	0
 2832 01e3 1D       		.uleb128 0x1d
 2833 01e4 34       		.uleb128 0x34
 2834 01e5 00       		.byte	0
 2835 01e6 03       		.uleb128 0x3
 2836 01e7 0E       		.uleb128 0xe
 2837 01e8 3A       		.uleb128 0x3a
 2838 01e9 0B       		.uleb128 0xb
 2839 01ea 3B       		.uleb128 0x3b
 2840 01eb 0B       		.uleb128 0xb
 2841 01ec 49       		.uleb128 0x49
 2842 01ed 13       		.uleb128 0x13
 2843 01ee 3F       		.uleb128 0x3f
 2844 01ef 19       		.uleb128 0x19
 2845 01f0 02       		.uleb128 0x2
 2846 01f1 18       		.uleb128 0x18
 2847 01f2 00       		.byte	0
 2848 01f3 00       		.byte	0
 2849 01f4 1E       		.uleb128 0x1e
 2850 01f5 01       		.uleb128 0x1
 2851 01f6 01       		.byte	0x1
 2852 01f7 49       		.uleb128 0x49
 2853 01f8 13       		.uleb128 0x13
 2854 01f9 01       		.uleb128 0x1
 2855 01fa 13       		.uleb128 0x13
ARM GAS  C:\Users\ikui753\AppData\Local\Temp\ccDFj6Ue.s 			page 59


 2856 01fb 00       		.byte	0
 2857 01fc 00       		.byte	0
 2858 01fd 1F       		.uleb128 0x1f
 2859 01fe 21       		.uleb128 0x21
 2860 01ff 00       		.byte	0
 2861 0200 49       		.uleb128 0x49
 2862 0201 13       		.uleb128 0x13
 2863 0202 2F       		.uleb128 0x2f
 2864 0203 0B       		.uleb128 0xb
 2865 0204 00       		.byte	0
 2866 0205 00       		.byte	0
 2867 0206 00       		.byte	0
 2868              		.section	.debug_aranges,"",%progbits
 2869 0000 94000000 		.4byte	0x94
 2870 0004 0200     		.2byte	0x2
 2871 0006 00000000 		.4byte	.Ldebug_info0
 2872 000a 04       		.byte	0x4
 2873 000b 00       		.byte	0
 2874 000c 0000     		.2byte	0
 2875 000e 0000     		.2byte	0
 2876 0010 00000000 		.4byte	.LFB64
 2877 0014 C8000000 		.4byte	.LFE64-.LFB64
 2878 0018 00000000 		.4byte	.LFB65
 2879 001c 18000000 		.4byte	.LFE65-.LFB65
 2880 0020 00000000 		.4byte	.LFB66
 2881 0024 18000000 		.4byte	.LFE66-.LFB66
 2882 0028 00000000 		.4byte	.LFB67
 2883 002c 18000000 		.4byte	.LFE67-.LFB67
 2884 0030 00000000 		.4byte	.LFB68
 2885 0034 18000000 		.4byte	.LFE68-.LFB68
 2886 0038 00000000 		.4byte	.LFB69
 2887 003c 18000000 		.4byte	.LFE69-.LFB69
 2888 0040 00000000 		.4byte	.LFB70
 2889 0044 18000000 		.4byte	.LFE70-.LFB70
 2890 0048 00000000 		.4byte	.LFB71
 2891 004c 14000000 		.4byte	.LFE71-.LFB71
 2892 0050 00000000 		.4byte	.LFB72
 2893 0054 AC000000 		.4byte	.LFE72-.LFB72
 2894 0058 00000000 		.4byte	.LFB73
 2895 005c 6C000000 		.4byte	.LFE73-.LFB73
 2896 0060 00000000 		.4byte	.LFB74
 2897 0064 48000000 		.4byte	.LFE74-.LFB74
 2898 0068 00000000 		.4byte	.LFB75
 2899 006c D0010000 		.4byte	.LFE75-.LFB75
 2900 0070 00000000 		.4byte	.LFB76
 2901 0074 38010000 		.4byte	.LFE76-.LFB76
 2902 0078 00000000 		.4byte	.LFB77
 2903 007c 3E000000 		.4byte	.LFE77-.LFB77
 2904 0080 00000000 		.4byte	.LFB78
 2905 0084 26000000 		.4byte	.LFE78-.LFB78
 2906 0088 00000000 		.4byte	.LFB79
 2907 008c C8000000 		.4byte	.LFE79-.LFB79
 2908 0090 00000000 		.4byte	0
 2909 0094 00000000 		.4byte	0
 2910              		.section	.debug_ranges,"",%progbits
 2911              	.Ldebug_ranges0:
 2912 0000 00000000 		.4byte	.LFB64
ARM GAS  C:\Users\ikui753\AppData\Local\Temp\ccDFj6Ue.s 			page 60


 2913 0004 C8000000 		.4byte	.LFE64
 2914 0008 00000000 		.4byte	.LFB65
 2915 000c 18000000 		.4byte	.LFE65
 2916 0010 00000000 		.4byte	.LFB66
 2917 0014 18000000 		.4byte	.LFE66
 2918 0018 00000000 		.4byte	.LFB67
 2919 001c 18000000 		.4byte	.LFE67
 2920 0020 00000000 		.4byte	.LFB68
 2921 0024 18000000 		.4byte	.LFE68
 2922 0028 00000000 		.4byte	.LFB69
 2923 002c 18000000 		.4byte	.LFE69
 2924 0030 00000000 		.4byte	.LFB70
 2925 0034 18000000 		.4byte	.LFE70
 2926 0038 00000000 		.4byte	.LFB71
 2927 003c 14000000 		.4byte	.LFE71
 2928 0040 00000000 		.4byte	.LFB72
 2929 0044 AC000000 		.4byte	.LFE72
 2930 0048 00000000 		.4byte	.LFB73
 2931 004c 6C000000 		.4byte	.LFE73
 2932 0050 00000000 		.4byte	.LFB74
 2933 0054 48000000 		.4byte	.LFE74
 2934 0058 00000000 		.4byte	.LFB75
 2935 005c D0010000 		.4byte	.LFE75
 2936 0060 00000000 		.4byte	.LFB76
 2937 0064 38010000 		.4byte	.LFE76
 2938 0068 00000000 		.4byte	.LFB77
 2939 006c 3E000000 		.4byte	.LFE77
 2940 0070 00000000 		.4byte	.LFB78
 2941 0074 26000000 		.4byte	.LFE78
 2942 0078 00000000 		.4byte	.LFB79
 2943 007c C8000000 		.4byte	.LFE79
 2944 0080 00000000 		.4byte	0
 2945 0084 00000000 		.4byte	0
 2946              		.section	.debug_line,"",%progbits
 2947              	.Ldebug_line0:
 2948 0000 30040000 		.section	.debug_str,"MS",%progbits,1
 2948      02005601 
 2948      00000201 
 2948      FB0E0D00 
 2948      01010101 
 2949              	.LASF51:
 2950 0000 53365F44 		.ascii	"S6_DETECTED\000"
 2950      45544543 
 2950      54454400 
 2951              	.LASF60:
 2952 000c 75736250 		.ascii	"usbPutChar\000"
 2952      75744368 
 2952      617200
 2953              	.LASF40:
 2954 0017 5475726E 		.ascii	"TurnLeft\000"
 2954      4C656674 
 2954      00
 2955              	.LASF64:
 2956 0020 74735F65 		.ascii	"ts_enc\000"
 2956      6E6300
 2957              	.LASF20:
 2958 0027 646F7562 		.ascii	"double\000"
ARM GAS  C:\Users\ikui753\AppData\Local\Temp\ccDFj6Ue.s 			page 61


 2958      6C6500
 2959              	.LASF73:
 2960 002e 666C6167 		.ascii	"flag_packet\000"
 2960      5F706163 
 2960      6B657400 
 2961              	.LASF70:
 2962 003a 666C6167 		.ascii	"flag_ts_speed\000"
 2962      5F74735F 
 2962      73706565 
 2962      6400
 2963              	.LASF34:
 2964 0048 67325F78 		.ascii	"g2_xpos\000"
 2964      706F7300 
 2965              	.LASF2:
 2966 0050 73686F72 		.ascii	"short int\000"
 2966      7420696E 
 2966      7400
 2967              	.LASF52:
 2968 005a 5349474E 		.ascii	"SIGNAL_TIMER_FINISH\000"
 2968      414C5F54 
 2968      494D4552 
 2968      5F46494E 
 2968      49534800 
 2969              	.LASF81:
 2970 006e 73797374 		.ascii	"system_state\000"
 2970      656D5F73 
 2970      74617465 
 2970      00
 2971              	.LASF10:
 2972 007b 73697A65 		.ascii	"sizetype\000"
 2972      74797065 
 2972      00
 2973              	.LASF94:
 2974 0084 44697265 		.ascii	"DirectionState\000"
 2974      6374696F 
 2974      6E537461 
 2974      746500
 2975              	.LASF80:
 2976 0093 75736242 		.ascii	"usbBuffer\000"
 2976      75666665 
 2976      7200
 2977              	.LASF90:
 2978 009d 474E5520 		.ascii	"GNU C11 5.4.1 20160609 (release) [ARM/embedded-5-br"
 2978      43313120 
 2978      352E342E 
 2978      31203230 
 2978      31363036 
 2979 00d0 616E6368 		.ascii	"anch revision 237715] -mcpu=cortex-m3 -mthumb -g -O"
 2979      20726576 
 2979      6973696F 
 2979      6E203233 
 2979      37373135 
 2980 0103 30202D66 		.ascii	"0 -ffunction-sections -ffat-lto-objects\000"
 2980      66756E63 
 2980      74696F6E 
 2980      2D736563 
 2980      74696F6E 
ARM GAS  C:\Users\ikui753\AppData\Local\Temp\ccDFj6Ue.s 			page 62


 2981              	.LASF53:
 2982 012b 6D61696E 		.ascii	"main\000"
 2982      00
 2983              	.LASF49:
 2984 0130 53345F44 		.ascii	"S4_DETECTED\000"
 2984      45544543 
 2984      54454400 
 2985              	.LASF41:
 2986 013c 41646A75 		.ascii	"AdjustToTheLeft\000"
 2986      7374546F 
 2986      5468654C 
 2986      65667400 
 2987              	.LASF15:
 2988 014c 75696E74 		.ascii	"uint16\000"
 2988      313600
 2989              	.LASF22:
 2990 0153 696E6465 		.ascii	"index\000"
 2990      7800
 2991              	.LASF45:
 2992 0159 73706565 		.ascii	"speedTimer\000"
 2992      6454696D 
 2992      657200
 2993              	.LASF18:
 2994 0164 696E7431 		.ascii	"int16\000"
 2994      3600
 2995              	.LASF14:
 2996 016a 75696E74 		.ascii	"uint8\000"
 2996      3800
 2997              	.LASF33:
 2998 0170 67315F64 		.ascii	"g1_direction\000"
 2998      69726563 
 2998      74696F6E 
 2998      00
 2999              	.LASF78:
 3000 017d 6C696E65 		.ascii	"line\000"
 3000      00
 3001              	.LASF19:
 3002 0182 666C6F61 		.ascii	"float\000"
 3002      7400
 3003              	.LASF6:
 3004 0188 6C6F6E67 		.ascii	"long long int\000"
 3004      206C6F6E 
 3004      6720696E 
 3004      7400
 3005              	.LASF58:
 3006 0196 75736250 		.ascii	"usbPutString\000"
 3006      75745374 
 3006      72696E67 
 3006      00
 3007              	.LASF17:
 3008 01a3 696E7438 		.ascii	"int8\000"
 3008      00
 3009              	.LASF69:
 3010 01a8 666C6167 		.ascii	"flag_ts_update\000"
 3010      5F74735F 
 3010      75706461 
 3010      746500
ARM GAS  C:\Users\ikui753\AppData\Local\Temp\ccDFj6Ue.s 			page 63


 3011              	.LASF35:
 3012 01b7 67325F79 		.ascii	"g2_ypos\000"
 3012      706F7300 
 3013              	.LASF29:
 3014 01bf 67305F64 		.ascii	"g0_direction\000"
 3014      69726563 
 3014      74696F6E 
 3014      00
 3015              	.LASF26:
 3016 01cc 67305F78 		.ascii	"g0_xpos\000"
 3016      706F7300 
 3017              	.LASF4:
 3018 01d4 6C6F6E67 		.ascii	"long int\000"
 3018      20696E74 
 3018      00
 3019              	.LASF57:
 3020 01dd 43686563 		.ascii	"CheckSensorDirection\000"
 3020      6B53656E 
 3020      736F7244 
 3020      69726563 
 3020      74696F6E 
 3021              	.LASF47:
 3022 01f2 53325F44 		.ascii	"S2_DETECTED\000"
 3022      45544543 
 3022      54454400 
 3023              	.LASF92:
 3024 01fe 433A5C55 		.ascii	"C:\\Users\\ikui753\\OneDrive - The University of Au"
 3024      73657273 
 3024      5C696B75 
 3024      69373533 
 3024      5C4F6E65 
 3025 022e 636B6C61 		.ascii	"ckland\\Documents\\GitHub\\301-Robot\\psoc student "
 3025      6E645C44 
 3025      6F63756D 
 3025      656E7473 
 3025      5C476974 
 3026 025d 7061636B 		.ascii	"pack\\psoc_code_base\\CS301_Class.cydsn\000"
 3026      5C70736F 
 3026      635F636F 
 3026      64655F62 
 3026      6173655C 
 3027              	.LASF71:
 3028 0283 666C6167 		.ascii	"flag_ts_display\000"
 3028      5F74735F 
 3028      64697370 
 3028      6C617900 
 3029              	.LASF72:
 3030 0293 666C6167 		.ascii	"flag_rx\000"
 3030      5F727800 
 3031              	.LASF1:
 3032 029b 756E7369 		.ascii	"unsigned char\000"
 3032      676E6564 
 3032      20636861 
 3032      7200
 3033              	.LASF84:
 3034 02a9 746F7461 		.ascii	"totalMilliseconds\000"
 3034      6C4D696C 
ARM GAS  C:\Users\ikui753\AppData\Local\Temp\ccDFj6Ue.s 			page 64


 3034      6C697365 
 3034      636F6E64 
 3034      7300
 3035              	.LASF79:
 3036 02bb 656E7472 		.ascii	"entry\000"
 3036      7900
 3037              	.LASF9:
 3038 02c1 6C6F6E67 		.ascii	"long double\000"
 3038      20646F75 
 3038      626C6500 
 3039              	.LASF83:
 3040 02cd 70726576 		.ascii	"previousDirection\000"
 3040      696F7573 
 3040      44697265 
 3040      6374696F 
 3040      6E00
 3041              	.LASF85:
 3042 02df 746F7461 		.ascii	"totalDistance\000"
 3042      6C446973 
 3042      74616E63 
 3042      6500
 3043              	.LASF89:
 3044 02ed 6B656570 		.ascii	"keepLedOn\000"
 3044      4C65644F 
 3044      6E00
 3045              	.LASF28:
 3046 02f7 67305F73 		.ascii	"g0_speed\000"
 3046      70656564 
 3046      00
 3047              	.LASF75:
 3048 0300 64617461 		.ascii	"dataready_flag\000"
 3048      72656164 
 3048      795F666C 
 3048      616700
 3049              	.LASF30:
 3050 030f 67315F78 		.ascii	"g1_xpos\000"
 3050      706F7300 
 3051              	.LASF0:
 3052 0317 7369676E 		.ascii	"signed char\000"
 3052      65642063 
 3052      68617200 
 3053              	.LASF13:
 3054 0323 696E7433 		.ascii	"int32_t\000"
 3054      325F7400 
 3055              	.LASF7:
 3056 032b 6C6F6E67 		.ascii	"long long unsigned int\000"
 3056      206C6F6E 
 3056      6720756E 
 3056      7369676E 
 3056      65642069 
 3057              	.LASF42:
 3058 0342 41646A75 		.ascii	"AdjustToTheRight\000"
 3058      7374546F 
 3058      54686552 
 3058      69676874 
 3058      00
 3059              	.LASF8:
ARM GAS  C:\Users\ikui753\AppData\Local\Temp\ccDFj6Ue.s 			page 65


 3060 0353 756E7369 		.ascii	"unsigned int\000"
 3060      676E6564 
 3060      20696E74 
 3060      00
 3061              	.LASF88:
 3062 0360 74696D65 		.ascii	"timerInt\000"
 3062      72496E74 
 3062      00
 3063              	.LASF74:
 3064 0369 666C6167 		.ascii	"flag_KB_string\000"
 3064      5F4B425F 
 3064      73747269 
 3064      6E6700
 3065              	.LASF62:
 3066 0378 75736242 		.ascii	"usbBufCount\000"
 3066      7566436F 
 3066      756E7400 
 3067              	.LASF56:
 3068 0384 53657452 		.ascii	"SetRobotMovement\000"
 3068      6F626F74 
 3068      4D6F7665 
 3068      6D656E74 
 3068      00
 3069              	.LASF36:
 3070 0395 67325F73 		.ascii	"g2_speed\000"
 3070      70656564 
 3070      00
 3071              	.LASF50:
 3072 039e 53355F44 		.ascii	"S5_DETECTED\000"
 3072      45544543 
 3072      54454400 
 3073              	.LASF3:
 3074 03aa 73686F72 		.ascii	"short unsigned int\000"
 3074      7420756E 
 3074      7369676E 
 3074      65642069 
 3074      6E7400
 3075              	.LASF93:
 3076 03bd 64617461 		.ascii	"data_main\000"
 3076      5F6D6169 
 3076      6E00
 3077              	.LASF55:
 3078 03c7 52657365 		.ascii	"ResetSensorFlags\000"
 3078      7453656E 
 3078      736F7246 
 3078      6C616773 
 3078      00
 3079              	.LASF11:
 3080 03d8 63686172 		.ascii	"char\000"
 3080      00
 3081              	.LASF38:
 3082 03dd 466F7277 		.ascii	"Forward\000"
 3082      61726400 
 3083              	.LASF87:
 3084 03e5 71756164 		.ascii	"quadDec2Count\000"
 3084      44656332 
 3084      436F756E 
ARM GAS  C:\Users\ikui753\AppData\Local\Temp\ccDFj6Ue.s 			page 66


 3084      7400
 3085              	.LASF31:
 3086 03f3 67315F79 		.ascii	"g1_ypos\000"
 3086      706F7300 
 3087              	.LASF37:
 3088 03fb 67325F64 		.ascii	"g2_direction\000"
 3088      69726563 
 3088      74696F6E 
 3088      00
 3089              	.LASF32:
 3090 0408 67315F73 		.ascii	"g1_speed\000"
 3090      70656564 
 3090      00
 3091              	.LASF77:
 3092 0411 64697370 		.ascii	"displaystring\000"
 3092      6C617973 
 3092      7472696E 
 3092      6700
 3093              	.LASF23:
 3094 041f 726F626F 		.ascii	"robot_xpos\000"
 3094      745F7870 
 3094      6F7300
 3095              	.LASF39:
 3096 042a 5475726E 		.ascii	"TurnRight\000"
 3096      52696768 
 3096      7400
 3097              	.LASF86:
 3098 0434 62756666 		.ascii	"buffer\000"
 3098      657200
 3099              	.LASF16:
 3100 043b 75696E74 		.ascii	"uint32\000"
 3100      333200
 3101              	.LASF91:
 3102 0442 6D61696E 		.ascii	"main.c\000"
 3102      2E6300
 3103              	.LASF5:
 3104 0449 6C6F6E67 		.ascii	"long unsigned int\000"
 3104      20756E73 
 3104      69676E65 
 3104      6420696E 
 3104      7400
 3105              	.LASF61:
 3106 045b 75736253 		.ascii	"usbStarted\000"
 3106      74617274 
 3106      656400
 3107              	.LASF44:
 3108 0466 556E6B6E 		.ascii	"Unknown\000"
 3108      6F776E00 
 3109              	.LASF48:
 3110 046e 53335F44 		.ascii	"S3_DETECTED\000"
 3110      45544543 
 3110      54454400 
 3111              	.LASF66:
 3112 047a 74735F73 		.ascii	"ts_speed\000"
 3112      70656564 
 3112      00
 3113              	.LASF59:
ARM GAS  C:\Users\ikui753\AppData\Local\Temp\ccDFj6Ue.s 			page 67


 3114 0483 636F756E 		.ascii	"count\000"
 3114      7400
 3115              	.LASF68:
 3116 0489 666C6167 		.ascii	"flag_ts_enc\000"
 3116      5F74735F 
 3116      656E6300 
 3117              	.LASF12:
 3118 0495 5F5F696E 		.ascii	"__int32_t\000"
 3118      7433325F 
 3118      7400
 3119              	.LASF43:
 3120 049f 53746F70 		.ascii	"Stop\000"
 3120      00
 3121              	.LASF27:
 3122 04a4 67305F79 		.ascii	"g0_ypos\000"
 3122      706F7300 
 3123              	.LASF67:
 3124 04ac 74735F64 		.ascii	"ts_display\000"
 3124      6973706C 
 3124      617900
 3125              	.LASF65:
 3126 04b7 74735F75 		.ascii	"ts_update\000"
 3126      70646174 
 3126      6500
 3127              	.LASF96:
 3128 04c1 68616E64 		.ascii	"handle_usb\000"
 3128      6C655F75 
 3128      736200
 3129              	.LASF95:
 3130 04cc 71756164 		.ascii	"quadCountToRPM\000"
 3130      436F756E 
 3130      74546F52 
 3130      504D00
 3131              	.LASF76:
 3132 04db 666C6167 		.ascii	"flag_rf_transmission_active\000"
 3132      5F72665F 
 3132      7472616E 
 3132      736D6973 
 3132      73696F6E 
 3133              	.LASF24:
 3134 04f7 726F626F 		.ascii	"robot_ypos\000"
 3134      745F7970 
 3134      6F7300
 3135              	.LASF63:
 3136 0502 49544D5F 		.ascii	"ITM_RxBuffer\000"
 3136      52784275 
 3136      66666572 
 3136      00
 3137              	.LASF82:
 3138 050f 63757272 		.ascii	"currentDirection\000"
 3138      656E7444 
 3138      69726563 
 3138      74696F6E 
 3138      00
 3139              	.LASF54:
 3140 0520 64697265 		.ascii	"directionState\000"
 3140      6374696F 
ARM GAS  C:\Users\ikui753\AppData\Local\Temp\ccDFj6Ue.s 			page 68


 3140      6E537461 
 3140      746500
 3141              	.LASF21:
 3142 052f 72737369 		.ascii	"rssi\000"
 3142      00
 3143              	.LASF25:
 3144 0534 726F626F 		.ascii	"robot_orientation\000"
 3144      745F6F72 
 3144      69656E74 
 3144      6174696F 
 3144      6E00
 3145              	.LASF46:
 3146 0546 53315F44 		.ascii	"S1_DETECTED\000"
 3146      45544543 
 3146      54454400 
 3147              		.ident	"GCC: (GNU Tools for ARM Embedded Processors) 5.4.1 20160609 (release) [ARM/embedded-5-bran
