ARM GAS  C:\Users\ikui753\AppData\Local\Temp\ccet6i7n.s 			page 1


   1              		.syntax unified
   2              		.cpu cortex-m3
   3              		.fpu softvfp
   4              		.eabi_attribute 20, 1
   5              		.eabi_attribute 21, 1
   6              		.eabi_attribute 23, 3
   7              		.eabi_attribute 24, 1
   8              		.eabi_attribute 25, 1
   9              		.eabi_attribute 26, 1
  10              		.eabi_attribute 30, 6
  11              		.eabi_attribute 34, 1
  12              		.eabi_attribute 18, 4
  13              		.thumb
  14              		.syntax unified
  15              		.file	"main.c"
  16              		.text
  17              	.Ltext0:
  18              		.cfi_sections	.debug_frame
  19              		.global	ts
  20              		.bss
  21              		.type	ts, %object
  22              		.size	ts, 1
  23              	ts:
  24 0000 00       		.space	1
  25              		.global	ts_enc
  26 0001 00       		.align	1
  27              		.type	ts_enc, %object
  28              		.size	ts_enc, 2
  29              	ts_enc:
  30 0002 0000     		.space	2
  31              		.global	ts_update
  32              		.align	1
  33              		.type	ts_update, %object
  34              		.size	ts_update, 2
  35              	ts_update:
  36 0004 0000     		.space	2
  37              		.global	ts_speed
  38              		.align	1
  39              		.type	ts_speed, %object
  40              		.size	ts_speed, 2
  41              	ts_speed:
  42 0006 0000     		.space	2
  43              		.global	ts_display
  44              		.align	1
  45              		.type	ts_display, %object
  46              		.size	ts_display, 2
  47              	ts_display:
  48 0008 0000     		.space	2
  49              		.global	flag_ts_enc
  50              		.type	flag_ts_enc, %object
  51              		.size	flag_ts_enc, 1
  52              	flag_ts_enc:
  53 000a 00       		.space	1
  54              		.global	flag_ts_update
  55              		.type	flag_ts_update, %object
  56              		.size	flag_ts_update, 1
  57              	flag_ts_update:
ARM GAS  C:\Users\ikui753\AppData\Local\Temp\ccet6i7n.s 			page 2


  58 000b 00       		.space	1
  59              		.global	flag_ts_speed
  60              		.type	flag_ts_speed, %object
  61              		.size	flag_ts_speed, 1
  62              	flag_ts_speed:
  63 000c 00       		.space	1
  64              		.global	flag_ts_display
  65              		.type	flag_ts_display, %object
  66              		.size	flag_ts_display, 1
  67              	flag_ts_display:
  68 000d 00       		.space	1
  69              		.global	flag_rx
  70              		.type	flag_rx, %object
  71              		.size	flag_rx, 1
  72              	flag_rx:
  73 000e 00       		.space	1
  74              		.global	flag_packet
  75              		.type	flag_packet, %object
  76              		.size	flag_packet, 1
  77              	flag_packet:
  78 000f 00       		.space	1
  79              		.global	flag_KB_string
  80              		.type	flag_KB_string, %object
  81              		.size	flag_KB_string, 1
  82              	flag_KB_string:
  83 0010 00       		.space	1
  84              		.global	dataready_flag
  85              		.type	dataready_flag, %object
  86              		.size	dataready_flag, 1
  87              	dataready_flag:
  88 0011 00       		.space	1
  89              		.global	flag_rf_transmission_active
  90              		.data
  91              		.type	flag_rf_transmission_active, %object
  92              		.size	flag_rf_transmission_active, 1
  93              	flag_rf_transmission_active:
  94 0000 0A       		.byte	10
  95              		.global	displaystring
  96 0001 000000   		.align	2
  97              		.type	displaystring, %object
  98              		.size	displaystring, 64
  99              	displaystring:
 100 0004 43533330 		.ascii	"CS301 2016\012\015\000"
 100      31203230 
 100      31360A0D 
 100      00
 101 0011 00000000 		.space	51
 101      00000000 
 101      00000000 
 101      00000000 
 101      00000000 
 102              		.comm	line,64,4
 103              		.comm	entry,64,4
 104              		.comm	usbBuffer,64,4
 105              		.comm	system_state,32,4
 106              		.global	currentDirection
 107              		.align	2
ARM GAS  C:\Users\ikui753\AppData\Local\Temp\ccet6i7n.s 			page 3


 108              		.type	currentDirection, %object
 109              		.size	currentDirection, 4
 110              	currentDirection:
 111 0044 05000000 		.word	5
 112              		.global	previousDirection
 113              		.align	2
 114              		.type	previousDirection, %object
 115              		.size	previousDirection, 4
 116              	previousDirection:
 117 0048 06000000 		.word	6
 118              		.global	s1
 119              		.bss
 120              		.type	s1, %object
 121              		.size	s1, 1
 122              	s1:
 123 0012 00       		.space	1
 124              		.global	s2
 125              		.type	s2, %object
 126              		.size	s2, 1
 127              	s2:
 128 0013 00       		.space	1
 129              		.global	s3
 130              		.type	s3, %object
 131              		.size	s3, 1
 132              	s3:
 133 0014 00       		.space	1
 134              		.global	s4
 135              		.type	s4, %object
 136              		.size	s4, 1
 137              	s4:
 138 0015 00       		.space	1
 139              		.global	s5
 140              		.type	s5, %object
 141              		.size	s5, 1
 142              	s5:
 143 0016 00       		.space	1
 144              		.global	s6
 145              		.type	s6, %object
 146              		.size	s6, 1
 147              	s6:
 148 0017 00       		.space	1
 149              		.global	totalMilliseconds
 150              		.align	2
 151              		.type	totalMilliseconds, %object
 152              		.size	totalMilliseconds, 4
 153              	totalMilliseconds:
 154 0018 00000000 		.space	4
 155              		.global	totalDistance
 156              		.align	2
 157              		.type	totalDistance, %object
 158              		.size	totalDistance, 4
 159              	totalDistance:
 160 001c 00000000 		.space	4
 161              		.comm	buffer,69,4
 162              		.global	quadDec2Count
 163              		.align	2
 164              		.type	quadDec2Count, %object
ARM GAS  C:\Users\ikui753\AppData\Local\Temp\ccet6i7n.s 			page 4


 165              		.size	quadDec2Count, 4
 166              	quadDec2Count:
 167 0020 00000000 		.space	4
 168              		.global	timerInt
 169              		.align	2
 170              		.type	timerInt, %object
 171              		.size	timerInt, 4
 172              	timerInt:
 173 0024 00000000 		.space	4
 174              		.global	keepLedOn
 175              		.align	2
 176              		.type	keepLedOn, %object
 177              		.size	keepLedOn, 4
 178              	keepLedOn:
 179 0028 00000000 		.space	4
 180              		.global	__aeabi_ui2d
 181              		.global	__aeabi_i2d
 182              		.global	__aeabi_ddiv
 183              		.global	__aeabi_dmul
 184              		.global	__aeabi_dadd
 185              		.global	__aeabi_d2uiz
 186              		.section	.text.speedTimer,"ax",%progbits
 187              		.align	2
 188              		.global	speedTimer
 189              		.thumb
 190              		.thumb_func
 191              		.type	speedTimer, %function
 192              	speedTimer:
 193              	.LFB64:
 194              		.file 1 "main.c"
   1:main.c        **** /* ========================================
   2:main.c        ****  * Fully working code: 
   3:main.c        ****  * PWM      : 
   4:main.c        ****  * Encoder  : 
   5:main.c        ****  * ADC      :
   6:main.c        ****  * USB      : port displays speed and position.
   7:main.c        ****  * CMD: "PW xx"
   8:main.c        ****  * Copyright Univ of Auckland, 2016
   9:main.c        ****  * All Rights Reserved
  10:main.c        ****  * UNPUBLISHED, LICENSED SOFTWARE.
  11:main.c        ****  *
  12:main.c        ****  * CONFIDENTIAL AND PROPRIETARY INFORMATION
  13:main.c        ****  * WHICH IS THE PROPERTY OF Univ of Auckland.
  14:main.c        ****  *
  15:main.c        ****  * ========================================
  16:main.c        **** */
  17:main.c        **** #include <stdio.h>
  18:main.c        **** #include <string.h>
  19:main.c        **** #include <stdlib.h>
  20:main.c        **** #include <project.h>
  21:main.c        **** //* ========================================
  22:main.c        **** #include "defines.h"
  23:main.c        **** #include "vars.h"
  24:main.c        **** //#include "pathfinding.h"
  25:main.c        **** #include "initialise.h"
  26:main.c        **** #include "movement.h"
  27:main.c        **** //#include "usbUART.h"
ARM GAS  C:\Users\ikui753\AppData\Local\Temp\ccet6i7n.s 			page 5


  28:main.c        **** //* ========================================
  29:main.c        **** // USBUART
  30:main.c        **** void usbPutString(char *s);
  31:main.c        **** void usbPutChar(char c);
  32:main.c        **** void handle_usb();
  33:main.c        **** //* ========================================
  34:main.c        **** int16 quadCountToRPM(uint16 count);
  35:main.c        **** //* ========================================
  36:main.c        **** // Sensors, Course correction and Movement Direction.
  37:main.c        **** void ResetSensorFlags();
  38:main.c        **** void SetRobotMovement();
  39:main.c        **** enum DirectionState CheckSensorDirection();
  40:main.c        **** enum DirectionState {Forward, TurnRight, TurnLeft, AdjustToTheLeft, AdjustToTheRight, Stop, Unknown
  41:main.c        **** enum DirectionState currentDirection = Stop;
  42:main.c        **** enum DirectionState previousDirection = Unknown;
  43:main.c        **** // --- YIPPE
  44:main.c        **** // ----------------------------------------
  45:main.c        **** uint8 s1 = 0; // black = 0, white = 1
  46:main.c        **** uint8 s2 = 0;
  47:main.c        **** uint8 s3 = 0;
  48:main.c        **** uint8 s4 = 0;
  49:main.c        **** uint8 s5 = 0;
  50:main.c        **** uint8 s6 = 0;
  51:main.c        **** //* ========================================
  52:main.c        **** // Calculating Distance
  53:main.c        **** #define WHEEL_DIAMETER_MM 65
  54:main.c        **** uint32 totalMilliseconds = 0;
  55:main.c        **** uint32 totalDistance = 0; // in mm
  56:main.c        **** //* ========================================
  57:main.c        **** char buffer[69];
  58:main.c        **** int quadDec2Count = 0;
  59:main.c        **** int timerInt = 0;
  60:main.c        **** int keepLedOn = 0;
  61:main.c        **** 
  62:main.c        **** 
  63:main.c        **** //char map[MAX_ROWS][MAX_COLS]; // global map array- stores the map
  64:main.c        **** 
  65:main.c        **** CY_ISR (speedTimer) {
 195              		.loc 1 65 0
 196              		.cfi_startproc
 197              		@ args = 0, pretend = 0, frame = 0
 198              		@ frame_needed = 1, uses_anonymous_args = 0
 199 0000 B0B5     		push	{r4, r5, r7, lr}
 200              		.cfi_def_cfa_offset 16
 201              		.cfi_offset 4, -16
 202              		.cfi_offset 5, -12
 203              		.cfi_offset 7, -8
 204              		.cfi_offset 14, -4
 205 0002 00AF     		add	r7, sp, #0
 206              		.cfi_def_cfa_register 7
  66:main.c        ****     timerInt = 1;
 207              		.loc 1 66 0
 208 0004 2A4B     		ldr	r3, .L3+8
 209 0006 0122     		movs	r2, #1
 210 0008 1A60     		str	r2, [r3]
  67:main.c        ****     //quadDec_M1 used for turning macros
  68:main.c        ****     quadDec2Count = QuadDec_M2_GetCounter();
ARM GAS  C:\Users\ikui753\AppData\Local\Temp\ccet6i7n.s 			page 6


 211              		.loc 1 68 0
 212 000a FFF7FEFF 		bl	QuadDec_M2_GetCounter
 213 000e 0346     		mov	r3, r0
 214 0010 1A46     		mov	r2, r3
 215 0012 284B     		ldr	r3, .L3+12
 216 0014 1A60     		str	r2, [r3]
  69:main.c        ****     
  70:main.c        ****     if (currentDirection == Forward && quadDec2Count != 0) {
 217              		.loc 1 70 0
 218 0016 284B     		ldr	r3, .L3+16
 219 0018 1B68     		ldr	r3, [r3]
 220 001a 002B     		cmp	r3, #0
 221 001c 38D1     		bne	.L2
 222              		.loc 1 70 0 is_stmt 0 discriminator 1
 223 001e 254B     		ldr	r3, .L3+12
 224 0020 1B68     		ldr	r3, [r3]
 225 0022 002B     		cmp	r3, #0
 226 0024 34D0     		beq	.L2
  71:main.c        ****         totalDistance = totalDistance + (abs(quadDec2Count) / 57.0) * CY_M_PI * WHEEL_DIAMETER_MM;
 227              		.loc 1 71 0 is_stmt 1
 228 0026 254B     		ldr	r3, .L3+20
 229 0028 1B68     		ldr	r3, [r3]
 230 002a 1846     		mov	r0, r3
 231 002c FFF7FEFF 		bl	__aeabi_ui2d
 232 0030 0446     		mov	r4, r0
 233 0032 0D46     		mov	r5, r1
 234 0034 1F4B     		ldr	r3, .L3+12
 235 0036 1B68     		ldr	r3, [r3]
 236 0038 002B     		cmp	r3, #0
 237 003a B8BF     		it	lt
 238 003c 5B42     		rsblt	r3, r3, #0
 239 003e 1846     		mov	r0, r3
 240 0040 FFF7FEFF 		bl	__aeabi_i2d
 241 0044 4FF00002 		mov	r2, #0
 242 0048 1D4B     		ldr	r3, .L3+24
 243 004a FFF7FEFF 		bl	__aeabi_ddiv
 244 004e 0246     		mov	r2, r0
 245 0050 0B46     		mov	r3, r1
 246 0052 1046     		mov	r0, r2
 247 0054 1946     		mov	r1, r3
 248 0056 14A3     		adr	r3, .L3
 249 0058 D3E90023 		ldrd	r2, [r3]
 250 005c FFF7FEFF 		bl	__aeabi_dmul
 251 0060 0246     		mov	r2, r0
 252 0062 0B46     		mov	r3, r1
 253 0064 1046     		mov	r0, r2
 254 0066 1946     		mov	r1, r3
 255 0068 4FF00002 		mov	r2, #0
 256 006c 154B     		ldr	r3, .L3+28
 257 006e FFF7FEFF 		bl	__aeabi_dmul
 258 0072 0246     		mov	r2, r0
 259 0074 0B46     		mov	r3, r1
 260 0076 2046     		mov	r0, r4
 261 0078 2946     		mov	r1, r5
 262 007a FFF7FEFF 		bl	__aeabi_dadd
 263 007e 0346     		mov	r3, r0
 264 0080 0C46     		mov	r4, r1
ARM GAS  C:\Users\ikui753\AppData\Local\Temp\ccet6i7n.s 			page 7


 265 0082 1846     		mov	r0, r3
 266 0084 2146     		mov	r1, r4
 267 0086 FFF7FEFF 		bl	__aeabi_d2uiz
 268 008a 0246     		mov	r2, r0
 269 008c 0B4B     		ldr	r3, .L3+20
 270 008e 1A60     		str	r2, [r3]
 271              	.L2:
  72:main.c        ****     }
  73:main.c        ****     
  74:main.c        ****     QuadDec_M2_SetCounter(0); // reset count
 272              		.loc 1 74 0
 273 0090 0020     		movs	r0, #0
 274 0092 FFF7FEFF 		bl	QuadDec_M2_SetCounter
  75:main.c        ****     QuadDec_M2_Start(); // restart counter
 275              		.loc 1 75 0
 276 0096 FFF7FEFF 		bl	QuadDec_M2_Start
  76:main.c        ****     
  77:main.c        **** 
  78:main.c        ****     SpeedTimer_ReadStatusRegister(); // clear interrupt
 277              		.loc 1 78 0
 278 009a FFF7FEFF 		bl	SpeedTimer_ReadStatusRegister
  79:main.c        **** }
 279              		.loc 1 79 0
 280 009e 00BF     		nop
 281 00a0 B0BD     		pop	{r4, r5, r7, pc}
 282              	.L4:
 283 00a2 00BFAFF3 		.align	3
 283      0080
 284              	.L3:
 285 00a8 182D4454 		.word	1413754136
 286 00ac FB210940 		.word	1074340347
 287 00b0 00000000 		.word	timerInt
 288 00b4 00000000 		.word	quadDec2Count
 289 00b8 00000000 		.word	currentDirection
 290 00bc 00000000 		.word	totalDistance
 291 00c0 00804C40 		.word	1078755328
 292 00c4 00405040 		.word	1079001088
 293              		.cfi_endproc
 294              	.LFE64:
 295              		.size	speedTimer, .-speedTimer
 296              		.section	.text.S1_DETECTED,"ax",%progbits
 297              		.align	2
 298              		.global	S1_DETECTED
 299              		.thumb
 300              		.thumb_func
 301              		.type	S1_DETECTED, %function
 302              	S1_DETECTED:
 303              	.LFB65:
  80:main.c        **** 
  81:main.c        **** CY_ISR(S1_DETECTED) {
 304              		.loc 1 81 0
 305              		.cfi_startproc
 306              		@ args = 0, pretend = 0, frame = 0
 307              		@ frame_needed = 1, uses_anonymous_args = 0
 308 0000 80B5     		push	{r7, lr}
 309              		.cfi_def_cfa_offset 8
 310              		.cfi_offset 7, -8
ARM GAS  C:\Users\ikui753\AppData\Local\Temp\ccet6i7n.s 			page 8


 311              		.cfi_offset 14, -4
 312 0002 00AF     		add	r7, sp, #0
 313              		.cfi_def_cfa_register 7
  82:main.c        ****     // Sensor has detected WHITE
  83:main.c        ****     s1 = 1; // , Black = 0, White = 1
 314              		.loc 1 83 0
 315 0004 034B     		ldr	r3, .L6
 316 0006 0122     		movs	r2, #1
 317 0008 1A70     		strb	r2, [r3]
  84:main.c        ****     LED_Write(1u);
 318              		.loc 1 84 0
 319 000a 0120     		movs	r0, #1
 320 000c FFF7FEFF 		bl	LED_Write
  85:main.c        ****     //moveForward();
  86:main.c        **** }
 321              		.loc 1 86 0
 322 0010 00BF     		nop
 323 0012 80BD     		pop	{r7, pc}
 324              	.L7:
 325              		.align	2
 326              	.L6:
 327 0014 00000000 		.word	s1
 328              		.cfi_endproc
 329              	.LFE65:
 330              		.size	S1_DETECTED, .-S1_DETECTED
 331              		.section	.text.S2_DETECTED,"ax",%progbits
 332              		.align	2
 333              		.global	S2_DETECTED
 334              		.thumb
 335              		.thumb_func
 336              		.type	S2_DETECTED, %function
 337              	S2_DETECTED:
 338              	.LFB66:
  87:main.c        **** 
  88:main.c        **** CY_ISR(S2_DETECTED) {
 339              		.loc 1 88 0
 340              		.cfi_startproc
 341              		@ args = 0, pretend = 0, frame = 0
 342              		@ frame_needed = 1, uses_anonymous_args = 0
 343 0000 80B5     		push	{r7, lr}
 344              		.cfi_def_cfa_offset 8
 345              		.cfi_offset 7, -8
 346              		.cfi_offset 14, -4
 347 0002 00AF     		add	r7, sp, #0
 348              		.cfi_def_cfa_register 7
  89:main.c        ****     // Sensor has detected WHITE
  90:main.c        ****     s2 = 1; // , Black = 0, White = 1
 349              		.loc 1 90 0
 350 0004 034B     		ldr	r3, .L9
 351 0006 0122     		movs	r2, #1
 352 0008 1A70     		strb	r2, [r3]
  91:main.c        ****     LED_Write(1u);
 353              		.loc 1 91 0
 354 000a 0120     		movs	r0, #1
 355 000c FFF7FEFF 		bl	LED_Write
  92:main.c        ****     //moveForward();
  93:main.c        **** }
ARM GAS  C:\Users\ikui753\AppData\Local\Temp\ccet6i7n.s 			page 9


 356              		.loc 1 93 0
 357 0010 00BF     		nop
 358 0012 80BD     		pop	{r7, pc}
 359              	.L10:
 360              		.align	2
 361              	.L9:
 362 0014 00000000 		.word	s2
 363              		.cfi_endproc
 364              	.LFE66:
 365              		.size	S2_DETECTED, .-S2_DETECTED
 366              		.section	.text.S3_DETECTED,"ax",%progbits
 367              		.align	2
 368              		.global	S3_DETECTED
 369              		.thumb
 370              		.thumb_func
 371              		.type	S3_DETECTED, %function
 372              	S3_DETECTED:
 373              	.LFB67:
  94:main.c        **** 
  95:main.c        **** CY_ISR(S3_DETECTED) {
 374              		.loc 1 95 0
 375              		.cfi_startproc
 376              		@ args = 0, pretend = 0, frame = 0
 377              		@ frame_needed = 1, uses_anonymous_args = 0
 378 0000 80B5     		push	{r7, lr}
 379              		.cfi_def_cfa_offset 8
 380              		.cfi_offset 7, -8
 381              		.cfi_offset 14, -4
 382 0002 00AF     		add	r7, sp, #0
 383              		.cfi_def_cfa_register 7
  96:main.c        ****     // Sensor has detected WHITE
  97:main.c        ****     s3 = 1; // , Black = 0, White = 1
 384              		.loc 1 97 0
 385 0004 034B     		ldr	r3, .L12
 386 0006 0122     		movs	r2, #1
 387 0008 1A70     		strb	r2, [r3]
  98:main.c        ****     LED_Write(1u);
 388              		.loc 1 98 0
 389 000a 0120     		movs	r0, #1
 390 000c FFF7FEFF 		bl	LED_Write
  99:main.c        **** }
 391              		.loc 1 99 0
 392 0010 00BF     		nop
 393 0012 80BD     		pop	{r7, pc}
 394              	.L13:
 395              		.align	2
 396              	.L12:
 397 0014 00000000 		.word	s3
 398              		.cfi_endproc
 399              	.LFE67:
 400              		.size	S3_DETECTED, .-S3_DETECTED
 401              		.section	.text.S4_DETECTED,"ax",%progbits
 402              		.align	2
 403              		.global	S4_DETECTED
 404              		.thumb
 405              		.thumb_func
 406              		.type	S4_DETECTED, %function
ARM GAS  C:\Users\ikui753\AppData\Local\Temp\ccet6i7n.s 			page 10


 407              	S4_DETECTED:
 408              	.LFB68:
 100:main.c        **** 
 101:main.c        **** CY_ISR(S4_DETECTED) {
 409              		.loc 1 101 0
 410              		.cfi_startproc
 411              		@ args = 0, pretend = 0, frame = 0
 412              		@ frame_needed = 1, uses_anonymous_args = 0
 413 0000 80B5     		push	{r7, lr}
 414              		.cfi_def_cfa_offset 8
 415              		.cfi_offset 7, -8
 416              		.cfi_offset 14, -4
 417 0002 00AF     		add	r7, sp, #0
 418              		.cfi_def_cfa_register 7
 102:main.c        ****     // Sensor has detected WHITE
 103:main.c        ****     s4 = 1; // , Black = 0, White = 1
 419              		.loc 1 103 0
 420 0004 034B     		ldr	r3, .L15
 421 0006 0122     		movs	r2, #1
 422 0008 1A70     		strb	r2, [r3]
 104:main.c        ****     LED_Write(1u);
 423              		.loc 1 104 0
 424 000a 0120     		movs	r0, #1
 425 000c FFF7FEFF 		bl	LED_Write
 105:main.c        **** }
 426              		.loc 1 105 0
 427 0010 00BF     		nop
 428 0012 80BD     		pop	{r7, pc}
 429              	.L16:
 430              		.align	2
 431              	.L15:
 432 0014 00000000 		.word	s4
 433              		.cfi_endproc
 434              	.LFE68:
 435              		.size	S4_DETECTED, .-S4_DETECTED
 436              		.section	.text.S5_DETECTED,"ax",%progbits
 437              		.align	2
 438              		.global	S5_DETECTED
 439              		.thumb
 440              		.thumb_func
 441              		.type	S5_DETECTED, %function
 442              	S5_DETECTED:
 443              	.LFB69:
 106:main.c        **** 
 107:main.c        **** CY_ISR(S5_DETECTED) {
 444              		.loc 1 107 0
 445              		.cfi_startproc
 446              		@ args = 0, pretend = 0, frame = 0
 447              		@ frame_needed = 1, uses_anonymous_args = 0
 448 0000 80B5     		push	{r7, lr}
 449              		.cfi_def_cfa_offset 8
 450              		.cfi_offset 7, -8
 451              		.cfi_offset 14, -4
 452 0002 00AF     		add	r7, sp, #0
 453              		.cfi_def_cfa_register 7
 108:main.c        ****     // Sensor has detected WHITE
 109:main.c        ****     s5 = 1; // , Black = 0, White = 1
ARM GAS  C:\Users\ikui753\AppData\Local\Temp\ccet6i7n.s 			page 11


 454              		.loc 1 109 0
 455 0004 034B     		ldr	r3, .L18
 456 0006 0122     		movs	r2, #1
 457 0008 1A70     		strb	r2, [r3]
 110:main.c        ****     LED_Write(1u);
 458              		.loc 1 110 0
 459 000a 0120     		movs	r0, #1
 460 000c FFF7FEFF 		bl	LED_Write
 111:main.c        **** }
 461              		.loc 1 111 0
 462 0010 00BF     		nop
 463 0012 80BD     		pop	{r7, pc}
 464              	.L19:
 465              		.align	2
 466              	.L18:
 467 0014 00000000 		.word	s5
 468              		.cfi_endproc
 469              	.LFE69:
 470              		.size	S5_DETECTED, .-S5_DETECTED
 471              		.section	.text.S6_DETECTED,"ax",%progbits
 472              		.align	2
 473              		.global	S6_DETECTED
 474              		.thumb
 475              		.thumb_func
 476              		.type	S6_DETECTED, %function
 477              	S6_DETECTED:
 478              	.LFB70:
 112:main.c        **** 
 113:main.c        **** CY_ISR(S6_DETECTED) {
 479              		.loc 1 113 0
 480              		.cfi_startproc
 481              		@ args = 0, pretend = 0, frame = 0
 482              		@ frame_needed = 1, uses_anonymous_args = 0
 483 0000 80B5     		push	{r7, lr}
 484              		.cfi_def_cfa_offset 8
 485              		.cfi_offset 7, -8
 486              		.cfi_offset 14, -4
 487 0002 00AF     		add	r7, sp, #0
 488              		.cfi_def_cfa_register 7
 114:main.c        ****     // Sensor has detected WHITE
 115:main.c        ****     s6 = 1; // , Black = 0, White = 1
 489              		.loc 1 115 0
 490 0004 034B     		ldr	r3, .L21
 491 0006 0122     		movs	r2, #1
 492 0008 1A70     		strb	r2, [r3]
 116:main.c        ****     LED_Write(1u);
 493              		.loc 1 116 0
 494 000a 0120     		movs	r0, #1
 495 000c FFF7FEFF 		bl	LED_Write
 117:main.c        **** }
 496              		.loc 1 117 0
 497 0010 00BF     		nop
 498 0012 80BD     		pop	{r7, pc}
 499              	.L22:
 500              		.align	2
 501              	.L21:
 502 0014 00000000 		.word	s6
ARM GAS  C:\Users\ikui753\AppData\Local\Temp\ccet6i7n.s 			page 12


 503              		.cfi_endproc
 504              	.LFE70:
 505              		.size	S6_DETECTED, .-S6_DETECTED
 506              		.section	.text.TIMER_FINISH,"ax",%progbits
 507              		.align	2
 508              		.global	TIMER_FINISH
 509              		.thumb
 510              		.thumb_func
 511              		.type	TIMER_FINISH, %function
 512              	TIMER_FINISH:
 513              	.LFB71:
 118:main.c        **** 
 119:main.c        **** CY_ISR(TIMER_FINISH) {
 514              		.loc 1 119 0
 515              		.cfi_startproc
 516              		@ args = 0, pretend = 0, frame = 0
 517              		@ frame_needed = 1, uses_anonymous_args = 0
 518 0000 80B5     		push	{r7, lr}
 519              		.cfi_def_cfa_offset 8
 520              		.cfi_offset 7, -8
 521              		.cfi_offset 14, -4
 522 0002 00AF     		add	r7, sp, #0
 523              		.cfi_def_cfa_register 7
 120:main.c        ****     // Reset Sensor Flags for Next rising Eddge
 121:main.c        ****     // (s1 = 0, s2 = 0... etc.)
 122:main.c        ****     LED_Write(0u);
 524              		.loc 1 122 0
 525 0004 0020     		movs	r0, #0
 526 0006 FFF7FEFF 		bl	LED_Write
 123:main.c        ****     SetRobotMovement();
 527              		.loc 1 123 0
 528 000a FFF7FEFF 		bl	SetRobotMovement
 124:main.c        ****     ResetSensorFlags();
 529              		.loc 1 124 0
 530 000e FFF7FEFF 		bl	ResetSensorFlags
 125:main.c        **** 
 126:main.c        ****     Timer_LED_ReadStatusRegister();
 531              		.loc 1 126 0
 532 0012 FFF7FEFF 		bl	Timer_LED_ReadStatusRegister
 127:main.c        **** }
 533              		.loc 1 127 0
 534 0016 00BF     		nop
 535 0018 80BD     		pop	{r7, pc}
 536              		.cfi_endproc
 537              	.LFE71:
 538              		.size	TIMER_FINISH, .-TIMER_FINISH
 539 001a 00BF     		.section	.rodata
 540              		.align	2
 541              	.LC0:
 542 0000 496E6974 		.ascii	"Initialised UART\000"
 542      69616C69 
 542      73656420 
 542      55415254 
 542      00
 543 0011 000000   		.align	2
 544              	.LC1:
 545 0014 256C7500 		.ascii	"%lu\000"
ARM GAS  C:\Users\ikui753\AppData\Local\Temp\ccet6i7n.s 			page 13


 546              		.align	2
 547              	.LC2:
 548 0018 2000     		.ascii	" \000"
 549              		.section	.text.main,"ax",%progbits
 550              		.align	2
 551              		.global	main
 552              		.thumb
 553              		.thumb_func
 554              		.type	main, %function
 555              	main:
 556              	.LFB72:
 128:main.c        **** 
 129:main.c        **** 
 130:main.c        **** int main()
 131:main.c        **** {
 557              		.loc 1 131 0
 558              		.cfi_startproc
 559              		@ args = 0, pretend = 0, frame = 0
 560              		@ frame_needed = 1, uses_anonymous_args = 0
 561 0000 80B5     		push	{r7, lr}
 562              		.cfi_def_cfa_offset 8
 563              		.cfi_offset 7, -8
 564              		.cfi_offset 14, -4
 565 0002 00AF     		add	r7, sp, #0
 566              		.cfi_def_cfa_register 7
 132:main.c        **** // --------------------------------    
 133:main.c        **** // ----- INITIALIZATIONS ----------
 134:main.c        ****     CYGlobalIntEnable;
 567              		.loc 1 134 0
 568              		.syntax unified
 569              	@ 134 "main.c" 1
 570 0004 62B6     		CPSIE   i
 571              	@ 0 "" 2
 135:main.c        ****     init(); // initialise clocks, pwms, adc, dac etc- done in header file
 572              		.loc 1 135 0
 573              		.thumb
 574              		.syntax unified
 575 0006 FFF7FEFF 		bl	init
 136:main.c        ****     //findPath(map, "");// find shortest path- store this in map
 137:main.c        ****     isr_speed_StartEx(speedTimer); // start interrupt
 576              		.loc 1 137 0
 577 000a 2548     		ldr	r0, .L28
 578 000c FFF7FEFF 		bl	isr_speed_StartEx
 138:main.c        ****     isr_Timer_LED_StartEx(TIMER_FINISH);
 579              		.loc 1 138 0
 580 0010 2448     		ldr	r0, .L28+4
 581 0012 FFF7FEFF 		bl	isr_Timer_LED_StartEx
 139:main.c        ****     S1_detected_StartEx(S1_DETECTED);
 582              		.loc 1 139 0
 583 0016 2448     		ldr	r0, .L28+8
 584 0018 FFF7FEFF 		bl	S1_detected_StartEx
 140:main.c        ****     S2_detected_StartEx(S2_DETECTED);
 585              		.loc 1 140 0
 586 001c 2348     		ldr	r0, .L28+12
 587 001e FFF7FEFF 		bl	S2_detected_StartEx
 141:main.c        ****     S3_detected_StartEx(S3_DETECTED);
 588              		.loc 1 141 0
ARM GAS  C:\Users\ikui753\AppData\Local\Temp\ccet6i7n.s 			page 14


 589 0022 2348     		ldr	r0, .L28+16
 590 0024 FFF7FEFF 		bl	S3_detected_StartEx
 142:main.c        ****     S4_detected_StartEx(S4_DETECTED);
 591              		.loc 1 142 0
 592 0028 2248     		ldr	r0, .L28+20
 593 002a FFF7FEFF 		bl	S4_detected_StartEx
 143:main.c        ****     S5_detected_StartEx(S5_DETECTED);
 594              		.loc 1 143 0
 595 002e 2248     		ldr	r0, .L28+24
 596 0030 FFF7FEFF 		bl	S5_detected_StartEx
 144:main.c        ****     S6_detected_StartEx(S6_DETECTED);
 597              		.loc 1 144 0
 598 0034 2148     		ldr	r0, .L28+28
 599 0036 FFF7FEFF 		bl	S6_detected_StartEx
 145:main.c        ****     Timer_LED_Start();
 600              		.loc 1 145 0
 601 003a FFF7FEFF 		bl	Timer_LED_Start
 146:main.c        ****     stopMoving();
 602              		.loc 1 146 0
 603 003e FFF7FEFF 		bl	stopMoving
 147:main.c        **** 
 148:main.c        **** // ------USB SETUP ----------------    
 149:main.c        **** #ifdef USE_USB    
 150:main.c        ****     USBUART_Start(0,USBUART_5V_OPERATION);
 604              		.loc 1 150 0
 605 0042 0121     		movs	r1, #1
 606 0044 0020     		movs	r0, #0
 607 0046 FFF7FEFF 		bl	USBUART_Start
 151:main.c        **** #endif        
 152:main.c        ****     RF_BT_SELECT_Write(0);
 608              		.loc 1 152 0
 609 004a 0020     		movs	r0, #0
 610 004c FFF7FEFF 		bl	RF_BT_SELECT_Write
 153:main.c        ****     
 154:main.c        ****     usbPutString("Initialised UART");
 611              		.loc 1 154 0
 612 0050 1B48     		ldr	r0, .L28+32
 613 0052 FFF7FEFF 		bl	usbPutString
 614              	.L27:
 155:main.c        ****     for(;;)
 156:main.c        ****     {
 157:main.c        ****         //traverseMap(map);
 158:main.c        ****         //rotationAntiClockwise();
 159:main.c        ****         //rotationClockwise();
 160:main.c        ****         
 161:main.c        ****         
 162:main.c        ****         
 163:main.c        ****         if(timerInt == 1) {
 615              		.loc 1 163 0
 616 0056 1B4B     		ldr	r3, .L28+36
 617 0058 1B68     		ldr	r3, [r3]
 618 005a 012B     		cmp	r3, #1
 619 005c 15D1     		bne	.L25
 164:main.c        ****             timerInt = 0;
 620              		.loc 1 164 0
 621 005e 194B     		ldr	r3, .L28+36
 622 0060 0022     		movs	r2, #0
ARM GAS  C:\Users\ikui753\AppData\Local\Temp\ccet6i7n.s 			page 15


 623 0062 1A60     		str	r2, [r3]
 165:main.c        ****             // calculate RPM of M2
 166:main.c        ****             quadCountToRPM(quadDec2Count);
 624              		.loc 1 166 0
 625 0064 184B     		ldr	r3, .L28+40
 626 0066 1B68     		ldr	r3, [r3]
 627 0068 9BB2     		uxth	r3, r3
 628 006a 1846     		mov	r0, r3
 629 006c FFF7FEFF 		bl	quadCountToRPM
 167:main.c        ****             sprintf(buffer, "%lu", totalDistance);
 630              		.loc 1 167 0
 631 0070 164B     		ldr	r3, .L28+44
 632 0072 1B68     		ldr	r3, [r3]
 633 0074 1A46     		mov	r2, r3
 634 0076 1649     		ldr	r1, .L28+48
 635 0078 1648     		ldr	r0, .L28+52
 636 007a FFF7FEFF 		bl	sprintf
 168:main.c        ****             usbPutString(buffer);
 637              		.loc 1 168 0
 638 007e 1548     		ldr	r0, .L28+52
 639 0080 FFF7FEFF 		bl	usbPutString
 169:main.c        ****             usbPutString(" ");
 640              		.loc 1 169 0
 641 0084 1448     		ldr	r0, .L28+56
 642 0086 FFF7FEFF 		bl	usbPutString
 643              	.L25:
 170:main.c        ****         }
 171:main.c        ****         handle_usb();
 644              		.loc 1 171 0
 645 008a FFF7FEFF 		bl	handle_usb
 172:main.c        ****         if (flag_KB_string == 1)
 646              		.loc 1 172 0
 647 008e 134B     		ldr	r3, .L28+60
 648 0090 1B78     		ldrb	r3, [r3]	@ zero_extendqisi2
 649 0092 012B     		cmp	r3, #1
 650 0094 DFD1     		bne	.L27
 173:main.c        ****         {
 174:main.c        ****             //usbPutString("Total Distance: ");
 175:main.c        ****             //sprintf(buffer, "%lu", totalDistance);
 176:main.c        ****             //usbPutString(buffer);
 177:main.c        ****             flag_KB_string = 0;
 651              		.loc 1 177 0
 652 0096 114B     		ldr	r3, .L28+60
 653 0098 0022     		movs	r2, #0
 654 009a 1A70     		strb	r2, [r3]
 178:main.c        ****         }           
 179:main.c        ****     }
 655              		.loc 1 179 0
 656 009c DBE7     		b	.L27
 657              	.L29:
 658 009e 00BF     		.align	2
 659              	.L28:
 660 00a0 00000000 		.word	speedTimer
 661 00a4 00000000 		.word	TIMER_FINISH
 662 00a8 00000000 		.word	S1_DETECTED
 663 00ac 00000000 		.word	S2_DETECTED
 664 00b0 00000000 		.word	S3_DETECTED
ARM GAS  C:\Users\ikui753\AppData\Local\Temp\ccet6i7n.s 			page 16


 665 00b4 00000000 		.word	S4_DETECTED
 666 00b8 00000000 		.word	S5_DETECTED
 667 00bc 00000000 		.word	S6_DETECTED
 668 00c0 00000000 		.word	.LC0
 669 00c4 00000000 		.word	timerInt
 670 00c8 00000000 		.word	quadDec2Count
 671 00cc 00000000 		.word	totalDistance
 672 00d0 14000000 		.word	.LC1
 673 00d4 00000000 		.word	buffer
 674 00d8 18000000 		.word	.LC2
 675 00dc 00000000 		.word	flag_KB_string
 676              		.cfi_endproc
 677              	.LFE72:
 678              		.size	main, .-main
 679              		.global	__aeabi_d2f
 680              		.global	__aeabi_fmul
 681              		.global	__aeabi_f2iz
 682              		.section	.rodata
 683 001a 0000     		.align	2
 684              	.LC3:
 685 001c 256400   		.ascii	"%d\000"
 686              		.section	.text.quadCountToRPM,"ax",%progbits
 687              		.align	2
 688              		.global	quadCountToRPM
 689              		.thumb
 690              		.thumb_func
 691              		.type	quadCountToRPM, %function
 692              	quadCountToRPM:
 693              	.LFB73:
 180:main.c        ****     return 0;
 181:main.c        **** }
 182:main.c        **** 
 183:main.c        **** // Calculations
 184:main.c        **** //* ========================================
 185:main.c        **** int16 quadCountToRPM(uint16 count)
 186:main.c        **** {
 694              		.loc 1 186 0
 695              		.cfi_startproc
 696              		@ args = 0, pretend = 0, frame = 16
 697              		@ frame_needed = 1, uses_anonymous_args = 0
 698 0000 90B5     		push	{r4, r7, lr}
 699              		.cfi_def_cfa_offset 12
 700              		.cfi_offset 4, -12
 701              		.cfi_offset 7, -8
 702              		.cfi_offset 14, -4
 703 0002 85B0     		sub	sp, sp, #20
 704              		.cfi_def_cfa_offset 32
 705 0004 00AF     		add	r7, sp, #0
 706              		.cfi_def_cfa_register 7
 707 0006 0346     		mov	r3, r0
 708 0008 FB80     		strh	r3, [r7, #6]	@ movhi
 187:main.c        ****     float cps = count/57.00;
 709              		.loc 1 187 0
 710 000a FB88     		ldrh	r3, [r7, #6]
 711 000c 1846     		mov	r0, r3
 712 000e FFF7FEFF 		bl	__aeabi_i2d
 713 0012 4FF00002 		mov	r2, #0
ARM GAS  C:\Users\ikui753\AppData\Local\Temp\ccet6i7n.s 			page 17


 714 0016 114B     		ldr	r3, .L32
 715 0018 FFF7FEFF 		bl	__aeabi_ddiv
 716 001c 0346     		mov	r3, r0
 717 001e 0C46     		mov	r4, r1
 718 0020 1846     		mov	r0, r3
 719 0022 2146     		mov	r1, r4
 720 0024 FFF7FEFF 		bl	__aeabi_d2f
 721 0028 0346     		mov	r3, r0
 722 002a FB60     		str	r3, [r7, #12]	@ float
 188:main.c        ****     int16 rpm = (int16)(cps*15); // rpm value
 723              		.loc 1 188 0
 724 002c 0C49     		ldr	r1, .L32+4
 725 002e F868     		ldr	r0, [r7, #12]	@ float
 726 0030 FFF7FEFF 		bl	__aeabi_fmul
 727 0034 0346     		mov	r3, r0
 728 0036 1846     		mov	r0, r3
 729 0038 FFF7FEFF 		bl	__aeabi_f2iz
 730 003c 0346     		mov	r3, r0
 731 003e 7B81     		strh	r3, [r7, #10]	@ movhi
 189:main.c        ****     sprintf(buffer, "%d", rpm); // store in buffer
 732              		.loc 1 189 0
 733 0040 B7F90A30 		ldrsh	r3, [r7, #10]
 734 0044 1A46     		mov	r2, r3
 735 0046 0749     		ldr	r1, .L32+8
 736 0048 0748     		ldr	r0, .L32+12
 737 004a FFF7FEFF 		bl	sprintf
 190:main.c        ****     return rpm;
 738              		.loc 1 190 0
 739 004e B7F90A30 		ldrsh	r3, [r7, #10]
 191:main.c        ****     //usbPutString(buffer);
 192:main.c        ****     //usbPutString("rpm ");
 193:main.c        **** }
 740              		.loc 1 193 0
 741 0052 1846     		mov	r0, r3
 742 0054 1437     		adds	r7, r7, #20
 743              		.cfi_def_cfa_offset 12
 744 0056 BD46     		mov	sp, r7
 745              		.cfi_def_cfa_register 13
 746              		@ sp needed
 747 0058 90BD     		pop	{r4, r7, pc}
 748              	.L33:
 749 005a 00BF     		.align	2
 750              	.L32:
 751 005c 00804C40 		.word	1078755328
 752 0060 00007041 		.word	1097859072
 753 0064 1C000000 		.word	.LC3
 754 0068 00000000 		.word	buffer
 755              		.cfi_endproc
 756              	.LFE73:
 757              		.size	quadCountToRPM, .-quadCountToRPM
 758              		.section	.text.ResetSensorFlags,"ax",%progbits
 759              		.align	2
 760              		.global	ResetSensorFlags
 761              		.thumb
 762              		.thumb_func
 763              		.type	ResetSensorFlags, %function
 764              	ResetSensorFlags:
ARM GAS  C:\Users\ikui753\AppData\Local\Temp\ccet6i7n.s 			page 18


 765              	.LFB74:
 194:main.c        **** 
 195:main.c        **** // Resets all sensor flags to 0 - i.e. currently out of map
 196:main.c        **** void ResetSensorFlags() {
 766              		.loc 1 196 0
 767              		.cfi_startproc
 768              		@ args = 0, pretend = 0, frame = 0
 769              		@ frame_needed = 1, uses_anonymous_args = 0
 770              		@ link register save eliminated.
 771 0000 80B4     		push	{r7}
 772              		.cfi_def_cfa_offset 4
 773              		.cfi_offset 7, -4
 774 0002 00AF     		add	r7, sp, #0
 775              		.cfi_def_cfa_register 7
 197:main.c        ****     s1 = 0;
 776              		.loc 1 197 0
 777 0004 0A4B     		ldr	r3, .L35
 778 0006 0022     		movs	r2, #0
 779 0008 1A70     		strb	r2, [r3]
 198:main.c        ****     s2 = 0;
 780              		.loc 1 198 0
 781 000a 0A4B     		ldr	r3, .L35+4
 782 000c 0022     		movs	r2, #0
 783 000e 1A70     		strb	r2, [r3]
 199:main.c        ****     s3 = 0;
 784              		.loc 1 199 0
 785 0010 094B     		ldr	r3, .L35+8
 786 0012 0022     		movs	r2, #0
 787 0014 1A70     		strb	r2, [r3]
 200:main.c        ****     s4 = 0;
 788              		.loc 1 200 0
 789 0016 094B     		ldr	r3, .L35+12
 790 0018 0022     		movs	r2, #0
 791 001a 1A70     		strb	r2, [r3]
 201:main.c        ****     s5 = 0;
 792              		.loc 1 201 0
 793 001c 084B     		ldr	r3, .L35+16
 794 001e 0022     		movs	r2, #0
 795 0020 1A70     		strb	r2, [r3]
 202:main.c        ****     s6 = 0;
 796              		.loc 1 202 0
 797 0022 084B     		ldr	r3, .L35+20
 798 0024 0022     		movs	r2, #0
 799 0026 1A70     		strb	r2, [r3]
 203:main.c        **** }
 800              		.loc 1 203 0
 801 0028 00BF     		nop
 802 002a BD46     		mov	sp, r7
 803              		.cfi_def_cfa_register 13
 804              		@ sp needed
 805 002c 80BC     		pop	{r7}
 806              		.cfi_restore 7
 807              		.cfi_def_cfa_offset 0
 808 002e 7047     		bx	lr
 809              	.L36:
 810              		.align	2
 811              	.L35:
ARM GAS  C:\Users\ikui753\AppData\Local\Temp\ccet6i7n.s 			page 19


 812 0030 00000000 		.word	s1
 813 0034 00000000 		.word	s2
 814 0038 00000000 		.word	s3
 815 003c 00000000 		.word	s4
 816 0040 00000000 		.word	s5
 817 0044 00000000 		.word	s6
 818              		.cfi_endproc
 819              	.LFE74:
 820              		.size	ResetSensorFlags, .-ResetSensorFlags
 821              		.section	.text.CheckSensorDirection,"ax",%progbits
 822              		.align	2
 823              		.global	CheckSensorDirection
 824              		.thumb
 825              		.thumb_func
 826              		.type	CheckSensorDirection, %function
 827              	CheckSensorDirection:
 828              	.LFB75:
 204:main.c        **** 
 205:main.c        **** // This function checks the sensor flags s1-s6 through a boolean truth table and
 206:main.c        **** // returns a enum direction state depending on the flag configuration
 207:main.c        **** // if no conditons are met, it returns Unknown -- need to fix this edge case
 208:main.c        **** // s1 = 0 -- Black
 209:main.c        **** // s1 = 1 -- White
 210:main.c        **** enum DirectionState CheckSensorDirection() {
 829              		.loc 1 210 0
 830              		.cfi_startproc
 831              		@ args = 0, pretend = 0, frame = 8
 832              		@ frame_needed = 1, uses_anonymous_args = 0
 833              		@ link register save eliminated.
 834 0000 80B4     		push	{r7}
 835              		.cfi_def_cfa_offset 4
 836              		.cfi_offset 7, -4
 837 0002 83B0     		sub	sp, sp, #12
 838              		.cfi_def_cfa_offset 16
 839 0004 00AF     		add	r7, sp, #0
 840              		.cfi_def_cfa_register 7
 211:main.c        ****     enum DirectionState directionState = Stop;
 841              		.loc 1 211 0
 842 0006 0523     		movs	r3, #5
 843 0008 7B60     		str	r3, [r7, #4]
 212:main.c        ****     previousDirection = currentDirection;    
 844              		.loc 1 212 0
 845 000a 5D4B     		ldr	r3, .L48
 846 000c 1B68     		ldr	r3, [r3]
 847 000e 5D4A     		ldr	r2, .L48+4
 848 0010 1360     		str	r3, [r2]
 213:main.c        ****     
 214:main.c        ****     // forward 111100
 215:main.c        ****     if (s1 && s2 && s3 && s4 && !s5 && !s6) {
 849              		.loc 1 215 0
 850 0012 5D4B     		ldr	r3, .L48+8
 851 0014 1B78     		ldrb	r3, [r3]	@ zero_extendqisi2
 852 0016 002B     		cmp	r3, #0
 853 0018 17D0     		beq	.L38
 854              		.loc 1 215 0 is_stmt 0 discriminator 1
 855 001a 5C4B     		ldr	r3, .L48+12
 856 001c 1B78     		ldrb	r3, [r3]	@ zero_extendqisi2
ARM GAS  C:\Users\ikui753\AppData\Local\Temp\ccet6i7n.s 			page 20


 857 001e 002B     		cmp	r3, #0
 858 0020 13D0     		beq	.L38
 859              		.loc 1 215 0 discriminator 2
 860 0022 5B4B     		ldr	r3, .L48+16
 861 0024 1B78     		ldrb	r3, [r3]	@ zero_extendqisi2
 862 0026 002B     		cmp	r3, #0
 863 0028 0FD0     		beq	.L38
 864              		.loc 1 215 0 discriminator 3
 865 002a 5A4B     		ldr	r3, .L48+20
 866 002c 1B78     		ldrb	r3, [r3]	@ zero_extendqisi2
 867 002e 002B     		cmp	r3, #0
 868 0030 0BD0     		beq	.L38
 869              		.loc 1 215 0 discriminator 4
 870 0032 594B     		ldr	r3, .L48+24
 871 0034 1B78     		ldrb	r3, [r3]	@ zero_extendqisi2
 872 0036 002B     		cmp	r3, #0
 873 0038 07D1     		bne	.L38
 874              		.loc 1 215 0 discriminator 5
 875 003a 584B     		ldr	r3, .L48+28
 876 003c 1B78     		ldrb	r3, [r3]	@ zero_extendqisi2
 877 003e 002B     		cmp	r3, #0
 878 0040 03D1     		bne	.L38
 216:main.c        ****         directionState = Forward;
 879              		.loc 1 216 0 is_stmt 1
 880 0042 0023     		movs	r3, #0
 881 0044 7B60     		str	r3, [r7, #4]
 217:main.c        ****         return directionState;   
 882              		.loc 1 217 0
 883 0046 7B68     		ldr	r3, [r7, #4]
 884 0048 95E0     		b	.L39
 885              	.L38:
 218:main.c        ****     }
 219:main.c        **** 
 220:main.c        ****     /* COURSE CORRECTION COURSE CORRECTION COURSE CORRETION */
 221:main.c        ****     // Only need to course correct when direction state is forward
 222:main.c        ****     /*
 223:main.c        ****     if (previousDirection == Forward || previousDirection == AdjustToTheLeft || previousDirection =
 224:main.c        ****         // If robot is deviating to the left where top right sensor and bottom left sensor is on bl
 225:main.c        ****         // we turn right until all sensors are on white again
 226:main.c        ****         if (!s1 && s2 && s5 && !s6) {
 227:main.c        ****             directionState = AdjustToTheRight;
 228:main.c        ****             return directionState;
 229:main.c        ****         }  
 230:main.c        ****         
 231:main.c        ****         // If robot is deviating to the right where top left sensor and bottom right sensor is on b
 232:main.c        ****         // we turn left until all sensors are on white again
 233:main.c        ****         if (s1 && !s2 && !s5 && s6) {
 234:main.c        ****             directionState = AdjustToTheLeft;
 235:main.c        ****             return directionState;
 236:main.c        ****         }
 237:main.c        ****         
 238:main.c        ****         // OLD COURSE CORRECTION ^^^^^^^^^^
 239:main.c        ****         // NEW COURSE CORRECTION vvvvvvvvvv
 240:main.c        ****     
 241:main.c        ****         if (!s1 || !s6) {
 242:main.c        ****             directionState = AdjustToTheRight;
 243:main.c        ****             return directionState;
ARM GAS  C:\Users\ikui753\AppData\Local\Temp\ccet6i7n.s 			page 21


 244:main.c        ****         }
 245:main.c        ****     
 246:main.c        ****         if (!s2 || !s5) {
 247:main.c        ****             directionState = AdjustToTheLeft;
 248:main.c        ****             return directionState;
 249:main.c        ****         }
 250:main.c        ****     }
 251:main.c        ****     */
 252:main.c        ****     /* COURSE CORRECTION COURSE CORRECTION COURSE CORRETION */
 253:main.c        ****     
 254:main.c        ****     // Left sensor is on black and right sensor is on white
 255:main.c        ****     
 256:main.c        ****     //turn left
 257:main.c        ****     /*
 258:main.c        ****     if (s1 && s2 && !s3 && s4 && s5 && s6) 
 259:main.c        ****         directionState = TurnLeft;
 260:main.c        ****         return directionState;
 261:main.c        ****     }*/
 262:main.c        ****     
 263:main.c        ****     // Right sensor is on white and right sensor is on black
 264:main.c        ****     // everything else is on white
 265:main.c        ****     // turn right if 111011
 266:main.c        ****     if (s1 && s2 && s3 && !s4 && s5 && s6) {
 886              		.loc 1 266 0
 887 004a 4F4B     		ldr	r3, .L48+8
 888 004c 1B78     		ldrb	r3, [r3]	@ zero_extendqisi2
 889 004e 002B     		cmp	r3, #0
 890 0050 17D0     		beq	.L40
 891              		.loc 1 266 0 is_stmt 0 discriminator 1
 892 0052 4E4B     		ldr	r3, .L48+12
 893 0054 1B78     		ldrb	r3, [r3]	@ zero_extendqisi2
 894 0056 002B     		cmp	r3, #0
 895 0058 13D0     		beq	.L40
 896              		.loc 1 266 0 discriminator 2
 897 005a 4D4B     		ldr	r3, .L48+16
 898 005c 1B78     		ldrb	r3, [r3]	@ zero_extendqisi2
 899 005e 002B     		cmp	r3, #0
 900 0060 0FD0     		beq	.L40
 901              		.loc 1 266 0 discriminator 3
 902 0062 4C4B     		ldr	r3, .L48+20
 903 0064 1B78     		ldrb	r3, [r3]	@ zero_extendqisi2
 904 0066 002B     		cmp	r3, #0
 905 0068 0BD1     		bne	.L40
 906              		.loc 1 266 0 discriminator 4
 907 006a 4B4B     		ldr	r3, .L48+24
 908 006c 1B78     		ldrb	r3, [r3]	@ zero_extendqisi2
 909 006e 002B     		cmp	r3, #0
 910 0070 07D0     		beq	.L40
 911              		.loc 1 266 0 discriminator 5
 912 0072 4A4B     		ldr	r3, .L48+28
 913 0074 1B78     		ldrb	r3, [r3]	@ zero_extendqisi2
 914 0076 002B     		cmp	r3, #0
 915 0078 03D0     		beq	.L40
 267:main.c        ****         directionState = TurnRight;
 916              		.loc 1 267 0 is_stmt 1
 917 007a 0123     		movs	r3, #1
 918 007c 7B60     		str	r3, [r7, #4]
ARM GAS  C:\Users\ikui753\AppData\Local\Temp\ccet6i7n.s 			page 22


 268:main.c        ****         return directionState;
 919              		.loc 1 268 0
 920 007e 7B68     		ldr	r3, [r7, #4]
 921 0080 79E0     		b	.L39
 922              	.L40:
 269:main.c        ****     }
 270:main.c        ****     
 271:main.c        ****     
 272:main.c        ****     // ====== After Initial turn ======
 273:main.c        ****     // -- This accounts for the transition period between turning at an intersection --
 274:main.c        ****     if (previousDirection == TurnRight || previousDirection == TurnLeft) {
 923              		.loc 1 274 0
 924 0082 404B     		ldr	r3, .L48+4
 925 0084 1B68     		ldr	r3, [r3]
 926 0086 012B     		cmp	r3, #1
 927 0088 03D0     		beq	.L41
 928              		.loc 1 274 0 is_stmt 0 discriminator 1
 929 008a 3E4B     		ldr	r3, .L48+4
 930 008c 1B68     		ldr	r3, [r3]
 931 008e 022B     		cmp	r3, #2
 932 0090 33D1     		bne	.L42
 933              	.L41:
 275:main.c        ****         if ((s1 && s2 && s3 && !s4 && !s5 && !s6) ||
 934              		.loc 1 275 0 is_stmt 1
 935 0092 3D4B     		ldr	r3, .L48+8
 936 0094 1B78     		ldrb	r3, [r3]	@ zero_extendqisi2
 937 0096 002B     		cmp	r3, #0
 938 0098 13D0     		beq	.L43
 939              		.loc 1 275 0 is_stmt 0 discriminator 1
 940 009a 3C4B     		ldr	r3, .L48+12
 941 009c 1B78     		ldrb	r3, [r3]	@ zero_extendqisi2
 942 009e 002B     		cmp	r3, #0
 943 00a0 0FD0     		beq	.L43
 944              		.loc 1 275 0 discriminator 3
 945 00a2 3B4B     		ldr	r3, .L48+16
 946 00a4 1B78     		ldrb	r3, [r3]	@ zero_extendqisi2
 947 00a6 002B     		cmp	r3, #0
 948 00a8 0BD0     		beq	.L43
 949              		.loc 1 275 0 discriminator 5
 950 00aa 3A4B     		ldr	r3, .L48+20
 951 00ac 1B78     		ldrb	r3, [r3]	@ zero_extendqisi2
 952 00ae 002B     		cmp	r3, #0
 953 00b0 07D1     		bne	.L43
 954              		.loc 1 275 0 discriminator 7
 955 00b2 394B     		ldr	r3, .L48+24
 956 00b4 1B78     		ldrb	r3, [r3]	@ zero_extendqisi2
 957 00b6 002B     		cmp	r3, #0
 958 00b8 03D1     		bne	.L43
 959              		.loc 1 275 0 discriminator 9
 960 00ba 384B     		ldr	r3, .L48+28
 961 00bc 1B78     		ldrb	r3, [r3]	@ zero_extendqisi2
 962 00be 002B     		cmp	r3, #0
 963 00c0 17D0     		beq	.L44
 964              	.L43:
 276:main.c        ****         (s1 && s2 && !s3 && s4 && !s5 && !s6)) {
 965              		.loc 1 276 0 is_stmt 1 discriminator 11
 966 00c2 314B     		ldr	r3, .L48+8
ARM GAS  C:\Users\ikui753\AppData\Local\Temp\ccet6i7n.s 			page 23


 967 00c4 1B78     		ldrb	r3, [r3]	@ zero_extendqisi2
 275:main.c        ****         if ((s1 && s2 && s3 && !s4 && !s5 && !s6) ||
 968              		.loc 1 275 0 discriminator 11
 969 00c6 002B     		cmp	r3, #0
 970 00c8 17D0     		beq	.L42
 971              		.loc 1 276 0
 972 00ca 304B     		ldr	r3, .L48+12
 973 00cc 1B78     		ldrb	r3, [r3]	@ zero_extendqisi2
 974 00ce 002B     		cmp	r3, #0
 975 00d0 13D0     		beq	.L42
 976              		.loc 1 276 0 is_stmt 0 discriminator 1
 977 00d2 2F4B     		ldr	r3, .L48+16
 978 00d4 1B78     		ldrb	r3, [r3]	@ zero_extendqisi2
 979 00d6 002B     		cmp	r3, #0
 980 00d8 0FD1     		bne	.L42
 981              		.loc 1 276 0 discriminator 2
 982 00da 2E4B     		ldr	r3, .L48+20
 983 00dc 1B78     		ldrb	r3, [r3]	@ zero_extendqisi2
 984 00de 002B     		cmp	r3, #0
 985 00e0 0BD0     		beq	.L42
 986              		.loc 1 276 0 discriminator 3
 987 00e2 2D4B     		ldr	r3, .L48+24
 988 00e4 1B78     		ldrb	r3, [r3]	@ zero_extendqisi2
 989 00e6 002B     		cmp	r3, #0
 990 00e8 07D1     		bne	.L42
 991              		.loc 1 276 0 discriminator 4
 992 00ea 2C4B     		ldr	r3, .L48+28
 993 00ec 1B78     		ldrb	r3, [r3]	@ zero_extendqisi2
 994 00ee 002B     		cmp	r3, #0
 995 00f0 03D1     		bne	.L42
 996              	.L44:
 277:main.c        ****             directionState = HardForward;
 997              		.loc 1 277 0 is_stmt 1
 998 00f2 0723     		movs	r3, #7
 999 00f4 7B60     		str	r3, [r7, #4]
 278:main.c        ****             return directionState;
 1000              		.loc 1 278 0
 1001 00f6 7B68     		ldr	r3, [r7, #4]
 1002 00f8 3DE0     		b	.L39
 1003              	.L42:
 279:main.c        ****         }
 280:main.c        ****     }
 281:main.c        ****     
 282:main.c        ****     
 283:main.c        ****     // if all sensors are on black -- we are currently in darkness so don't move
 284:main.c        ****     // OR, all sensors are on white.
 285:main.c        ****     // 111111 || 000000 stop
 286:main.c        ****     if (!(s1 && s2 && s3 && s4 && s5 && s6) ||
 1004              		.loc 1 286 0
 1005 00fa 234B     		ldr	r3, .L48+8
 1006 00fc 1B78     		ldrb	r3, [r3]	@ zero_extendqisi2
 1007 00fe 002B     		cmp	r3, #0
 1008 0100 2BD0     		beq	.L45
 1009              		.loc 1 286 0 is_stmt 0 discriminator 1
 1010 0102 224B     		ldr	r3, .L48+12
 1011 0104 1B78     		ldrb	r3, [r3]	@ zero_extendqisi2
 1012 0106 002B     		cmp	r3, #0
ARM GAS  C:\Users\ikui753\AppData\Local\Temp\ccet6i7n.s 			page 24


 1013 0108 27D0     		beq	.L45
 1014              		.loc 1 286 0 discriminator 2
 1015 010a 214B     		ldr	r3, .L48+16
 1016 010c 1B78     		ldrb	r3, [r3]	@ zero_extendqisi2
 1017 010e 002B     		cmp	r3, #0
 1018 0110 23D0     		beq	.L45
 1019              		.loc 1 286 0 discriminator 3
 1020 0112 204B     		ldr	r3, .L48+20
 1021 0114 1B78     		ldrb	r3, [r3]	@ zero_extendqisi2
 1022 0116 002B     		cmp	r3, #0
 1023 0118 1FD0     		beq	.L45
 1024              		.loc 1 286 0 discriminator 4
 1025 011a 1F4B     		ldr	r3, .L48+24
 1026 011c 1B78     		ldrb	r3, [r3]	@ zero_extendqisi2
 1027 011e 002B     		cmp	r3, #0
 1028 0120 1BD0     		beq	.L45
 1029              		.loc 1 286 0 discriminator 5
 1030 0122 1E4B     		ldr	r3, .L48+28
 1031 0124 1B78     		ldrb	r3, [r3]	@ zero_extendqisi2
 1032 0126 002B     		cmp	r3, #0
 1033 0128 17D0     		beq	.L45
 287:main.c        ****         (s1 && s2 && s3 && s4 && s5 && s6)) {
 1034              		.loc 1 287 0 is_stmt 1 discriminator 6
 1035 012a 174B     		ldr	r3, .L48+8
 1036 012c 1B78     		ldrb	r3, [r3]	@ zero_extendqisi2
 286:main.c        ****         (s1 && s2 && s3 && s4 && s5 && s6)) {
 1037              		.loc 1 286 0 discriminator 6
 1038 012e 002B     		cmp	r3, #0
 1039 0130 17D0     		beq	.L46
 1040              		.loc 1 287 0
 1041 0132 164B     		ldr	r3, .L48+12
 1042 0134 1B78     		ldrb	r3, [r3]	@ zero_extendqisi2
 1043 0136 002B     		cmp	r3, #0
 1044 0138 13D0     		beq	.L46
 1045              		.loc 1 287 0 is_stmt 0 discriminator 1
 1046 013a 154B     		ldr	r3, .L48+16
 1047 013c 1B78     		ldrb	r3, [r3]	@ zero_extendqisi2
 1048 013e 002B     		cmp	r3, #0
 1049 0140 0FD0     		beq	.L46
 1050              		.loc 1 287 0 discriminator 2
 1051 0142 144B     		ldr	r3, .L48+20
 1052 0144 1B78     		ldrb	r3, [r3]	@ zero_extendqisi2
 1053 0146 002B     		cmp	r3, #0
 1054 0148 0BD0     		beq	.L46
 1055              		.loc 1 287 0 discriminator 3
 1056 014a 134B     		ldr	r3, .L48+24
 1057 014c 1B78     		ldrb	r3, [r3]	@ zero_extendqisi2
 1058 014e 002B     		cmp	r3, #0
 1059 0150 07D0     		beq	.L46
 1060              		.loc 1 287 0 discriminator 4
 1061 0152 124B     		ldr	r3, .L48+28
 1062 0154 1B78     		ldrb	r3, [r3]	@ zero_extendqisi2
 1063 0156 002B     		cmp	r3, #0
 1064 0158 03D0     		beq	.L46
 1065              	.L45:
 288:main.c        ****         directionState = Stop;
 1066              		.loc 1 288 0 is_stmt 1
ARM GAS  C:\Users\ikui753\AppData\Local\Temp\ccet6i7n.s 			page 25


 1067 015a 0523     		movs	r3, #5
 1068 015c 7B60     		str	r3, [r7, #4]
 289:main.c        ****         return directionState;
 1069              		.loc 1 289 0
 1070 015e 7B68     		ldr	r3, [r7, #4]
 1071 0160 09E0     		b	.L39
 1072              	.L46:
 290:main.c        ****     }
 291:main.c        ****         
 292:main.c        ****     
 293:main.c        ****     // If the code gets up to this point then no conditions have been met
 294:main.c        ****     // The sensors are in a configuration that has not been covered thus
 295:main.c        ****     // the currentDirection to turn into is unknown.
 296:main.c        ****         
 297:main.c        ****     // If currentDirection is Unknown, we continue with the previous direction.
 298:main.c        ****     // However, if the previous direction is also Unknown, we will just move forward.
 299:main.c        ****     if (previousDirection == Unknown) {
 1073              		.loc 1 299 0
 1074 0162 084B     		ldr	r3, .L48+4
 1075 0164 1B68     		ldr	r3, [r3]
 1076 0166 062B     		cmp	r3, #6
 1077 0168 03D1     		bne	.L47
 300:main.c        ****         directionState = Forward;
 1078              		.loc 1 300 0
 1079 016a 0023     		movs	r3, #0
 1080 016c 7B60     		str	r3, [r7, #4]
 301:main.c        ****         return directionState;
 1081              		.loc 1 301 0
 1082 016e 7B68     		ldr	r3, [r7, #4]
 1083 0170 01E0     		b	.L39
 1084              	.L47:
 302:main.c        ****     }
 303:main.c        ****             
 304:main.c        ****     return previousDirection;
 1085              		.loc 1 304 0
 1086 0172 044B     		ldr	r3, .L48+4
 1087 0174 1B68     		ldr	r3, [r3]
 1088              	.L39:
 305:main.c        **** }
 1089              		.loc 1 305 0
 1090 0176 1846     		mov	r0, r3
 1091 0178 0C37     		adds	r7, r7, #12
 1092              		.cfi_def_cfa_offset 4
 1093 017a BD46     		mov	sp, r7
 1094              		.cfi_def_cfa_register 13
 1095              		@ sp needed
 1096 017c 80BC     		pop	{r7}
 1097              		.cfi_restore 7
 1098              		.cfi_def_cfa_offset 0
 1099 017e 7047     		bx	lr
 1100              	.L49:
 1101              		.align	2
 1102              	.L48:
 1103 0180 00000000 		.word	currentDirection
 1104 0184 00000000 		.word	previousDirection
 1105 0188 00000000 		.word	s1
 1106 018c 00000000 		.word	s2
ARM GAS  C:\Users\ikui753\AppData\Local\Temp\ccet6i7n.s 			page 26


 1107 0190 00000000 		.word	s3
 1108 0194 00000000 		.word	s4
 1109 0198 00000000 		.word	s5
 1110 019c 00000000 		.word	s6
 1111              		.cfi_endproc
 1112              	.LFE75:
 1113              		.size	CheckSensorDirection, .-CheckSensorDirection
 1114              		.section	.text.SetRobotMovement,"ax",%progbits
 1115              		.align	2
 1116              		.global	SetRobotMovement
 1117              		.thumb
 1118              		.thumb_func
 1119              		.type	SetRobotMovement, %function
 1120              	SetRobotMovement:
 1121              	.LFB76:
 306:main.c        **** 
 307:main.c        **** // Sets robot movement direction state according to currentDirection which is set by Check
 308:main.c        **** void SetRobotMovement() {
 1122              		.loc 1 308 0
 1123              		.cfi_startproc
 1124              		@ args = 0, pretend = 0, frame = 0
 1125              		@ frame_needed = 1, uses_anonymous_args = 0
 1126 0000 80B5     		push	{r7, lr}
 1127              		.cfi_def_cfa_offset 8
 1128              		.cfi_offset 7, -8
 1129              		.cfi_offset 14, -4
 1130 0002 00AF     		add	r7, sp, #0
 1131              		.cfi_def_cfa_register 7
 309:main.c        ****     currentDirection = CheckSensorDirection();   
 1132              		.loc 1 309 0
 1133 0004 FFF7FEFF 		bl	CheckSensorDirection
 1134 0008 0246     		mov	r2, r0
 1135 000a 184B     		ldr	r3, .L63
 1136 000c 1A60     		str	r2, [r3]
 310:main.c        ****     
 311:main.c        ****     switch (currentDirection) {
 1137              		.loc 1 311 0
 1138 000e 174B     		ldr	r3, .L63
 1139 0010 1B68     		ldr	r3, [r3]
 1140 0012 072B     		cmp	r3, #7
 1141 0014 28D8     		bhi	.L61
 1142 0016 01A2     		adr	r2, .L53
 1143 0018 52F823F0 		ldr	pc, [r2, r3, lsl #2]
 1144              		.p2align 2
 1145              	.L53:
 1146 001c 3D000000 		.word	.L52+1
 1147 0020 43000000 		.word	.L54+1
 1148 0024 49000000 		.word	.L55+1
 1149 0028 55000000 		.word	.L56+1
 1150 002c 4F000000 		.word	.L57+1
 1151 0030 5B000000 		.word	.L58+1
 1152 0034 67000000 		.word	.L62+1
 1153 0038 61000000 		.word	.L60+1
 1154              		.p2align 1
 1155              	.L52:
 312:main.c        ****         //Forward, TurnRight, TurnLeft, AdjustToTheRight, AdjustToTheLeft, Stop, Unknown
 313:main.c        ****         case Forward:
ARM GAS  C:\Users\ikui753\AppData\Local\Temp\ccet6i7n.s 			page 27


 314:main.c        ****             moveForward();
 1156              		.loc 1 314 0
 1157 003c FFF7FEFF 		bl	moveForward
 315:main.c        ****             break;
 1158              		.loc 1 315 0
 1159 0040 12E0     		b	.L51
 1160              	.L54:
 316:main.c        ****         case TurnRight:
 317:main.c        ****             rotationClockwise();
 1161              		.loc 1 317 0
 1162 0042 FFF7FEFF 		bl	rotationClockwise
 318:main.c        ****             break;
 1163              		.loc 1 318 0
 1164 0046 0FE0     		b	.L51
 1165              	.L55:
 319:main.c        ****         case TurnLeft:
 320:main.c        ****             rotationAntiClockwise();
 1166              		.loc 1 320 0
 1167 0048 FFF7FEFF 		bl	rotationAntiClockwise
 321:main.c        ****             break;
 1168              		.loc 1 321 0
 1169 004c 0CE0     		b	.L51
 1170              	.L57:
 322:main.c        ****         case AdjustToTheRight:
 323:main.c        ****             keepRotatingClockwise();
 1171              		.loc 1 323 0
 1172 004e FFF7FEFF 		bl	keepRotatingClockwise
 324:main.c        ****             break;
 1173              		.loc 1 324 0
 1174 0052 09E0     		b	.L51
 1175              	.L56:
 325:main.c        ****         case AdjustToTheLeft:
 326:main.c        ****             keepRotatingAntiClockwise();
 1176              		.loc 1 326 0
 1177 0054 FFF7FEFF 		bl	keepRotatingAntiClockwise
 327:main.c        ****             break;
 1178              		.loc 1 327 0
 1179 0058 06E0     		b	.L51
 1180              	.L58:
 328:main.c        ****         case Stop:
 329:main.c        ****             stopMoving();
 1181              		.loc 1 329 0
 1182 005a FFF7FEFF 		bl	stopMoving
 330:main.c        ****             break;
 1183              		.loc 1 330 0
 1184 005e 03E0     		b	.L51
 1185              	.L60:
 331:main.c        ****         case HardForward:
 332:main.c        ****             moveForwardForSpecifiedCount();
 1186              		.loc 1 332 0
 1187 0060 FFF7FEFF 		bl	moveForwardForSpecifiedCount
 333:main.c        ****             break;
 1188              		.loc 1 333 0
 1189 0064 00E0     		b	.L51
 1190              	.L62:
 334:main.c        ****         case Unknown:
 335:main.c        ****             // UNKNOWN CONFIGURATION
ARM GAS  C:\Users\ikui753\AppData\Local\Temp\ccet6i7n.s 			page 28


 336:main.c        ****             break;  
 1191              		.loc 1 336 0
 1192 0066 00BF     		nop
 1193              	.L51:
 1194              	.L61:
 337:main.c        ****     }
 338:main.c        **** }
 1195              		.loc 1 338 0
 1196 0068 00BF     		nop
 1197 006a 80BD     		pop	{r7, pc}
 1198              	.L64:
 1199              		.align	2
 1200              	.L63:
 1201 006c 00000000 		.word	currentDirection
 1202              		.cfi_endproc
 1203              	.LFE76:
 1204              		.size	SetRobotMovement, .-SetRobotMovement
 1205              		.section	.text.usbPutString,"ax",%progbits
 1206              		.align	2
 1207              		.global	usbPutString
 1208              		.thumb
 1209              		.thumb_func
 1210              		.type	usbPutString, %function
 1211              	usbPutString:
 1212              	.LFB77:
 339:main.c        **** 
 340:main.c        **** // ======================================
 341:main.c        **** // USBUART
 342:main.c        **** //* ========================================
 343:main.c        ****     void usbPutString(char *s)
 344:main.c        **** {
 1213              		.loc 1 344 0
 1214              		.cfi_startproc
 1215              		@ args = 0, pretend = 0, frame = 8
 1216              		@ frame_needed = 1, uses_anonymous_args = 0
 1217 0000 80B5     		push	{r7, lr}
 1218              		.cfi_def_cfa_offset 8
 1219              		.cfi_offset 7, -8
 1220              		.cfi_offset 14, -4
 1221 0002 82B0     		sub	sp, sp, #8
 1222              		.cfi_def_cfa_offset 16
 1223 0004 00AF     		add	r7, sp, #0
 1224              		.cfi_def_cfa_register 7
 1225 0006 7860     		str	r0, [r7, #4]
 345:main.c        **** // !! Assumes that *s is a string with allocated space >=64 chars     
 346:main.c        **** //  Since USB implementation retricts data packets to 64 chars, this function truncates the
 347:main.c        **** //  length to 62 char (63rd char is a '!')
 348:main.c        **** 
 349:main.c        **** #ifdef USE_USB     
 350:main.c        ****     while (USBUART_CDCIsReady() == 0);
 1226              		.loc 1 350 0
 1227 0008 00BF     		nop
 1228              	.L66:
 1229              		.loc 1 350 0 is_stmt 0 discriminator 1
 1230 000a FFF7FEFF 		bl	USBUART_CDCIsReady
 1231 000e 0346     		mov	r3, r0
 1232 0010 002B     		cmp	r3, #0
ARM GAS  C:\Users\ikui753\AppData\Local\Temp\ccet6i7n.s 			page 29


 1233 0012 FAD0     		beq	.L66
 351:main.c        ****     s[63]='\0';
 1234              		.loc 1 351 0 is_stmt 1
 1235 0014 7B68     		ldr	r3, [r7, #4]
 1236 0016 3F33     		adds	r3, r3, #63
 1237 0018 0022     		movs	r2, #0
 1238 001a 1A70     		strb	r2, [r3]
 352:main.c        ****     s[62]='!';
 1239              		.loc 1 352 0
 1240 001c 7B68     		ldr	r3, [r7, #4]
 1241 001e 3E33     		adds	r3, r3, #62
 1242 0020 2122     		movs	r2, #33
 1243 0022 1A70     		strb	r2, [r3]
 353:main.c        ****     USBUART_PutData((uint8*)s,strlen(s));
 1244              		.loc 1 353 0
 1245 0024 7868     		ldr	r0, [r7, #4]
 1246 0026 FFF7FEFF 		bl	strlen
 1247 002a 0346     		mov	r3, r0
 1248 002c 9BB2     		uxth	r3, r3
 1249 002e 1946     		mov	r1, r3
 1250 0030 7868     		ldr	r0, [r7, #4]
 1251 0032 FFF7FEFF 		bl	USBUART_PutData
 354:main.c        **** #endif
 355:main.c        **** }
 1252              		.loc 1 355 0
 1253 0036 00BF     		nop
 1254 0038 0837     		adds	r7, r7, #8
 1255              		.cfi_def_cfa_offset 8
 1256 003a BD46     		mov	sp, r7
 1257              		.cfi_def_cfa_register 13
 1258              		@ sp needed
 1259 003c 80BD     		pop	{r7, pc}
 1260              		.cfi_endproc
 1261              	.LFE77:
 1262              		.size	usbPutString, .-usbPutString
 1263 003e 00BF     		.section	.text.usbPutChar,"ax",%progbits
 1264              		.align	2
 1265              		.global	usbPutChar
 1266              		.thumb
 1267              		.thumb_func
 1268              		.type	usbPutChar, %function
 1269              	usbPutChar:
 1270              	.LFB78:
 356:main.c        **** //* ========================================
 357:main.c        **** void usbPutChar(char c)
 358:main.c        **** {
 1271              		.loc 1 358 0
 1272              		.cfi_startproc
 1273              		@ args = 0, pretend = 0, frame = 8
 1274              		@ frame_needed = 1, uses_anonymous_args = 0
 1275 0000 80B5     		push	{r7, lr}
 1276              		.cfi_def_cfa_offset 8
 1277              		.cfi_offset 7, -8
 1278              		.cfi_offset 14, -4
 1279 0002 82B0     		sub	sp, sp, #8
 1280              		.cfi_def_cfa_offset 16
 1281 0004 00AF     		add	r7, sp, #0
ARM GAS  C:\Users\ikui753\AppData\Local\Temp\ccet6i7n.s 			page 30


 1282              		.cfi_def_cfa_register 7
 1283 0006 0346     		mov	r3, r0
 1284 0008 FB71     		strb	r3, [r7, #7]
 359:main.c        **** #ifdef USE_USB     
 360:main.c        ****     while (USBUART_CDCIsReady() == 0);
 1285              		.loc 1 360 0
 1286 000a 00BF     		nop
 1287              	.L68:
 1288              		.loc 1 360 0 is_stmt 0 discriminator 1
 1289 000c FFF7FEFF 		bl	USBUART_CDCIsReady
 1290 0010 0346     		mov	r3, r0
 1291 0012 002B     		cmp	r3, #0
 1292 0014 FAD0     		beq	.L68
 361:main.c        ****     USBUART_PutChar(c);
 1293              		.loc 1 361 0 is_stmt 1
 1294 0016 FB79     		ldrb	r3, [r7, #7]	@ zero_extendqisi2
 1295 0018 1846     		mov	r0, r3
 1296 001a FFF7FEFF 		bl	USBUART_PutChar
 362:main.c        **** #endif    
 363:main.c        **** }
 1297              		.loc 1 363 0
 1298 001e 00BF     		nop
 1299 0020 0837     		adds	r7, r7, #8
 1300              		.cfi_def_cfa_offset 8
 1301 0022 BD46     		mov	sp, r7
 1302              		.cfi_def_cfa_register 13
 1303              		@ sp needed
 1304 0024 80BD     		pop	{r7, pc}
 1305              		.cfi_endproc
 1306              	.LFE78:
 1307              		.size	usbPutChar, .-usbPutChar
 1308 0026 00BF     		.section	.text.handle_usb,"ax",%progbits
 1309              		.align	2
 1310              		.global	handle_usb
 1311              		.thumb
 1312              		.thumb_func
 1313              		.type	handle_usb, %function
 1314              	handle_usb:
 1315              	.LFB79:
 364:main.c        **** //* ========================================
 365:main.c        **** void handle_usb()
 366:main.c        **** {
 1316              		.loc 1 366 0
 1317              		.cfi_startproc
 1318              		@ args = 0, pretend = 0, frame = 8
 1319              		@ frame_needed = 1, uses_anonymous_args = 0
 1320 0000 80B5     		push	{r7, lr}
 1321              		.cfi_def_cfa_offset 8
 1322              		.cfi_offset 7, -8
 1323              		.cfi_offset 14, -4
 1324 0002 82B0     		sub	sp, sp, #8
 1325              		.cfi_def_cfa_offset 16
 1326 0004 00AF     		add	r7, sp, #0
 1327              		.cfi_def_cfa_register 7
 367:main.c        ****     // handles input at terminal, echos it back to the terminal
 368:main.c        ****     // turn echo OFF, key emulation: only CR
 369:main.c        ****     // entered string is made available in 'line' and 'flag_KB_string' is set
ARM GAS  C:\Users\ikui753\AppData\Local\Temp\ccet6i7n.s 			page 31


 370:main.c        ****     
 371:main.c        ****     static uint8 usbStarted = FALSE;
 372:main.c        ****     static uint16 usbBufCount = 0;
 373:main.c        ****     uint8 c; 
 374:main.c        ****     
 375:main.c        **** 
 376:main.c        ****     if (!usbStarted)
 1328              		.loc 1 376 0
 1329 0006 2B4B     		ldr	r3, .L79
 1330 0008 1B78     		ldrb	r3, [r3]	@ zero_extendqisi2
 1331 000a 002B     		cmp	r3, #0
 1332 000c 0AD1     		bne	.L70
 377:main.c        ****     {
 378:main.c        ****         if (USBUART_GetConfiguration())
 1333              		.loc 1 378 0
 1334 000e FFF7FEFF 		bl	USBUART_GetConfiguration
 1335 0012 0346     		mov	r3, r0
 1336 0014 002B     		cmp	r3, #0
 1337 0016 49D0     		beq	.L78
 379:main.c        ****         {
 380:main.c        ****             USBUART_CDC_Init();
 1338              		.loc 1 380 0
 1339 0018 FFF7FEFF 		bl	USBUART_CDC_Init
 381:main.c        ****             usbStarted = TRUE;
 1340              		.loc 1 381 0
 1341 001c 254B     		ldr	r3, .L79
 1342 001e 0122     		movs	r2, #1
 1343 0020 1A70     		strb	r2, [r3]
 382:main.c        ****         }
 383:main.c        ****     }
 384:main.c        ****     else
 385:main.c        ****     {
 386:main.c        ****         if (USBUART_DataIsReady() != 0)
 387:main.c        ****         {  
 388:main.c        ****             c = USBUART_GetChar();
 389:main.c        **** 
 390:main.c        ****             if ((c == 13) || (c == 10))
 391:main.c        ****             {
 392:main.c        **** //                if (usbBufCount > 0)
 393:main.c        ****                 {
 394:main.c        ****                     entry[usbBufCount]= '\0';
 395:main.c        ****                     strcpy(line,entry);
 396:main.c        ****                     usbBufCount = 0;
 397:main.c        ****                     flag_KB_string = 1;
 398:main.c        ****                 }
 399:main.c        ****             }
 400:main.c        ****             else 
 401:main.c        ****             {
 402:main.c        ****                 if (((c == CHAR_BACKSP) || (c == CHAR_DEL) ) && (usbBufCount > 0) )
 403:main.c        ****                     usbBufCount--;
 404:main.c        ****                 else
 405:main.c        ****                 {
 406:main.c        ****                     if (usbBufCount > (BUF_SIZE-2) ) // one less else strtok triggers a crash
 407:main.c        ****                     {
 408:main.c        ****                        USBUART_PutChar('!');        
 409:main.c        ****                     }
 410:main.c        ****                     else
ARM GAS  C:\Users\ikui753\AppData\Local\Temp\ccet6i7n.s 			page 32


 411:main.c        ****                         entry[usbBufCount++] = c;  
 412:main.c        ****                 }  
 413:main.c        ****             }
 414:main.c        ****         }
 415:main.c        ****     }    
 416:main.c        **** }
 1344              		.loc 1 416 0
 1345 0022 43E0     		b	.L78
 1346              	.L70:
 386:main.c        ****         {  
 1347              		.loc 1 386 0
 1348 0024 FFF7FEFF 		bl	USBUART_DataIsReady
 1349 0028 0346     		mov	r3, r0
 1350 002a 002B     		cmp	r3, #0
 1351 002c 3ED0     		beq	.L78
 388:main.c        **** 
 1352              		.loc 1 388 0
 1353 002e FFF7FEFF 		bl	USBUART_GetChar
 1354 0032 0346     		mov	r3, r0
 1355 0034 FB71     		strb	r3, [r7, #7]
 390:main.c        ****             {
 1356              		.loc 1 390 0
 1357 0036 FB79     		ldrb	r3, [r7, #7]	@ zero_extendqisi2
 1358 0038 0D2B     		cmp	r3, #13
 1359 003a 02D0     		beq	.L73
 390:main.c        ****             {
 1360              		.loc 1 390 0 is_stmt 0 discriminator 1
 1361 003c FB79     		ldrb	r3, [r7, #7]	@ zero_extendqisi2
 1362 003e 0A2B     		cmp	r3, #10
 1363 0040 10D1     		bne	.L74
 1364              	.L73:
 394:main.c        ****                     strcpy(line,entry);
 1365              		.loc 1 394 0 is_stmt 1
 1366 0042 1D4B     		ldr	r3, .L79+4
 1367 0044 1B88     		ldrh	r3, [r3]
 1368 0046 1A46     		mov	r2, r3
 1369 0048 1C4B     		ldr	r3, .L79+8
 1370 004a 0021     		movs	r1, #0
 1371 004c 9954     		strb	r1, [r3, r2]
 395:main.c        ****                     usbBufCount = 0;
 1372              		.loc 1 395 0
 1373 004e 1B49     		ldr	r1, .L79+8
 1374 0050 1B48     		ldr	r0, .L79+12
 1375 0052 FFF7FEFF 		bl	strcpy
 396:main.c        ****                     flag_KB_string = 1;
 1376              		.loc 1 396 0
 1377 0056 184B     		ldr	r3, .L79+4
 1378 0058 0022     		movs	r2, #0
 1379 005a 1A80     		strh	r2, [r3]	@ movhi
 397:main.c        ****                 }
 1380              		.loc 1 397 0
 1381 005c 194B     		ldr	r3, .L79+16
 1382 005e 0122     		movs	r2, #1
 1383 0060 1A70     		strb	r2, [r3]
 1384 0062 23E0     		b	.L72
 1385              	.L74:
 402:main.c        ****                     usbBufCount--;
ARM GAS  C:\Users\ikui753\AppData\Local\Temp\ccet6i7n.s 			page 33


 1386              		.loc 1 402 0
 1387 0064 FB79     		ldrb	r3, [r7, #7]	@ zero_extendqisi2
 1388 0066 082B     		cmp	r3, #8
 1389 0068 02D0     		beq	.L75
 402:main.c        ****                     usbBufCount--;
 1390              		.loc 1 402 0 is_stmt 0 discriminator 2
 1391 006a FB79     		ldrb	r3, [r7, #7]	@ zero_extendqisi2
 1392 006c 7F2B     		cmp	r3, #127
 1393 006e 0AD1     		bne	.L76
 1394              	.L75:
 402:main.c        ****                     usbBufCount--;
 1395              		.loc 1 402 0 discriminator 3
 1396 0070 114B     		ldr	r3, .L79+4
 1397 0072 1B88     		ldrh	r3, [r3]
 1398 0074 002B     		cmp	r3, #0
 1399 0076 06D0     		beq	.L76
 403:main.c        ****                 else
 1400              		.loc 1 403 0 is_stmt 1
 1401 0078 0F4B     		ldr	r3, .L79+4
 1402 007a 1B88     		ldrh	r3, [r3]
 1403 007c 013B     		subs	r3, r3, #1
 1404 007e 9AB2     		uxth	r2, r3
 1405 0080 0D4B     		ldr	r3, .L79+4
 1406 0082 1A80     		strh	r2, [r3]	@ movhi
 1407 0084 12E0     		b	.L72
 1408              	.L76:
 406:main.c        ****                     {
 1409              		.loc 1 406 0
 1410 0086 0C4B     		ldr	r3, .L79+4
 1411 0088 1B88     		ldrh	r3, [r3]
 1412 008a 3E2B     		cmp	r3, #62
 1413 008c 03D9     		bls	.L77
 408:main.c        ****                     }
 1414              		.loc 1 408 0
 1415 008e 2120     		movs	r0, #33
 1416 0090 FFF7FEFF 		bl	USBUART_PutChar
 1417              		.loc 1 416 0
 1418 0094 0AE0     		b	.L78
 1419              	.L77:
 411:main.c        ****                 }  
 1420              		.loc 1 411 0
 1421 0096 084B     		ldr	r3, .L79+4
 1422 0098 1B88     		ldrh	r3, [r3]
 1423 009a 5A1C     		adds	r2, r3, #1
 1424 009c 91B2     		uxth	r1, r2
 1425 009e 064A     		ldr	r2, .L79+4
 1426 00a0 1180     		strh	r1, [r2]	@ movhi
 1427 00a2 1946     		mov	r1, r3
 1428 00a4 054A     		ldr	r2, .L79+8
 1429 00a6 FB79     		ldrb	r3, [r7, #7]
 1430 00a8 5354     		strb	r3, [r2, r1]
 1431              		.loc 1 416 0
 1432 00aa FFE7     		b	.L78
 1433              	.L72:
 1434              	.L78:
 1435 00ac 00BF     		nop
 1436 00ae 0837     		adds	r7, r7, #8
ARM GAS  C:\Users\ikui753\AppData\Local\Temp\ccet6i7n.s 			page 34


 1437              		.cfi_def_cfa_offset 8
 1438 00b0 BD46     		mov	sp, r7
 1439              		.cfi_def_cfa_register 13
 1440              		@ sp needed
 1441 00b2 80BD     		pop	{r7, pc}
 1442              	.L80:
 1443              		.align	2
 1444              	.L79:
 1445 00b4 2C000000 		.word	usbStarted.8239
 1446 00b8 2E000000 		.word	usbBufCount.8240
 1447 00bc 00000000 		.word	entry
 1448 00c0 00000000 		.word	line
 1449 00c4 00000000 		.word	flag_KB_string
 1450              		.cfi_endproc
 1451              	.LFE79:
 1452              		.size	handle_usb, .-handle_usb
 1453              		.bss
 1454              	usbStarted.8239:
 1455 002c 00       		.space	1
 1456 002d 00       		.align	1
 1457              	usbBufCount.8240:
 1458 002e 0000     		.space	2
 1459              		.text
 1460              	.Letext0:
 1461              		.file 2 "c:\\program files (x86)\\cypress\\psoc creator\\4.2\\psoc creator\\import\\gnu\\arm\\5.4.
 1462              		.file 3 "c:\\program files (x86)\\cypress\\psoc creator\\4.2\\psoc creator\\import\\gnu\\arm\\5.4.
 1463              		.file 4 "Generated_Source\\PSoC5/cytypes.h"
 1464              		.file 5 "vars.h"
 1465              		.file 6 "Generated_Source\\PSoC5/core_cm3.h"
 1466              		.section	.debug_info,"",%progbits
 1467              	.Ldebug_info0:
 1468 0000 24060000 		.4byte	0x624
 1469 0004 0400     		.2byte	0x4
 1470 0006 00000000 		.4byte	.Ldebug_abbrev0
 1471 000a 04       		.byte	0x4
 1472 000b 01       		.uleb128 0x1
 1473 000c 89000000 		.4byte	.LASF91
 1474 0010 0C       		.byte	0xc
 1475 0011 47040000 		.4byte	.LASF92
 1476 0015 F6010000 		.4byte	.LASF93
 1477 0019 00000000 		.4byte	.Ldebug_ranges0+0
 1478 001d 00000000 		.4byte	0
 1479 0021 00000000 		.4byte	.Ldebug_line0
 1480 0025 02       		.uleb128 0x2
 1481 0026 01       		.byte	0x1
 1482 0027 06       		.byte	0x6
 1483 0028 0F030000 		.4byte	.LASF0
 1484 002c 02       		.uleb128 0x2
 1485 002d 01       		.byte	0x1
 1486 002e 08       		.byte	0x8
 1487 002f 93020000 		.4byte	.LASF1
 1488 0033 02       		.uleb128 0x2
 1489 0034 02       		.byte	0x2
 1490 0035 05       		.byte	0x5
 1491 0036 50000000 		.4byte	.LASF2
 1492 003a 02       		.uleb128 0x2
 1493 003b 02       		.byte	0x2
ARM GAS  C:\Users\ikui753\AppData\Local\Temp\ccet6i7n.s 			page 35


 1494 003c 07       		.byte	0x7
 1495 003d AF030000 		.4byte	.LASF3
 1496 0041 03       		.uleb128 0x3
 1497 0042 9A040000 		.4byte	.LASF12
 1498 0046 02       		.byte	0x2
 1499 0047 3F       		.byte	0x3f
 1500 0048 4C000000 		.4byte	0x4c
 1501 004c 02       		.uleb128 0x2
 1502 004d 04       		.byte	0x4
 1503 004e 05       		.byte	0x5
 1504 004f CC010000 		.4byte	.LASF4
 1505 0053 02       		.uleb128 0x2
 1506 0054 04       		.byte	0x4
 1507 0055 07       		.byte	0x7
 1508 0056 4E040000 		.4byte	.LASF5
 1509 005a 02       		.uleb128 0x2
 1510 005b 08       		.byte	0x8
 1511 005c 05       		.byte	0x5
 1512 005d 80010000 		.4byte	.LASF6
 1513 0061 02       		.uleb128 0x2
 1514 0062 08       		.byte	0x8
 1515 0063 07       		.byte	0x7
 1516 0064 23030000 		.4byte	.LASF7
 1517 0068 04       		.uleb128 0x4
 1518 0069 04       		.byte	0x4
 1519 006a 05       		.byte	0x5
 1520 006b 696E7400 		.ascii	"int\000"
 1521 006f 02       		.uleb128 0x2
 1522 0070 04       		.byte	0x4
 1523 0071 07       		.byte	0x7
 1524 0072 4B030000 		.4byte	.LASF8
 1525 0076 02       		.uleb128 0x2
 1526 0077 08       		.byte	0x8
 1527 0078 04       		.byte	0x4
 1528 0079 B9020000 		.4byte	.LASF9
 1529 007d 02       		.uleb128 0x2
 1530 007e 04       		.byte	0x4
 1531 007f 07       		.byte	0x7
 1532 0080 67000000 		.4byte	.LASF10
 1533 0084 05       		.uleb128 0x5
 1534 0085 04       		.byte	0x4
 1535 0086 8A000000 		.4byte	0x8a
 1536 008a 02       		.uleb128 0x2
 1537 008b 01       		.byte	0x1
 1538 008c 08       		.byte	0x8
 1539 008d DD030000 		.4byte	.LASF11
 1540 0091 03       		.uleb128 0x3
 1541 0092 1B030000 		.4byte	.LASF13
 1542 0096 03       		.byte	0x3
 1543 0097 2C       		.byte	0x2c
 1544 0098 41000000 		.4byte	0x41
 1545 009c 06       		.uleb128 0x6
 1546 009d 62010000 		.4byte	.LASF14
 1547 00a1 04       		.byte	0x4
 1548 00a2 E701     		.2byte	0x1e7
 1549 00a4 2C000000 		.4byte	0x2c
 1550 00a8 06       		.uleb128 0x6
ARM GAS  C:\Users\ikui753\AppData\Local\Temp\ccet6i7n.s 			page 36


 1551 00a9 38010000 		.4byte	.LASF15
 1552 00ad 04       		.byte	0x4
 1553 00ae E801     		.2byte	0x1e8
 1554 00b0 3A000000 		.4byte	0x3a
 1555 00b4 06       		.uleb128 0x6
 1556 00b5 40040000 		.4byte	.LASF16
 1557 00b9 04       		.byte	0x4
 1558 00ba E901     		.2byte	0x1e9
 1559 00bc 53000000 		.4byte	0x53
 1560 00c0 06       		.uleb128 0x6
 1561 00c1 9B010000 		.4byte	.LASF17
 1562 00c5 04       		.byte	0x4
 1563 00c6 EA01     		.2byte	0x1ea
 1564 00c8 25000000 		.4byte	0x25
 1565 00cc 06       		.uleb128 0x6
 1566 00cd 50010000 		.4byte	.LASF18
 1567 00d1 04       		.byte	0x4
 1568 00d2 EB01     		.2byte	0x1eb
 1569 00d4 33000000 		.4byte	0x33
 1570 00d8 02       		.uleb128 0x2
 1571 00d9 04       		.byte	0x4
 1572 00da 04       		.byte	0x4
 1573 00db 7A010000 		.4byte	.LASF19
 1574 00df 02       		.uleb128 0x2
 1575 00e0 08       		.byte	0x8
 1576 00e1 04       		.byte	0x4
 1577 00e2 27000000 		.4byte	.LASF20
 1578 00e6 07       		.uleb128 0x7
 1579 00e7 C2030000 		.4byte	.LASF94
 1580 00eb 20       		.byte	0x20
 1581 00ec 05       		.byte	0x5
 1582 00ed 29       		.byte	0x29
 1583 00ee BF010000 		.4byte	0x1bf
 1584 00f2 08       		.uleb128 0x8
 1585 00f3 34050000 		.4byte	.LASF21
 1586 00f7 05       		.byte	0x5
 1587 00f8 2A       		.byte	0x2a
 1588 00f9 C0000000 		.4byte	0xc0
 1589 00fd 00       		.byte	0
 1590 00fe 08       		.uleb128 0x8
 1591 00ff 3F010000 		.4byte	.LASF22
 1592 0103 05       		.byte	0x5
 1593 0104 2B       		.byte	0x2b
 1594 0105 9C000000 		.4byte	0x9c
 1595 0109 01       		.byte	0x1
 1596 010a 08       		.uleb128 0x8
 1597 010b 24040000 		.4byte	.LASF23
 1598 010f 05       		.byte	0x5
 1599 0110 2C       		.byte	0x2c
 1600 0111 CC000000 		.4byte	0xcc
 1601 0115 02       		.byte	0x2
 1602 0116 08       		.uleb128 0x8
 1603 0117 FC040000 		.4byte	.LASF24
 1604 011b 05       		.byte	0x5
 1605 011c 2D       		.byte	0x2d
 1606 011d CC000000 		.4byte	0xcc
 1607 0121 04       		.byte	0x4
ARM GAS  C:\Users\ikui753\AppData\Local\Temp\ccet6i7n.s 			page 37


 1608 0122 08       		.uleb128 0x8
 1609 0123 39050000 		.4byte	.LASF25
 1610 0127 05       		.byte	0x5
 1611 0128 2E       		.byte	0x2e
 1612 0129 CC000000 		.4byte	0xcc
 1613 012d 06       		.byte	0x6
 1614 012e 08       		.uleb128 0x8
 1615 012f C4010000 		.4byte	.LASF26
 1616 0133 05       		.byte	0x5
 1617 0134 2F       		.byte	0x2f
 1618 0135 CC000000 		.4byte	0xcc
 1619 0139 08       		.byte	0x8
 1620 013a 08       		.uleb128 0x8
 1621 013b A9040000 		.4byte	.LASF27
 1622 013f 05       		.byte	0x5
 1623 0140 30       		.byte	0x30
 1624 0141 CC000000 		.4byte	0xcc
 1625 0145 0A       		.byte	0xa
 1626 0146 08       		.uleb128 0x8
 1627 0147 EF020000 		.4byte	.LASF28
 1628 014b 05       		.byte	0x5
 1629 014c 31       		.byte	0x31
 1630 014d CC000000 		.4byte	0xcc
 1631 0151 0C       		.byte	0xc
 1632 0152 08       		.uleb128 0x8
 1633 0153 B7010000 		.4byte	.LASF29
 1634 0157 05       		.byte	0x5
 1635 0158 32       		.byte	0x32
 1636 0159 CC000000 		.4byte	0xcc
 1637 015d 0E       		.byte	0xe
 1638 015e 08       		.uleb128 0x8
 1639 015f 07030000 		.4byte	.LASF30
 1640 0163 05       		.byte	0x5
 1641 0164 33       		.byte	0x33
 1642 0165 CC000000 		.4byte	0xcc
 1643 0169 10       		.byte	0x10
 1644 016a 08       		.uleb128 0x8
 1645 016b F8030000 		.4byte	.LASF31
 1646 016f 05       		.byte	0x5
 1647 0170 34       		.byte	0x34
 1648 0171 CC000000 		.4byte	0xcc
 1649 0175 12       		.byte	0x12
 1650 0176 08       		.uleb128 0x8
 1651 0177 0D040000 		.4byte	.LASF32
 1652 017b 05       		.byte	0x5
 1653 017c 35       		.byte	0x35
 1654 017d CC000000 		.4byte	0xcc
 1655 0181 14       		.byte	0x14
 1656 0182 08       		.uleb128 0x8
 1657 0183 68010000 		.4byte	.LASF33
 1658 0187 05       		.byte	0x5
 1659 0188 36       		.byte	0x36
 1660 0189 CC000000 		.4byte	0xcc
 1661 018d 16       		.byte	0x16
 1662 018e 08       		.uleb128 0x8
 1663 018f 48000000 		.4byte	.LASF34
 1664 0193 05       		.byte	0x5
ARM GAS  C:\Users\ikui753\AppData\Local\Temp\ccet6i7n.s 			page 38


 1665 0194 37       		.byte	0x37
 1666 0195 CC000000 		.4byte	0xcc
 1667 0199 18       		.byte	0x18
 1668 019a 08       		.uleb128 0x8
 1669 019b AF010000 		.4byte	.LASF35
 1670 019f 05       		.byte	0x5
 1671 01a0 38       		.byte	0x38
 1672 01a1 CC000000 		.4byte	0xcc
 1673 01a5 1A       		.byte	0x1a
 1674 01a6 08       		.uleb128 0x8
 1675 01a7 9A030000 		.4byte	.LASF36
 1676 01ab 05       		.byte	0x5
 1677 01ac 39       		.byte	0x39
 1678 01ad CC000000 		.4byte	0xcc
 1679 01b1 1C       		.byte	0x1c
 1680 01b2 08       		.uleb128 0x8
 1681 01b3 00040000 		.4byte	.LASF37
 1682 01b7 05       		.byte	0x5
 1683 01b8 3A       		.byte	0x3a
 1684 01b9 CC000000 		.4byte	0xcc
 1685 01bd 1E       		.byte	0x1e
 1686 01be 00       		.byte	0
 1687 01bf 09       		.uleb128 0x9
 1688 01c0 70000000 		.4byte	.LASF95
 1689 01c4 04       		.byte	0x4
 1690 01c5 6F000000 		.4byte	0x6f
 1691 01c9 01       		.byte	0x1
 1692 01ca 27       		.byte	0x27
 1693 01cb 00020000 		.4byte	0x200
 1694 01cf 0A       		.uleb128 0xa
 1695 01d0 E2030000 		.4byte	.LASF38
 1696 01d4 00       		.byte	0
 1697 01d5 0A       		.uleb128 0xa
 1698 01d6 2F040000 		.4byte	.LASF39
 1699 01da 01       		.byte	0x1
 1700 01db 0A       		.uleb128 0xa
 1701 01dc 17000000 		.4byte	.LASF40
 1702 01e0 02       		.byte	0x2
 1703 01e1 0A       		.uleb128 0xa
 1704 01e2 28010000 		.4byte	.LASF41
 1705 01e6 03       		.byte	0x3
 1706 01e7 0A       		.uleb128 0xa
 1707 01e8 3A030000 		.4byte	.LASF42
 1708 01ec 04       		.byte	0x4
 1709 01ed 0A       		.uleb128 0xa
 1710 01ee A4040000 		.4byte	.LASF43
 1711 01f2 05       		.byte	0x5
 1712 01f3 0A       		.uleb128 0xa
 1713 01f4 6B040000 		.4byte	.LASF44
 1714 01f8 06       		.byte	0x6
 1715 01f9 0A       		.uleb128 0xa
 1716 01fa 56010000 		.4byte	.LASF45
 1717 01fe 07       		.byte	0x7
 1718 01ff 00       		.byte	0
 1719 0200 0B       		.uleb128 0xb
 1720 0201 45010000 		.4byte	.LASF46
 1721 0205 01       		.byte	0x1
ARM GAS  C:\Users\ikui753\AppData\Local\Temp\ccet6i7n.s 			page 39


 1722 0206 41       		.byte	0x41
 1723 0207 00000000 		.4byte	.LFB64
 1724 020b C8000000 		.4byte	.LFE64-.LFB64
 1725 020f 01       		.uleb128 0x1
 1726 0210 9C       		.byte	0x9c
 1727 0211 0B       		.uleb128 0xb
 1728 0212 4B050000 		.4byte	.LASF47
 1729 0216 01       		.byte	0x1
 1730 0217 51       		.byte	0x51
 1731 0218 00000000 		.4byte	.LFB65
 1732 021c 18000000 		.4byte	.LFE65-.LFB65
 1733 0220 01       		.uleb128 0x1
 1734 0221 9C       		.byte	0x9c
 1735 0222 0B       		.uleb128 0xb
 1736 0223 EA010000 		.4byte	.LASF48
 1737 0227 01       		.byte	0x1
 1738 0228 58       		.byte	0x58
 1739 0229 00000000 		.4byte	.LFB66
 1740 022d 18000000 		.4byte	.LFE66-.LFB66
 1741 0231 01       		.uleb128 0x1
 1742 0232 9C       		.byte	0x9c
 1743 0233 0B       		.uleb128 0xb
 1744 0234 73040000 		.4byte	.LASF49
 1745 0238 01       		.byte	0x1
 1746 0239 5F       		.byte	0x5f
 1747 023a 00000000 		.4byte	.LFB67
 1748 023e 18000000 		.4byte	.LFE67-.LFB67
 1749 0242 01       		.uleb128 0x1
 1750 0243 9C       		.byte	0x9c
 1751 0244 0B       		.uleb128 0xb
 1752 0245 1C010000 		.4byte	.LASF50
 1753 0249 01       		.byte	0x1
 1754 024a 65       		.byte	0x65
 1755 024b 00000000 		.4byte	.LFB68
 1756 024f 18000000 		.4byte	.LFE68-.LFB68
 1757 0253 01       		.uleb128 0x1
 1758 0254 9C       		.byte	0x9c
 1759 0255 0B       		.uleb128 0xb
 1760 0256 A3030000 		.4byte	.LASF51
 1761 025a 01       		.byte	0x1
 1762 025b 6B       		.byte	0x6b
 1763 025c 00000000 		.4byte	.LFB69
 1764 0260 18000000 		.4byte	.LFE69-.LFB69
 1765 0264 01       		.uleb128 0x1
 1766 0265 9C       		.byte	0x9c
 1767 0266 0B       		.uleb128 0xb
 1768 0267 00000000 		.4byte	.LASF52
 1769 026b 01       		.byte	0x1
 1770 026c 71       		.byte	0x71
 1771 026d 00000000 		.4byte	.LFB70
 1772 0271 18000000 		.4byte	.LFE70-.LFB70
 1773 0275 01       		.uleb128 0x1
 1774 0276 9C       		.byte	0x9c
 1775 0277 0B       		.uleb128 0xb
 1776 0278 8D030000 		.4byte	.LASF53
 1777 027c 01       		.byte	0x1
 1778 027d 77       		.byte	0x77
ARM GAS  C:\Users\ikui753\AppData\Local\Temp\ccet6i7n.s 			page 40


 1779 027e 00000000 		.4byte	.LFB71
 1780 0282 1A000000 		.4byte	.LFE71-.LFB71
 1781 0286 01       		.uleb128 0x1
 1782 0287 9C       		.byte	0x9c
 1783 0288 0C       		.uleb128 0xc
 1784 0289 17010000 		.4byte	.LASF54
 1785 028d 01       		.byte	0x1
 1786 028e 82       		.byte	0x82
 1787 028f 68000000 		.4byte	0x68
 1788 0293 00000000 		.4byte	.LFB72
 1789 0297 E0000000 		.4byte	.LFE72-.LFB72
 1790 029b 01       		.uleb128 0x1
 1791 029c 9C       		.byte	0x9c
 1792 029d 0D       		.uleb128 0xd
 1793 029e D1040000 		.4byte	.LASF96
 1794 02a2 01       		.byte	0x1
 1795 02a3 B9       		.byte	0xb9
 1796 02a4 CC000000 		.4byte	0xcc
 1797 02a8 00000000 		.4byte	.LFB73
 1798 02ac 6C000000 		.4byte	.LFE73-.LFB73
 1799 02b0 01       		.uleb128 0x1
 1800 02b1 9C       		.byte	0x9c
 1801 02b2 E1020000 		.4byte	0x2e1
 1802 02b6 0E       		.uleb128 0xe
 1803 02b7 88040000 		.4byte	.LASF60
 1804 02bb 01       		.byte	0x1
 1805 02bc B9       		.byte	0xb9
 1806 02bd A8000000 		.4byte	0xa8
 1807 02c1 02       		.uleb128 0x2
 1808 02c2 91       		.byte	0x91
 1809 02c3 66       		.sleb128 -26
 1810 02c4 0F       		.uleb128 0xf
 1811 02c5 63707300 		.ascii	"cps\000"
 1812 02c9 01       		.byte	0x1
 1813 02ca BB       		.byte	0xbb
 1814 02cb D8000000 		.4byte	0xd8
 1815 02cf 02       		.uleb128 0x2
 1816 02d0 91       		.byte	0x91
 1817 02d1 6C       		.sleb128 -20
 1818 02d2 0F       		.uleb128 0xf
 1819 02d3 72706D00 		.ascii	"rpm\000"
 1820 02d7 01       		.byte	0x1
 1821 02d8 BC       		.byte	0xbc
 1822 02d9 CC000000 		.4byte	0xcc
 1823 02dd 02       		.uleb128 0x2
 1824 02de 91       		.byte	0x91
 1825 02df 6A       		.sleb128 -22
 1826 02e0 00       		.byte	0
 1827 02e1 10       		.uleb128 0x10
 1828 02e2 CC030000 		.4byte	.LASF56
 1829 02e6 01       		.byte	0x1
 1830 02e7 C4       		.byte	0xc4
 1831 02e8 00000000 		.4byte	.LFB74
 1832 02ec 48000000 		.4byte	.LFE74-.LFB74
 1833 02f0 01       		.uleb128 0x1
 1834 02f1 9C       		.byte	0x9c
 1835 02f2 11       		.uleb128 0x11
ARM GAS  C:\Users\ikui753\AppData\Local\Temp\ccet6i7n.s 			page 41


 1836 02f3 D5010000 		.4byte	.LASF58
 1837 02f7 01       		.byte	0x1
 1838 02f8 D2       		.byte	0xd2
 1839 02f9 BF010000 		.4byte	0x1bf
 1840 02fd 00000000 		.4byte	.LFB75
 1841 0301 A0010000 		.4byte	.LFE75-.LFB75
 1842 0305 01       		.uleb128 0x1
 1843 0306 9C       		.byte	0x9c
 1844 0307 1A030000 		.4byte	0x31a
 1845 030b 12       		.uleb128 0x12
 1846 030c 25050000 		.4byte	.LASF55
 1847 0310 01       		.byte	0x1
 1848 0311 D3       		.byte	0xd3
 1849 0312 BF010000 		.4byte	0x1bf
 1850 0316 02       		.uleb128 0x2
 1851 0317 91       		.byte	0x91
 1852 0318 74       		.sleb128 -12
 1853 0319 00       		.byte	0
 1854 031a 13       		.uleb128 0x13
 1855 031b 7C030000 		.4byte	.LASF57
 1856 031f 01       		.byte	0x1
 1857 0320 3401     		.2byte	0x134
 1858 0322 00000000 		.4byte	.LFB76
 1859 0326 70000000 		.4byte	.LFE76-.LFB76
 1860 032a 01       		.uleb128 0x1
 1861 032b 9C       		.byte	0x9c
 1862 032c 14       		.uleb128 0x14
 1863 032d 8E010000 		.4byte	.LASF59
 1864 0331 01       		.byte	0x1
 1865 0332 5701     		.2byte	0x157
 1866 0334 00000000 		.4byte	.LFB77
 1867 0338 3E000000 		.4byte	.LFE77-.LFB77
 1868 033c 01       		.uleb128 0x1
 1869 033d 9C       		.byte	0x9c
 1870 033e 50030000 		.4byte	0x350
 1871 0342 15       		.uleb128 0x15
 1872 0343 7300     		.ascii	"s\000"
 1873 0345 01       		.byte	0x1
 1874 0346 5701     		.2byte	0x157
 1875 0348 84000000 		.4byte	0x84
 1876 034c 02       		.uleb128 0x2
 1877 034d 91       		.byte	0x91
 1878 034e 74       		.sleb128 -12
 1879 034f 00       		.byte	0
 1880 0350 14       		.uleb128 0x14
 1881 0351 0C000000 		.4byte	.LASF61
 1882 0355 01       		.byte	0x1
 1883 0356 6501     		.2byte	0x165
 1884 0358 00000000 		.4byte	.LFB78
 1885 035c 26000000 		.4byte	.LFE78-.LFB78
 1886 0360 01       		.uleb128 0x1
 1887 0361 9C       		.byte	0x9c
 1888 0362 74030000 		.4byte	0x374
 1889 0366 15       		.uleb128 0x15
 1890 0367 6300     		.ascii	"c\000"
 1891 0369 01       		.byte	0x1
 1892 036a 6501     		.2byte	0x165
ARM GAS  C:\Users\ikui753\AppData\Local\Temp\ccet6i7n.s 			page 42


 1893 036c 8A000000 		.4byte	0x8a
 1894 0370 02       		.uleb128 0x2
 1895 0371 91       		.byte	0x91
 1896 0372 77       		.sleb128 -9
 1897 0373 00       		.byte	0
 1898 0374 16       		.uleb128 0x16
 1899 0375 C6040000 		.4byte	.LASF97
 1900 0379 01       		.byte	0x1
 1901 037a 6D01     		.2byte	0x16d
 1902 037c 00000000 		.4byte	.LFB79
 1903 0380 C8000000 		.4byte	.LFE79-.LFB79
 1904 0384 01       		.uleb128 0x1
 1905 0385 9C       		.byte	0x9c
 1906 0386 BC030000 		.4byte	0x3bc
 1907 038a 17       		.uleb128 0x17
 1908 038b 60040000 		.4byte	.LASF62
 1909 038f 01       		.byte	0x1
 1910 0390 7301     		.2byte	0x173
 1911 0392 9C000000 		.4byte	0x9c
 1912 0396 05       		.uleb128 0x5
 1913 0397 03       		.byte	0x3
 1914 0398 2C000000 		.4byte	usbStarted.8239
 1915 039c 17       		.uleb128 0x17
 1916 039d 70030000 		.4byte	.LASF63
 1917 03a1 01       		.byte	0x1
 1918 03a2 7401     		.2byte	0x174
 1919 03a4 A8000000 		.4byte	0xa8
 1920 03a8 05       		.uleb128 0x5
 1921 03a9 03       		.byte	0x3
 1922 03aa 2E000000 		.4byte	usbBufCount.8240
 1923 03ae 18       		.uleb128 0x18
 1924 03af 6300     		.ascii	"c\000"
 1925 03b1 01       		.byte	0x1
 1926 03b2 7501     		.2byte	0x175
 1927 03b4 9C000000 		.4byte	0x9c
 1928 03b8 02       		.uleb128 0x2
 1929 03b9 91       		.byte	0x91
 1930 03ba 77       		.sleb128 -9
 1931 03bb 00       		.byte	0
 1932 03bc 19       		.uleb128 0x19
 1933 03bd 07050000 		.4byte	.LASF64
 1934 03c1 06       		.byte	0x6
 1935 03c2 1207     		.2byte	0x712
 1936 03c4 C8030000 		.4byte	0x3c8
 1937 03c8 1A       		.uleb128 0x1a
 1938 03c9 91000000 		.4byte	0x91
 1939 03cd 1B       		.uleb128 0x1b
 1940 03ce 747300   		.ascii	"ts\000"
 1941 03d1 05       		.byte	0x5
 1942 03d2 10       		.byte	0x10
 1943 03d3 9C000000 		.4byte	0x9c
 1944 03d7 05       		.uleb128 0x5
 1945 03d8 03       		.byte	0x3
 1946 03d9 00000000 		.4byte	ts
 1947 03dd 1C       		.uleb128 0x1c
 1948 03de 20000000 		.4byte	.LASF65
 1949 03e2 05       		.byte	0x5
ARM GAS  C:\Users\ikui753\AppData\Local\Temp\ccet6i7n.s 			page 43


 1950 03e3 11       		.byte	0x11
 1951 03e4 A8000000 		.4byte	0xa8
 1952 03e8 05       		.uleb128 0x5
 1953 03e9 03       		.byte	0x3
 1954 03ea 00000000 		.4byte	ts_enc
 1955 03ee 1C       		.uleb128 0x1c
 1956 03ef BC040000 		.4byte	.LASF66
 1957 03f3 05       		.byte	0x5
 1958 03f4 12       		.byte	0x12
 1959 03f5 A8000000 		.4byte	0xa8
 1960 03f9 05       		.uleb128 0x5
 1961 03fa 03       		.byte	0x3
 1962 03fb 00000000 		.4byte	ts_update
 1963 03ff 1C       		.uleb128 0x1c
 1964 0400 7F040000 		.4byte	.LASF67
 1965 0404 05       		.byte	0x5
 1966 0405 13       		.byte	0x13
 1967 0406 A8000000 		.4byte	0xa8
 1968 040a 05       		.uleb128 0x5
 1969 040b 03       		.byte	0x3
 1970 040c 00000000 		.4byte	ts_speed
 1971 0410 1C       		.uleb128 0x1c
 1972 0411 B1040000 		.4byte	.LASF68
 1973 0415 05       		.byte	0x5
 1974 0416 14       		.byte	0x14
 1975 0417 A8000000 		.4byte	0xa8
 1976 041b 05       		.uleb128 0x5
 1977 041c 03       		.byte	0x3
 1978 041d 00000000 		.4byte	ts_display
 1979 0421 1C       		.uleb128 0x1c
 1980 0422 8E040000 		.4byte	.LASF69
 1981 0426 05       		.byte	0x5
 1982 0427 16       		.byte	0x16
 1983 0428 9C000000 		.4byte	0x9c
 1984 042c 05       		.uleb128 0x5
 1985 042d 03       		.byte	0x3
 1986 042e 00000000 		.4byte	flag_ts_enc
 1987 0432 1C       		.uleb128 0x1c
 1988 0433 A0010000 		.4byte	.LASF70
 1989 0437 05       		.byte	0x5
 1990 0438 17       		.byte	0x17
 1991 0439 9C000000 		.4byte	0x9c
 1992 043d 05       		.uleb128 0x5
 1993 043e 03       		.byte	0x3
 1994 043f 00000000 		.4byte	flag_ts_update
 1995 0443 1C       		.uleb128 0x1c
 1996 0444 3A000000 		.4byte	.LASF71
 1997 0448 05       		.byte	0x5
 1998 0449 18       		.byte	0x18
 1999 044a 9C000000 		.4byte	0x9c
 2000 044e 05       		.uleb128 0x5
 2001 044f 03       		.byte	0x3
 2002 0450 00000000 		.4byte	flag_ts_speed
 2003 0454 1C       		.uleb128 0x1c
 2004 0455 7B020000 		.4byte	.LASF72
 2005 0459 05       		.byte	0x5
 2006 045a 19       		.byte	0x19
ARM GAS  C:\Users\ikui753\AppData\Local\Temp\ccet6i7n.s 			page 44


 2007 045b 9C000000 		.4byte	0x9c
 2008 045f 05       		.uleb128 0x5
 2009 0460 03       		.byte	0x3
 2010 0461 00000000 		.4byte	flag_ts_display
 2011 0465 1C       		.uleb128 0x1c
 2012 0466 8B020000 		.4byte	.LASF73
 2013 046a 05       		.byte	0x5
 2014 046b 1C       		.byte	0x1c
 2015 046c 9C000000 		.4byte	0x9c
 2016 0470 05       		.uleb128 0x5
 2017 0471 03       		.byte	0x3
 2018 0472 00000000 		.4byte	flag_rx
 2019 0476 1C       		.uleb128 0x1c
 2020 0477 2E000000 		.4byte	.LASF74
 2021 047b 05       		.byte	0x5
 2022 047c 1D       		.byte	0x1d
 2023 047d 9C000000 		.4byte	0x9c
 2024 0481 05       		.uleb128 0x5
 2025 0482 03       		.byte	0x3
 2026 0483 00000000 		.4byte	flag_packet
 2027 0487 1C       		.uleb128 0x1c
 2028 0488 61030000 		.4byte	.LASF75
 2029 048c 05       		.byte	0x5
 2030 048d 1E       		.byte	0x1e
 2031 048e 9C000000 		.4byte	0x9c
 2032 0492 05       		.uleb128 0x5
 2033 0493 03       		.byte	0x3
 2034 0494 00000000 		.4byte	flag_KB_string
 2035 0498 1C       		.uleb128 0x1c
 2036 0499 F8020000 		.4byte	.LASF76
 2037 049d 05       		.byte	0x5
 2038 049e 20       		.byte	0x20
 2039 049f 9C000000 		.4byte	0x9c
 2040 04a3 05       		.uleb128 0x5
 2041 04a4 03       		.byte	0x3
 2042 04a5 00000000 		.4byte	dataready_flag
 2043 04a9 1C       		.uleb128 0x1c
 2044 04aa E0040000 		.4byte	.LASF77
 2045 04ae 05       		.byte	0x5
 2046 04af 22       		.byte	0x22
 2047 04b0 9C000000 		.4byte	0x9c
 2048 04b4 05       		.uleb128 0x5
 2049 04b5 03       		.byte	0x3
 2050 04b6 00000000 		.4byte	flag_rf_transmission_active
 2051 04ba 1D       		.uleb128 0x1d
 2052 04bb 8A000000 		.4byte	0x8a
 2053 04bf CA040000 		.4byte	0x4ca
 2054 04c3 1E       		.uleb128 0x1e
 2055 04c4 7D000000 		.4byte	0x7d
 2056 04c8 3F       		.byte	0x3f
 2057 04c9 00       		.byte	0
 2058 04ca 1C       		.uleb128 0x1c
 2059 04cb 16040000 		.4byte	.LASF78
 2060 04cf 05       		.byte	0x5
 2061 04d0 25       		.byte	0x25
 2062 04d1 BA040000 		.4byte	0x4ba
 2063 04d5 05       		.uleb128 0x5
ARM GAS  C:\Users\ikui753\AppData\Local\Temp\ccet6i7n.s 			page 45


 2064 04d6 03       		.byte	0x3
 2065 04d7 00000000 		.4byte	displaystring
 2066 04db 1C       		.uleb128 0x1c
 2067 04dc 75010000 		.4byte	.LASF79
 2068 04e0 05       		.byte	0x5
 2069 04e1 26       		.byte	0x26
 2070 04e2 BA040000 		.4byte	0x4ba
 2071 04e6 05       		.uleb128 0x5
 2072 04e7 03       		.byte	0x3
 2073 04e8 00000000 		.4byte	line
 2074 04ec 1C       		.uleb128 0x1c
 2075 04ed B3020000 		.4byte	.LASF80
 2076 04f1 05       		.byte	0x5
 2077 04f2 26       		.byte	0x26
 2078 04f3 BA040000 		.4byte	0x4ba
 2079 04f7 05       		.uleb128 0x5
 2080 04f8 03       		.byte	0x3
 2081 04f9 00000000 		.4byte	entry
 2082 04fd 1D       		.uleb128 0x1d
 2083 04fe 9C000000 		.4byte	0x9c
 2084 0502 0D050000 		.4byte	0x50d
 2085 0506 1E       		.uleb128 0x1e
 2086 0507 7D000000 		.4byte	0x7d
 2087 050b 3F       		.byte	0x3f
 2088 050c 00       		.byte	0
 2089 050d 1C       		.uleb128 0x1c
 2090 050e 7F000000 		.4byte	.LASF81
 2091 0512 05       		.byte	0x5
 2092 0513 27       		.byte	0x27
 2093 0514 FD040000 		.4byte	0x4fd
 2094 0518 05       		.uleb128 0x5
 2095 0519 03       		.byte	0x3
 2096 051a 00000000 		.4byte	usbBuffer
 2097 051e 1C       		.uleb128 0x1c
 2098 051f 5A000000 		.4byte	.LASF82
 2099 0523 05       		.byte	0x5
 2100 0524 3C       		.byte	0x3c
 2101 0525 E6000000 		.4byte	0xe6
 2102 0529 05       		.uleb128 0x5
 2103 052a 03       		.byte	0x3
 2104 052b 00000000 		.4byte	system_state
 2105 052f 1C       		.uleb128 0x1c
 2106 0530 14050000 		.4byte	.LASF83
 2107 0534 01       		.byte	0x1
 2108 0535 29       		.byte	0x29
 2109 0536 BF010000 		.4byte	0x1bf
 2110 053a 05       		.uleb128 0x5
 2111 053b 03       		.byte	0x3
 2112 053c 00000000 		.4byte	currentDirection
 2113 0540 1C       		.uleb128 0x1c
 2114 0541 C5020000 		.4byte	.LASF84
 2115 0545 01       		.byte	0x1
 2116 0546 2A       		.byte	0x2a
 2117 0547 BF010000 		.4byte	0x1bf
 2118 054b 05       		.uleb128 0x5
 2119 054c 03       		.byte	0x3
 2120 054d 00000000 		.4byte	previousDirection
ARM GAS  C:\Users\ikui753\AppData\Local\Temp\ccet6i7n.s 			page 46


 2121 0551 1B       		.uleb128 0x1b
 2122 0552 733100   		.ascii	"s1\000"
 2123 0555 01       		.byte	0x1
 2124 0556 2D       		.byte	0x2d
 2125 0557 9C000000 		.4byte	0x9c
 2126 055b 05       		.uleb128 0x5
 2127 055c 03       		.byte	0x3
 2128 055d 00000000 		.4byte	s1
 2129 0561 1B       		.uleb128 0x1b
 2130 0562 733200   		.ascii	"s2\000"
 2131 0565 01       		.byte	0x1
 2132 0566 2E       		.byte	0x2e
 2133 0567 9C000000 		.4byte	0x9c
 2134 056b 05       		.uleb128 0x5
 2135 056c 03       		.byte	0x3
 2136 056d 00000000 		.4byte	s2
 2137 0571 1B       		.uleb128 0x1b
 2138 0572 733300   		.ascii	"s3\000"
 2139 0575 01       		.byte	0x1
 2140 0576 2F       		.byte	0x2f
 2141 0577 9C000000 		.4byte	0x9c
 2142 057b 05       		.uleb128 0x5
 2143 057c 03       		.byte	0x3
 2144 057d 00000000 		.4byte	s3
 2145 0581 1B       		.uleb128 0x1b
 2146 0582 733400   		.ascii	"s4\000"
 2147 0585 01       		.byte	0x1
 2148 0586 30       		.byte	0x30
 2149 0587 9C000000 		.4byte	0x9c
 2150 058b 05       		.uleb128 0x5
 2151 058c 03       		.byte	0x3
 2152 058d 00000000 		.4byte	s4
 2153 0591 1B       		.uleb128 0x1b
 2154 0592 733500   		.ascii	"s5\000"
 2155 0595 01       		.byte	0x1
 2156 0596 31       		.byte	0x31
 2157 0597 9C000000 		.4byte	0x9c
 2158 059b 05       		.uleb128 0x5
 2159 059c 03       		.byte	0x3
 2160 059d 00000000 		.4byte	s5
 2161 05a1 1B       		.uleb128 0x1b
 2162 05a2 733600   		.ascii	"s6\000"
 2163 05a5 01       		.byte	0x1
 2164 05a6 32       		.byte	0x32
 2165 05a7 9C000000 		.4byte	0x9c
 2166 05ab 05       		.uleb128 0x5
 2167 05ac 03       		.byte	0x3
 2168 05ad 00000000 		.4byte	s6
 2169 05b1 1C       		.uleb128 0x1c
 2170 05b2 A1020000 		.4byte	.LASF85
 2171 05b6 01       		.byte	0x1
 2172 05b7 36       		.byte	0x36
 2173 05b8 B4000000 		.4byte	0xb4
 2174 05bc 05       		.uleb128 0x5
 2175 05bd 03       		.byte	0x3
 2176 05be 00000000 		.4byte	totalMilliseconds
 2177 05c2 1C       		.uleb128 0x1c
ARM GAS  C:\Users\ikui753\AppData\Local\Temp\ccet6i7n.s 			page 47


 2178 05c3 D7020000 		.4byte	.LASF86
 2179 05c7 01       		.byte	0x1
 2180 05c8 37       		.byte	0x37
 2181 05c9 B4000000 		.4byte	0xb4
 2182 05cd 05       		.uleb128 0x5
 2183 05ce 03       		.byte	0x3
 2184 05cf 00000000 		.4byte	totalDistance
 2185 05d3 1D       		.uleb128 0x1d
 2186 05d4 8A000000 		.4byte	0x8a
 2187 05d8 E3050000 		.4byte	0x5e3
 2188 05dc 1E       		.uleb128 0x1e
 2189 05dd 7D000000 		.4byte	0x7d
 2190 05e1 44       		.byte	0x44
 2191 05e2 00       		.byte	0
 2192 05e3 1C       		.uleb128 0x1c
 2193 05e4 39040000 		.4byte	.LASF87
 2194 05e8 01       		.byte	0x1
 2195 05e9 39       		.byte	0x39
 2196 05ea D3050000 		.4byte	0x5d3
 2197 05ee 05       		.uleb128 0x5
 2198 05ef 03       		.byte	0x3
 2199 05f0 00000000 		.4byte	buffer
 2200 05f4 1C       		.uleb128 0x1c
 2201 05f5 EA030000 		.4byte	.LASF88
 2202 05f9 01       		.byte	0x1
 2203 05fa 3A       		.byte	0x3a
 2204 05fb 68000000 		.4byte	0x68
 2205 05ff 05       		.uleb128 0x5
 2206 0600 03       		.byte	0x3
 2207 0601 00000000 		.4byte	quadDec2Count
 2208 0605 1C       		.uleb128 0x1c
 2209 0606 58030000 		.4byte	.LASF89
 2210 060a 01       		.byte	0x1
 2211 060b 3B       		.byte	0x3b
 2212 060c 68000000 		.4byte	0x68
 2213 0610 05       		.uleb128 0x5
 2214 0611 03       		.byte	0x3
 2215 0612 00000000 		.4byte	timerInt
 2216 0616 1C       		.uleb128 0x1c
 2217 0617 E5020000 		.4byte	.LASF90
 2218 061b 01       		.byte	0x1
 2219 061c 3C       		.byte	0x3c
 2220 061d 68000000 		.4byte	0x68
 2221 0621 05       		.uleb128 0x5
 2222 0622 03       		.byte	0x3
 2223 0623 00000000 		.4byte	keepLedOn
 2224 0627 00       		.byte	0
 2225              		.section	.debug_abbrev,"",%progbits
 2226              	.Ldebug_abbrev0:
 2227 0000 01       		.uleb128 0x1
 2228 0001 11       		.uleb128 0x11
 2229 0002 01       		.byte	0x1
 2230 0003 25       		.uleb128 0x25
 2231 0004 0E       		.uleb128 0xe
 2232 0005 13       		.uleb128 0x13
 2233 0006 0B       		.uleb128 0xb
 2234 0007 03       		.uleb128 0x3
ARM GAS  C:\Users\ikui753\AppData\Local\Temp\ccet6i7n.s 			page 48


 2235 0008 0E       		.uleb128 0xe
 2236 0009 1B       		.uleb128 0x1b
 2237 000a 0E       		.uleb128 0xe
 2238 000b 55       		.uleb128 0x55
 2239 000c 17       		.uleb128 0x17
 2240 000d 11       		.uleb128 0x11
 2241 000e 01       		.uleb128 0x1
 2242 000f 10       		.uleb128 0x10
 2243 0010 17       		.uleb128 0x17
 2244 0011 00       		.byte	0
 2245 0012 00       		.byte	0
 2246 0013 02       		.uleb128 0x2
 2247 0014 24       		.uleb128 0x24
 2248 0015 00       		.byte	0
 2249 0016 0B       		.uleb128 0xb
 2250 0017 0B       		.uleb128 0xb
 2251 0018 3E       		.uleb128 0x3e
 2252 0019 0B       		.uleb128 0xb
 2253 001a 03       		.uleb128 0x3
 2254 001b 0E       		.uleb128 0xe
 2255 001c 00       		.byte	0
 2256 001d 00       		.byte	0
 2257 001e 03       		.uleb128 0x3
 2258 001f 16       		.uleb128 0x16
 2259 0020 00       		.byte	0
 2260 0021 03       		.uleb128 0x3
 2261 0022 0E       		.uleb128 0xe
 2262 0023 3A       		.uleb128 0x3a
 2263 0024 0B       		.uleb128 0xb
 2264 0025 3B       		.uleb128 0x3b
 2265 0026 0B       		.uleb128 0xb
 2266 0027 49       		.uleb128 0x49
 2267 0028 13       		.uleb128 0x13
 2268 0029 00       		.byte	0
 2269 002a 00       		.byte	0
 2270 002b 04       		.uleb128 0x4
 2271 002c 24       		.uleb128 0x24
 2272 002d 00       		.byte	0
 2273 002e 0B       		.uleb128 0xb
 2274 002f 0B       		.uleb128 0xb
 2275 0030 3E       		.uleb128 0x3e
 2276 0031 0B       		.uleb128 0xb
 2277 0032 03       		.uleb128 0x3
 2278 0033 08       		.uleb128 0x8
 2279 0034 00       		.byte	0
 2280 0035 00       		.byte	0
 2281 0036 05       		.uleb128 0x5
 2282 0037 0F       		.uleb128 0xf
 2283 0038 00       		.byte	0
 2284 0039 0B       		.uleb128 0xb
 2285 003a 0B       		.uleb128 0xb
 2286 003b 49       		.uleb128 0x49
 2287 003c 13       		.uleb128 0x13
 2288 003d 00       		.byte	0
 2289 003e 00       		.byte	0
 2290 003f 06       		.uleb128 0x6
 2291 0040 16       		.uleb128 0x16
ARM GAS  C:\Users\ikui753\AppData\Local\Temp\ccet6i7n.s 			page 49


 2292 0041 00       		.byte	0
 2293 0042 03       		.uleb128 0x3
 2294 0043 0E       		.uleb128 0xe
 2295 0044 3A       		.uleb128 0x3a
 2296 0045 0B       		.uleb128 0xb
 2297 0046 3B       		.uleb128 0x3b
 2298 0047 05       		.uleb128 0x5
 2299 0048 49       		.uleb128 0x49
 2300 0049 13       		.uleb128 0x13
 2301 004a 00       		.byte	0
 2302 004b 00       		.byte	0
 2303 004c 07       		.uleb128 0x7
 2304 004d 13       		.uleb128 0x13
 2305 004e 01       		.byte	0x1
 2306 004f 03       		.uleb128 0x3
 2307 0050 0E       		.uleb128 0xe
 2308 0051 0B       		.uleb128 0xb
 2309 0052 0B       		.uleb128 0xb
 2310 0053 3A       		.uleb128 0x3a
 2311 0054 0B       		.uleb128 0xb
 2312 0055 3B       		.uleb128 0x3b
 2313 0056 0B       		.uleb128 0xb
 2314 0057 01       		.uleb128 0x1
 2315 0058 13       		.uleb128 0x13
 2316 0059 00       		.byte	0
 2317 005a 00       		.byte	0
 2318 005b 08       		.uleb128 0x8
 2319 005c 0D       		.uleb128 0xd
 2320 005d 00       		.byte	0
 2321 005e 03       		.uleb128 0x3
 2322 005f 0E       		.uleb128 0xe
 2323 0060 3A       		.uleb128 0x3a
 2324 0061 0B       		.uleb128 0xb
 2325 0062 3B       		.uleb128 0x3b
 2326 0063 0B       		.uleb128 0xb
 2327 0064 49       		.uleb128 0x49
 2328 0065 13       		.uleb128 0x13
 2329 0066 38       		.uleb128 0x38
 2330 0067 0B       		.uleb128 0xb
 2331 0068 00       		.byte	0
 2332 0069 00       		.byte	0
 2333 006a 09       		.uleb128 0x9
 2334 006b 04       		.uleb128 0x4
 2335 006c 01       		.byte	0x1
 2336 006d 03       		.uleb128 0x3
 2337 006e 0E       		.uleb128 0xe
 2338 006f 0B       		.uleb128 0xb
 2339 0070 0B       		.uleb128 0xb
 2340 0071 49       		.uleb128 0x49
 2341 0072 13       		.uleb128 0x13
 2342 0073 3A       		.uleb128 0x3a
 2343 0074 0B       		.uleb128 0xb
 2344 0075 3B       		.uleb128 0x3b
 2345 0076 0B       		.uleb128 0xb
 2346 0077 01       		.uleb128 0x1
 2347 0078 13       		.uleb128 0x13
 2348 0079 00       		.byte	0
ARM GAS  C:\Users\ikui753\AppData\Local\Temp\ccet6i7n.s 			page 50


 2349 007a 00       		.byte	0
 2350 007b 0A       		.uleb128 0xa
 2351 007c 28       		.uleb128 0x28
 2352 007d 00       		.byte	0
 2353 007e 03       		.uleb128 0x3
 2354 007f 0E       		.uleb128 0xe
 2355 0080 1C       		.uleb128 0x1c
 2356 0081 0B       		.uleb128 0xb
 2357 0082 00       		.byte	0
 2358 0083 00       		.byte	0
 2359 0084 0B       		.uleb128 0xb
 2360 0085 2E       		.uleb128 0x2e
 2361 0086 00       		.byte	0
 2362 0087 3F       		.uleb128 0x3f
 2363 0088 19       		.uleb128 0x19
 2364 0089 03       		.uleb128 0x3
 2365 008a 0E       		.uleb128 0xe
 2366 008b 3A       		.uleb128 0x3a
 2367 008c 0B       		.uleb128 0xb
 2368 008d 3B       		.uleb128 0x3b
 2369 008e 0B       		.uleb128 0xb
 2370 008f 27       		.uleb128 0x27
 2371 0090 19       		.uleb128 0x19
 2372 0091 11       		.uleb128 0x11
 2373 0092 01       		.uleb128 0x1
 2374 0093 12       		.uleb128 0x12
 2375 0094 06       		.uleb128 0x6
 2376 0095 40       		.uleb128 0x40
 2377 0096 18       		.uleb128 0x18
 2378 0097 9642     		.uleb128 0x2116
 2379 0099 19       		.uleb128 0x19
 2380 009a 00       		.byte	0
 2381 009b 00       		.byte	0
 2382 009c 0C       		.uleb128 0xc
 2383 009d 2E       		.uleb128 0x2e
 2384 009e 00       		.byte	0
 2385 009f 3F       		.uleb128 0x3f
 2386 00a0 19       		.uleb128 0x19
 2387 00a1 03       		.uleb128 0x3
 2388 00a2 0E       		.uleb128 0xe
 2389 00a3 3A       		.uleb128 0x3a
 2390 00a4 0B       		.uleb128 0xb
 2391 00a5 3B       		.uleb128 0x3b
 2392 00a6 0B       		.uleb128 0xb
 2393 00a7 49       		.uleb128 0x49
 2394 00a8 13       		.uleb128 0x13
 2395 00a9 11       		.uleb128 0x11
 2396 00aa 01       		.uleb128 0x1
 2397 00ab 12       		.uleb128 0x12
 2398 00ac 06       		.uleb128 0x6
 2399 00ad 40       		.uleb128 0x40
 2400 00ae 18       		.uleb128 0x18
 2401 00af 9642     		.uleb128 0x2116
 2402 00b1 19       		.uleb128 0x19
 2403 00b2 00       		.byte	0
 2404 00b3 00       		.byte	0
 2405 00b4 0D       		.uleb128 0xd
ARM GAS  C:\Users\ikui753\AppData\Local\Temp\ccet6i7n.s 			page 51


 2406 00b5 2E       		.uleb128 0x2e
 2407 00b6 01       		.byte	0x1
 2408 00b7 3F       		.uleb128 0x3f
 2409 00b8 19       		.uleb128 0x19
 2410 00b9 03       		.uleb128 0x3
 2411 00ba 0E       		.uleb128 0xe
 2412 00bb 3A       		.uleb128 0x3a
 2413 00bc 0B       		.uleb128 0xb
 2414 00bd 3B       		.uleb128 0x3b
 2415 00be 0B       		.uleb128 0xb
 2416 00bf 27       		.uleb128 0x27
 2417 00c0 19       		.uleb128 0x19
 2418 00c1 49       		.uleb128 0x49
 2419 00c2 13       		.uleb128 0x13
 2420 00c3 11       		.uleb128 0x11
 2421 00c4 01       		.uleb128 0x1
 2422 00c5 12       		.uleb128 0x12
 2423 00c6 06       		.uleb128 0x6
 2424 00c7 40       		.uleb128 0x40
 2425 00c8 18       		.uleb128 0x18
 2426 00c9 9642     		.uleb128 0x2116
 2427 00cb 19       		.uleb128 0x19
 2428 00cc 01       		.uleb128 0x1
 2429 00cd 13       		.uleb128 0x13
 2430 00ce 00       		.byte	0
 2431 00cf 00       		.byte	0
 2432 00d0 0E       		.uleb128 0xe
 2433 00d1 05       		.uleb128 0x5
 2434 00d2 00       		.byte	0
 2435 00d3 03       		.uleb128 0x3
 2436 00d4 0E       		.uleb128 0xe
 2437 00d5 3A       		.uleb128 0x3a
 2438 00d6 0B       		.uleb128 0xb
 2439 00d7 3B       		.uleb128 0x3b
 2440 00d8 0B       		.uleb128 0xb
 2441 00d9 49       		.uleb128 0x49
 2442 00da 13       		.uleb128 0x13
 2443 00db 02       		.uleb128 0x2
 2444 00dc 18       		.uleb128 0x18
 2445 00dd 00       		.byte	0
 2446 00de 00       		.byte	0
 2447 00df 0F       		.uleb128 0xf
 2448 00e0 34       		.uleb128 0x34
 2449 00e1 00       		.byte	0
 2450 00e2 03       		.uleb128 0x3
 2451 00e3 08       		.uleb128 0x8
 2452 00e4 3A       		.uleb128 0x3a
 2453 00e5 0B       		.uleb128 0xb
 2454 00e6 3B       		.uleb128 0x3b
 2455 00e7 0B       		.uleb128 0xb
 2456 00e8 49       		.uleb128 0x49
 2457 00e9 13       		.uleb128 0x13
 2458 00ea 02       		.uleb128 0x2
 2459 00eb 18       		.uleb128 0x18
 2460 00ec 00       		.byte	0
 2461 00ed 00       		.byte	0
 2462 00ee 10       		.uleb128 0x10
ARM GAS  C:\Users\ikui753\AppData\Local\Temp\ccet6i7n.s 			page 52


 2463 00ef 2E       		.uleb128 0x2e
 2464 00f0 00       		.byte	0
 2465 00f1 3F       		.uleb128 0x3f
 2466 00f2 19       		.uleb128 0x19
 2467 00f3 03       		.uleb128 0x3
 2468 00f4 0E       		.uleb128 0xe
 2469 00f5 3A       		.uleb128 0x3a
 2470 00f6 0B       		.uleb128 0xb
 2471 00f7 3B       		.uleb128 0x3b
 2472 00f8 0B       		.uleb128 0xb
 2473 00f9 11       		.uleb128 0x11
 2474 00fa 01       		.uleb128 0x1
 2475 00fb 12       		.uleb128 0x12
 2476 00fc 06       		.uleb128 0x6
 2477 00fd 40       		.uleb128 0x40
 2478 00fe 18       		.uleb128 0x18
 2479 00ff 9742     		.uleb128 0x2117
 2480 0101 19       		.uleb128 0x19
 2481 0102 00       		.byte	0
 2482 0103 00       		.byte	0
 2483 0104 11       		.uleb128 0x11
 2484 0105 2E       		.uleb128 0x2e
 2485 0106 01       		.byte	0x1
 2486 0107 3F       		.uleb128 0x3f
 2487 0108 19       		.uleb128 0x19
 2488 0109 03       		.uleb128 0x3
 2489 010a 0E       		.uleb128 0xe
 2490 010b 3A       		.uleb128 0x3a
 2491 010c 0B       		.uleb128 0xb
 2492 010d 3B       		.uleb128 0x3b
 2493 010e 0B       		.uleb128 0xb
 2494 010f 49       		.uleb128 0x49
 2495 0110 13       		.uleb128 0x13
 2496 0111 11       		.uleb128 0x11
 2497 0112 01       		.uleb128 0x1
 2498 0113 12       		.uleb128 0x12
 2499 0114 06       		.uleb128 0x6
 2500 0115 40       		.uleb128 0x40
 2501 0116 18       		.uleb128 0x18
 2502 0117 9742     		.uleb128 0x2117
 2503 0119 19       		.uleb128 0x19
 2504 011a 01       		.uleb128 0x1
 2505 011b 13       		.uleb128 0x13
 2506 011c 00       		.byte	0
 2507 011d 00       		.byte	0
 2508 011e 12       		.uleb128 0x12
 2509 011f 34       		.uleb128 0x34
 2510 0120 00       		.byte	0
 2511 0121 03       		.uleb128 0x3
 2512 0122 0E       		.uleb128 0xe
 2513 0123 3A       		.uleb128 0x3a
 2514 0124 0B       		.uleb128 0xb
 2515 0125 3B       		.uleb128 0x3b
 2516 0126 0B       		.uleb128 0xb
 2517 0127 49       		.uleb128 0x49
 2518 0128 13       		.uleb128 0x13
 2519 0129 02       		.uleb128 0x2
ARM GAS  C:\Users\ikui753\AppData\Local\Temp\ccet6i7n.s 			page 53


 2520 012a 18       		.uleb128 0x18
 2521 012b 00       		.byte	0
 2522 012c 00       		.byte	0
 2523 012d 13       		.uleb128 0x13
 2524 012e 2E       		.uleb128 0x2e
 2525 012f 00       		.byte	0
 2526 0130 3F       		.uleb128 0x3f
 2527 0131 19       		.uleb128 0x19
 2528 0132 03       		.uleb128 0x3
 2529 0133 0E       		.uleb128 0xe
 2530 0134 3A       		.uleb128 0x3a
 2531 0135 0B       		.uleb128 0xb
 2532 0136 3B       		.uleb128 0x3b
 2533 0137 05       		.uleb128 0x5
 2534 0138 11       		.uleb128 0x11
 2535 0139 01       		.uleb128 0x1
 2536 013a 12       		.uleb128 0x12
 2537 013b 06       		.uleb128 0x6
 2538 013c 40       		.uleb128 0x40
 2539 013d 18       		.uleb128 0x18
 2540 013e 9642     		.uleb128 0x2116
 2541 0140 19       		.uleb128 0x19
 2542 0141 00       		.byte	0
 2543 0142 00       		.byte	0
 2544 0143 14       		.uleb128 0x14
 2545 0144 2E       		.uleb128 0x2e
 2546 0145 01       		.byte	0x1
 2547 0146 3F       		.uleb128 0x3f
 2548 0147 19       		.uleb128 0x19
 2549 0148 03       		.uleb128 0x3
 2550 0149 0E       		.uleb128 0xe
 2551 014a 3A       		.uleb128 0x3a
 2552 014b 0B       		.uleb128 0xb
 2553 014c 3B       		.uleb128 0x3b
 2554 014d 05       		.uleb128 0x5
 2555 014e 27       		.uleb128 0x27
 2556 014f 19       		.uleb128 0x19
 2557 0150 11       		.uleb128 0x11
 2558 0151 01       		.uleb128 0x1
 2559 0152 12       		.uleb128 0x12
 2560 0153 06       		.uleb128 0x6
 2561 0154 40       		.uleb128 0x40
 2562 0155 18       		.uleb128 0x18
 2563 0156 9642     		.uleb128 0x2116
 2564 0158 19       		.uleb128 0x19
 2565 0159 01       		.uleb128 0x1
 2566 015a 13       		.uleb128 0x13
 2567 015b 00       		.byte	0
 2568 015c 00       		.byte	0
 2569 015d 15       		.uleb128 0x15
 2570 015e 05       		.uleb128 0x5
 2571 015f 00       		.byte	0
 2572 0160 03       		.uleb128 0x3
 2573 0161 08       		.uleb128 0x8
 2574 0162 3A       		.uleb128 0x3a
 2575 0163 0B       		.uleb128 0xb
 2576 0164 3B       		.uleb128 0x3b
ARM GAS  C:\Users\ikui753\AppData\Local\Temp\ccet6i7n.s 			page 54


 2577 0165 05       		.uleb128 0x5
 2578 0166 49       		.uleb128 0x49
 2579 0167 13       		.uleb128 0x13
 2580 0168 02       		.uleb128 0x2
 2581 0169 18       		.uleb128 0x18
 2582 016a 00       		.byte	0
 2583 016b 00       		.byte	0
 2584 016c 16       		.uleb128 0x16
 2585 016d 2E       		.uleb128 0x2e
 2586 016e 01       		.byte	0x1
 2587 016f 3F       		.uleb128 0x3f
 2588 0170 19       		.uleb128 0x19
 2589 0171 03       		.uleb128 0x3
 2590 0172 0E       		.uleb128 0xe
 2591 0173 3A       		.uleb128 0x3a
 2592 0174 0B       		.uleb128 0xb
 2593 0175 3B       		.uleb128 0x3b
 2594 0176 05       		.uleb128 0x5
 2595 0177 11       		.uleb128 0x11
 2596 0178 01       		.uleb128 0x1
 2597 0179 12       		.uleb128 0x12
 2598 017a 06       		.uleb128 0x6
 2599 017b 40       		.uleb128 0x40
 2600 017c 18       		.uleb128 0x18
 2601 017d 9642     		.uleb128 0x2116
 2602 017f 19       		.uleb128 0x19
 2603 0180 01       		.uleb128 0x1
 2604 0181 13       		.uleb128 0x13
 2605 0182 00       		.byte	0
 2606 0183 00       		.byte	0
 2607 0184 17       		.uleb128 0x17
 2608 0185 34       		.uleb128 0x34
 2609 0186 00       		.byte	0
 2610 0187 03       		.uleb128 0x3
 2611 0188 0E       		.uleb128 0xe
 2612 0189 3A       		.uleb128 0x3a
 2613 018a 0B       		.uleb128 0xb
 2614 018b 3B       		.uleb128 0x3b
 2615 018c 05       		.uleb128 0x5
 2616 018d 49       		.uleb128 0x49
 2617 018e 13       		.uleb128 0x13
 2618 018f 02       		.uleb128 0x2
 2619 0190 18       		.uleb128 0x18
 2620 0191 00       		.byte	0
 2621 0192 00       		.byte	0
 2622 0193 18       		.uleb128 0x18
 2623 0194 34       		.uleb128 0x34
 2624 0195 00       		.byte	0
 2625 0196 03       		.uleb128 0x3
 2626 0197 08       		.uleb128 0x8
 2627 0198 3A       		.uleb128 0x3a
 2628 0199 0B       		.uleb128 0xb
 2629 019a 3B       		.uleb128 0x3b
 2630 019b 05       		.uleb128 0x5
 2631 019c 49       		.uleb128 0x49
 2632 019d 13       		.uleb128 0x13
 2633 019e 02       		.uleb128 0x2
ARM GAS  C:\Users\ikui753\AppData\Local\Temp\ccet6i7n.s 			page 55


 2634 019f 18       		.uleb128 0x18
 2635 01a0 00       		.byte	0
 2636 01a1 00       		.byte	0
 2637 01a2 19       		.uleb128 0x19
 2638 01a3 34       		.uleb128 0x34
 2639 01a4 00       		.byte	0
 2640 01a5 03       		.uleb128 0x3
 2641 01a6 0E       		.uleb128 0xe
 2642 01a7 3A       		.uleb128 0x3a
 2643 01a8 0B       		.uleb128 0xb
 2644 01a9 3B       		.uleb128 0x3b
 2645 01aa 05       		.uleb128 0x5
 2646 01ab 49       		.uleb128 0x49
 2647 01ac 13       		.uleb128 0x13
 2648 01ad 3F       		.uleb128 0x3f
 2649 01ae 19       		.uleb128 0x19
 2650 01af 3C       		.uleb128 0x3c
 2651 01b0 19       		.uleb128 0x19
 2652 01b1 00       		.byte	0
 2653 01b2 00       		.byte	0
 2654 01b3 1A       		.uleb128 0x1a
 2655 01b4 35       		.uleb128 0x35
 2656 01b5 00       		.byte	0
 2657 01b6 49       		.uleb128 0x49
 2658 01b7 13       		.uleb128 0x13
 2659 01b8 00       		.byte	0
 2660 01b9 00       		.byte	0
 2661 01ba 1B       		.uleb128 0x1b
 2662 01bb 34       		.uleb128 0x34
 2663 01bc 00       		.byte	0
 2664 01bd 03       		.uleb128 0x3
 2665 01be 08       		.uleb128 0x8
 2666 01bf 3A       		.uleb128 0x3a
 2667 01c0 0B       		.uleb128 0xb
 2668 01c1 3B       		.uleb128 0x3b
 2669 01c2 0B       		.uleb128 0xb
 2670 01c3 49       		.uleb128 0x49
 2671 01c4 13       		.uleb128 0x13
 2672 01c5 3F       		.uleb128 0x3f
 2673 01c6 19       		.uleb128 0x19
 2674 01c7 02       		.uleb128 0x2
 2675 01c8 18       		.uleb128 0x18
 2676 01c9 00       		.byte	0
 2677 01ca 00       		.byte	0
 2678 01cb 1C       		.uleb128 0x1c
 2679 01cc 34       		.uleb128 0x34
 2680 01cd 00       		.byte	0
 2681 01ce 03       		.uleb128 0x3
 2682 01cf 0E       		.uleb128 0xe
 2683 01d0 3A       		.uleb128 0x3a
 2684 01d1 0B       		.uleb128 0xb
 2685 01d2 3B       		.uleb128 0x3b
 2686 01d3 0B       		.uleb128 0xb
 2687 01d4 49       		.uleb128 0x49
 2688 01d5 13       		.uleb128 0x13
 2689 01d6 3F       		.uleb128 0x3f
 2690 01d7 19       		.uleb128 0x19
ARM GAS  C:\Users\ikui753\AppData\Local\Temp\ccet6i7n.s 			page 56


 2691 01d8 02       		.uleb128 0x2
 2692 01d9 18       		.uleb128 0x18
 2693 01da 00       		.byte	0
 2694 01db 00       		.byte	0
 2695 01dc 1D       		.uleb128 0x1d
 2696 01dd 01       		.uleb128 0x1
 2697 01de 01       		.byte	0x1
 2698 01df 49       		.uleb128 0x49
 2699 01e0 13       		.uleb128 0x13
 2700 01e1 01       		.uleb128 0x1
 2701 01e2 13       		.uleb128 0x13
 2702 01e3 00       		.byte	0
 2703 01e4 00       		.byte	0
 2704 01e5 1E       		.uleb128 0x1e
 2705 01e6 21       		.uleb128 0x21
 2706 01e7 00       		.byte	0
 2707 01e8 49       		.uleb128 0x49
 2708 01e9 13       		.uleb128 0x13
 2709 01ea 2F       		.uleb128 0x2f
 2710 01eb 0B       		.uleb128 0xb
 2711 01ec 00       		.byte	0
 2712 01ed 00       		.byte	0
 2713 01ee 00       		.byte	0
 2714              		.section	.debug_aranges,"",%progbits
 2715 0000 94000000 		.4byte	0x94
 2716 0004 0200     		.2byte	0x2
 2717 0006 00000000 		.4byte	.Ldebug_info0
 2718 000a 04       		.byte	0x4
 2719 000b 00       		.byte	0
 2720 000c 0000     		.2byte	0
 2721 000e 0000     		.2byte	0
 2722 0010 00000000 		.4byte	.LFB64
 2723 0014 C8000000 		.4byte	.LFE64-.LFB64
 2724 0018 00000000 		.4byte	.LFB65
 2725 001c 18000000 		.4byte	.LFE65-.LFB65
 2726 0020 00000000 		.4byte	.LFB66
 2727 0024 18000000 		.4byte	.LFE66-.LFB66
 2728 0028 00000000 		.4byte	.LFB67
 2729 002c 18000000 		.4byte	.LFE67-.LFB67
 2730 0030 00000000 		.4byte	.LFB68
 2731 0034 18000000 		.4byte	.LFE68-.LFB68
 2732 0038 00000000 		.4byte	.LFB69
 2733 003c 18000000 		.4byte	.LFE69-.LFB69
 2734 0040 00000000 		.4byte	.LFB70
 2735 0044 18000000 		.4byte	.LFE70-.LFB70
 2736 0048 00000000 		.4byte	.LFB71
 2737 004c 1A000000 		.4byte	.LFE71-.LFB71
 2738 0050 00000000 		.4byte	.LFB72
 2739 0054 E0000000 		.4byte	.LFE72-.LFB72
 2740 0058 00000000 		.4byte	.LFB73
 2741 005c 6C000000 		.4byte	.LFE73-.LFB73
 2742 0060 00000000 		.4byte	.LFB74
 2743 0064 48000000 		.4byte	.LFE74-.LFB74
 2744 0068 00000000 		.4byte	.LFB75
 2745 006c A0010000 		.4byte	.LFE75-.LFB75
 2746 0070 00000000 		.4byte	.LFB76
 2747 0074 70000000 		.4byte	.LFE76-.LFB76
ARM GAS  C:\Users\ikui753\AppData\Local\Temp\ccet6i7n.s 			page 57


 2748 0078 00000000 		.4byte	.LFB77
 2749 007c 3E000000 		.4byte	.LFE77-.LFB77
 2750 0080 00000000 		.4byte	.LFB78
 2751 0084 26000000 		.4byte	.LFE78-.LFB78
 2752 0088 00000000 		.4byte	.LFB79
 2753 008c C8000000 		.4byte	.LFE79-.LFB79
 2754 0090 00000000 		.4byte	0
 2755 0094 00000000 		.4byte	0
 2756              		.section	.debug_ranges,"",%progbits
 2757              	.Ldebug_ranges0:
 2758 0000 00000000 		.4byte	.LFB64
 2759 0004 C8000000 		.4byte	.LFE64
 2760 0008 00000000 		.4byte	.LFB65
 2761 000c 18000000 		.4byte	.LFE65
 2762 0010 00000000 		.4byte	.LFB66
 2763 0014 18000000 		.4byte	.LFE66
 2764 0018 00000000 		.4byte	.LFB67
 2765 001c 18000000 		.4byte	.LFE67
 2766 0020 00000000 		.4byte	.LFB68
 2767 0024 18000000 		.4byte	.LFE68
 2768 0028 00000000 		.4byte	.LFB69
 2769 002c 18000000 		.4byte	.LFE69
 2770 0030 00000000 		.4byte	.LFB70
 2771 0034 18000000 		.4byte	.LFE70
 2772 0038 00000000 		.4byte	.LFB71
 2773 003c 1A000000 		.4byte	.LFE71
 2774 0040 00000000 		.4byte	.LFB72
 2775 0044 E0000000 		.4byte	.LFE72
 2776 0048 00000000 		.4byte	.LFB73
 2777 004c 6C000000 		.4byte	.LFE73
 2778 0050 00000000 		.4byte	.LFB74
 2779 0054 48000000 		.4byte	.LFE74
 2780 0058 00000000 		.4byte	.LFB75
 2781 005c A0010000 		.4byte	.LFE75
 2782 0060 00000000 		.4byte	.LFB76
 2783 0064 70000000 		.4byte	.LFE76
 2784 0068 00000000 		.4byte	.LFB77
 2785 006c 3E000000 		.4byte	.LFE77
 2786 0070 00000000 		.4byte	.LFB78
 2787 0074 26000000 		.4byte	.LFE78
 2788 0078 00000000 		.4byte	.LFB79
 2789 007c C8000000 		.4byte	.LFE79
 2790 0080 00000000 		.4byte	0
 2791 0084 00000000 		.4byte	0
 2792              		.section	.debug_line,"",%progbits
 2793              	.Ldebug_line0:
 2794 0000 CE030000 		.section	.debug_str,"MS",%progbits,1
 2794      02005601 
 2794      00000201 
 2794      FB0E0D00 
 2794      01010101 
 2795              	.LASF52:
 2796 0000 53365F44 		.ascii	"S6_DETECTED\000"
 2796      45544543 
 2796      54454400 
 2797              	.LASF61:
 2798 000c 75736250 		.ascii	"usbPutChar\000"
ARM GAS  C:\Users\ikui753\AppData\Local\Temp\ccet6i7n.s 			page 58


 2798      75744368 
 2798      617200
 2799              	.LASF40:
 2800 0017 5475726E 		.ascii	"TurnLeft\000"
 2800      4C656674 
 2800      00
 2801              	.LASF65:
 2802 0020 74735F65 		.ascii	"ts_enc\000"
 2802      6E6300
 2803              	.LASF20:
 2804 0027 646F7562 		.ascii	"double\000"
 2804      6C6500
 2805              	.LASF74:
 2806 002e 666C6167 		.ascii	"flag_packet\000"
 2806      5F706163 
 2806      6B657400 
 2807              	.LASF71:
 2808 003a 666C6167 		.ascii	"flag_ts_speed\000"
 2808      5F74735F 
 2808      73706565 
 2808      6400
 2809              	.LASF34:
 2810 0048 67325F78 		.ascii	"g2_xpos\000"
 2810      706F7300 
 2811              	.LASF2:
 2812 0050 73686F72 		.ascii	"short int\000"
 2812      7420696E 
 2812      7400
 2813              	.LASF82:
 2814 005a 73797374 		.ascii	"system_state\000"
 2814      656D5F73 
 2814      74617465 
 2814      00
 2815              	.LASF10:
 2816 0067 73697A65 		.ascii	"sizetype\000"
 2816      74797065 
 2816      00
 2817              	.LASF95:
 2818 0070 44697265 		.ascii	"DirectionState\000"
 2818      6374696F 
 2818      6E537461 
 2818      746500
 2819              	.LASF81:
 2820 007f 75736242 		.ascii	"usbBuffer\000"
 2820      75666665 
 2820      7200
 2821              	.LASF91:
 2822 0089 474E5520 		.ascii	"GNU C11 5.4.1 20160609 (release) [ARM/embedded-5-br"
 2822      43313120 
 2822      352E342E 
 2822      31203230 
 2822      31363036 
 2823 00bc 616E6368 		.ascii	"anch revision 237715] -mcpu=cortex-m3 -mthumb -g -O"
 2823      20726576 
 2823      6973696F 
 2823      6E203233 
 2823      37373135 
ARM GAS  C:\Users\ikui753\AppData\Local\Temp\ccet6i7n.s 			page 59


 2824 00ef 30202D66 		.ascii	"0 -ffunction-sections -ffat-lto-objects\000"
 2824      66756E63 
 2824      74696F6E 
 2824      2D736563 
 2824      74696F6E 
 2825              	.LASF54:
 2826 0117 6D61696E 		.ascii	"main\000"
 2826      00
 2827              	.LASF50:
 2828 011c 53345F44 		.ascii	"S4_DETECTED\000"
 2828      45544543 
 2828      54454400 
 2829              	.LASF41:
 2830 0128 41646A75 		.ascii	"AdjustToTheLeft\000"
 2830      7374546F 
 2830      5468654C 
 2830      65667400 
 2831              	.LASF15:
 2832 0138 75696E74 		.ascii	"uint16\000"
 2832      313600
 2833              	.LASF22:
 2834 013f 696E6465 		.ascii	"index\000"
 2834      7800
 2835              	.LASF46:
 2836 0145 73706565 		.ascii	"speedTimer\000"
 2836      6454696D 
 2836      657200
 2837              	.LASF18:
 2838 0150 696E7431 		.ascii	"int16\000"
 2838      3600
 2839              	.LASF45:
 2840 0156 48617264 		.ascii	"HardForward\000"
 2840      466F7277 
 2840      61726400 
 2841              	.LASF14:
 2842 0162 75696E74 		.ascii	"uint8\000"
 2842      3800
 2843              	.LASF33:
 2844 0168 67315F64 		.ascii	"g1_direction\000"
 2844      69726563 
 2844      74696F6E 
 2844      00
 2845              	.LASF79:
 2846 0175 6C696E65 		.ascii	"line\000"
 2846      00
 2847              	.LASF19:
 2848 017a 666C6F61 		.ascii	"float\000"
 2848      7400
 2849              	.LASF6:
 2850 0180 6C6F6E67 		.ascii	"long long int\000"
 2850      206C6F6E 
 2850      6720696E 
 2850      7400
 2851              	.LASF59:
 2852 018e 75736250 		.ascii	"usbPutString\000"
 2852      75745374 
 2852      72696E67 
ARM GAS  C:\Users\ikui753\AppData\Local\Temp\ccet6i7n.s 			page 60


 2852      00
 2853              	.LASF17:
 2854 019b 696E7438 		.ascii	"int8\000"
 2854      00
 2855              	.LASF70:
 2856 01a0 666C6167 		.ascii	"flag_ts_update\000"
 2856      5F74735F 
 2856      75706461 
 2856      746500
 2857              	.LASF35:
 2858 01af 67325F79 		.ascii	"g2_ypos\000"
 2858      706F7300 
 2859              	.LASF29:
 2860 01b7 67305F64 		.ascii	"g0_direction\000"
 2860      69726563 
 2860      74696F6E 
 2860      00
 2861              	.LASF26:
 2862 01c4 67305F78 		.ascii	"g0_xpos\000"
 2862      706F7300 
 2863              	.LASF4:
 2864 01cc 6C6F6E67 		.ascii	"long int\000"
 2864      20696E74 
 2864      00
 2865              	.LASF58:
 2866 01d5 43686563 		.ascii	"CheckSensorDirection\000"
 2866      6B53656E 
 2866      736F7244 
 2866      69726563 
 2866      74696F6E 
 2867              	.LASF48:
 2868 01ea 53325F44 		.ascii	"S2_DETECTED\000"
 2868      45544543 
 2868      54454400 
 2869              	.LASF93:
 2870 01f6 433A5C55 		.ascii	"C:\\Users\\ikui753\\OneDrive - The University of Au"
 2870      73657273 
 2870      5C696B75 
 2870      69373533 
 2870      5C4F6E65 
 2871 0226 636B6C61 		.ascii	"ckland\\Documents\\GitHub\\301-Robot\\psoc student "
 2871      6E645C44 
 2871      6F63756D 
 2871      656E7473 
 2871      5C476974 
 2872 0255 7061636B 		.ascii	"pack\\psoc_code_base\\CS301_Class.cydsn\000"
 2872      5C70736F 
 2872      635F636F 
 2872      64655F62 
 2872      6173655C 
 2873              	.LASF72:
 2874 027b 666C6167 		.ascii	"flag_ts_display\000"
 2874      5F74735F 
 2874      64697370 
 2874      6C617900 
 2875              	.LASF73:
 2876 028b 666C6167 		.ascii	"flag_rx\000"
ARM GAS  C:\Users\ikui753\AppData\Local\Temp\ccet6i7n.s 			page 61


 2876      5F727800 
 2877              	.LASF1:
 2878 0293 756E7369 		.ascii	"unsigned char\000"
 2878      676E6564 
 2878      20636861 
 2878      7200
 2879              	.LASF85:
 2880 02a1 746F7461 		.ascii	"totalMilliseconds\000"
 2880      6C4D696C 
 2880      6C697365 
 2880      636F6E64 
 2880      7300
 2881              	.LASF80:
 2882 02b3 656E7472 		.ascii	"entry\000"
 2882      7900
 2883              	.LASF9:
 2884 02b9 6C6F6E67 		.ascii	"long double\000"
 2884      20646F75 
 2884      626C6500 
 2885              	.LASF84:
 2886 02c5 70726576 		.ascii	"previousDirection\000"
 2886      696F7573 
 2886      44697265 
 2886      6374696F 
 2886      6E00
 2887              	.LASF86:
 2888 02d7 746F7461 		.ascii	"totalDistance\000"
 2888      6C446973 
 2888      74616E63 
 2888      6500
 2889              	.LASF90:
 2890 02e5 6B656570 		.ascii	"keepLedOn\000"
 2890      4C65644F 
 2890      6E00
 2891              	.LASF28:
 2892 02ef 67305F73 		.ascii	"g0_speed\000"
 2892      70656564 
 2892      00
 2893              	.LASF76:
 2894 02f8 64617461 		.ascii	"dataready_flag\000"
 2894      72656164 
 2894      795F666C 
 2894      616700
 2895              	.LASF30:
 2896 0307 67315F78 		.ascii	"g1_xpos\000"
 2896      706F7300 
 2897              	.LASF0:
 2898 030f 7369676E 		.ascii	"signed char\000"
 2898      65642063 
 2898      68617200 
 2899              	.LASF13:
 2900 031b 696E7433 		.ascii	"int32_t\000"
 2900      325F7400 
 2901              	.LASF7:
 2902 0323 6C6F6E67 		.ascii	"long long unsigned int\000"
 2902      206C6F6E 
 2902      6720756E 
ARM GAS  C:\Users\ikui753\AppData\Local\Temp\ccet6i7n.s 			page 62


 2902      7369676E 
 2902      65642069 
 2903              	.LASF42:
 2904 033a 41646A75 		.ascii	"AdjustToTheRight\000"
 2904      7374546F 
 2904      54686552 
 2904      69676874 
 2904      00
 2905              	.LASF8:
 2906 034b 756E7369 		.ascii	"unsigned int\000"
 2906      676E6564 
 2906      20696E74 
 2906      00
 2907              	.LASF89:
 2908 0358 74696D65 		.ascii	"timerInt\000"
 2908      72496E74 
 2908      00
 2909              	.LASF75:
 2910 0361 666C6167 		.ascii	"flag_KB_string\000"
 2910      5F4B425F 
 2910      73747269 
 2910      6E6700
 2911              	.LASF63:
 2912 0370 75736242 		.ascii	"usbBufCount\000"
 2912      7566436F 
 2912      756E7400 
 2913              	.LASF57:
 2914 037c 53657452 		.ascii	"SetRobotMovement\000"
 2914      6F626F74 
 2914      4D6F7665 
 2914      6D656E74 
 2914      00
 2915              	.LASF53:
 2916 038d 54494D45 		.ascii	"TIMER_FINISH\000"
 2916      525F4649 
 2916      4E495348 
 2916      00
 2917              	.LASF36:
 2918 039a 67325F73 		.ascii	"g2_speed\000"
 2918      70656564 
 2918      00
 2919              	.LASF51:
 2920 03a3 53355F44 		.ascii	"S5_DETECTED\000"
 2920      45544543 
 2920      54454400 
 2921              	.LASF3:
 2922 03af 73686F72 		.ascii	"short unsigned int\000"
 2922      7420756E 
 2922      7369676E 
 2922      65642069 
 2922      6E7400
 2923              	.LASF94:
 2924 03c2 64617461 		.ascii	"data_main\000"
 2924      5F6D6169 
 2924      6E00
 2925              	.LASF56:
 2926 03cc 52657365 		.ascii	"ResetSensorFlags\000"
ARM GAS  C:\Users\ikui753\AppData\Local\Temp\ccet6i7n.s 			page 63


 2926      7453656E 
 2926      736F7246 
 2926      6C616773 
 2926      00
 2927              	.LASF11:
 2928 03dd 63686172 		.ascii	"char\000"
 2928      00
 2929              	.LASF38:
 2930 03e2 466F7277 		.ascii	"Forward\000"
 2930      61726400 
 2931              	.LASF88:
 2932 03ea 71756164 		.ascii	"quadDec2Count\000"
 2932      44656332 
 2932      436F756E 
 2932      7400
 2933              	.LASF31:
 2934 03f8 67315F79 		.ascii	"g1_ypos\000"
 2934      706F7300 
 2935              	.LASF37:
 2936 0400 67325F64 		.ascii	"g2_direction\000"
 2936      69726563 
 2936      74696F6E 
 2936      00
 2937              	.LASF32:
 2938 040d 67315F73 		.ascii	"g1_speed\000"
 2938      70656564 
 2938      00
 2939              	.LASF78:
 2940 0416 64697370 		.ascii	"displaystring\000"
 2940      6C617973 
 2940      7472696E 
 2940      6700
 2941              	.LASF23:
 2942 0424 726F626F 		.ascii	"robot_xpos\000"
 2942      745F7870 
 2942      6F7300
 2943              	.LASF39:
 2944 042f 5475726E 		.ascii	"TurnRight\000"
 2944      52696768 
 2944      7400
 2945              	.LASF87:
 2946 0439 62756666 		.ascii	"buffer\000"
 2946      657200
 2947              	.LASF16:
 2948 0440 75696E74 		.ascii	"uint32\000"
 2948      333200
 2949              	.LASF92:
 2950 0447 6D61696E 		.ascii	"main.c\000"
 2950      2E6300
 2951              	.LASF5:
 2952 044e 6C6F6E67 		.ascii	"long unsigned int\000"
 2952      20756E73 
 2952      69676E65 
 2952      6420696E 
 2952      7400
 2953              	.LASF62:
 2954 0460 75736253 		.ascii	"usbStarted\000"
ARM GAS  C:\Users\ikui753\AppData\Local\Temp\ccet6i7n.s 			page 64


 2954      74617274 
 2954      656400
 2955              	.LASF44:
 2956 046b 556E6B6E 		.ascii	"Unknown\000"
 2956      6F776E00 
 2957              	.LASF49:
 2958 0473 53335F44 		.ascii	"S3_DETECTED\000"
 2958      45544543 
 2958      54454400 
 2959              	.LASF67:
 2960 047f 74735F73 		.ascii	"ts_speed\000"
 2960      70656564 
 2960      00
 2961              	.LASF60:
 2962 0488 636F756E 		.ascii	"count\000"
 2962      7400
 2963              	.LASF69:
 2964 048e 666C6167 		.ascii	"flag_ts_enc\000"
 2964      5F74735F 
 2964      656E6300 
 2965              	.LASF12:
 2966 049a 5F5F696E 		.ascii	"__int32_t\000"
 2966      7433325F 
 2966      7400
 2967              	.LASF43:
 2968 04a4 53746F70 		.ascii	"Stop\000"
 2968      00
 2969              	.LASF27:
 2970 04a9 67305F79 		.ascii	"g0_ypos\000"
 2970      706F7300 
 2971              	.LASF68:
 2972 04b1 74735F64 		.ascii	"ts_display\000"
 2972      6973706C 
 2972      617900
 2973              	.LASF66:
 2974 04bc 74735F75 		.ascii	"ts_update\000"
 2974      70646174 
 2974      6500
 2975              	.LASF97:
 2976 04c6 68616E64 		.ascii	"handle_usb\000"
 2976      6C655F75 
 2976      736200
 2977              	.LASF96:
 2978 04d1 71756164 		.ascii	"quadCountToRPM\000"
 2978      436F756E 
 2978      74546F52 
 2978      504D00
 2979              	.LASF77:
 2980 04e0 666C6167 		.ascii	"flag_rf_transmission_active\000"
 2980      5F72665F 
 2980      7472616E 
 2980      736D6973 
 2980      73696F6E 
 2981              	.LASF24:
 2982 04fc 726F626F 		.ascii	"robot_ypos\000"
 2982      745F7970 
 2982      6F7300
ARM GAS  C:\Users\ikui753\AppData\Local\Temp\ccet6i7n.s 			page 65


 2983              	.LASF64:
 2984 0507 49544D5F 		.ascii	"ITM_RxBuffer\000"
 2984      52784275 
 2984      66666572 
 2984      00
 2985              	.LASF83:
 2986 0514 63757272 		.ascii	"currentDirection\000"
 2986      656E7444 
 2986      69726563 
 2986      74696F6E 
 2986      00
 2987              	.LASF55:
 2988 0525 64697265 		.ascii	"directionState\000"
 2988      6374696F 
 2988      6E537461 
 2988      746500
 2989              	.LASF21:
 2990 0534 72737369 		.ascii	"rssi\000"
 2990      00
 2991              	.LASF25:
 2992 0539 726F626F 		.ascii	"robot_orientation\000"
 2992      745F6F72 
 2992      69656E74 
 2992      6174696F 
 2992      6E00
 2993              	.LASF47:
 2994 054b 53315F44 		.ascii	"S1_DETECTED\000"
 2994      45544543 
 2994      54454400 
 2995              		.ident	"GCC: (GNU Tools for ARM Embedded Processors) 5.4.1 20160609 (release) [ARM/embedded-5-bran
