ARM GAS  C:\Users\Jobsa\AppData\Local\Temp\cclJxy2u.s 			page 1


   1              		.syntax unified
   2              		.cpu cortex-m3
   3              		.fpu softvfp
   4              		.eabi_attribute 20, 1
   5              		.eabi_attribute 21, 1
   6              		.eabi_attribute 23, 3
   7              		.eabi_attribute 24, 1
   8              		.eabi_attribute 25, 1
   9              		.eabi_attribute 26, 1
  10              		.eabi_attribute 30, 6
  11              		.eabi_attribute 34, 1
  12              		.eabi_attribute 18, 4
  13              		.thumb
  14              		.syntax unified
  15              		.file	"main.c"
  16              		.text
  17              	.Ltext0:
  18              		.cfi_sections	.debug_frame
  19              		.global	ts
  20              		.bss
  21              		.type	ts, %object
  22              		.size	ts, 1
  23              	ts:
  24 0000 00       		.space	1
  25              		.global	ts_enc
  26 0001 00       		.align	1
  27              		.type	ts_enc, %object
  28              		.size	ts_enc, 2
  29              	ts_enc:
  30 0002 0000     		.space	2
  31              		.global	ts_update
  32              		.align	1
  33              		.type	ts_update, %object
  34              		.size	ts_update, 2
  35              	ts_update:
  36 0004 0000     		.space	2
  37              		.global	ts_speed
  38              		.align	1
  39              		.type	ts_speed, %object
  40              		.size	ts_speed, 2
  41              	ts_speed:
  42 0006 0000     		.space	2
  43              		.global	ts_display
  44              		.align	1
  45              		.type	ts_display, %object
  46              		.size	ts_display, 2
  47              	ts_display:
  48 0008 0000     		.space	2
  49              		.global	flag_ts_enc
  50              		.type	flag_ts_enc, %object
  51              		.size	flag_ts_enc, 1
  52              	flag_ts_enc:
  53 000a 00       		.space	1
  54              		.global	flag_ts_update
  55              		.type	flag_ts_update, %object
  56              		.size	flag_ts_update, 1
  57              	flag_ts_update:
ARM GAS  C:\Users\Jobsa\AppData\Local\Temp\cclJxy2u.s 			page 2


  58 000b 00       		.space	1
  59              		.global	flag_ts_speed
  60              		.type	flag_ts_speed, %object
  61              		.size	flag_ts_speed, 1
  62              	flag_ts_speed:
  63 000c 00       		.space	1
  64              		.global	flag_ts_display
  65              		.type	flag_ts_display, %object
  66              		.size	flag_ts_display, 1
  67              	flag_ts_display:
  68 000d 00       		.space	1
  69              		.global	flag_rx
  70              		.type	flag_rx, %object
  71              		.size	flag_rx, 1
  72              	flag_rx:
  73 000e 00       		.space	1
  74              		.global	flag_packet
  75              		.type	flag_packet, %object
  76              		.size	flag_packet, 1
  77              	flag_packet:
  78 000f 00       		.space	1
  79              		.global	flag_KB_string
  80              		.type	flag_KB_string, %object
  81              		.size	flag_KB_string, 1
  82              	flag_KB_string:
  83 0010 00       		.space	1
  84              		.global	dataready_flag
  85              		.type	dataready_flag, %object
  86              		.size	dataready_flag, 1
  87              	dataready_flag:
  88 0011 00       		.space	1
  89              		.global	flag_rf_transmission_active
  90              		.data
  91              		.type	flag_rf_transmission_active, %object
  92              		.size	flag_rf_transmission_active, 1
  93              	flag_rf_transmission_active:
  94 0000 0A       		.byte	10
  95              		.global	displaystring
  96 0001 000000   		.align	2
  97              		.type	displaystring, %object
  98              		.size	displaystring, 64
  99              	displaystring:
 100 0004 43533330 		.ascii	"CS301 2016\012\015\000"
 100      31203230 
 100      31360A0D 
 100      00
 101 0011 00000000 		.space	51
 101      00000000 
 101      00000000 
 101      00000000 
 101      00000000 
 102              		.comm	line,64,4
 103              		.comm	entry,64,4
 104              		.comm	usbBuffer,64,4
 105              		.comm	system_state,32,4
 106              		.global	currentDirection
 107              		.align	2
ARM GAS  C:\Users\Jobsa\AppData\Local\Temp\cclJxy2u.s 			page 3


 108              		.type	currentDirection, %object
 109              		.size	currentDirection, 4
 110              	currentDirection:
 111 0044 05000000 		.word	5
 112              		.global	previousDirection
 113              		.align	2
 114              		.type	previousDirection, %object
 115              		.size	previousDirection, 4
 116              	previousDirection:
 117 0048 06000000 		.word	6
 118              		.global	s1
 119              		.bss
 120              		.type	s1, %object
 121              		.size	s1, 1
 122              	s1:
 123 0012 00       		.space	1
 124              		.global	s2
 125              		.type	s2, %object
 126              		.size	s2, 1
 127              	s2:
 128 0013 00       		.space	1
 129              		.global	s3
 130              		.type	s3, %object
 131              		.size	s3, 1
 132              	s3:
 133 0014 00       		.space	1
 134              		.global	s4
 135              		.type	s4, %object
 136              		.size	s4, 1
 137              	s4:
 138 0015 00       		.space	1
 139              		.global	s5
 140              		.type	s5, %object
 141              		.size	s5, 1
 142              	s5:
 143 0016 00       		.space	1
 144              		.global	s6
 145              		.type	s6, %object
 146              		.size	s6, 1
 147              	s6:
 148 0017 00       		.space	1
 149              		.global	totalMilliseconds
 150              		.align	2
 151              		.type	totalMilliseconds, %object
 152              		.size	totalMilliseconds, 4
 153              	totalMilliseconds:
 154 0018 00000000 		.space	4
 155              		.global	totalDistance
 156              		.align	2
 157              		.type	totalDistance, %object
 158              		.size	totalDistance, 4
 159              	totalDistance:
 160 001c 00000000 		.space	4
 161              		.comm	buffer,69,4
 162              		.global	quadDec2Count
 163              		.align	2
 164              		.type	quadDec2Count, %object
ARM GAS  C:\Users\Jobsa\AppData\Local\Temp\cclJxy2u.s 			page 4


 165              		.size	quadDec2Count, 4
 166              	quadDec2Count:
 167 0020 00000000 		.space	4
 168              		.global	timerInt
 169              		.align	2
 170              		.type	timerInt, %object
 171              		.size	timerInt, 4
 172              	timerInt:
 173 0024 00000000 		.space	4
 174              		.global	keepLedOn
 175              		.align	2
 176              		.type	keepLedOn, %object
 177              		.size	keepLedOn, 4
 178              	keepLedOn:
 179 0028 00000000 		.space	4
 180              		.global	__aeabi_ui2d
 181              		.global	__aeabi_i2d
 182              		.global	__aeabi_ddiv
 183              		.global	__aeabi_dmul
 184              		.global	__aeabi_dadd
 185              		.global	__aeabi_d2uiz
 186              		.section	.text.speedTimer,"ax",%progbits
 187              		.align	2
 188              		.global	speedTimer
 189              		.thumb
 190              		.thumb_func
 191              		.type	speedTimer, %function
 192              	speedTimer:
 193              	.LFB64:
 194              		.file 1 "main.c"
   1:main.c        **** /* ========================================
   2:main.c        ****  * Fully working code: 
   3:main.c        ****  * PWM      : 
   4:main.c        ****  * Encoder  : 
   5:main.c        ****  * ADC      :
   6:main.c        ****  * USB      : port displays speed and position.
   7:main.c        ****  * CMD: "PW xx"
   8:main.c        ****  * Copyright Univ of Auckland, 2016
   9:main.c        ****  * All Rights Reserved
  10:main.c        ****  * UNPUBLISHED, LICENSED SOFTWARE.
  11:main.c        ****  *
  12:main.c        ****  * CONFIDENTIAL AND PROPRIETARY INFORMATION
  13:main.c        ****  * WHICH IS THE PROPERTY OF Univ of Auckland.
  14:main.c        ****  *
  15:main.c        ****  * ========================================
  16:main.c        **** */
  17:main.c        **** #include <stdio.h>
  18:main.c        **** #include <string.h>
  19:main.c        **** #include <stdlib.h>
  20:main.c        **** #include <project.h>
  21:main.c        **** //* ========================================
  22:main.c        **** #include "defines.h"
  23:main.c        **** #include "vars.h"
  24:main.c        **** //#include "pathfinding.h"
  25:main.c        **** #include "initialise.h"
  26:main.c        **** #include "movement.h"
  27:main.c        **** //#include "usbUART.h"
ARM GAS  C:\Users\Jobsa\AppData\Local\Temp\cclJxy2u.s 			page 5


  28:main.c        **** //* ========================================
  29:main.c        **** // USBUART
  30:main.c        **** void usbPutString(char *s);
  31:main.c        **** void usbPutChar(char c);
  32:main.c        **** void handle_usb();
  33:main.c        **** //* ========================================
  34:main.c        **** int16 quadCountToRPM(uint16 count);
  35:main.c        **** //* ========================================
  36:main.c        **** // Sensors, Course correction and Movement Direction.
  37:main.c        **** void ResetSensorFlags();
  38:main.c        **** void SetRobotMovement();
  39:main.c        **** enum DirectionState CheckSensorDirection();
  40:main.c        **** enum DirectionState {Forward, TurnRight, TurnLeft, AdjustToTheLeft, AdjustToTheRight, Stop, Unknown
  41:main.c        **** enum DirectionState currentDirection = Stop;
  42:main.c        **** enum DirectionState previousDirection = Unknown;
  43:main.c        **** // ----------------------------------------
  44:main.c        **** uint8 s1 = 0; // black = 0, white = 1
  45:main.c        **** uint8 s2 = 0;
  46:main.c        **** uint8 s3 = 0;
  47:main.c        **** uint8 s4 = 0;
  48:main.c        **** uint8 s5 = 0;
  49:main.c        **** uint8 s6 = 0;
  50:main.c        **** //* ========================================
  51:main.c        **** // Calculating Distance
  52:main.c        **** #define WHEEL_DIAMETER_MM 65
  53:main.c        **** uint32 totalMilliseconds = 0;
  54:main.c        **** uint32 totalDistance = 0; // in mm
  55:main.c        **** //* ========================================
  56:main.c        **** char buffer[69];
  57:main.c        **** int quadDec2Count = 0;
  58:main.c        **** int timerInt = 0;
  59:main.c        **** int keepLedOn = 0;
  60:main.c        **** 
  61:main.c        **** 
  62:main.c        **** //char map[MAX_ROWS][MAX_COLS]; // global map array- stores the map
  63:main.c        **** 
  64:main.c        **** CY_ISR (speedTimer) {
 195              		.loc 1 64 0
 196              		.cfi_startproc
 197              		@ args = 0, pretend = 0, frame = 0
 198              		@ frame_needed = 1, uses_anonymous_args = 0
 199 0000 B0B5     		push	{r4, r5, r7, lr}
 200              		.cfi_def_cfa_offset 16
 201              		.cfi_offset 4, -16
 202              		.cfi_offset 5, -12
 203              		.cfi_offset 7, -8
 204              		.cfi_offset 14, -4
 205 0002 00AF     		add	r7, sp, #0
 206              		.cfi_def_cfa_register 7
  65:main.c        ****     timerInt = 1;
 207              		.loc 1 65 0
 208 0004 2A4B     		ldr	r3, .L3+8
 209 0006 0122     		movs	r2, #1
 210 0008 1A60     		str	r2, [r3]
  66:main.c        ****     //quadDec_M1 used for turning macros
  67:main.c        ****     quadDec2Count = QuadDec_M2_GetCounter();
 211              		.loc 1 67 0
ARM GAS  C:\Users\Jobsa\AppData\Local\Temp\cclJxy2u.s 			page 6


 212 000a FFF7FEFF 		bl	QuadDec_M2_GetCounter
 213 000e 0346     		mov	r3, r0
 214 0010 1A46     		mov	r2, r3
 215 0012 284B     		ldr	r3, .L3+12
 216 0014 1A60     		str	r2, [r3]
  68:main.c        ****     
  69:main.c        ****     if (currentDirection == Forward && quadDec2Count != 0) {
 217              		.loc 1 69 0
 218 0016 284B     		ldr	r3, .L3+16
 219 0018 1B68     		ldr	r3, [r3]
 220 001a 002B     		cmp	r3, #0
 221 001c 38D1     		bne	.L2
 222              		.loc 1 69 0 is_stmt 0 discriminator 1
 223 001e 254B     		ldr	r3, .L3+12
 224 0020 1B68     		ldr	r3, [r3]
 225 0022 002B     		cmp	r3, #0
 226 0024 34D0     		beq	.L2
  70:main.c        ****         totalDistance = totalDistance + (abs(quadDec2Count) / 57.0) * CY_M_PI * WHEEL_DIAMETER_MM;
 227              		.loc 1 70 0 is_stmt 1
 228 0026 254B     		ldr	r3, .L3+20
 229 0028 1B68     		ldr	r3, [r3]
 230 002a 1846     		mov	r0, r3
 231 002c FFF7FEFF 		bl	__aeabi_ui2d
 232 0030 0446     		mov	r4, r0
 233 0032 0D46     		mov	r5, r1
 234 0034 1F4B     		ldr	r3, .L3+12
 235 0036 1B68     		ldr	r3, [r3]
 236 0038 002B     		cmp	r3, #0
 237 003a B8BF     		it	lt
 238 003c 5B42     		rsblt	r3, r3, #0
 239 003e 1846     		mov	r0, r3
 240 0040 FFF7FEFF 		bl	__aeabi_i2d
 241 0044 4FF00002 		mov	r2, #0
 242 0048 1D4B     		ldr	r3, .L3+24
 243 004a FFF7FEFF 		bl	__aeabi_ddiv
 244 004e 0246     		mov	r2, r0
 245 0050 0B46     		mov	r3, r1
 246 0052 1046     		mov	r0, r2
 247 0054 1946     		mov	r1, r3
 248 0056 14A3     		adr	r3, .L3
 249 0058 D3E90023 		ldrd	r2, [r3]
 250 005c FFF7FEFF 		bl	__aeabi_dmul
 251 0060 0246     		mov	r2, r0
 252 0062 0B46     		mov	r3, r1
 253 0064 1046     		mov	r0, r2
 254 0066 1946     		mov	r1, r3
 255 0068 4FF00002 		mov	r2, #0
 256 006c 154B     		ldr	r3, .L3+28
 257 006e FFF7FEFF 		bl	__aeabi_dmul
 258 0072 0246     		mov	r2, r0
 259 0074 0B46     		mov	r3, r1
 260 0076 2046     		mov	r0, r4
 261 0078 2946     		mov	r1, r5
 262 007a FFF7FEFF 		bl	__aeabi_dadd
 263 007e 0346     		mov	r3, r0
 264 0080 0C46     		mov	r4, r1
 265 0082 1846     		mov	r0, r3
ARM GAS  C:\Users\Jobsa\AppData\Local\Temp\cclJxy2u.s 			page 7


 266 0084 2146     		mov	r1, r4
 267 0086 FFF7FEFF 		bl	__aeabi_d2uiz
 268 008a 0246     		mov	r2, r0
 269 008c 0B4B     		ldr	r3, .L3+20
 270 008e 1A60     		str	r2, [r3]
 271              	.L2:
  71:main.c        ****     }
  72:main.c        ****     
  73:main.c        ****     QuadDec_M2_SetCounter(0); // reset count
 272              		.loc 1 73 0
 273 0090 0020     		movs	r0, #0
 274 0092 FFF7FEFF 		bl	QuadDec_M2_SetCounter
  74:main.c        ****     QuadDec_M2_Start(); // restart counter
 275              		.loc 1 74 0
 276 0096 FFF7FEFF 		bl	QuadDec_M2_Start
  75:main.c        ****     
  76:main.c        **** 
  77:main.c        ****     SpeedTimer_ReadStatusRegister(); // clear interrupt
 277              		.loc 1 77 0
 278 009a FFF7FEFF 		bl	SpeedTimer_ReadStatusRegister
  78:main.c        **** }
 279              		.loc 1 78 0
 280 009e 00BF     		nop
 281 00a0 B0BD     		pop	{r4, r5, r7, pc}
 282              	.L4:
 283 00a2 00BFAFF3 		.align	3
 283      0080
 284              	.L3:
 285 00a8 182D4454 		.word	1413754136
 286 00ac FB210940 		.word	1074340347
 287 00b0 00000000 		.word	timerInt
 288 00b4 00000000 		.word	quadDec2Count
 289 00b8 00000000 		.word	currentDirection
 290 00bc 00000000 		.word	totalDistance
 291 00c0 00804C40 		.word	1078755328
 292 00c4 00405040 		.word	1079001088
 293              		.cfi_endproc
 294              	.LFE64:
 295              		.size	speedTimer, .-speedTimer
 296              		.section	.text.S1_DETECTED,"ax",%progbits
 297              		.align	2
 298              		.global	S1_DETECTED
 299              		.thumb
 300              		.thumb_func
 301              		.type	S1_DETECTED, %function
 302              	S1_DETECTED:
 303              	.LFB65:
  79:main.c        **** 
  80:main.c        **** CY_ISR(S1_DETECTED) {
 304              		.loc 1 80 0
 305              		.cfi_startproc
 306              		@ args = 0, pretend = 0, frame = 0
 307              		@ frame_needed = 1, uses_anonymous_args = 0
 308 0000 80B5     		push	{r7, lr}
 309              		.cfi_def_cfa_offset 8
 310              		.cfi_offset 7, -8
 311              		.cfi_offset 14, -4
ARM GAS  C:\Users\Jobsa\AppData\Local\Temp\cclJxy2u.s 			page 8


 312 0002 00AF     		add	r7, sp, #0
 313              		.cfi_def_cfa_register 7
  81:main.c        ****     // Sensor has detected WHITE
  82:main.c        ****     s1 = 1; // , Black = 0, White = 1
 314              		.loc 1 82 0
 315 0004 034B     		ldr	r3, .L6
 316 0006 0122     		movs	r2, #1
 317 0008 1A70     		strb	r2, [r3]
  83:main.c        ****     LED_Write(1u);
 318              		.loc 1 83 0
 319 000a 0120     		movs	r0, #1
 320 000c FFF7FEFF 		bl	LED_Write
  84:main.c        ****     //moveForward();
  85:main.c        **** }
 321              		.loc 1 85 0
 322 0010 00BF     		nop
 323 0012 80BD     		pop	{r7, pc}
 324              	.L7:
 325              		.align	2
 326              	.L6:
 327 0014 00000000 		.word	s1
 328              		.cfi_endproc
 329              	.LFE65:
 330              		.size	S1_DETECTED, .-S1_DETECTED
 331              		.section	.text.S2_DETECTED,"ax",%progbits
 332              		.align	2
 333              		.global	S2_DETECTED
 334              		.thumb
 335              		.thumb_func
 336              		.type	S2_DETECTED, %function
 337              	S2_DETECTED:
 338              	.LFB66:
  86:main.c        **** 
  87:main.c        **** CY_ISR(S2_DETECTED) {
 339              		.loc 1 87 0
 340              		.cfi_startproc
 341              		@ args = 0, pretend = 0, frame = 0
 342              		@ frame_needed = 1, uses_anonymous_args = 0
 343 0000 80B5     		push	{r7, lr}
 344              		.cfi_def_cfa_offset 8
 345              		.cfi_offset 7, -8
 346              		.cfi_offset 14, -4
 347 0002 00AF     		add	r7, sp, #0
 348              		.cfi_def_cfa_register 7
  88:main.c        ****     // Sensor has detected WHITE
  89:main.c        ****     s2 = 1; // , Black = 0, White = 1
 349              		.loc 1 89 0
 350 0004 034B     		ldr	r3, .L9
 351 0006 0122     		movs	r2, #1
 352 0008 1A70     		strb	r2, [r3]
  90:main.c        ****     LED_Write(1u);
 353              		.loc 1 90 0
 354 000a 0120     		movs	r0, #1
 355 000c FFF7FEFF 		bl	LED_Write
  91:main.c        ****     //moveForward();
  92:main.c        **** }
 356              		.loc 1 92 0
ARM GAS  C:\Users\Jobsa\AppData\Local\Temp\cclJxy2u.s 			page 9


 357 0010 00BF     		nop
 358 0012 80BD     		pop	{r7, pc}
 359              	.L10:
 360              		.align	2
 361              	.L9:
 362 0014 00000000 		.word	s2
 363              		.cfi_endproc
 364              	.LFE66:
 365              		.size	S2_DETECTED, .-S2_DETECTED
 366              		.section	.text.S3_DETECTED,"ax",%progbits
 367              		.align	2
 368              		.global	S3_DETECTED
 369              		.thumb
 370              		.thumb_func
 371              		.type	S3_DETECTED, %function
 372              	S3_DETECTED:
 373              	.LFB67:
  93:main.c        **** 
  94:main.c        **** CY_ISR(S3_DETECTED) {
 374              		.loc 1 94 0
 375              		.cfi_startproc
 376              		@ args = 0, pretend = 0, frame = 0
 377              		@ frame_needed = 1, uses_anonymous_args = 0
 378 0000 80B5     		push	{r7, lr}
 379              		.cfi_def_cfa_offset 8
 380              		.cfi_offset 7, -8
 381              		.cfi_offset 14, -4
 382 0002 00AF     		add	r7, sp, #0
 383              		.cfi_def_cfa_register 7
  95:main.c        ****     // Sensor has detected WHITE
  96:main.c        ****     s3 = 1; // , Black = 0, White = 1
 384              		.loc 1 96 0
 385 0004 034B     		ldr	r3, .L12
 386 0006 0122     		movs	r2, #1
 387 0008 1A70     		strb	r2, [r3]
  97:main.c        ****     LED_Write(1u);
 388              		.loc 1 97 0
 389 000a 0120     		movs	r0, #1
 390 000c FFF7FEFF 		bl	LED_Write
  98:main.c        **** }
 391              		.loc 1 98 0
 392 0010 00BF     		nop
 393 0012 80BD     		pop	{r7, pc}
 394              	.L13:
 395              		.align	2
 396              	.L12:
 397 0014 00000000 		.word	s3
 398              		.cfi_endproc
 399              	.LFE67:
 400              		.size	S3_DETECTED, .-S3_DETECTED
 401              		.section	.text.S4_DETECTED,"ax",%progbits
 402              		.align	2
 403              		.global	S4_DETECTED
 404              		.thumb
 405              		.thumb_func
 406              		.type	S4_DETECTED, %function
 407              	S4_DETECTED:
ARM GAS  C:\Users\Jobsa\AppData\Local\Temp\cclJxy2u.s 			page 10


 408              	.LFB68:
  99:main.c        **** 
 100:main.c        **** CY_ISR(S4_DETECTED) {
 409              		.loc 1 100 0
 410              		.cfi_startproc
 411              		@ args = 0, pretend = 0, frame = 0
 412              		@ frame_needed = 1, uses_anonymous_args = 0
 413 0000 80B5     		push	{r7, lr}
 414              		.cfi_def_cfa_offset 8
 415              		.cfi_offset 7, -8
 416              		.cfi_offset 14, -4
 417 0002 00AF     		add	r7, sp, #0
 418              		.cfi_def_cfa_register 7
 101:main.c        ****     // Sensor has detected WHITE
 102:main.c        ****     s4 = 1; // , Black = 0, White = 1
 419              		.loc 1 102 0
 420 0004 034B     		ldr	r3, .L15
 421 0006 0122     		movs	r2, #1
 422 0008 1A70     		strb	r2, [r3]
 103:main.c        ****     LED_Write(1u);
 423              		.loc 1 103 0
 424 000a 0120     		movs	r0, #1
 425 000c FFF7FEFF 		bl	LED_Write
 104:main.c        **** }
 426              		.loc 1 104 0
 427 0010 00BF     		nop
 428 0012 80BD     		pop	{r7, pc}
 429              	.L16:
 430              		.align	2
 431              	.L15:
 432 0014 00000000 		.word	s4
 433              		.cfi_endproc
 434              	.LFE68:
 435              		.size	S4_DETECTED, .-S4_DETECTED
 436              		.section	.text.S5_DETECTED,"ax",%progbits
 437              		.align	2
 438              		.global	S5_DETECTED
 439              		.thumb
 440              		.thumb_func
 441              		.type	S5_DETECTED, %function
 442              	S5_DETECTED:
 443              	.LFB69:
 105:main.c        **** 
 106:main.c        **** CY_ISR(S5_DETECTED) {
 444              		.loc 1 106 0
 445              		.cfi_startproc
 446              		@ args = 0, pretend = 0, frame = 0
 447              		@ frame_needed = 1, uses_anonymous_args = 0
 448 0000 80B5     		push	{r7, lr}
 449              		.cfi_def_cfa_offset 8
 450              		.cfi_offset 7, -8
 451              		.cfi_offset 14, -4
 452 0002 00AF     		add	r7, sp, #0
 453              		.cfi_def_cfa_register 7
 107:main.c        ****     // Sensor has detected WHITE
 108:main.c        ****     s5 = 1; // , Black = 0, White = 1
 454              		.loc 1 108 0
ARM GAS  C:\Users\Jobsa\AppData\Local\Temp\cclJxy2u.s 			page 11


 455 0004 034B     		ldr	r3, .L18
 456 0006 0122     		movs	r2, #1
 457 0008 1A70     		strb	r2, [r3]
 109:main.c        ****     LED_Write(1u);
 458              		.loc 1 109 0
 459 000a 0120     		movs	r0, #1
 460 000c FFF7FEFF 		bl	LED_Write
 110:main.c        **** }
 461              		.loc 1 110 0
 462 0010 00BF     		nop
 463 0012 80BD     		pop	{r7, pc}
 464              	.L19:
 465              		.align	2
 466              	.L18:
 467 0014 00000000 		.word	s5
 468              		.cfi_endproc
 469              	.LFE69:
 470              		.size	S5_DETECTED, .-S5_DETECTED
 471              		.section	.text.S6_DETECTED,"ax",%progbits
 472              		.align	2
 473              		.global	S6_DETECTED
 474              		.thumb
 475              		.thumb_func
 476              		.type	S6_DETECTED, %function
 477              	S6_DETECTED:
 478              	.LFB70:
 111:main.c        **** 
 112:main.c        **** CY_ISR(S6_DETECTED) {
 479              		.loc 1 112 0
 480              		.cfi_startproc
 481              		@ args = 0, pretend = 0, frame = 0
 482              		@ frame_needed = 1, uses_anonymous_args = 0
 483 0000 80B5     		push	{r7, lr}
 484              		.cfi_def_cfa_offset 8
 485              		.cfi_offset 7, -8
 486              		.cfi_offset 14, -4
 487 0002 00AF     		add	r7, sp, #0
 488              		.cfi_def_cfa_register 7
 113:main.c        ****     // Sensor has detected WHITE
 114:main.c        ****     s6 = 1; // , Black = 0, White = 1
 489              		.loc 1 114 0
 490 0004 034B     		ldr	r3, .L21
 491 0006 0122     		movs	r2, #1
 492 0008 1A70     		strb	r2, [r3]
 115:main.c        ****     LED_Write(1u);
 493              		.loc 1 115 0
 494 000a 0120     		movs	r0, #1
 495 000c FFF7FEFF 		bl	LED_Write
 116:main.c        **** }
 496              		.loc 1 116 0
 497 0010 00BF     		nop
 498 0012 80BD     		pop	{r7, pc}
 499              	.L22:
 500              		.align	2
 501              	.L21:
 502 0014 00000000 		.word	s6
 503              		.cfi_endproc
ARM GAS  C:\Users\Jobsa\AppData\Local\Temp\cclJxy2u.s 			page 12


 504              	.LFE70:
 505              		.size	S6_DETECTED, .-S6_DETECTED
 506              		.section	.text.TIMER_FINISH,"ax",%progbits
 507              		.align	2
 508              		.global	TIMER_FINISH
 509              		.thumb
 510              		.thumb_func
 511              		.type	TIMER_FINISH, %function
 512              	TIMER_FINISH:
 513              	.LFB71:
 117:main.c        **** 
 118:main.c        **** CY_ISR(TIMER_FINISH) {
 514              		.loc 1 118 0
 515              		.cfi_startproc
 516              		@ args = 0, pretend = 0, frame = 0
 517              		@ frame_needed = 1, uses_anonymous_args = 0
 518 0000 80B5     		push	{r7, lr}
 519              		.cfi_def_cfa_offset 8
 520              		.cfi_offset 7, -8
 521              		.cfi_offset 14, -4
 522 0002 00AF     		add	r7, sp, #0
 523              		.cfi_def_cfa_register 7
 119:main.c        ****     // Reset Sensor Flags for Next rising Eddge
 120:main.c        ****     // (s1 = 0, s2 = 0... etc.)
 121:main.c        ****     LED_Write(0u);
 524              		.loc 1 121 0
 525 0004 0020     		movs	r0, #0
 526 0006 FFF7FEFF 		bl	LED_Write
 122:main.c        ****     //SetRobotMovement();
 123:main.c        ****     moveForward();
 527              		.loc 1 123 0
 528 000a FFF7FEFF 		bl	moveForward
 124:main.c        ****     ResetSensorFlags();
 529              		.loc 1 124 0
 530 000e FFF7FEFF 		bl	ResetSensorFlags
 125:main.c        **** 
 126:main.c        ****     Timer_LED_ReadStatusRegister();
 531              		.loc 1 126 0
 532 0012 FFF7FEFF 		bl	Timer_LED_ReadStatusRegister
 127:main.c        **** }
 533              		.loc 1 127 0
 534 0016 00BF     		nop
 535 0018 80BD     		pop	{r7, pc}
 536              		.cfi_endproc
 537              	.LFE71:
 538              		.size	TIMER_FINISH, .-TIMER_FINISH
 539 001a 00BF     		.section	.rodata
 540              		.align	2
 541              	.LC0:
 542 0000 496E6974 		.ascii	"Initialised UART\000"
 542      69616C69 
 542      73656420 
 542      55415254 
 542      00
 543 0011 000000   		.align	2
 544              	.LC1:
 545 0014 256C7500 		.ascii	"%lu\000"
ARM GAS  C:\Users\Jobsa\AppData\Local\Temp\cclJxy2u.s 			page 13


 546              		.align	2
 547              	.LC2:
 548 0018 2000     		.ascii	" \000"
 549              		.section	.text.main,"ax",%progbits
 550              		.align	2
 551              		.global	main
 552              		.thumb
 553              		.thumb_func
 554              		.type	main, %function
 555              	main:
 556              	.LFB72:
 128:main.c        **** 
 129:main.c        **** 
 130:main.c        **** int main()
 131:main.c        **** {
 557              		.loc 1 131 0
 558              		.cfi_startproc
 559              		@ args = 0, pretend = 0, frame = 0
 560              		@ frame_needed = 1, uses_anonymous_args = 0
 561 0000 80B5     		push	{r7, lr}
 562              		.cfi_def_cfa_offset 8
 563              		.cfi_offset 7, -8
 564              		.cfi_offset 14, -4
 565 0002 00AF     		add	r7, sp, #0
 566              		.cfi_def_cfa_register 7
 132:main.c        **** // --------------------------------    
 133:main.c        **** // ----- INITIALIZATIONS ----------
 134:main.c        ****     CYGlobalIntEnable;
 567              		.loc 1 134 0
 568              		.syntax unified
 569              	@ 134 "main.c" 1
 570 0004 62B6     		CPSIE   i
 571              	@ 0 "" 2
 135:main.c        ****     init(); // initialise clocks, pwms, adc, dac etc- done in header file
 572              		.loc 1 135 0
 573              		.thumb
 574              		.syntax unified
 575 0006 FFF7FEFF 		bl	init
 136:main.c        ****     //findPath(map, "");// find shortest path- store this in map
 137:main.c        ****     isr_speed_StartEx(speedTimer); // start interrupt
 576              		.loc 1 137 0
 577 000a 2548     		ldr	r0, .L28
 578 000c FFF7FEFF 		bl	isr_speed_StartEx
 138:main.c        ****     isr_Timer_LED_StartEx(TIMER_FINISH);
 579              		.loc 1 138 0
 580 0010 2448     		ldr	r0, .L28+4
 581 0012 FFF7FEFF 		bl	isr_Timer_LED_StartEx
 139:main.c        ****     S1_detected_StartEx(S1_DETECTED);
 582              		.loc 1 139 0
 583 0016 2448     		ldr	r0, .L28+8
 584 0018 FFF7FEFF 		bl	S1_detected_StartEx
 140:main.c        ****     S2_detected_StartEx(S2_DETECTED);
 585              		.loc 1 140 0
 586 001c 2348     		ldr	r0, .L28+12
 587 001e FFF7FEFF 		bl	S2_detected_StartEx
 141:main.c        ****     S3_detected_StartEx(S3_DETECTED);
 588              		.loc 1 141 0
ARM GAS  C:\Users\Jobsa\AppData\Local\Temp\cclJxy2u.s 			page 14


 589 0022 2348     		ldr	r0, .L28+16
 590 0024 FFF7FEFF 		bl	S3_detected_StartEx
 142:main.c        ****     S4_detected_StartEx(S4_DETECTED);
 591              		.loc 1 142 0
 592 0028 2248     		ldr	r0, .L28+20
 593 002a FFF7FEFF 		bl	S4_detected_StartEx
 143:main.c        ****     S5_detected_StartEx(S5_DETECTED);
 594              		.loc 1 143 0
 595 002e 2248     		ldr	r0, .L28+24
 596 0030 FFF7FEFF 		bl	S5_detected_StartEx
 144:main.c        ****     S6_detected_StartEx(S6_DETECTED);
 597              		.loc 1 144 0
 598 0034 2148     		ldr	r0, .L28+28
 599 0036 FFF7FEFF 		bl	S6_detected_StartEx
 145:main.c        ****     Timer_LED_Start();
 600              		.loc 1 145 0
 601 003a FFF7FEFF 		bl	Timer_LED_Start
 146:main.c        ****     stopMoving();
 602              		.loc 1 146 0
 603 003e FFF7FEFF 		bl	stopMoving
 147:main.c        **** 
 148:main.c        **** // ------USB SETUP ----------------    
 149:main.c        **** #ifdef USE_USB    
 150:main.c        ****     USBUART_Start(0,USBUART_5V_OPERATION);
 604              		.loc 1 150 0
 605 0042 0121     		movs	r1, #1
 606 0044 0020     		movs	r0, #0
 607 0046 FFF7FEFF 		bl	USBUART_Start
 151:main.c        **** #endif        
 152:main.c        ****     RF_BT_SELECT_Write(0);
 608              		.loc 1 152 0
 609 004a 0020     		movs	r0, #0
 610 004c FFF7FEFF 		bl	RF_BT_SELECT_Write
 153:main.c        ****     
 154:main.c        ****     usbPutString("Initialised UART");
 611              		.loc 1 154 0
 612 0050 1B48     		ldr	r0, .L28+32
 613 0052 FFF7FEFF 		bl	usbPutString
 614              	.L27:
 155:main.c        ****     for(;;)
 156:main.c        ****     {
 157:main.c        ****         //traverseMap(map);
 158:main.c        ****         //rotationAntiClockwise();
 159:main.c        ****         //rotationClockwise();
 160:main.c        ****         
 161:main.c        ****         
 162:main.c        ****         
 163:main.c        ****         if(timerInt == 1) {
 615              		.loc 1 163 0
 616 0056 1B4B     		ldr	r3, .L28+36
 617 0058 1B68     		ldr	r3, [r3]
 618 005a 012B     		cmp	r3, #1
 619 005c 15D1     		bne	.L25
 164:main.c        ****             timerInt = 0;
 620              		.loc 1 164 0
 621 005e 194B     		ldr	r3, .L28+36
 622 0060 0022     		movs	r2, #0
ARM GAS  C:\Users\Jobsa\AppData\Local\Temp\cclJxy2u.s 			page 15


 623 0062 1A60     		str	r2, [r3]
 165:main.c        ****             // calculate RPM of M2
 166:main.c        ****             quadCountToRPM(quadDec2Count);
 624              		.loc 1 166 0
 625 0064 184B     		ldr	r3, .L28+40
 626 0066 1B68     		ldr	r3, [r3]
 627 0068 9BB2     		uxth	r3, r3
 628 006a 1846     		mov	r0, r3
 629 006c FFF7FEFF 		bl	quadCountToRPM
 167:main.c        ****             sprintf(buffer, "%lu", totalDistance);
 630              		.loc 1 167 0
 631 0070 164B     		ldr	r3, .L28+44
 632 0072 1B68     		ldr	r3, [r3]
 633 0074 1A46     		mov	r2, r3
 634 0076 1649     		ldr	r1, .L28+48
 635 0078 1648     		ldr	r0, .L28+52
 636 007a FFF7FEFF 		bl	sprintf
 168:main.c        ****             usbPutString(buffer);
 637              		.loc 1 168 0
 638 007e 1548     		ldr	r0, .L28+52
 639 0080 FFF7FEFF 		bl	usbPutString
 169:main.c        ****             usbPutString(" ");
 640              		.loc 1 169 0
 641 0084 1448     		ldr	r0, .L28+56
 642 0086 FFF7FEFF 		bl	usbPutString
 643              	.L25:
 170:main.c        ****         }
 171:main.c        ****         handle_usb();
 644              		.loc 1 171 0
 645 008a FFF7FEFF 		bl	handle_usb
 172:main.c        ****         if (flag_KB_string == 1)
 646              		.loc 1 172 0
 647 008e 134B     		ldr	r3, .L28+60
 648 0090 1B78     		ldrb	r3, [r3]	@ zero_extendqisi2
 649 0092 012B     		cmp	r3, #1
 650 0094 DFD1     		bne	.L27
 173:main.c        ****         {
 174:main.c        ****             //usbPutString("Total Distance: ");
 175:main.c        ****             //sprintf(buffer, "%lu", totalDistance);
 176:main.c        ****             //usbPutString(buffer);
 177:main.c        ****             flag_KB_string = 0;
 651              		.loc 1 177 0
 652 0096 114B     		ldr	r3, .L28+60
 653 0098 0022     		movs	r2, #0
 654 009a 1A70     		strb	r2, [r3]
 178:main.c        ****         }           
 179:main.c        ****     }
 655              		.loc 1 179 0
 656 009c DBE7     		b	.L27
 657              	.L29:
 658 009e 00BF     		.align	2
 659              	.L28:
 660 00a0 00000000 		.word	speedTimer
 661 00a4 00000000 		.word	TIMER_FINISH
 662 00a8 00000000 		.word	S1_DETECTED
 663 00ac 00000000 		.word	S2_DETECTED
 664 00b0 00000000 		.word	S3_DETECTED
ARM GAS  C:\Users\Jobsa\AppData\Local\Temp\cclJxy2u.s 			page 16


 665 00b4 00000000 		.word	S4_DETECTED
 666 00b8 00000000 		.word	S5_DETECTED
 667 00bc 00000000 		.word	S6_DETECTED
 668 00c0 00000000 		.word	.LC0
 669 00c4 00000000 		.word	timerInt
 670 00c8 00000000 		.word	quadDec2Count
 671 00cc 00000000 		.word	totalDistance
 672 00d0 14000000 		.word	.LC1
 673 00d4 00000000 		.word	buffer
 674 00d8 18000000 		.word	.LC2
 675 00dc 00000000 		.word	flag_KB_string
 676              		.cfi_endproc
 677              	.LFE72:
 678              		.size	main, .-main
 679              		.global	__aeabi_d2f
 680              		.global	__aeabi_fmul
 681              		.global	__aeabi_f2iz
 682              		.section	.rodata
 683 001a 0000     		.align	2
 684              	.LC3:
 685 001c 256400   		.ascii	"%d\000"
 686              		.section	.text.quadCountToRPM,"ax",%progbits
 687              		.align	2
 688              		.global	quadCountToRPM
 689              		.thumb
 690              		.thumb_func
 691              		.type	quadCountToRPM, %function
 692              	quadCountToRPM:
 693              	.LFB73:
 180:main.c        ****     return 0;
 181:main.c        **** }
 182:main.c        **** 
 183:main.c        **** // Calculations
 184:main.c        **** //* ========================================
 185:main.c        **** int16 quadCountToRPM(uint16 count)
 186:main.c        **** {
 694              		.loc 1 186 0
 695              		.cfi_startproc
 696              		@ args = 0, pretend = 0, frame = 16
 697              		@ frame_needed = 1, uses_anonymous_args = 0
 698 0000 90B5     		push	{r4, r7, lr}
 699              		.cfi_def_cfa_offset 12
 700              		.cfi_offset 4, -12
 701              		.cfi_offset 7, -8
 702              		.cfi_offset 14, -4
 703 0002 85B0     		sub	sp, sp, #20
 704              		.cfi_def_cfa_offset 32
 705 0004 00AF     		add	r7, sp, #0
 706              		.cfi_def_cfa_register 7
 707 0006 0346     		mov	r3, r0
 708 0008 FB80     		strh	r3, [r7, #6]	@ movhi
 187:main.c        ****     float cps = count/57.00;
 709              		.loc 1 187 0
 710 000a FB88     		ldrh	r3, [r7, #6]
 711 000c 1846     		mov	r0, r3
 712 000e FFF7FEFF 		bl	__aeabi_i2d
 713 0012 4FF00002 		mov	r2, #0
ARM GAS  C:\Users\Jobsa\AppData\Local\Temp\cclJxy2u.s 			page 17


 714 0016 114B     		ldr	r3, .L32
 715 0018 FFF7FEFF 		bl	__aeabi_ddiv
 716 001c 0346     		mov	r3, r0
 717 001e 0C46     		mov	r4, r1
 718 0020 1846     		mov	r0, r3
 719 0022 2146     		mov	r1, r4
 720 0024 FFF7FEFF 		bl	__aeabi_d2f
 721 0028 0346     		mov	r3, r0
 722 002a FB60     		str	r3, [r7, #12]	@ float
 188:main.c        ****     int16 rpm = (int16)(cps*15); // rpm value
 723              		.loc 1 188 0
 724 002c 0C49     		ldr	r1, .L32+4
 725 002e F868     		ldr	r0, [r7, #12]	@ float
 726 0030 FFF7FEFF 		bl	__aeabi_fmul
 727 0034 0346     		mov	r3, r0
 728 0036 1846     		mov	r0, r3
 729 0038 FFF7FEFF 		bl	__aeabi_f2iz
 730 003c 0346     		mov	r3, r0
 731 003e 7B81     		strh	r3, [r7, #10]	@ movhi
 189:main.c        ****     sprintf(buffer, "%d", rpm); // store in buffer
 732              		.loc 1 189 0
 733 0040 B7F90A30 		ldrsh	r3, [r7, #10]
 734 0044 1A46     		mov	r2, r3
 735 0046 0749     		ldr	r1, .L32+8
 736 0048 0748     		ldr	r0, .L32+12
 737 004a FFF7FEFF 		bl	sprintf
 190:main.c        ****     return rpm;
 738              		.loc 1 190 0
 739 004e B7F90A30 		ldrsh	r3, [r7, #10]
 191:main.c        ****     //usbPutString(buffer);
 192:main.c        ****     //usbPutString("rpm ");
 193:main.c        **** }
 740              		.loc 1 193 0
 741 0052 1846     		mov	r0, r3
 742 0054 1437     		adds	r7, r7, #20
 743              		.cfi_def_cfa_offset 12
 744 0056 BD46     		mov	sp, r7
 745              		.cfi_def_cfa_register 13
 746              		@ sp needed
 747 0058 90BD     		pop	{r4, r7, pc}
 748              	.L33:
 749 005a 00BF     		.align	2
 750              	.L32:
 751 005c 00804C40 		.word	1078755328
 752 0060 00007041 		.word	1097859072
 753 0064 1C000000 		.word	.LC3
 754 0068 00000000 		.word	buffer
 755              		.cfi_endproc
 756              	.LFE73:
 757              		.size	quadCountToRPM, .-quadCountToRPM
 758              		.section	.text.ResetSensorFlags,"ax",%progbits
 759              		.align	2
 760              		.global	ResetSensorFlags
 761              		.thumb
 762              		.thumb_func
 763              		.type	ResetSensorFlags, %function
 764              	ResetSensorFlags:
ARM GAS  C:\Users\Jobsa\AppData\Local\Temp\cclJxy2u.s 			page 18


 765              	.LFB74:
 194:main.c        **** 
 195:main.c        **** // Resets all sensor flags to 0 - i.e. currently out of map
 196:main.c        **** void ResetSensorFlags() {
 766              		.loc 1 196 0
 767              		.cfi_startproc
 768              		@ args = 0, pretend = 0, frame = 0
 769              		@ frame_needed = 1, uses_anonymous_args = 0
 770              		@ link register save eliminated.
 771 0000 80B4     		push	{r7}
 772              		.cfi_def_cfa_offset 4
 773              		.cfi_offset 7, -4
 774 0002 00AF     		add	r7, sp, #0
 775              		.cfi_def_cfa_register 7
 197:main.c        ****     s1 = 0;
 776              		.loc 1 197 0
 777 0004 0A4B     		ldr	r3, .L35
 778 0006 0022     		movs	r2, #0
 779 0008 1A70     		strb	r2, [r3]
 198:main.c        ****     s2 = 0;
 780              		.loc 1 198 0
 781 000a 0A4B     		ldr	r3, .L35+4
 782 000c 0022     		movs	r2, #0
 783 000e 1A70     		strb	r2, [r3]
 199:main.c        ****     s3 = 0;
 784              		.loc 1 199 0
 785 0010 094B     		ldr	r3, .L35+8
 786 0012 0022     		movs	r2, #0
 787 0014 1A70     		strb	r2, [r3]
 200:main.c        ****     s4 = 0;
 788              		.loc 1 200 0
 789 0016 094B     		ldr	r3, .L35+12
 790 0018 0022     		movs	r2, #0
 791 001a 1A70     		strb	r2, [r3]
 201:main.c        ****     s5 = 0;
 792              		.loc 1 201 0
 793 001c 084B     		ldr	r3, .L35+16
 794 001e 0022     		movs	r2, #0
 795 0020 1A70     		strb	r2, [r3]
 202:main.c        ****     s6 = 0;
 796              		.loc 1 202 0
 797 0022 084B     		ldr	r3, .L35+20
 798 0024 0022     		movs	r2, #0
 799 0026 1A70     		strb	r2, [r3]
 203:main.c        **** }
 800              		.loc 1 203 0
 801 0028 00BF     		nop
 802 002a BD46     		mov	sp, r7
 803              		.cfi_def_cfa_register 13
 804              		@ sp needed
 805 002c 80BC     		pop	{r7}
 806              		.cfi_restore 7
 807              		.cfi_def_cfa_offset 0
 808 002e 7047     		bx	lr
 809              	.L36:
 810              		.align	2
 811              	.L35:
ARM GAS  C:\Users\Jobsa\AppData\Local\Temp\cclJxy2u.s 			page 19


 812 0030 00000000 		.word	s1
 813 0034 00000000 		.word	s2
 814 0038 00000000 		.word	s3
 815 003c 00000000 		.word	s4
 816 0040 00000000 		.word	s5
 817 0044 00000000 		.word	s6
 818              		.cfi_endproc
 819              	.LFE74:
 820              		.size	ResetSensorFlags, .-ResetSensorFlags
 821              		.section	.text.CheckSensorDirection,"ax",%progbits
 822              		.align	2
 823              		.global	CheckSensorDirection
 824              		.thumb
 825              		.thumb_func
 826              		.type	CheckSensorDirection, %function
 827              	CheckSensorDirection:
 828              	.LFB75:
 204:main.c        **** 
 205:main.c        **** // This function checks the sensor flags s1-s6 through a boolean truth table and
 206:main.c        **** // returns a enum direction state depending on the flag configuration
 207:main.c        **** // if no conditons are met, it returns Unknown -- need to fix this edge case
 208:main.c        **** // s1 = 0 -- Black
 209:main.c        **** // s1 = 1 -- White
 210:main.c        **** enum DirectionState CheckSensorDirection() {
 829              		.loc 1 210 0
 830              		.cfi_startproc
 831              		@ args = 0, pretend = 0, frame = 8
 832              		@ frame_needed = 1, uses_anonymous_args = 0
 833              		@ link register save eliminated.
 834 0000 80B4     		push	{r7}
 835              		.cfi_def_cfa_offset 4
 836              		.cfi_offset 7, -4
 837 0002 83B0     		sub	sp, sp, #12
 838              		.cfi_def_cfa_offset 16
 839 0004 00AF     		add	r7, sp, #0
 840              		.cfi_def_cfa_register 7
 211:main.c        ****     enum DirectionState directionState = Stop;
 841              		.loc 1 211 0
 842 0006 0523     		movs	r3, #5
 843 0008 7B60     		str	r3, [r7, #4]
 212:main.c        ****     previousDirection = currentDirection;
 844              		.loc 1 212 0
 845 000a 5B4B     		ldr	r3, .L48
 846 000c 1B68     		ldr	r3, [r3]
 847 000e 5B4A     		ldr	r2, .L48+4
 848 0010 1360     		str	r3, [r2]
 213:main.c        ****     
 214:main.c        ****     //forward if all sensors are on white
 215:main.c        ****     if (s1 && s2) {
 849              		.loc 1 215 0
 850 0012 5B4B     		ldr	r3, .L48+8
 851 0014 1B78     		ldrb	r3, [r3]	@ zero_extendqisi2
 852 0016 002B     		cmp	r3, #0
 853 0018 07D0     		beq	.L38
 854              		.loc 1 215 0 is_stmt 0 discriminator 1
 855 001a 5A4B     		ldr	r3, .L48+12
 856 001c 1B78     		ldrb	r3, [r3]	@ zero_extendqisi2
ARM GAS  C:\Users\Jobsa\AppData\Local\Temp\cclJxy2u.s 			page 20


 857 001e 002B     		cmp	r3, #0
 858 0020 03D0     		beq	.L38
 216:main.c        ****         directionState = Forward;
 859              		.loc 1 216 0 is_stmt 1
 860 0022 0023     		movs	r3, #0
 861 0024 7B60     		str	r3, [r7, #4]
 217:main.c        ****         return directionState;   
 862              		.loc 1 217 0
 863 0026 7B68     		ldr	r3, [r7, #4]
 864 0028 A1E0     		b	.L39
 865              	.L38:
 218:main.c        ****     }
 219:main.c        ****     
 220:main.c        ****     /* COURSE CORRECTION COURSE CORRECTION COURSE CORRETION */
 221:main.c        ****     // Only need to course corrcet when direction state is forward
 222:main.c        ****     
 223:main.c        ****     if (previousDirection == Forward || previousDirection == AdjustToTheLeft || previousDirection =
 866              		.loc 1 223 0
 867 002a 544B     		ldr	r3, .L48+4
 868 002c 1B68     		ldr	r3, [r3]
 869 002e 002B     		cmp	r3, #0
 870 0030 07D0     		beq	.L40
 871              		.loc 1 223 0 is_stmt 0 discriminator 1
 872 0032 524B     		ldr	r3, .L48+4
 873 0034 1B68     		ldr	r3, [r3]
 874 0036 032B     		cmp	r3, #3
 875 0038 03D0     		beq	.L40
 876              		.loc 1 223 0 discriminator 2
 877 003a 504B     		ldr	r3, .L48+4
 878 003c 1B68     		ldr	r3, [r3]
 879 003e 042B     		cmp	r3, #4
 880 0040 37D1     		bne	.L41
 881              	.L40:
 224:main.c        ****         // If robot is deviating to the left where top right sensor and bottom left sensor is on bl
 225:main.c        ****         // we turn right until all sensors are on white again
 226:main.c        ****         if (!s1 && s2 && s3 && s4 && s5 && !s6) {
 882              		.loc 1 226 0 is_stmt 1
 883 0042 4F4B     		ldr	r3, .L48+8
 884 0044 1B78     		ldrb	r3, [r3]	@ zero_extendqisi2
 885 0046 002B     		cmp	r3, #0
 886 0048 17D1     		bne	.L42
 887              		.loc 1 226 0 is_stmt 0 discriminator 1
 888 004a 4E4B     		ldr	r3, .L48+12
 889 004c 1B78     		ldrb	r3, [r3]	@ zero_extendqisi2
 890 004e 002B     		cmp	r3, #0
 891 0050 13D0     		beq	.L42
 892              		.loc 1 226 0 discriminator 2
 893 0052 4D4B     		ldr	r3, .L48+16
 894 0054 1B78     		ldrb	r3, [r3]	@ zero_extendqisi2
 895 0056 002B     		cmp	r3, #0
 896 0058 0FD0     		beq	.L42
 897              		.loc 1 226 0 discriminator 3
 898 005a 4C4B     		ldr	r3, .L48+20
 899 005c 1B78     		ldrb	r3, [r3]	@ zero_extendqisi2
 900 005e 002B     		cmp	r3, #0
 901 0060 0BD0     		beq	.L42
 902              		.loc 1 226 0 discriminator 4
ARM GAS  C:\Users\Jobsa\AppData\Local\Temp\cclJxy2u.s 			page 21


 903 0062 4B4B     		ldr	r3, .L48+24
 904 0064 1B78     		ldrb	r3, [r3]	@ zero_extendqisi2
 905 0066 002B     		cmp	r3, #0
 906 0068 07D0     		beq	.L42
 907              		.loc 1 226 0 discriminator 5
 908 006a 4A4B     		ldr	r3, .L48+28
 909 006c 1B78     		ldrb	r3, [r3]	@ zero_extendqisi2
 910 006e 002B     		cmp	r3, #0
 911 0070 03D1     		bne	.L42
 227:main.c        ****             directionState = AdjustToTheRight;
 912              		.loc 1 227 0 is_stmt 1
 913 0072 0423     		movs	r3, #4
 914 0074 7B60     		str	r3, [r7, #4]
 228:main.c        ****             return directionState;
 915              		.loc 1 228 0
 916 0076 7B68     		ldr	r3, [r7, #4]
 917 0078 79E0     		b	.L39
 918              	.L42:
 229:main.c        ****         }
 230:main.c        ****         
 231:main.c        ****         // If robot is deviating to the right where top left sensor and bottom right sensor is on b
 232:main.c        ****         // we turn left until all sensors are on white again
 233:main.c        ****         if (s1 && !s2 && s3 && s4 && !s5 && s6) {
 919              		.loc 1 233 0
 920 007a 414B     		ldr	r3, .L48+8
 921 007c 1B78     		ldrb	r3, [r3]	@ zero_extendqisi2
 922 007e 002B     		cmp	r3, #0
 923 0080 17D0     		beq	.L41
 924              		.loc 1 233 0 is_stmt 0 discriminator 1
 925 0082 404B     		ldr	r3, .L48+12
 926 0084 1B78     		ldrb	r3, [r3]	@ zero_extendqisi2
 927 0086 002B     		cmp	r3, #0
 928 0088 13D1     		bne	.L41
 929              		.loc 1 233 0 discriminator 2
 930 008a 3F4B     		ldr	r3, .L48+16
 931 008c 1B78     		ldrb	r3, [r3]	@ zero_extendqisi2
 932 008e 002B     		cmp	r3, #0
 933 0090 0FD0     		beq	.L41
 934              		.loc 1 233 0 discriminator 3
 935 0092 3E4B     		ldr	r3, .L48+20
 936 0094 1B78     		ldrb	r3, [r3]	@ zero_extendqisi2
 937 0096 002B     		cmp	r3, #0
 938 0098 0BD0     		beq	.L41
 939              		.loc 1 233 0 discriminator 4
 940 009a 3D4B     		ldr	r3, .L48+24
 941 009c 1B78     		ldrb	r3, [r3]	@ zero_extendqisi2
 942 009e 002B     		cmp	r3, #0
 943 00a0 07D1     		bne	.L41
 944              		.loc 1 233 0 discriminator 5
 945 00a2 3C4B     		ldr	r3, .L48+28
 946 00a4 1B78     		ldrb	r3, [r3]	@ zero_extendqisi2
 947 00a6 002B     		cmp	r3, #0
 948 00a8 03D0     		beq	.L41
 234:main.c        ****             directionState = AdjustToTheLeft;
 949              		.loc 1 234 0 is_stmt 1
 950 00aa 0323     		movs	r3, #3
 951 00ac 7B60     		str	r3, [r7, #4]
ARM GAS  C:\Users\Jobsa\AppData\Local\Temp\cclJxy2u.s 			page 22


 235:main.c        ****             return directionState;
 952              		.loc 1 235 0
 953 00ae 7B68     		ldr	r3, [r7, #4]
 954 00b0 5DE0     		b	.L39
 955              	.L41:
 236:main.c        ****         }
 237:main.c        ****     }
 238:main.c        ****     /* COURSE CORRECTION COURSE CORRECTION COURSE CORRETION */
 239:main.c        ****     
 240:main.c        ****     // Left sensor is on black and right sensor is on white
 241:main.c        ****     
 242:main.c        ****     //turn left
 243:main.c        ****     if (s1 && s2 && !s3 && s4 && s5 && s6) {
 956              		.loc 1 243 0
 957 00b2 334B     		ldr	r3, .L48+8
 958 00b4 1B78     		ldrb	r3, [r3]	@ zero_extendqisi2
 959 00b6 002B     		cmp	r3, #0
 960 00b8 17D0     		beq	.L43
 961              		.loc 1 243 0 is_stmt 0 discriminator 1
 962 00ba 324B     		ldr	r3, .L48+12
 963 00bc 1B78     		ldrb	r3, [r3]	@ zero_extendqisi2
 964 00be 002B     		cmp	r3, #0
 965 00c0 13D0     		beq	.L43
 966              		.loc 1 243 0 discriminator 2
 967 00c2 314B     		ldr	r3, .L48+16
 968 00c4 1B78     		ldrb	r3, [r3]	@ zero_extendqisi2
 969 00c6 002B     		cmp	r3, #0
 970 00c8 0FD1     		bne	.L43
 971              		.loc 1 243 0 discriminator 3
 972 00ca 304B     		ldr	r3, .L48+20
 973 00cc 1B78     		ldrb	r3, [r3]	@ zero_extendqisi2
 974 00ce 002B     		cmp	r3, #0
 975 00d0 0BD0     		beq	.L43
 976              		.loc 1 243 0 discriminator 4
 977 00d2 2F4B     		ldr	r3, .L48+24
 978 00d4 1B78     		ldrb	r3, [r3]	@ zero_extendqisi2
 979 00d6 002B     		cmp	r3, #0
 980 00d8 07D0     		beq	.L43
 981              		.loc 1 243 0 discriminator 5
 982 00da 2E4B     		ldr	r3, .L48+28
 983 00dc 1B78     		ldrb	r3, [r3]	@ zero_extendqisi2
 984 00de 002B     		cmp	r3, #0
 985 00e0 03D0     		beq	.L43
 244:main.c        ****         directionState = TurnLeft;
 986              		.loc 1 244 0 is_stmt 1
 987 00e2 0223     		movs	r3, #2
 988 00e4 7B60     		str	r3, [r7, #4]
 245:main.c        ****         return directionState;
 989              		.loc 1 245 0
 990 00e6 7B68     		ldr	r3, [r7, #4]
 991 00e8 41E0     		b	.L39
 992              	.L43:
 246:main.c        ****     }
 247:main.c        ****     
 248:main.c        ****     // Right sensor is on white and right sensor is on black
 249:main.c        ****     // everything else is on white
 250:main.c        ****     //turn right
ARM GAS  C:\Users\Jobsa\AppData\Local\Temp\cclJxy2u.s 			page 23


 251:main.c        ****     if (s1 && s2 && s3 && !s4 && s5 && s6) {
 993              		.loc 1 251 0
 994 00ea 254B     		ldr	r3, .L48+8
 995 00ec 1B78     		ldrb	r3, [r3]	@ zero_extendqisi2
 996 00ee 002B     		cmp	r3, #0
 997 00f0 17D0     		beq	.L44
 998              		.loc 1 251 0 is_stmt 0 discriminator 1
 999 00f2 244B     		ldr	r3, .L48+12
 1000 00f4 1B78     		ldrb	r3, [r3]	@ zero_extendqisi2
 1001 00f6 002B     		cmp	r3, #0
 1002 00f8 13D0     		beq	.L44
 1003              		.loc 1 251 0 discriminator 2
 1004 00fa 234B     		ldr	r3, .L48+16
 1005 00fc 1B78     		ldrb	r3, [r3]	@ zero_extendqisi2
 1006 00fe 002B     		cmp	r3, #0
 1007 0100 0FD0     		beq	.L44
 1008              		.loc 1 251 0 discriminator 3
 1009 0102 224B     		ldr	r3, .L48+20
 1010 0104 1B78     		ldrb	r3, [r3]	@ zero_extendqisi2
 1011 0106 002B     		cmp	r3, #0
 1012 0108 0BD1     		bne	.L44
 1013              		.loc 1 251 0 discriminator 4
 1014 010a 214B     		ldr	r3, .L48+24
 1015 010c 1B78     		ldrb	r3, [r3]	@ zero_extendqisi2
 1016 010e 002B     		cmp	r3, #0
 1017 0110 07D0     		beq	.L44
 1018              		.loc 1 251 0 discriminator 5
 1019 0112 204B     		ldr	r3, .L48+28
 1020 0114 1B78     		ldrb	r3, [r3]	@ zero_extendqisi2
 1021 0116 002B     		cmp	r3, #0
 1022 0118 03D0     		beq	.L44
 252:main.c        ****         directionState = TurnRight;
 1023              		.loc 1 252 0 is_stmt 1
 1024 011a 0123     		movs	r3, #1
 1025 011c 7B60     		str	r3, [r7, #4]
 253:main.c        ****         return directionState;
 1026              		.loc 1 253 0
 1027 011e 7B68     		ldr	r3, [r7, #4]
 1028 0120 25E0     		b	.L39
 1029              	.L44:
 254:main.c        ****     }
 255:main.c        ****     
 256:main.c        ****     // if all sensors are on black -- we are currently in darkness so don't move
 257:main.c        ****     if (!(s1 && s2 && s3 && s4&& s5 && s6)) {
 1030              		.loc 1 257 0
 1031 0122 174B     		ldr	r3, .L48+8
 1032 0124 1B78     		ldrb	r3, [r3]	@ zero_extendqisi2
 1033 0126 002B     		cmp	r3, #0
 1034 0128 13D0     		beq	.L45
 1035              		.loc 1 257 0 is_stmt 0 discriminator 1
 1036 012a 164B     		ldr	r3, .L48+12
 1037 012c 1B78     		ldrb	r3, [r3]	@ zero_extendqisi2
 1038 012e 002B     		cmp	r3, #0
 1039 0130 0FD0     		beq	.L45
 1040              		.loc 1 257 0 discriminator 2
 1041 0132 154B     		ldr	r3, .L48+16
 1042 0134 1B78     		ldrb	r3, [r3]	@ zero_extendqisi2
ARM GAS  C:\Users\Jobsa\AppData\Local\Temp\cclJxy2u.s 			page 24


 1043 0136 002B     		cmp	r3, #0
 1044 0138 0BD0     		beq	.L45
 1045              		.loc 1 257 0 discriminator 3
 1046 013a 144B     		ldr	r3, .L48+20
 1047 013c 1B78     		ldrb	r3, [r3]	@ zero_extendqisi2
 1048 013e 002B     		cmp	r3, #0
 1049 0140 07D0     		beq	.L45
 1050              		.loc 1 257 0 discriminator 4
 1051 0142 134B     		ldr	r3, .L48+24
 1052 0144 1B78     		ldrb	r3, [r3]	@ zero_extendqisi2
 1053 0146 002B     		cmp	r3, #0
 1054 0148 03D0     		beq	.L45
 1055              		.loc 1 257 0 discriminator 5
 1056 014a 124B     		ldr	r3, .L48+28
 1057 014c 1B78     		ldrb	r3, [r3]	@ zero_extendqisi2
 1058 014e 002B     		cmp	r3, #0
 1059 0150 03D1     		bne	.L46
 1060              	.L45:
 258:main.c        ****         directionState = Stop;
 1061              		.loc 1 258 0 is_stmt 1
 1062 0152 0523     		movs	r3, #5
 1063 0154 7B60     		str	r3, [r7, #4]
 259:main.c        ****         return directionState;
 1064              		.loc 1 259 0
 1065 0156 7B68     		ldr	r3, [r7, #4]
 1066 0158 09E0     		b	.L39
 1067              	.L46:
 260:main.c        ****     }
 261:main.c        ****     
 262:main.c        ****     // If the code gets up to this point then no conditions have been met
 263:main.c        ****     // The sensors are in a configuration that has not been covered
 264:main.c        ****     // The currentDirection to turn into is unknown.
 265:main.c        ****     
 266:main.c        ****     // if currentDirection is Unknown, we continue with the previous direction
 267:main.c        ****     // However, if the previous direction is also Unknown, we will just move forward.
 268:main.c        ****     if (previousDirection == Unknown) {
 1068              		.loc 1 268 0
 1069 015a 084B     		ldr	r3, .L48+4
 1070 015c 1B68     		ldr	r3, [r3]
 1071 015e 062B     		cmp	r3, #6
 1072 0160 03D1     		bne	.L47
 269:main.c        ****         directionState = Forward;
 1073              		.loc 1 269 0
 1074 0162 0023     		movs	r3, #0
 1075 0164 7B60     		str	r3, [r7, #4]
 270:main.c        ****         return directionState;
 1076              		.loc 1 270 0
 1077 0166 7B68     		ldr	r3, [r7, #4]
 1078 0168 01E0     		b	.L39
 1079              	.L47:
 271:main.c        ****     }
 272:main.c        ****             
 273:main.c        ****     return previousDirection;
 1080              		.loc 1 273 0
 1081 016a 044B     		ldr	r3, .L48+4
 1082 016c 1B68     		ldr	r3, [r3]
 1083              	.L39:
ARM GAS  C:\Users\Jobsa\AppData\Local\Temp\cclJxy2u.s 			page 25


 274:main.c        **** }
 1084              		.loc 1 274 0
 1085 016e 1846     		mov	r0, r3
 1086 0170 0C37     		adds	r7, r7, #12
 1087              		.cfi_def_cfa_offset 4
 1088 0172 BD46     		mov	sp, r7
 1089              		.cfi_def_cfa_register 13
 1090              		@ sp needed
 1091 0174 80BC     		pop	{r7}
 1092              		.cfi_restore 7
 1093              		.cfi_def_cfa_offset 0
 1094 0176 7047     		bx	lr
 1095              	.L49:
 1096              		.align	2
 1097              	.L48:
 1098 0178 00000000 		.word	currentDirection
 1099 017c 00000000 		.word	previousDirection
 1100 0180 00000000 		.word	s1
 1101 0184 00000000 		.word	s2
 1102 0188 00000000 		.word	s3
 1103 018c 00000000 		.word	s4
 1104 0190 00000000 		.word	s5
 1105 0194 00000000 		.word	s6
 1106              		.cfi_endproc
 1107              	.LFE75:
 1108              		.size	CheckSensorDirection, .-CheckSensorDirection
 1109              		.section	.text.SetRobotMovement,"ax",%progbits
 1110              		.align	2
 1111              		.global	SetRobotMovement
 1112              		.thumb
 1113              		.thumb_func
 1114              		.type	SetRobotMovement, %function
 1115              	SetRobotMovement:
 1116              	.LFB76:
 275:main.c        **** 
 276:main.c        **** // Sets robot movement direction state according to currentDirection which is set by Check
 277:main.c        **** void SetRobotMovement() {
 1117              		.loc 1 277 0
 1118              		.cfi_startproc
 1119              		@ args = 0, pretend = 0, frame = 0
 1120              		@ frame_needed = 1, uses_anonymous_args = 0
 1121 0000 80B5     		push	{r7, lr}
 1122              		.cfi_def_cfa_offset 8
 1123              		.cfi_offset 7, -8
 1124              		.cfi_offset 14, -4
 1125 0002 00AF     		add	r7, sp, #0
 1126              		.cfi_def_cfa_register 7
 278:main.c        ****     currentDirection = CheckSensorDirection();   
 1127              		.loc 1 278 0
 1128 0004 FFF7FEFF 		bl	CheckSensorDirection
 1129 0008 0246     		mov	r2, r0
 1130 000a 164B     		ldr	r3, .L62
 1131 000c 1A60     		str	r2, [r3]
 279:main.c        ****     
 280:main.c        ****     switch (currentDirection) {
 1132              		.loc 1 280 0
 1133 000e 154B     		ldr	r3, .L62
ARM GAS  C:\Users\Jobsa\AppData\Local\Temp\cclJxy2u.s 			page 26


 1134 0010 1B68     		ldr	r3, [r3]
 1135 0012 062B     		cmp	r3, #6
 1136 0014 23D8     		bhi	.L60
 1137 0016 01A2     		adr	r2, .L53
 1138 0018 52F823F0 		ldr	pc, [r2, r3, lsl #2]
 1139              		.p2align 2
 1140              	.L53:
 1141 001c 39000000 		.word	.L52+1
 1142 0020 3F000000 		.word	.L54+1
 1143 0024 45000000 		.word	.L55+1
 1144 0028 51000000 		.word	.L56+1
 1145 002c 4B000000 		.word	.L57+1
 1146 0030 57000000 		.word	.L58+1
 1147 0034 5D000000 		.word	.L61+1
 1148              		.p2align 1
 1149              	.L52:
 281:main.c        ****         //Forward, TurnRight, TurnLeft, AdjustToTheRight, AdjustToTheLeft, Stop, Unknown
 282:main.c        ****         case Forward:
 283:main.c        ****             moveForward();
 1150              		.loc 1 283 0
 1151 0038 FFF7FEFF 		bl	moveForward
 284:main.c        ****             break;
 1152              		.loc 1 284 0
 1153 003c 0FE0     		b	.L51
 1154              	.L54:
 285:main.c        ****         case TurnRight:
 286:main.c        ****             rotationClockwise();
 1155              		.loc 1 286 0
 1156 003e FFF7FEFF 		bl	rotationClockwise
 287:main.c        ****             break;
 1157              		.loc 1 287 0
 1158 0042 0CE0     		b	.L51
 1159              	.L55:
 288:main.c        ****         case TurnLeft:
 289:main.c        ****             rotationAntiClockwise();
 1160              		.loc 1 289 0
 1161 0044 FFF7FEFF 		bl	rotationAntiClockwise
 290:main.c        ****             break;
 1162              		.loc 1 290 0
 1163 0048 09E0     		b	.L51
 1164              	.L57:
 291:main.c        ****         case AdjustToTheRight:
 292:main.c        ****             keepRotatingClockwise();
 1165              		.loc 1 292 0
 1166 004a FFF7FEFF 		bl	keepRotatingClockwise
 293:main.c        ****             break;
 1167              		.loc 1 293 0
 1168 004e 06E0     		b	.L51
 1169              	.L56:
 294:main.c        ****         case AdjustToTheLeft:
 295:main.c        ****             keepRotatingAntiClockwise();
 1170              		.loc 1 295 0
 1171 0050 FFF7FEFF 		bl	keepRotatingAntiClockwise
 296:main.c        ****             break;
 1172              		.loc 1 296 0
 1173 0054 03E0     		b	.L51
 1174              	.L58:
ARM GAS  C:\Users\Jobsa\AppData\Local\Temp\cclJxy2u.s 			page 27


 297:main.c        ****         case Stop:
 298:main.c        ****             stopMoving();
 1175              		.loc 1 298 0
 1176 0056 FFF7FEFF 		bl	stopMoving
 299:main.c        ****             break;
 1177              		.loc 1 299 0
 1178 005a 00E0     		b	.L51
 1179              	.L61:
 300:main.c        ****         case Unknown:
 301:main.c        ****             // UNKNOWN CONFIGURATION
 302:main.c        ****             break;  
 1180              		.loc 1 302 0
 1181 005c 00BF     		nop
 1182              	.L51:
 1183              	.L60:
 303:main.c        ****     }
 304:main.c        **** }
 1184              		.loc 1 304 0
 1185 005e 00BF     		nop
 1186 0060 80BD     		pop	{r7, pc}
 1187              	.L63:
 1188 0062 00BF     		.align	2
 1189              	.L62:
 1190 0064 00000000 		.word	currentDirection
 1191              		.cfi_endproc
 1192              	.LFE76:
 1193              		.size	SetRobotMovement, .-SetRobotMovement
 1194              		.section	.text.usbPutString,"ax",%progbits
 1195              		.align	2
 1196              		.global	usbPutString
 1197              		.thumb
 1198              		.thumb_func
 1199              		.type	usbPutString, %function
 1200              	usbPutString:
 1201              	.LFB77:
 305:main.c        **** 
 306:main.c        **** // ======================================
 307:main.c        **** // USBUART
 308:main.c        **** //* ========================================
 309:main.c        ****     void usbPutString(char *s)
 310:main.c        **** {
 1202              		.loc 1 310 0
 1203              		.cfi_startproc
 1204              		@ args = 0, pretend = 0, frame = 8
 1205              		@ frame_needed = 1, uses_anonymous_args = 0
 1206 0000 80B5     		push	{r7, lr}
 1207              		.cfi_def_cfa_offset 8
 1208              		.cfi_offset 7, -8
 1209              		.cfi_offset 14, -4
 1210 0002 82B0     		sub	sp, sp, #8
 1211              		.cfi_def_cfa_offset 16
 1212 0004 00AF     		add	r7, sp, #0
 1213              		.cfi_def_cfa_register 7
 1214 0006 7860     		str	r0, [r7, #4]
 311:main.c        **** // !! Assumes that *s is a string with allocated space >=64 chars     
 312:main.c        **** //  Since USB implementation retricts data packets to 64 chars, this function truncates the
 313:main.c        **** //  length to 62 char (63rd char is a '!')
ARM GAS  C:\Users\Jobsa\AppData\Local\Temp\cclJxy2u.s 			page 28


 314:main.c        **** 
 315:main.c        **** #ifdef USE_USB     
 316:main.c        ****     while (USBUART_CDCIsReady() == 0);
 1215              		.loc 1 316 0
 1216 0008 00BF     		nop
 1217              	.L65:
 1218              		.loc 1 316 0 is_stmt 0 discriminator 1
 1219 000a FFF7FEFF 		bl	USBUART_CDCIsReady
 1220 000e 0346     		mov	r3, r0
 1221 0010 002B     		cmp	r3, #0
 1222 0012 FAD0     		beq	.L65
 317:main.c        ****     s[63]='\0';
 1223              		.loc 1 317 0 is_stmt 1
 1224 0014 7B68     		ldr	r3, [r7, #4]
 1225 0016 3F33     		adds	r3, r3, #63
 1226 0018 0022     		movs	r2, #0
 1227 001a 1A70     		strb	r2, [r3]
 318:main.c        ****     s[62]='!';
 1228              		.loc 1 318 0
 1229 001c 7B68     		ldr	r3, [r7, #4]
 1230 001e 3E33     		adds	r3, r3, #62
 1231 0020 2122     		movs	r2, #33
 1232 0022 1A70     		strb	r2, [r3]
 319:main.c        ****     USBUART_PutData((uint8*)s,strlen(s));
 1233              		.loc 1 319 0
 1234 0024 7868     		ldr	r0, [r7, #4]
 1235 0026 FFF7FEFF 		bl	strlen
 1236 002a 0346     		mov	r3, r0
 1237 002c 9BB2     		uxth	r3, r3
 1238 002e 1946     		mov	r1, r3
 1239 0030 7868     		ldr	r0, [r7, #4]
 1240 0032 FFF7FEFF 		bl	USBUART_PutData
 320:main.c        **** #endif
 321:main.c        **** }
 1241              		.loc 1 321 0
 1242 0036 00BF     		nop
 1243 0038 0837     		adds	r7, r7, #8
 1244              		.cfi_def_cfa_offset 8
 1245 003a BD46     		mov	sp, r7
 1246              		.cfi_def_cfa_register 13
 1247              		@ sp needed
 1248 003c 80BD     		pop	{r7, pc}
 1249              		.cfi_endproc
 1250              	.LFE77:
 1251              		.size	usbPutString, .-usbPutString
 1252 003e 00BF     		.section	.text.usbPutChar,"ax",%progbits
 1253              		.align	2
 1254              		.global	usbPutChar
 1255              		.thumb
 1256              		.thumb_func
 1257              		.type	usbPutChar, %function
 1258              	usbPutChar:
 1259              	.LFB78:
 322:main.c        **** //* ========================================
 323:main.c        **** void usbPutChar(char c)
 324:main.c        **** {
 1260              		.loc 1 324 0
ARM GAS  C:\Users\Jobsa\AppData\Local\Temp\cclJxy2u.s 			page 29


 1261              		.cfi_startproc
 1262              		@ args = 0, pretend = 0, frame = 8
 1263              		@ frame_needed = 1, uses_anonymous_args = 0
 1264 0000 80B5     		push	{r7, lr}
 1265              		.cfi_def_cfa_offset 8
 1266              		.cfi_offset 7, -8
 1267              		.cfi_offset 14, -4
 1268 0002 82B0     		sub	sp, sp, #8
 1269              		.cfi_def_cfa_offset 16
 1270 0004 00AF     		add	r7, sp, #0
 1271              		.cfi_def_cfa_register 7
 1272 0006 0346     		mov	r3, r0
 1273 0008 FB71     		strb	r3, [r7, #7]
 325:main.c        **** #ifdef USE_USB     
 326:main.c        ****     while (USBUART_CDCIsReady() == 0);
 1274              		.loc 1 326 0
 1275 000a 00BF     		nop
 1276              	.L67:
 1277              		.loc 1 326 0 is_stmt 0 discriminator 1
 1278 000c FFF7FEFF 		bl	USBUART_CDCIsReady
 1279 0010 0346     		mov	r3, r0
 1280 0012 002B     		cmp	r3, #0
 1281 0014 FAD0     		beq	.L67
 327:main.c        ****     USBUART_PutChar(c);
 1282              		.loc 1 327 0 is_stmt 1
 1283 0016 FB79     		ldrb	r3, [r7, #7]	@ zero_extendqisi2
 1284 0018 1846     		mov	r0, r3
 1285 001a FFF7FEFF 		bl	USBUART_PutChar
 328:main.c        **** #endif    
 329:main.c        **** }
 1286              		.loc 1 329 0
 1287 001e 00BF     		nop
 1288 0020 0837     		adds	r7, r7, #8
 1289              		.cfi_def_cfa_offset 8
 1290 0022 BD46     		mov	sp, r7
 1291              		.cfi_def_cfa_register 13
 1292              		@ sp needed
 1293 0024 80BD     		pop	{r7, pc}
 1294              		.cfi_endproc
 1295              	.LFE78:
 1296              		.size	usbPutChar, .-usbPutChar
 1297 0026 00BF     		.section	.text.handle_usb,"ax",%progbits
 1298              		.align	2
 1299              		.global	handle_usb
 1300              		.thumb
 1301              		.thumb_func
 1302              		.type	handle_usb, %function
 1303              	handle_usb:
 1304              	.LFB79:
 330:main.c        **** //* ========================================
 331:main.c        **** void handle_usb()
 332:main.c        **** {
 1305              		.loc 1 332 0
 1306              		.cfi_startproc
 1307              		@ args = 0, pretend = 0, frame = 8
 1308              		@ frame_needed = 1, uses_anonymous_args = 0
 1309 0000 80B5     		push	{r7, lr}
ARM GAS  C:\Users\Jobsa\AppData\Local\Temp\cclJxy2u.s 			page 30


 1310              		.cfi_def_cfa_offset 8
 1311              		.cfi_offset 7, -8
 1312              		.cfi_offset 14, -4
 1313 0002 82B0     		sub	sp, sp, #8
 1314              		.cfi_def_cfa_offset 16
 1315 0004 00AF     		add	r7, sp, #0
 1316              		.cfi_def_cfa_register 7
 333:main.c        ****     // handles input at terminal, echos it back to the terminal
 334:main.c        ****     // turn echo OFF, key emulation: only CR
 335:main.c        ****     // entered string is made available in 'line' and 'flag_KB_string' is set
 336:main.c        ****     
 337:main.c        ****     static uint8 usbStarted = FALSE;
 338:main.c        ****     static uint16 usbBufCount = 0;
 339:main.c        ****     uint8 c; 
 340:main.c        ****     
 341:main.c        **** 
 342:main.c        ****     if (!usbStarted)
 1317              		.loc 1 342 0
 1318 0006 2B4B     		ldr	r3, .L78
 1319 0008 1B78     		ldrb	r3, [r3]	@ zero_extendqisi2
 1320 000a 002B     		cmp	r3, #0
 1321 000c 0AD1     		bne	.L69
 343:main.c        ****     {
 344:main.c        ****         if (USBUART_GetConfiguration())
 1322              		.loc 1 344 0
 1323 000e FFF7FEFF 		bl	USBUART_GetConfiguration
 1324 0012 0346     		mov	r3, r0
 1325 0014 002B     		cmp	r3, #0
 1326 0016 49D0     		beq	.L77
 345:main.c        ****         {
 346:main.c        ****             USBUART_CDC_Init();
 1327              		.loc 1 346 0
 1328 0018 FFF7FEFF 		bl	USBUART_CDC_Init
 347:main.c        ****             usbStarted = TRUE;
 1329              		.loc 1 347 0
 1330 001c 254B     		ldr	r3, .L78
 1331 001e 0122     		movs	r2, #1
 1332 0020 1A70     		strb	r2, [r3]
 348:main.c        ****         }
 349:main.c        ****     }
 350:main.c        ****     else
 351:main.c        ****     {
 352:main.c        ****         if (USBUART_DataIsReady() != 0)
 353:main.c        ****         {  
 354:main.c        ****             c = USBUART_GetChar();
 355:main.c        **** 
 356:main.c        ****             if ((c == 13) || (c == 10))
 357:main.c        ****             {
 358:main.c        **** //                if (usbBufCount > 0)
 359:main.c        ****                 {
 360:main.c        ****                     entry[usbBufCount]= '\0';
 361:main.c        ****                     strcpy(line,entry);
 362:main.c        ****                     usbBufCount = 0;
 363:main.c        ****                     flag_KB_string = 1;
 364:main.c        ****                 }
 365:main.c        ****             }
 366:main.c        ****             else 
ARM GAS  C:\Users\Jobsa\AppData\Local\Temp\cclJxy2u.s 			page 31


 367:main.c        ****             {
 368:main.c        ****                 if (((c == CHAR_BACKSP) || (c == CHAR_DEL) ) && (usbBufCount > 0) )
 369:main.c        ****                     usbBufCount--;
 370:main.c        ****                 else
 371:main.c        ****                 {
 372:main.c        ****                     if (usbBufCount > (BUF_SIZE-2) ) // one less else strtok triggers a crash
 373:main.c        ****                     {
 374:main.c        ****                        USBUART_PutChar('!');        
 375:main.c        ****                     }
 376:main.c        ****                     else
 377:main.c        ****                         entry[usbBufCount++] = c;  
 378:main.c        ****                 }  
 379:main.c        ****             }
 380:main.c        ****         }
 381:main.c        ****     }    
 382:main.c        **** }
 1333              		.loc 1 382 0
 1334 0022 43E0     		b	.L77
 1335              	.L69:
 352:main.c        ****         {  
 1336              		.loc 1 352 0
 1337 0024 FFF7FEFF 		bl	USBUART_DataIsReady
 1338 0028 0346     		mov	r3, r0
 1339 002a 002B     		cmp	r3, #0
 1340 002c 3ED0     		beq	.L77
 354:main.c        **** 
 1341              		.loc 1 354 0
 1342 002e FFF7FEFF 		bl	USBUART_GetChar
 1343 0032 0346     		mov	r3, r0
 1344 0034 FB71     		strb	r3, [r7, #7]
 356:main.c        ****             {
 1345              		.loc 1 356 0
 1346 0036 FB79     		ldrb	r3, [r7, #7]	@ zero_extendqisi2
 1347 0038 0D2B     		cmp	r3, #13
 1348 003a 02D0     		beq	.L72
 356:main.c        ****             {
 1349              		.loc 1 356 0 is_stmt 0 discriminator 1
 1350 003c FB79     		ldrb	r3, [r7, #7]	@ zero_extendqisi2
 1351 003e 0A2B     		cmp	r3, #10
 1352 0040 10D1     		bne	.L73
 1353              	.L72:
 360:main.c        ****                     strcpy(line,entry);
 1354              		.loc 1 360 0 is_stmt 1
 1355 0042 1D4B     		ldr	r3, .L78+4
 1356 0044 1B88     		ldrh	r3, [r3]
 1357 0046 1A46     		mov	r2, r3
 1358 0048 1C4B     		ldr	r3, .L78+8
 1359 004a 0021     		movs	r1, #0
 1360 004c 9954     		strb	r1, [r3, r2]
 361:main.c        ****                     usbBufCount = 0;
 1361              		.loc 1 361 0
 1362 004e 1B49     		ldr	r1, .L78+8
 1363 0050 1B48     		ldr	r0, .L78+12
 1364 0052 FFF7FEFF 		bl	strcpy
 362:main.c        ****                     flag_KB_string = 1;
 1365              		.loc 1 362 0
 1366 0056 184B     		ldr	r3, .L78+4
ARM GAS  C:\Users\Jobsa\AppData\Local\Temp\cclJxy2u.s 			page 32


 1367 0058 0022     		movs	r2, #0
 1368 005a 1A80     		strh	r2, [r3]	@ movhi
 363:main.c        ****                 }
 1369              		.loc 1 363 0
 1370 005c 194B     		ldr	r3, .L78+16
 1371 005e 0122     		movs	r2, #1
 1372 0060 1A70     		strb	r2, [r3]
 1373 0062 23E0     		b	.L71
 1374              	.L73:
 368:main.c        ****                     usbBufCount--;
 1375              		.loc 1 368 0
 1376 0064 FB79     		ldrb	r3, [r7, #7]	@ zero_extendqisi2
 1377 0066 082B     		cmp	r3, #8
 1378 0068 02D0     		beq	.L74
 368:main.c        ****                     usbBufCount--;
 1379              		.loc 1 368 0 is_stmt 0 discriminator 2
 1380 006a FB79     		ldrb	r3, [r7, #7]	@ zero_extendqisi2
 1381 006c 7F2B     		cmp	r3, #127
 1382 006e 0AD1     		bne	.L75
 1383              	.L74:
 368:main.c        ****                     usbBufCount--;
 1384              		.loc 1 368 0 discriminator 3
 1385 0070 114B     		ldr	r3, .L78+4
 1386 0072 1B88     		ldrh	r3, [r3]
 1387 0074 002B     		cmp	r3, #0
 1388 0076 06D0     		beq	.L75
 369:main.c        ****                 else
 1389              		.loc 1 369 0 is_stmt 1
 1390 0078 0F4B     		ldr	r3, .L78+4
 1391 007a 1B88     		ldrh	r3, [r3]
 1392 007c 013B     		subs	r3, r3, #1
 1393 007e 9AB2     		uxth	r2, r3
 1394 0080 0D4B     		ldr	r3, .L78+4
 1395 0082 1A80     		strh	r2, [r3]	@ movhi
 1396 0084 12E0     		b	.L71
 1397              	.L75:
 372:main.c        ****                     {
 1398              		.loc 1 372 0
 1399 0086 0C4B     		ldr	r3, .L78+4
 1400 0088 1B88     		ldrh	r3, [r3]
 1401 008a 3E2B     		cmp	r3, #62
 1402 008c 03D9     		bls	.L76
 374:main.c        ****                     }
 1403              		.loc 1 374 0
 1404 008e 2120     		movs	r0, #33
 1405 0090 FFF7FEFF 		bl	USBUART_PutChar
 1406              		.loc 1 382 0
 1407 0094 0AE0     		b	.L77
 1408              	.L76:
 377:main.c        ****                 }  
 1409              		.loc 1 377 0
 1410 0096 084B     		ldr	r3, .L78+4
 1411 0098 1B88     		ldrh	r3, [r3]
 1412 009a 5A1C     		adds	r2, r3, #1
 1413 009c 91B2     		uxth	r1, r2
 1414 009e 064A     		ldr	r2, .L78+4
 1415 00a0 1180     		strh	r1, [r2]	@ movhi
ARM GAS  C:\Users\Jobsa\AppData\Local\Temp\cclJxy2u.s 			page 33


 1416 00a2 1946     		mov	r1, r3
 1417 00a4 054A     		ldr	r2, .L78+8
 1418 00a6 FB79     		ldrb	r3, [r7, #7]
 1419 00a8 5354     		strb	r3, [r2, r1]
 1420              		.loc 1 382 0
 1421 00aa FFE7     		b	.L77
 1422              	.L71:
 1423              	.L77:
 1424 00ac 00BF     		nop
 1425 00ae 0837     		adds	r7, r7, #8
 1426              		.cfi_def_cfa_offset 8
 1427 00b0 BD46     		mov	sp, r7
 1428              		.cfi_def_cfa_register 13
 1429              		@ sp needed
 1430 00b2 80BD     		pop	{r7, pc}
 1431              	.L79:
 1432              		.align	2
 1433              	.L78:
 1434 00b4 2C000000 		.word	usbStarted.8236
 1435 00b8 2E000000 		.word	usbBufCount.8237
 1436 00bc 00000000 		.word	entry
 1437 00c0 00000000 		.word	line
 1438 00c4 00000000 		.word	flag_KB_string
 1439              		.cfi_endproc
 1440              	.LFE79:
 1441              		.size	handle_usb, .-handle_usb
 1442              		.bss
 1443              	usbStarted.8236:
 1444 002c 00       		.space	1
 1445 002d 00       		.align	1
 1446              	usbBufCount.8237:
 1447 002e 0000     		.space	2
 1448              		.text
 1449              	.Letext0:
 1450              		.file 2 "c:\\program files (x86)\\cypress\\psoc creator\\4.4\\psoc creator\\import\\gnu\\arm\\5.4.
 1451              		.file 3 "c:\\program files (x86)\\cypress\\psoc creator\\4.4\\psoc creator\\import\\gnu\\arm\\5.4.
 1452              		.file 4 "Generated_Source\\PSoC5/cytypes.h"
 1453              		.file 5 "vars.h"
 1454              		.file 6 "Generated_Source\\PSoC5/core_cm3.h"