ARM GAS  C:\Users\ikui753\AppData\Local\Temp\ccYGTKr5.s 			page 1


   1              		.syntax unified
   2              		.cpu cortex-m3
   3              		.fpu softvfp
   4              		.eabi_attribute 20, 1
   5              		.eabi_attribute 21, 1
   6              		.eabi_attribute 23, 3
   7              		.eabi_attribute 24, 1
   8              		.eabi_attribute 25, 1
   9              		.eabi_attribute 26, 1
  10              		.eabi_attribute 30, 6
  11              		.eabi_attribute 34, 1
  12              		.eabi_attribute 18, 4
  13              		.thumb
  14              		.syntax unified
  15              		.file	"main.c"
  16              		.text
  17              	.Ltext0:
  18              		.cfi_sections	.debug_frame
  19              		.global	ts
  20              		.bss
  21              		.type	ts, %object
  22              		.size	ts, 1
  23              	ts:
  24 0000 00       		.space	1
  25              		.global	ts_enc
  26 0001 00       		.align	1
  27              		.type	ts_enc, %object
  28              		.size	ts_enc, 2
  29              	ts_enc:
  30 0002 0000     		.space	2
  31              		.global	ts_update
  32              		.align	1
  33              		.type	ts_update, %object
  34              		.size	ts_update, 2
  35              	ts_update:
  36 0004 0000     		.space	2
  37              		.global	ts_speed
  38              		.align	1
  39              		.type	ts_speed, %object
  40              		.size	ts_speed, 2
  41              	ts_speed:
  42 0006 0000     		.space	2
  43              		.global	ts_display
  44              		.align	1
  45              		.type	ts_display, %object
  46              		.size	ts_display, 2
  47              	ts_display:
  48 0008 0000     		.space	2
  49              		.global	flag_ts_enc
  50              		.type	flag_ts_enc, %object
  51              		.size	flag_ts_enc, 1
  52              	flag_ts_enc:
  53 000a 00       		.space	1
  54              		.global	flag_ts_update
  55              		.type	flag_ts_update, %object
  56              		.size	flag_ts_update, 1
  57              	flag_ts_update:
ARM GAS  C:\Users\ikui753\AppData\Local\Temp\ccYGTKr5.s 			page 2


  58 000b 00       		.space	1
  59              		.global	flag_ts_speed
  60              		.type	flag_ts_speed, %object
  61              		.size	flag_ts_speed, 1
  62              	flag_ts_speed:
  63 000c 00       		.space	1
  64              		.global	flag_ts_display
  65              		.type	flag_ts_display, %object
  66              		.size	flag_ts_display, 1
  67              	flag_ts_display:
  68 000d 00       		.space	1
  69              		.global	flag_rx
  70              		.type	flag_rx, %object
  71              		.size	flag_rx, 1
  72              	flag_rx:
  73 000e 00       		.space	1
  74              		.global	flag_packet
  75              		.type	flag_packet, %object
  76              		.size	flag_packet, 1
  77              	flag_packet:
  78 000f 00       		.space	1
  79              		.global	flag_KB_string
  80              		.type	flag_KB_string, %object
  81              		.size	flag_KB_string, 1
  82              	flag_KB_string:
  83 0010 00       		.space	1
  84              		.global	dataready_flag
  85              		.type	dataready_flag, %object
  86              		.size	dataready_flag, 1
  87              	dataready_flag:
  88 0011 00       		.space	1
  89              		.global	flag_rf_transmission_active
  90              		.data
  91              		.type	flag_rf_transmission_active, %object
  92              		.size	flag_rf_transmission_active, 1
  93              	flag_rf_transmission_active:
  94 0000 0A       		.byte	10
  95              		.global	displaystring
  96 0001 000000   		.align	2
  97              		.type	displaystring, %object
  98              		.size	displaystring, 64
  99              	displaystring:
 100 0004 43533330 		.ascii	"CS301 2016\012\015\000"
 100      31203230 
 100      31360A0D 
 100      00
 101 0011 00000000 		.space	51
 101      00000000 
 101      00000000 
 101      00000000 
 101      00000000 
 102              		.comm	line,64,4
 103              		.comm	entry,64,4
 104              		.comm	usbBuffer,64,4
 105              		.comm	system_state,32,4
 106              		.comm	currentDirection,1,1
 107              		.global	previousDirection
ARM GAS  C:\Users\ikui753\AppData\Local\Temp\ccYGTKr5.s 			page 3


 108              		.bss
 109              		.type	previousDirection, %object
 110              		.size	previousDirection, 1
 111              	previousDirection:
 112 0012 00       		.space	1
 113              		.comm	currentRobotOrientation,1,1
 114              		.global	previousOrientation
 115              		.data
 116              		.type	previousOrientation, %object
 117              		.size	previousOrientation, 1
 118              	previousOrientation:
 119 0044 01       		.byte	1
 120              		.comm	currentInstruction,20,4
 121              		.comm	numSteps,4,4
 122              		.comm	instructionList,4,4
 123              		.bss
 124 0013 00       		.align	2
 125              	instructionIndex:
 126 0014 00000000 		.space	4
 127              		.comm	s3,1,1
 128              		.comm	s4,1,1
 129              		.comm	s5,1,1
 130              		.global	s6
 131              		.type	s6, %object
 132              		.size	s6, 1
 133              	s6:
 134 0018 00       		.space	1
 135              		.global	totalMilliseconds
 136 0019 000000   		.align	2
 137              		.type	totalMilliseconds, %object
 138              		.size	totalMilliseconds, 4
 139              	totalMilliseconds:
 140 001c 00000000 		.space	4
 141              		.global	totalDistance
 142              		.align	2
 143              		.type	totalDistance, %object
 144              		.size	totalDistance, 4
 145              	totalDistance:
 146 0020 00000000 		.space	4
 147              		.comm	buffer,69,4
 148              		.global	quadDec2Count
 149              		.align	2
 150              		.type	quadDec2Count, %object
 151              		.size	quadDec2Count, 4
 152              	quadDec2Count:
 153 0024 00000000 		.space	4
 154              		.global	timerInt
 155              		.align	2
 156              		.type	timerInt, %object
 157              		.size	timerInt, 4
 158              	timerInt:
 159 0028 00000000 		.space	4
 160              		.global	keepLedOn
 161              		.align	2
 162              		.type	keepLedOn, %object
 163              		.size	keepLedOn, 4
 164              	keepLedOn:
ARM GAS  C:\Users\ikui753\AppData\Local\Temp\ccYGTKr5.s 			page 4


 165 002c 00000000 		.space	4
 166              		.global	stopBuffer
 167              		.align	2
 168              		.type	stopBuffer, %object
 169              		.size	stopBuffer, 4
 170              	stopBuffer:
 171 0030 00000000 		.space	4
 172              		.global	forwardBuffer
 173              		.align	1
 174              		.type	forwardBuffer, %object
 175              		.size	forwardBuffer, 2
 176              	forwardBuffer:
 177 0034 0000     		.space	2
 178              	turnStartedFlag:
 179 0036 00       		.space	1
 180              	turnFinishedFlag:
 181 0037 00       		.space	1
 182              	forwardUntilTargetStartedFlag:
 183 0038 00       		.space	1
 184              	uTurnStartedFlag:
 185 0039 00       		.space	1
 186              	uTurnFinishedFlag:
 187 003a 00       		.space	1
 188              	leftStatusFlag:
 189 003b 00       		.space	1
 190              	rightStatusFlag:
 191 003c 00       		.space	1
 192              	spinCourseCorrectionStarted:
 193 003d 00       		.space	1
 194              	currentIgnoreL:
 195 003e 00       		.space	1
 196              		.data
 197              		.type	currentIgnoreR, %object
 198              		.size	currentIgnoreR, 1
 199              	currentIgnoreR:
 200 0045 01       		.byte	1
 201              		.bss
 202              	totalLineCount:
 203 003f 00       		.space	1
 204              	lineCount:
 205 0040 00       		.space	1
 206              	onLineFlag:
 207 0041 00       		.space	1
 208              	tooEarlyFlag:
 209 0042 00       		.space	1
 210              	tooLateFlag:
 211 0043 00       		.space	1
 212              		.global	junctionConfiguration
 213              		.align	2
 214              		.type	junctionConfiguration, %object
 215              		.size	junctionConfiguration, 4
 216              	junctionConfiguration:
 217 0044 00000000 		.space	4
 218              		.global	currentFoodListIndex
 219              		.type	currentFoodListIndex, %object
 220              		.size	currentFoodListIndex, 1
 221              	currentFoodListIndex:
ARM GAS  C:\Users\ikui753\AppData\Local\Temp\ccYGTKr5.s 			page 5


 222 0048 00       		.space	1
 223              		.global	blockSizeTotal
 224 0049 000000   		.align	2
 225              		.type	blockSizeTotal, %object
 226              		.size	blockSizeTotal, 4
 227              	blockSizeTotal:
 228 004c 00000000 		.space	4
 229              		.global	__aeabi_i2d
 230              		.global	__aeabi_dmul
 231              		.global	__aeabi_ddiv
 232              		.global	__aeabi_d2f
 233              		.global	__aeabi_fadd
 234              		.section	.text.speedTimer,"ax",%progbits
 235              		.align	2
 236              		.global	speedTimer
 237              		.thumb
 238              		.thumb_func
 239              		.type	speedTimer, %function
 240              	speedTimer:
 241              	.LFB64:
 242              		.file 1 "main.c"
   1:main.c        **** #include <stdio.h>
   2:main.c        **** #include <string.h>
   3:main.c        **** #include <stdlib.h>
   4:main.c        **** #include <project.h>
   5:main.c        **** //* ========================================
   6:main.c        **** #include "defines.h"
   7:main.c        **** #include "vars.h"
   8:main.c        **** #include "pathfinding.h"
   9:main.c        **** #include "initialise.h"
  10:main.c        **** #include "movement.h"
  11:main.c        **** #include "usbUART.h"
  12:main.c        **** #include "map.h"
  13:main.c        **** //* ========================================
  14:main.c        **** // USBUART
  15:main.c        **** void usbPutString(char *s);
  16:main.c        **** void usbPutChar(char c);
  17:main.c        **** void handle_usb();
  18:main.c        **** //* ========================================
  19:main.c        **** int16 quadCountToRPM(uint16 count);
  20:main.c        **** //* ========================================
  21:main.c        **** // Sensors, Course correction and Movement Direction.
  22:main.c        **** void ResetSensorFlags();
  23:main.c        **** void SetRobotMovement();
  24:main.c        **** enum RobotMovement {Forward, TurnRight, TurnLeft, AdjustToTheLeft, AdjustToTheRight, Stop, Unknown,
  25:main.c        **** enum RobotMovement currentDirection, previousDirection = Forward; 
  26:main.c        **** enum RobotMovement GetMovementAccordingToInstruction();
  27:main.c        **** enum OrientationState currentRobotOrientation, previousOrientation = Down;
  28:main.c        **** Instruction currentInstruction;
  29:main.c        **** int numSteps;
  30:main.c        **** void traversePath(int numSteps, Instruction instructionList[]);
  31:main.c        **** Instruction * instructionList; // pointer to array
  32:main.c        **** volatile static uint32 instructionIndex = 0;
  33:main.c        **** Instruction GetInstructionAtIndex();
  34:main.c        **** float CalculateDistanceToTravel(float blockSize);
  35:main.c        **** void MoveToNextInstruction();
  36:main.c        **** // ----------------------------------------
ARM GAS  C:\Users\ikui753\AppData\Local\Temp\ccYGTKr5.s 			page 6


  37:main.c        **** uint8 s3, s4, s5, s6 = 0;
  38:main.c        **** //* ========================================
  39:main.c        **** // Calculating Distance
  40:main.c        **** #define WHEEL_DIAMETER_MM 64.5
  41:main.c        **** 
  42:main.c        **** uint32 totalMilliseconds = 0;
  43:main.c        **** float totalDistance = 0; // in mm
  44:main.c        **** //* ========================================
  45:main.c        **** char buffer[69];
  46:main.c        **** int quadDec2Count = 0;
  47:main.c        **** int timerInt = 0;
  48:main.c        **** int keepLedOn = 0;
  49:main.c        **** // ========================================= FLAGS
  50:main.c        **** uint32 stopBuffer = 0;
  51:main.c        **** uint16 forwardBuffer = 0;
  52:main.c        **** volatile static uint8 turnStartedFlag = 0;
  53:main.c        **** volatile static uint8 turnFinishedFlag = 0;
  54:main.c        **** 
  55:main.c        **** volatile static uint8 forwardUntilTargetStartedFlag = 0;
  56:main.c        **** volatile static uint8 uTurnStartedFlag = 0;
  57:main.c        **** volatile static uint8 uTurnFinishedFlag = 0;
  58:main.c        **** 
  59:main.c        **** volatile static uint8 leftStatusFlag = 0;
  60:main.c        **** volatile static uint8 rightStatusFlag = 0;
  61:main.c        **** 
  62:main.c        **** volatile static uint8 spinCourseCorrectionStarted = 0;
  63:main.c        **** volatile static uint8 currentIgnoreL = 0;
  64:main.c        **** volatile static uint8 currentIgnoreR = 1;
  65:main.c        **** 
  66:main.c        **** void RotateClockwise180Degrees();
  67:main.c        **** 
  68:main.c        **** volatile static uint8 totalLineCount = 0;
  69:main.c        **** volatile static uint8 lineCount = 0;
  70:main.c        **** volatile static uint8 onLineFlag = 0;
  71:main.c        **** 
  72:main.c        **** volatile static uint8 tooEarlyFlag = 0;
  73:main.c        **** volatile static uint8 tooLateFlag = 0;
  74:main.c        **** 
  75:main.c        **** uint8 junctionConfiguration[4] = {0};
  76:main.c        **** uint8 currentFoodListIndex = 0;
  77:main.c        **** 
  78:main.c        **** float blockSizeTotal = 0;
  79:main.c        **** //char map[MAX_ROWS][MAX_COLS]; // global map array- stores the map
  80:main.c        **** 
  81:main.c        **** CY_ISR (speedTimer) {
 243              		.loc 1 81 0
 244              		.cfi_startproc
 245              		@ args = 0, pretend = 0, frame = 8
 246              		@ frame_needed = 1, uses_anonymous_args = 0
 247 0000 90B5     		push	{r4, r7, lr}
 248              		.cfi_def_cfa_offset 12
 249              		.cfi_offset 4, -12
 250              		.cfi_offset 7, -8
 251              		.cfi_offset 14, -4
 252 0002 83B0     		sub	sp, sp, #12
 253              		.cfi_def_cfa_offset 24
 254 0004 00AF     		add	r7, sp, #0
ARM GAS  C:\Users\ikui753\AppData\Local\Temp\ccYGTKr5.s 			page 7


 255              		.cfi_def_cfa_register 7
  82:main.c        ****     timerInt = 1;
 256              		.loc 1 82 0
 257 0006 344B     		ldr	r3, .L4+16
 258 0008 0122     		movs	r2, #1
 259 000a 1A60     		str	r2, [r3]
  83:main.c        ****     //quadDec_M1 used for turning macros
  84:main.c        ****     quadDec2Count = QuadDec_M2_GetCounter();
 260              		.loc 1 84 0
 261 000c FFF7FEFF 		bl	QuadDec_M2_GetCounter
 262 0010 0346     		mov	r3, r0
 263 0012 1A46     		mov	r2, r3
 264 0014 314B     		ldr	r3, .L4+20
 265 0016 1A60     		str	r2, [r3]
  85:main.c        ****     
  86:main.c        ****     if ((currentDirection == Forward || 
 266              		.loc 1 86 0
 267 0018 314B     		ldr	r3, .L4+24
 268 001a 1B78     		ldrb	r3, [r3]	@ zero_extendqisi2
 269 001c 002B     		cmp	r3, #0
 270 001e 13D0     		beq	.L2
  87:main.c        ****         currentDirection == ForwardAfterTurn ||
 271              		.loc 1 87 0 discriminator 1
 272 0020 2F4B     		ldr	r3, .L4+24
 273 0022 1B78     		ldrb	r3, [r3]	@ zero_extendqisi2
  86:main.c        ****         currentDirection == ForwardAfterTurn ||
 274              		.loc 1 86 0 discriminator 1
 275 0024 082B     		cmp	r3, #8
 276 0026 0FD0     		beq	.L2
  88:main.c        ****         currentDirection == waitForTurn || 
 277              		.loc 1 88 0
 278 0028 2D4B     		ldr	r3, .L4+24
 279 002a 1B78     		ldrb	r3, [r3]	@ zero_extendqisi2
  87:main.c        ****         currentDirection == ForwardAfterTurn ||
 280              		.loc 1 87 0
 281 002c 072B     		cmp	r3, #7
 282 002e 0BD0     		beq	.L2
  89:main.c        ****         currentDirection == AdjustToTheLeft ||
 283              		.loc 1 89 0
 284 0030 2B4B     		ldr	r3, .L4+24
 285 0032 1B78     		ldrb	r3, [r3]	@ zero_extendqisi2
  88:main.c        ****         currentDirection == waitForTurn || 
 286              		.loc 1 88 0
 287 0034 032B     		cmp	r3, #3
 288 0036 07D0     		beq	.L2
  90:main.c        ****         currentDirection == AdjustToTheRight ||
 289              		.loc 1 90 0
 290 0038 294B     		ldr	r3, .L4+24
 291 003a 1B78     		ldrb	r3, [r3]	@ zero_extendqisi2
  89:main.c        ****         currentDirection == AdjustToTheLeft ||
 292              		.loc 1 89 0
 293 003c 042B     		cmp	r3, #4
 294 003e 03D0     		beq	.L2
  91:main.c        ****         currentDirection == Backward) &&
 295              		.loc 1 91 0
 296 0040 274B     		ldr	r3, .L4+24
 297 0042 1B78     		ldrb	r3, [r3]	@ zero_extendqisi2
ARM GAS  C:\Users\ikui753\AppData\Local\Temp\ccYGTKr5.s 			page 8


  90:main.c        ****         currentDirection == AdjustToTheRight ||
 298              		.loc 1 90 0
 299 0044 092B     		cmp	r3, #9
 300 0046 34D1     		bne	.L3
 301              	.L2:
  92:main.c        ****         quadDec2Count != 0) {
 302              		.loc 1 92 0
 303 0048 244B     		ldr	r3, .L4+20
 304 004a 1B68     		ldr	r3, [r3]
  91:main.c        ****         currentDirection == Backward) &&
 305              		.loc 1 91 0
 306 004c 002B     		cmp	r3, #0
 307 004e 30D0     		beq	.L3
 308              	.LBB2:
  93:main.c        ****         //uint32 newDistance = ((abs(quadDec2Count) / 57.0) * CY_M_PI * WHEEL_DIAMETER_MM)/4;
  94:main.c        ****         float newDistance = (abs(quadDec2Count) * CY_M_PI * WHEEL_DIAMETER_MM)/228;
 309              		.loc 1 94 0
 310 0050 224B     		ldr	r3, .L4+20
 311 0052 1B68     		ldr	r3, [r3]
 312 0054 002B     		cmp	r3, #0
 313 0056 B8BF     		it	lt
 314 0058 5B42     		rsblt	r3, r3, #0
 315 005a 1846     		mov	r0, r3
 316 005c FFF7FEFF 		bl	__aeabi_i2d
 317 0060 19A3     		adr	r3, .L4
 318 0062 D3E90023 		ldrd	r2, [r3]
 319 0066 FFF7FEFF 		bl	__aeabi_dmul
 320 006a 0346     		mov	r3, r0
 321 006c 0C46     		mov	r4, r1
 322 006e 1846     		mov	r0, r3
 323 0070 2146     		mov	r1, r4
 324 0072 17A3     		adr	r3, .L4+8
 325 0074 D3E90023 		ldrd	r2, [r3]
 326 0078 FFF7FEFF 		bl	__aeabi_dmul
 327 007c 0346     		mov	r3, r0
 328 007e 0C46     		mov	r4, r1
 329 0080 1846     		mov	r0, r3
 330 0082 2146     		mov	r1, r4
 331 0084 4FF00002 		mov	r2, #0
 332 0088 164B     		ldr	r3, .L4+28
 333 008a FFF7FEFF 		bl	__aeabi_ddiv
 334 008e 0346     		mov	r3, r0
 335 0090 0C46     		mov	r4, r1
 336 0092 1846     		mov	r0, r3
 337 0094 2146     		mov	r1, r4
 338 0096 FFF7FEFF 		bl	__aeabi_d2f
 339 009a 0346     		mov	r3, r0
 340 009c 7B60     		str	r3, [r7, #4]	@ float
  95:main.c        ****         
  96:main.c        ****         totalDistance = totalDistance + newDistance;
 341              		.loc 1 96 0
 342 009e 124B     		ldr	r3, .L4+32
 343 00a0 1B68     		ldr	r3, [r3]	@ float
 344 00a2 7968     		ldr	r1, [r7, #4]	@ float
 345 00a4 1846     		mov	r0, r3
 346 00a6 FFF7FEFF 		bl	__aeabi_fadd
 347 00aa 0346     		mov	r3, r0
ARM GAS  C:\Users\ikui753\AppData\Local\Temp\ccYGTKr5.s 			page 9


 348 00ac 1A46     		mov	r2, r3
 349 00ae 0E4B     		ldr	r3, .L4+32
 350 00b0 1A60     		str	r2, [r3]	@ float
 351              	.L3:
 352              	.LBE2:
  97:main.c        ****     }
  98:main.c        ****     
  99:main.c        ****     QuadDec_M2_SetCounter(0); // reset count
 353              		.loc 1 99 0
 354 00b2 0020     		movs	r0, #0
 355 00b4 FFF7FEFF 		bl	QuadDec_M2_SetCounter
 100:main.c        ****     QuadDec_M2_Start(); // restart counter
 356              		.loc 1 100 0
 357 00b8 FFF7FEFF 		bl	QuadDec_M2_Start
 101:main.c        ****     
 102:main.c        ****     SpeedTimer_ReadStatusRegister(); // clear interrupt
 358              		.loc 1 102 0
 359 00bc FFF7FEFF 		bl	SpeedTimer_ReadStatusRegister
 103:main.c        **** }
 360              		.loc 1 103 0
 361 00c0 00BF     		nop
 362 00c2 0C37     		adds	r7, r7, #12
 363              		.cfi_def_cfa_offset 12
 364 00c4 BD46     		mov	sp, r7
 365              		.cfi_def_cfa_register 13
 366              		@ sp needed
 367 00c6 90BD     		pop	{r4, r7, pc}
 368              	.L5:
 369              		.align	3
 370              	.L4:
 371 00c8 182D4454 		.word	1413754136
 372 00cc FB210940 		.word	1074340347
 373 00d0 00000000 		.word	0
 374 00d4 00205040 		.word	1078992896
 375 00d8 00000000 		.word	timerInt
 376 00dc 00000000 		.word	quadDec2Count
 377 00e0 00000000 		.word	currentDirection
 378 00e4 00806C40 		.word	1080852480
 379 00e8 00000000 		.word	totalDistance
 380              		.cfi_endproc
 381              	.LFE64:
 382              		.size	speedTimer, .-speedTimer
 383              		.section	.text.S3_DETECTED,"ax",%progbits
 384              		.align	2
 385              		.global	S3_DETECTED
 386              		.thumb
 387              		.thumb_func
 388              		.type	S3_DETECTED, %function
 389              	S3_DETECTED:
 390              	.LFB65:
 104:main.c        **** 
 105:main.c        **** CY_ISR(S3_DETECTED) {
 391              		.loc 1 105 0
 392              		.cfi_startproc
 393              		@ args = 0, pretend = 0, frame = 0
 394              		@ frame_needed = 1, uses_anonymous_args = 0
 395              		@ link register save eliminated.
ARM GAS  C:\Users\ikui753\AppData\Local\Temp\ccYGTKr5.s 			page 10


 396 0000 80B4     		push	{r7}
 397              		.cfi_def_cfa_offset 4
 398              		.cfi_offset 7, -4
 399 0002 00AF     		add	r7, sp, #0
 400              		.cfi_def_cfa_register 7
 106:main.c        ****     // Sensor has detected WHITE
 107:main.c        ****     s3 = 1; // , Black = 0, White = 1
 401              		.loc 1 107 0
 402 0004 034B     		ldr	r3, .L7
 403 0006 0122     		movs	r2, #1
 404 0008 1A70     		strb	r2, [r3]
 108:main.c        ****     //LED_Write(1u);
 109:main.c        **** }
 405              		.loc 1 109 0
 406 000a 00BF     		nop
 407 000c BD46     		mov	sp, r7
 408              		.cfi_def_cfa_register 13
 409              		@ sp needed
 410 000e 80BC     		pop	{r7}
 411              		.cfi_restore 7
 412              		.cfi_def_cfa_offset 0
 413 0010 7047     		bx	lr
 414              	.L8:
 415 0012 00BF     		.align	2
 416              	.L7:
 417 0014 00000000 		.word	s3
 418              		.cfi_endproc
 419              	.LFE65:
 420              		.size	S3_DETECTED, .-S3_DETECTED
 421              		.section	.text.S4_DETECTED,"ax",%progbits
 422              		.align	2
 423              		.global	S4_DETECTED
 424              		.thumb
 425              		.thumb_func
 426              		.type	S4_DETECTED, %function
 427              	S4_DETECTED:
 428              	.LFB66:
 110:main.c        **** 
 111:main.c        **** CY_ISR(S4_DETECTED) {
 429              		.loc 1 111 0
 430              		.cfi_startproc
 431              		@ args = 0, pretend = 0, frame = 0
 432              		@ frame_needed = 1, uses_anonymous_args = 0
 433              		@ link register save eliminated.
 434 0000 80B4     		push	{r7}
 435              		.cfi_def_cfa_offset 4
 436              		.cfi_offset 7, -4
 437 0002 00AF     		add	r7, sp, #0
 438              		.cfi_def_cfa_register 7
 112:main.c        ****     // Sensor has detected WHITE
 113:main.c        ****     s4 = 1; // , Black = 0, White = 1
 439              		.loc 1 113 0
 440 0004 034B     		ldr	r3, .L10
 441 0006 0122     		movs	r2, #1
 442 0008 1A70     		strb	r2, [r3]
 114:main.c        ****     //LED_Write(1u);
 115:main.c        **** }
ARM GAS  C:\Users\ikui753\AppData\Local\Temp\ccYGTKr5.s 			page 11


 443              		.loc 1 115 0
 444 000a 00BF     		nop
 445 000c BD46     		mov	sp, r7
 446              		.cfi_def_cfa_register 13
 447              		@ sp needed
 448 000e 80BC     		pop	{r7}
 449              		.cfi_restore 7
 450              		.cfi_def_cfa_offset 0
 451 0010 7047     		bx	lr
 452              	.L11:
 453 0012 00BF     		.align	2
 454              	.L10:
 455 0014 00000000 		.word	s4
 456              		.cfi_endproc
 457              	.LFE66:
 458              		.size	S4_DETECTED, .-S4_DETECTED
 459              		.section	.text.S5_DETECTED,"ax",%progbits
 460              		.align	2
 461              		.global	S5_DETECTED
 462              		.thumb
 463              		.thumb_func
 464              		.type	S5_DETECTED, %function
 465              	S5_DETECTED:
 466              	.LFB67:
 116:main.c        **** 
 117:main.c        **** CY_ISR(S5_DETECTED) {
 467              		.loc 1 117 0
 468              		.cfi_startproc
 469              		@ args = 0, pretend = 0, frame = 0
 470              		@ frame_needed = 1, uses_anonymous_args = 0
 471              		@ link register save eliminated.
 472 0000 80B4     		push	{r7}
 473              		.cfi_def_cfa_offset 4
 474              		.cfi_offset 7, -4
 475 0002 00AF     		add	r7, sp, #0
 476              		.cfi_def_cfa_register 7
 118:main.c        ****     // Sensor has detected WHITE
 119:main.c        ****     s5 = 1; // , Black = 0, White = 1
 477              		.loc 1 119 0
 478 0004 034B     		ldr	r3, .L13
 479 0006 0122     		movs	r2, #1
 480 0008 1A70     		strb	r2, [r3]
 120:main.c        ****     //LED_Write(1u);
 121:main.c        **** }
 481              		.loc 1 121 0
 482 000a 00BF     		nop
 483 000c BD46     		mov	sp, r7
 484              		.cfi_def_cfa_register 13
 485              		@ sp needed
 486 000e 80BC     		pop	{r7}
 487              		.cfi_restore 7
 488              		.cfi_def_cfa_offset 0
 489 0010 7047     		bx	lr
 490              	.L14:
 491 0012 00BF     		.align	2
 492              	.L13:
 493 0014 00000000 		.word	s5
ARM GAS  C:\Users\ikui753\AppData\Local\Temp\ccYGTKr5.s 			page 12


 494              		.cfi_endproc
 495              	.LFE67:
 496              		.size	S5_DETECTED, .-S5_DETECTED
 497              		.section	.text.S6_DETECTED,"ax",%progbits
 498              		.align	2
 499              		.global	S6_DETECTED
 500              		.thumb
 501              		.thumb_func
 502              		.type	S6_DETECTED, %function
 503              	S6_DETECTED:
 504              	.LFB68:
 122:main.c        **** 
 123:main.c        **** CY_ISR(S6_DETECTED) {
 505              		.loc 1 123 0
 506              		.cfi_startproc
 507              		@ args = 0, pretend = 0, frame = 0
 508              		@ frame_needed = 1, uses_anonymous_args = 0
 509              		@ link register save eliminated.
 510 0000 80B4     		push	{r7}
 511              		.cfi_def_cfa_offset 4
 512              		.cfi_offset 7, -4
 513 0002 00AF     		add	r7, sp, #0
 514              		.cfi_def_cfa_register 7
 124:main.c        ****     // Sensor has detected WHITE
 125:main.c        ****     s6 = 1; // , Black = 0, White = 1
 515              		.loc 1 125 0
 516 0004 034B     		ldr	r3, .L16
 517 0006 0122     		movs	r2, #1
 518 0008 1A70     		strb	r2, [r3]
 126:main.c        ****     //LED_Write(1u);
 127:main.c        **** }
 519              		.loc 1 127 0
 520 000a 00BF     		nop
 521 000c BD46     		mov	sp, r7
 522              		.cfi_def_cfa_register 13
 523              		@ sp needed
 524 000e 80BC     		pop	{r7}
 525              		.cfi_restore 7
 526              		.cfi_def_cfa_offset 0
 527 0010 7047     		bx	lr
 528              	.L17:
 529 0012 00BF     		.align	2
 530              	.L16:
 531 0014 00000000 		.word	s6
 532              		.cfi_endproc
 533              	.LFE68:
 534              		.size	S6_DETECTED, .-S6_DETECTED
 535              		.section	.text.TIMER_FINISH,"ax",%progbits
 536              		.align	2
 537              		.global	TIMER_FINISH
 538              		.thumb
 539              		.thumb_func
 540              		.type	TIMER_FINISH, %function
 541              	TIMER_FINISH:
 542              	.LFB69:
 128:main.c        **** 
 129:main.c        **** CY_ISR(TIMER_FINISH) {
ARM GAS  C:\Users\ikui753\AppData\Local\Temp\ccYGTKr5.s 			page 13


 543              		.loc 1 129 0
 544              		.cfi_startproc
 545              		@ args = 0, pretend = 0, frame = 0
 546              		@ frame_needed = 1, uses_anonymous_args = 0
 547 0000 80B5     		push	{r7, lr}
 548              		.cfi_def_cfa_offset 8
 549              		.cfi_offset 7, -8
 550              		.cfi_offset 14, -4
 551 0002 00AF     		add	r7, sp, #0
 552              		.cfi_def_cfa_register 7
 130:main.c        ****     if (currentDirection == Stop) {
 553              		.loc 1 130 0
 554 0004 154B     		ldr	r3, .L24
 555 0006 1B78     		ldrb	r3, [r3]	@ zero_extendqisi2
 556 0008 052B     		cmp	r3, #5
 557 000a 05D1     		bne	.L19
 131:main.c        ****         stopBuffer = stopBuffer + 1;
 558              		.loc 1 131 0
 559 000c 144B     		ldr	r3, .L24+4
 560 000e 1B68     		ldr	r3, [r3]
 561 0010 0133     		adds	r3, r3, #1
 562 0012 134A     		ldr	r2, .L24+4
 563 0014 1360     		str	r3, [r2]
 564 0016 02E0     		b	.L20
 565              	.L19:
 132:main.c        ****     } else {
 133:main.c        ****         stopBuffer = 0;
 566              		.loc 1 133 0
 567 0018 114B     		ldr	r3, .L24+4
 568 001a 0022     		movs	r2, #0
 569 001c 1A60     		str	r2, [r3]
 570              	.L20:
 134:main.c        ****     }
 135:main.c        ****     if (currentDirection == Forward || currentDirection == AdjustToTheLeft || currentDirection ==  
 571              		.loc 1 135 0
 572 001e 0F4B     		ldr	r3, .L24
 573 0020 1B78     		ldrb	r3, [r3]	@ zero_extendqisi2
 574 0022 002B     		cmp	r3, #0
 575 0024 07D0     		beq	.L21
 576              		.loc 1 135 0 is_stmt 0 discriminator 1
 577 0026 0D4B     		ldr	r3, .L24
 578 0028 1B78     		ldrb	r3, [r3]	@ zero_extendqisi2
 579 002a 032B     		cmp	r3, #3
 580 002c 03D0     		beq	.L21
 581              		.loc 1 135 0 discriminator 2
 582 002e 0B4B     		ldr	r3, .L24
 583 0030 1B78     		ldrb	r3, [r3]	@ zero_extendqisi2
 584 0032 042B     		cmp	r3, #4
 585 0034 06D1     		bne	.L22
 586              	.L21:
 136:main.c        ****         forwardBuffer = forwardBuffer + 1;
 587              		.loc 1 136 0 is_stmt 1
 588 0036 0B4B     		ldr	r3, .L24+8
 589 0038 1B88     		ldrh	r3, [r3]
 590 003a 0133     		adds	r3, r3, #1
 591 003c 9AB2     		uxth	r2, r3
 592 003e 094B     		ldr	r3, .L24+8
ARM GAS  C:\Users\ikui753\AppData\Local\Temp\ccYGTKr5.s 			page 14


 593 0040 1A80     		strh	r2, [r3]	@ movhi
 594 0042 02E0     		b	.L23
 595              	.L22:
 137:main.c        ****     } else {
 138:main.c        ****         forwardBuffer = 0;    
 596              		.loc 1 138 0
 597 0044 074B     		ldr	r3, .L24+8
 598 0046 0022     		movs	r2, #0
 599 0048 1A80     		strh	r2, [r3]	@ movhi
 600              	.L23:
 139:main.c        ****     }
 140:main.c        ****     SetRobotMovement(); 
 601              		.loc 1 140 0
 602 004a FFF7FEFF 		bl	SetRobotMovement
 141:main.c        ****     ResetSensorFlags(); // Reset Sensor Flags for Next rising Eddge
 603              		.loc 1 141 0
 604 004e FFF7FEFF 		bl	ResetSensorFlags
 142:main.c        ****     Timer_LED_ReadStatusRegister();
 605              		.loc 1 142 0
 606 0052 FFF7FEFF 		bl	Timer_LED_ReadStatusRegister
 143:main.c        **** }
 607              		.loc 1 143 0
 608 0056 00BF     		nop
 609 0058 80BD     		pop	{r7, pc}
 610              	.L25:
 611 005a 00BF     		.align	2
 612              	.L24:
 613 005c 00000000 		.word	currentDirection
 614 0060 00000000 		.word	stopBuffer
 615 0064 00000000 		.word	forwardBuffer
 616              		.cfi_endproc
 617              	.LFE69:
 618              		.size	TIMER_FINISH, .-TIMER_FINISH
 619              		.section	.text.main,"ax",%progbits
 620              		.align	2
 621              		.global	main
 622              		.thumb
 623              		.thumb_func
 624              		.type	main, %function
 625              	main:
 626              	.LFB70:
 144:main.c        **** 
 145:main.c        **** 
 146:main.c        **** int main() {
 627              		.loc 1 146 0
 628              		.cfi_startproc
 629              		@ args = 0, pretend = 0, frame = 24
 630              		@ frame_needed = 1, uses_anonymous_args = 0
 631 0000 B0B5     		push	{r4, r5, r7, lr}
 632              		.cfi_def_cfa_offset 16
 633              		.cfi_offset 4, -16
 634              		.cfi_offset 5, -12
 635              		.cfi_offset 7, -8
 636              		.cfi_offset 14, -4
 637 0002 86B0     		sub	sp, sp, #24
 638              		.cfi_def_cfa_offset 40
 639 0004 00AF     		add	r7, sp, #0
ARM GAS  C:\Users\ikui753\AppData\Local\Temp\ccYGTKr5.s 			page 15


 640              		.cfi_def_cfa_register 7
 147:main.c        **** // ----- INITIALIZATIONS ----------
 148:main.c        ****     CYGlobalIntEnable;
 641              		.loc 1 148 0
 642              		.syntax unified
 643              	@ 148 "main.c" 1
 644 0006 62B6     		CPSIE   i
 645              	@ 0 "" 2
 149:main.c        ****     ResetSensorFlags();
 646              		.loc 1 149 0
 647              		.thumb
 648              		.syntax unified
 649 0008 FFF7FEFF 		bl	ResetSensorFlags
 150:main.c        ****     init(); // initialise clocks, pwms, adc, dac etc- done in header file
 650              		.loc 1 150 0
 651 000c FFF7FEFF 		bl	init
 151:main.c        ****     
 152:main.c        ****     // MAKE SURE TO CHANGE ORIENTATION
 153:main.c        ****     instructionList = findPathNewOrientation(map, food_list, currentFoodListIndex, Down); // initia
 652              		.loc 1 153 0
 653 0010 2B4B     		ldr	r3, .L29
 654 0012 1B78     		ldrb	r3, [r3]	@ zero_extendqisi2
 655 0014 1A46     		mov	r2, r3
 656 0016 0123     		movs	r3, #1
 657 0018 2A49     		ldr	r1, .L29+4
 658 001a 2B48     		ldr	r0, .L29+8
 659 001c FFF7FEFF 		bl	findPathNewOrientation
 660 0020 0246     		mov	r2, r0
 661 0022 2A4B     		ldr	r3, .L29+12
 662 0024 1A60     		str	r2, [r3]
 154:main.c        ****     numSteps = instructionsListLength();
 663              		.loc 1 154 0
 664 0026 FFF7FEFF 		bl	instructionsListLength
 665 002a 0346     		mov	r3, r0
 666 002c 1A46     		mov	r2, r3
 667 002e 284B     		ldr	r3, .L29+16
 668 0030 1A60     		str	r2, [r3]
 155:main.c        ****     
 156:main.c        ****     currentInstruction = GetInstructionAtIndex();
 669              		.loc 1 156 0
 670 0032 284C     		ldr	r4, .L29+20
 671 0034 3B46     		mov	r3, r7
 672 0036 1846     		mov	r0, r3
 673 0038 FFF7FEFF 		bl	GetInstructionAtIndex
 674 003c 2546     		mov	r5, r4
 675 003e 3C46     		mov	r4, r7
 676 0040 0FCC     		ldmia	r4!, {r0, r1, r2, r3}
 677 0042 0FC5     		stmia	r5!, {r0, r1, r2, r3}
 678 0044 2368     		ldr	r3, [r4]
 679 0046 2B60     		str	r3, [r5]
 157:main.c        ****     
 158:main.c        ****     currentIgnoreL = instructionList[instructionIndex].ignoreL;
 680              		.loc 1 158 0
 681 0048 204B     		ldr	r3, .L29+12
 682 004a 1968     		ldr	r1, [r3]
 683 004c 224B     		ldr	r3, .L29+24
 684 004e 1A68     		ldr	r2, [r3]
ARM GAS  C:\Users\ikui753\AppData\Local\Temp\ccYGTKr5.s 			page 16


 685 0050 1346     		mov	r3, r2
 686 0052 9B00     		lsls	r3, r3, #2
 687 0054 1344     		add	r3, r3, r2
 688 0056 9B00     		lsls	r3, r3, #2
 689 0058 0B44     		add	r3, r3, r1
 690 005a 5B68     		ldr	r3, [r3, #4]
 691 005c DAB2     		uxtb	r2, r3
 692 005e 1F4B     		ldr	r3, .L29+28
 693 0060 1A70     		strb	r2, [r3]
 159:main.c        ****     currentIgnoreR = instructionList[instructionIndex].ignoreR;
 694              		.loc 1 159 0
 695 0062 1A4B     		ldr	r3, .L29+12
 696 0064 1968     		ldr	r1, [r3]
 697 0066 1C4B     		ldr	r3, .L29+24
 698 0068 1A68     		ldr	r2, [r3]
 699 006a 1346     		mov	r3, r2
 700 006c 9B00     		lsls	r3, r3, #2
 701 006e 1344     		add	r3, r3, r2
 702 0070 9B00     		lsls	r3, r3, #2
 703 0072 0B44     		add	r3, r3, r1
 704 0074 9B68     		ldr	r3, [r3, #8]
 705 0076 DAB2     		uxtb	r2, r3
 706 0078 194B     		ldr	r3, .L29+32
 707 007a 1A70     		strb	r2, [r3]
 160:main.c        ****     
 161:main.c        ****     isr_speed_StartEx(speedTimer); // start interrupt
 708              		.loc 1 161 0
 709 007c 1948     		ldr	r0, .L29+36
 710 007e FFF7FEFF 		bl	isr_speed_StartEx
 162:main.c        ****     isr_Timer_LED_StartEx(TIMER_FINISH);
 711              		.loc 1 162 0
 712 0082 1948     		ldr	r0, .L29+40
 713 0084 FFF7FEFF 		bl	isr_Timer_LED_StartEx
 163:main.c        ****     S3_detected_StartEx(S3_DETECTED);
 714              		.loc 1 163 0
 715 0088 1848     		ldr	r0, .L29+44
 716 008a FFF7FEFF 		bl	S3_detected_StartEx
 164:main.c        ****     S4_detected_StartEx(S4_DETECTED);
 717              		.loc 1 164 0
 718 008e 1848     		ldr	r0, .L29+48
 719 0090 FFF7FEFF 		bl	S4_detected_StartEx
 165:main.c        ****     S5_detected_StartEx(S5_DETECTED);
 720              		.loc 1 165 0
 721 0094 1748     		ldr	r0, .L29+52
 722 0096 FFF7FEFF 		bl	S5_detected_StartEx
 166:main.c        ****     S6_detected_StartEx(S6_DETECTED);
 723              		.loc 1 166 0
 724 009a 1748     		ldr	r0, .L29+56
 725 009c FFF7FEFF 		bl	S6_detected_StartEx
 167:main.c        ****     Timer_LED_Start();
 726              		.loc 1 167 0
 727 00a0 FFF7FEFF 		bl	Timer_LED_Start
 728              	.L28:
 168:main.c        **** 
 169:main.c        ****     for(;;)
 170:main.c        ****     {
 171:main.c        ****         if(timerInt == 1) {
ARM GAS  C:\Users\ikui753\AppData\Local\Temp\ccYGTKr5.s 			page 17


 729              		.loc 1 171 0
 730 00a4 154B     		ldr	r3, .L29+60
 731 00a6 1B68     		ldr	r3, [r3]
 732 00a8 012B     		cmp	r3, #1
 733 00aa FBD1     		bne	.L28
 172:main.c        ****             timerInt = 0;
 734              		.loc 1 172 0
 735 00ac 134B     		ldr	r3, .L29+60
 736 00ae 0022     		movs	r2, #0
 737 00b0 1A60     		str	r2, [r3]
 173:main.c        ****             // calculate RPM of M2
 174:main.c        ****             quadCountToRPM(quadDec2Count);
 738              		.loc 1 174 0
 739 00b2 134B     		ldr	r3, .L29+64
 740 00b4 1B68     		ldr	r3, [r3]
 741 00b6 9BB2     		uxth	r3, r3
 742 00b8 1846     		mov	r0, r3
 743 00ba FFF7FEFF 		bl	quadCountToRPM
 175:main.c        ****             //sprintf(buffer, "%lu", totalDistance);
 176:main.c        ****             //usbPutString(buffer);
 177:main.c        ****             //usbPutString(" ");
 178:main.c        ****         }
 179:main.c        ****     }
 744              		.loc 1 179 0
 745 00be F1E7     		b	.L28
 746              	.L30:
 747              		.align	2
 748              	.L29:
 749 00c0 00000000 		.word	currentFoodListIndex
 750 00c4 00000000 		.word	food_list
 751 00c8 00000000 		.word	map
 752 00cc 00000000 		.word	instructionList
 753 00d0 00000000 		.word	numSteps
 754 00d4 00000000 		.word	currentInstruction
 755 00d8 14000000 		.word	instructionIndex
 756 00dc 3E000000 		.word	currentIgnoreL
 757 00e0 45000000 		.word	currentIgnoreR
 758 00e4 00000000 		.word	speedTimer
 759 00e8 00000000 		.word	TIMER_FINISH
 760 00ec 00000000 		.word	S3_DETECTED
 761 00f0 00000000 		.word	S4_DETECTED
 762 00f4 00000000 		.word	S5_DETECTED
 763 00f8 00000000 		.word	S6_DETECTED
 764 00fc 00000000 		.word	timerInt
 765 0100 00000000 		.word	quadDec2Count
 766              		.cfi_endproc
 767              	.LFE70:
 768              		.size	main, .-main
 769              		.global	__aeabi_fmul
 770              		.global	__aeabi_f2iz
 771              		.section	.text.quadCountToRPM,"ax",%progbits
 772              		.align	2
 773              		.global	quadCountToRPM
 774              		.thumb
 775              		.thumb_func
 776              		.type	quadCountToRPM, %function
 777              	quadCountToRPM:
ARM GAS  C:\Users\ikui753\AppData\Local\Temp\ccYGTKr5.s 			page 18


 778              	.LFB71:
 180:main.c        ****     return 0;
 181:main.c        **** }
 182:main.c        **** 
 183:main.c        **** // Calculations
 184:main.c        **** //* ========================================
 185:main.c        **** int16 quadCountToRPM(uint16 count) {
 779              		.loc 1 185 0
 780              		.cfi_startproc
 781              		@ args = 0, pretend = 0, frame = 16
 782              		@ frame_needed = 1, uses_anonymous_args = 0
 783 0000 90B5     		push	{r4, r7, lr}
 784              		.cfi_def_cfa_offset 12
 785              		.cfi_offset 4, -12
 786              		.cfi_offset 7, -8
 787              		.cfi_offset 14, -4
 788 0002 85B0     		sub	sp, sp, #20
 789              		.cfi_def_cfa_offset 32
 790 0004 00AF     		add	r7, sp, #0
 791              		.cfi_def_cfa_register 7
 792 0006 0346     		mov	r3, r0
 793 0008 FB80     		strh	r3, [r7, #6]	@ movhi
 186:main.c        ****     float cps = count/57.00;
 794              		.loc 1 186 0
 795 000a FB88     		ldrh	r3, [r7, #6]
 796 000c 1846     		mov	r0, r3
 797 000e FFF7FEFF 		bl	__aeabi_i2d
 798 0012 4FF00002 		mov	r2, #0
 799 0016 0D4B     		ldr	r3, .L33
 800 0018 FFF7FEFF 		bl	__aeabi_ddiv
 801 001c 0346     		mov	r3, r0
 802 001e 0C46     		mov	r4, r1
 803 0020 1846     		mov	r0, r3
 804 0022 2146     		mov	r1, r4
 805 0024 FFF7FEFF 		bl	__aeabi_d2f
 806 0028 0346     		mov	r3, r0
 807 002a FB60     		str	r3, [r7, #12]	@ float
 187:main.c        ****     int16 rpm = (int16)(cps*15); // rpm value
 808              		.loc 1 187 0
 809 002c 0849     		ldr	r1, .L33+4
 810 002e F868     		ldr	r0, [r7, #12]	@ float
 811 0030 FFF7FEFF 		bl	__aeabi_fmul
 812 0034 0346     		mov	r3, r0
 813 0036 1846     		mov	r0, r3
 814 0038 FFF7FEFF 		bl	__aeabi_f2iz
 815 003c 0346     		mov	r3, r0
 816 003e 7B81     		strh	r3, [r7, #10]	@ movhi
 188:main.c        ****     //sprintf(buffer, "%d", rpm); // store in buffer
 189:main.c        ****     return rpm;
 817              		.loc 1 189 0
 818 0040 B7F90A30 		ldrsh	r3, [r7, #10]
 190:main.c        ****     //usbPutString(buffer);
 191:main.c        ****     //usbPutString("rpm ");
 192:main.c        **** }
 819              		.loc 1 192 0
 820 0044 1846     		mov	r0, r3
 821 0046 1437     		adds	r7, r7, #20
ARM GAS  C:\Users\ikui753\AppData\Local\Temp\ccYGTKr5.s 			page 19


 822              		.cfi_def_cfa_offset 12
 823 0048 BD46     		mov	sp, r7
 824              		.cfi_def_cfa_register 13
 825              		@ sp needed
 826 004a 90BD     		pop	{r4, r7, pc}
 827              	.L34:
 828              		.align	2
 829              	.L33:
 830 004c 00804C40 		.word	1078755328
 831 0050 00007041 		.word	1097859072
 832              		.cfi_endproc
 833              	.LFE71:
 834              		.size	quadCountToRPM, .-quadCountToRPM
 835              		.section	.text.ResetSensorFlags,"ax",%progbits
 836              		.align	2
 837              		.global	ResetSensorFlags
 838              		.thumb
 839              		.thumb_func
 840              		.type	ResetSensorFlags, %function
 841              	ResetSensorFlags:
 842              	.LFB72:
 193:main.c        **** 
 194:main.c        **** // Resets all sensor flags to 0 - i.e. currently out of map
 195:main.c        **** void ResetSensorFlags() {
 843              		.loc 1 195 0
 844              		.cfi_startproc
 845              		@ args = 0, pretend = 0, frame = 0
 846              		@ frame_needed = 1, uses_anonymous_args = 0
 847              		@ link register save eliminated.
 848 0000 80B4     		push	{r7}
 849              		.cfi_def_cfa_offset 4
 850              		.cfi_offset 7, -4
 851 0002 00AF     		add	r7, sp, #0
 852              		.cfi_def_cfa_register 7
 196:main.c        ****     s3 = 0;
 853              		.loc 1 196 0
 854 0004 074B     		ldr	r3, .L36
 855 0006 0022     		movs	r2, #0
 856 0008 1A70     		strb	r2, [r3]
 197:main.c        ****     s4 = 0;
 857              		.loc 1 197 0
 858 000a 074B     		ldr	r3, .L36+4
 859 000c 0022     		movs	r2, #0
 860 000e 1A70     		strb	r2, [r3]
 198:main.c        ****     s5 = 0;
 861              		.loc 1 198 0
 862 0010 064B     		ldr	r3, .L36+8
 863 0012 0022     		movs	r2, #0
 864 0014 1A70     		strb	r2, [r3]
 199:main.c        ****     s6 = 0;
 865              		.loc 1 199 0
 866 0016 064B     		ldr	r3, .L36+12
 867 0018 0022     		movs	r2, #0
 868 001a 1A70     		strb	r2, [r3]
 200:main.c        **** }
 869              		.loc 1 200 0
 870 001c 00BF     		nop
ARM GAS  C:\Users\ikui753\AppData\Local\Temp\ccYGTKr5.s 			page 20


 871 001e BD46     		mov	sp, r7
 872              		.cfi_def_cfa_register 13
 873              		@ sp needed
 874 0020 80BC     		pop	{r7}
 875              		.cfi_restore 7
 876              		.cfi_def_cfa_offset 0
 877 0022 7047     		bx	lr
 878              	.L37:
 879              		.align	2
 880              	.L36:
 881 0024 00000000 		.word	s3
 882 0028 00000000 		.word	s4
 883 002c 00000000 		.word	s5
 884 0030 00000000 		.word	s6
 885              		.cfi_endproc
 886              	.LFE72:
 887              		.size	ResetSensorFlags, .-ResetSensorFlags
 888              		.global	xBlocksize
 889              		.data
 890 0046 0000     		.align	2
 891              		.type	xBlocksize, %object
 892              		.size	xBlocksize, 4
 893              	xBlocksize:
 894 0048 0000F442 		.word	1123287040
 895              		.global	yBlocksize
 896              		.align	2
 897              		.type	yBlocksize, %object
 898              		.size	yBlocksize, 4
 899              	yBlocksize:
 900 004c 00009042 		.word	1116733440
 901              		.global	currentRow
 902              		.type	currentRow, %object
 903              		.size	currentRow, 1
 904              	currentRow:
 905 0050 01       		.byte	1
 906              		.global	currentCol
 907              		.type	currentCol, %object
 908              		.size	currentCol, 1
 909              	currentCol:
 910 0051 01       		.byte	1
 911              		.global	stoppedAfterTurn
 912              		.bss
 913              		.type	stoppedAfterTurn, %object
 914              		.size	stoppedAfterTurn, 1
 915              	stoppedAfterTurn:
 916 0050 00       		.space	1
 917              		.global	ignoreSensor
 918              		.type	ignoreSensor, %object
 919              		.size	ignoreSensor, 1
 920              	ignoreSensor:
 921 0051 00       		.space	1
 922              		.section	.text.ForwardCourseCorrection,"ax",%progbits
 923              		.align	2
 924              		.global	ForwardCourseCorrection
 925              		.thumb
 926              		.thumb_func
 927              		.type	ForwardCourseCorrection, %function
ARM GAS  C:\Users\ikui753\AppData\Local\Temp\ccYGTKr5.s 			page 21


 928              	ForwardCourseCorrection:
 929              	.LFB73:
 201:main.c        **** 
 202:main.c        **** float xBlocksize = 122; // 122 mm
 203:main.c        **** float yBlocksize = 72; // 80 mm
 204:main.c        **** uint8 currentRow = 1;
 205:main.c        **** uint8 currentCol = 1;
 206:main.c        **** 
 207:main.c        **** uint8 stoppedAfterTurn = 0;
 208:main.c        **** uint8 ignoreSensor = 0;
 209:main.c        **** // needs to make sure robot is going in the correct direction (supplied from instruction)
 210:main.c        **** 
 211:main.c        **** enum RobotMovement ForwardCourseCorrection();
 212:main.c        **** enum RobotMovement ForwardCourseCorrection() {
 930              		.loc 1 212 0
 931              		.cfi_startproc
 932              		@ args = 0, pretend = 0, frame = 0
 933              		@ frame_needed = 1, uses_anonymous_args = 0
 934              		@ link register save eliminated.
 935 0000 80B4     		push	{r7}
 936              		.cfi_def_cfa_offset 4
 937              		.cfi_offset 7, -4
 938 0002 00AF     		add	r7, sp, #0
 939              		.cfi_def_cfa_register 7
 213:main.c        ****     // if S5 and S6 are on black, move forward
 214:main.c        ****     if (!s5 && !s6) {
 940              		.loc 1 214 0
 941 0004 1C4B     		ldr	r3, .L46
 942 0006 1B78     		ldrb	r3, [r3]	@ zero_extendqisi2
 943 0008 002B     		cmp	r3, #0
 944 000a 0FD1     		bne	.L39
 945              		.loc 1 214 0 is_stmt 0 discriminator 1
 946 000c 1B4B     		ldr	r3, .L46+4
 947 000e 1B78     		ldrb	r3, [r3]	@ zero_extendqisi2
 948 0010 002B     		cmp	r3, #0
 949 0012 0BD1     		bne	.L39
 215:main.c        ****         if (previousDirection != AdjustToTheLeft) {
 950              		.loc 1 215 0 is_stmt 1
 951 0014 1A4B     		ldr	r3, .L46+8
 952 0016 1B78     		ldrb	r3, [r3]	@ zero_extendqisi2
 953 0018 032B     		cmp	r3, #3
 954 001a 01D0     		beq	.L40
 216:main.c        ****             return AdjustToTheLeft;
 955              		.loc 1 216 0
 956 001c 0323     		movs	r3, #3
 957 001e 26E0     		b	.L41
 958              	.L40:
 217:main.c        ****         }
 218:main.c        ****         if (previousDirection != AdjustToTheRight) {
 959              		.loc 1 218 0
 960 0020 174B     		ldr	r3, .L46+8
 961 0022 1B78     		ldrb	r3, [r3]	@ zero_extendqisi2
 962 0024 042B     		cmp	r3, #4
 963 0026 01D0     		beq	.L39
 219:main.c        ****             return AdjustToTheRight;    
 964              		.loc 1 219 0
 965 0028 0423     		movs	r3, #4
ARM GAS  C:\Users\ikui753\AppData\Local\Temp\ccYGTKr5.s 			page 22


 966 002a 20E0     		b	.L41
 967              	.L39:
 220:main.c        ****         }
 221:main.c        ****     }
 222:main.c        ****     
 223:main.c        ****     // ATTEMPTED COURSE CORRECTION WHEN BOTH ON WHITE
 224:main.c        ****     if (s5 && s6) {
 968              		.loc 1 224 0
 969 002c 124B     		ldr	r3, .L46
 970 002e 1B78     		ldrb	r3, [r3]	@ zero_extendqisi2
 971 0030 002B     		cmp	r3, #0
 972 0032 0FD0     		beq	.L42
 973              		.loc 1 224 0 is_stmt 0 discriminator 1
 974 0034 114B     		ldr	r3, .L46+4
 975 0036 1B78     		ldrb	r3, [r3]	@ zero_extendqisi2
 976 0038 002B     		cmp	r3, #0
 977 003a 0BD0     		beq	.L42
 225:main.c        ****         if (previousDirection != AdjustToTheLeft) {
 978              		.loc 1 225 0 is_stmt 1
 979 003c 104B     		ldr	r3, .L46+8
 980 003e 1B78     		ldrb	r3, [r3]	@ zero_extendqisi2
 981 0040 032B     		cmp	r3, #3
 982 0042 01D0     		beq	.L43
 226:main.c        ****             return AdjustToTheLeft;
 983              		.loc 1 226 0
 984 0044 0323     		movs	r3, #3
 985 0046 12E0     		b	.L41
 986              	.L43:
 227:main.c        ****         }
 228:main.c        ****         if (previousDirection != AdjustToTheRight) {
 987              		.loc 1 228 0
 988 0048 0D4B     		ldr	r3, .L46+8
 989 004a 1B78     		ldrb	r3, [r3]	@ zero_extendqisi2
 990 004c 042B     		cmp	r3, #4
 991 004e 01D0     		beq	.L42
 229:main.c        ****             return AdjustToTheRight;    
 992              		.loc 1 229 0
 993 0050 0423     		movs	r3, #4
 994 0052 0CE0     		b	.L41
 995              	.L42:
 230:main.c        ****         }
 231:main.c        ****     }
 232:main.c        **** 
 233:main.c        ****     // if S5 OR S6 are on white, adjust accordingly
 234:main.c        ****     if (s5) {
 996              		.loc 1 234 0
 997 0054 084B     		ldr	r3, .L46
 998 0056 1B78     		ldrb	r3, [r3]	@ zero_extendqisi2
 999 0058 002B     		cmp	r3, #0
 1000 005a 01D0     		beq	.L44
 235:main.c        ****         return AdjustToTheRight;    
 1001              		.loc 1 235 0
 1002 005c 0423     		movs	r3, #4
 1003 005e 06E0     		b	.L41
 1004              	.L44:
 236:main.c        ****     }
 237:main.c        ****     if (s6) {
ARM GAS  C:\Users\ikui753\AppData\Local\Temp\ccYGTKr5.s 			page 23


 1005              		.loc 1 237 0
 1006 0060 064B     		ldr	r3, .L46+4
 1007 0062 1B78     		ldrb	r3, [r3]	@ zero_extendqisi2
 1008 0064 002B     		cmp	r3, #0
 1009 0066 01D0     		beq	.L45
 238:main.c        ****         return AdjustToTheLeft;    
 1010              		.loc 1 238 0
 1011 0068 0323     		movs	r3, #3
 1012 006a 00E0     		b	.L41
 1013              	.L45:
 239:main.c        ****     }
 240:main.c        ****    
 241:main.c        ****     // We should never actually get to this point
 242:main.c        ****     // If S5 and S6 condition are GONE, then we will reach this point.
 243:main.c        ****     return Stop;
 1014              		.loc 1 243 0
 1015 006c 0523     		movs	r3, #5
 1016              	.L41:
 244:main.c        **** }
 1017              		.loc 1 244 0
 1018 006e 1846     		mov	r0, r3
 1019 0070 BD46     		mov	sp, r7
 1020              		.cfi_def_cfa_register 13
 1021              		@ sp needed
 1022 0072 80BC     		pop	{r7}
 1023              		.cfi_restore 7
 1024              		.cfi_def_cfa_offset 0
 1025 0074 7047     		bx	lr
 1026              	.L47:
 1027 0076 00BF     		.align	2
 1028              	.L46:
 1029 0078 00000000 		.word	s5
 1030 007c 00000000 		.word	s6
 1031 0080 00000000 		.word	previousDirection
 1032              		.cfi_endproc
 1033              	.LFE73:
 1034              		.size	ForwardCourseCorrection, .-ForwardCourseCorrection
 1035              		.global	lastDirectionAfter180
 1036              		.data
 1037              		.type	lastDirectionAfter180, %object
 1038              		.size	lastDirectionAfter180, 1
 1039              	lastDirectionAfter180:
 1040 0052 06       		.byte	6
 1041              		.section	.text.SpinCourseCorrection,"ax",%progbits
 1042              		.align	2
 1043              		.global	SpinCourseCorrection
 1044              		.thumb
 1045              		.thumb_func
 1046              		.type	SpinCourseCorrection, %function
 1047              	SpinCourseCorrection:
 1048              	.LFB74:
 245:main.c        **** 
 246:main.c        **** enum RobotMovement SpinCourseCorrection();
 247:main.c        **** 
 248:main.c        **** enum RobotMovement lastDirectionAfter180 = Unknown;
 249:main.c        **** 
 250:main.c        **** enum RobotMovement SpinCourseCorrection() {
ARM GAS  C:\Users\ikui753\AppData\Local\Temp\ccYGTKr5.s 			page 24


 1049              		.loc 1 250 0
 1050              		.cfi_startproc
 1051              		@ args = 0, pretend = 0, frame = 0
 1052              		@ frame_needed = 1, uses_anonymous_args = 0
 1053              		@ link register save eliminated.
 1054 0000 80B4     		push	{r7}
 1055              		.cfi_def_cfa_offset 4
 1056              		.cfi_offset 7, -4
 1057 0002 00AF     		add	r7, sp, #0
 1058              		.cfi_def_cfa_register 7
 251:main.c        ****     // Set first iteration flag.
 252:main.c        ****     if (!spinCourseCorrectionStarted) {
 1059              		.loc 1 252 0
 1060 0004 184B     		ldr	r3, .L55
 1061 0006 1B78     		ldrb	r3, [r3]
 1062 0008 DBB2     		uxtb	r3, r3
 1063 000a 002B     		cmp	r3, #0
 1064 000c 06D1     		bne	.L49
 253:main.c        ****         spinCourseCorrectionStarted = 1;    
 1065              		.loc 1 253 0
 1066 000e 164B     		ldr	r3, .L55
 1067 0010 0122     		movs	r2, #1
 1068 0012 1A70     		strb	r2, [r3]
 254:main.c        ****         lastDirectionAfter180 = currentDirection;
 1069              		.loc 1 254 0
 1070 0014 154B     		ldr	r3, .L55+4
 1071 0016 1A78     		ldrb	r2, [r3]	@ zero_extendqisi2
 1072 0018 154B     		ldr	r3, .L55+8
 1073 001a 1A70     		strb	r2, [r3]
 1074              	.L49:
 255:main.c        ****     }
 256:main.c        ****     
 257:main.c        ****     // ATTEMPTED COURSE CORRECTION WHEN BOTH ON WHITE
 258:main.c        ****     if (s5 && s6) {
 1075              		.loc 1 258 0
 1076 001c 154B     		ldr	r3, .L55+12
 1077 001e 1B78     		ldrb	r3, [r3]	@ zero_extendqisi2
 1078 0020 002B     		cmp	r3, #0
 1079 0022 0FD0     		beq	.L50
 1080              		.loc 1 258 0 is_stmt 0 discriminator 1
 1081 0024 144B     		ldr	r3, .L55+16
 1082 0026 1B78     		ldrb	r3, [r3]	@ zero_extendqisi2
 1083 0028 002B     		cmp	r3, #0
 1084 002a 0BD0     		beq	.L50
 259:main.c        ****         if (lastDirectionAfter180 != TurnLeft) {
 1085              		.loc 1 259 0 is_stmt 1
 1086 002c 104B     		ldr	r3, .L55+8
 1087 002e 1B78     		ldrb	r3, [r3]	@ zero_extendqisi2
 1088 0030 022B     		cmp	r3, #2
 1089 0032 01D0     		beq	.L51
 260:main.c        ****             return TurnLeft;
 1090              		.loc 1 260 0
 1091 0034 0223     		movs	r3, #2
 1092 0036 12E0     		b	.L52
 1093              	.L51:
 261:main.c        ****         }
 262:main.c        ****         if (lastDirectionAfter180 != TurnRight) {
ARM GAS  C:\Users\ikui753\AppData\Local\Temp\ccYGTKr5.s 			page 25


 1094              		.loc 1 262 0
 1095 0038 0D4B     		ldr	r3, .L55+8
 1096 003a 1B78     		ldrb	r3, [r3]	@ zero_extendqisi2
 1097 003c 012B     		cmp	r3, #1
 1098 003e 01D0     		beq	.L50
 263:main.c        ****             return TurnRight;    
 1099              		.loc 1 263 0
 1100 0040 0123     		movs	r3, #1
 1101 0042 0CE0     		b	.L52
 1102              	.L50:
 264:main.c        ****         }
 265:main.c        ****     }
 266:main.c        **** 
 267:main.c        ****     // if S5 OR S6 are on white, adjust accordingly
 268:main.c        ****     if (s5) {
 1103              		.loc 1 268 0
 1104 0044 0B4B     		ldr	r3, .L55+12
 1105 0046 1B78     		ldrb	r3, [r3]	@ zero_extendqisi2
 1106 0048 002B     		cmp	r3, #0
 1107 004a 01D0     		beq	.L53
 269:main.c        ****         return TurnRight;    
 1108              		.loc 1 269 0
 1109 004c 0123     		movs	r3, #1
 1110 004e 06E0     		b	.L52
 1111              	.L53:
 270:main.c        ****     }
 271:main.c        ****     if (s6) {
 1112              		.loc 1 271 0
 1113 0050 094B     		ldr	r3, .L55+16
 1114 0052 1B78     		ldrb	r3, [r3]	@ zero_extendqisi2
 1115 0054 002B     		cmp	r3, #0
 1116 0056 01D0     		beq	.L54
 272:main.c        ****         return TurnLeft;    
 1117              		.loc 1 272 0
 1118 0058 0223     		movs	r3, #2
 1119 005a 00E0     		b	.L52
 1120              	.L54:
 273:main.c        ****     }
 274:main.c        ****    
 275:main.c        ****     // We should never actually get to this point
 276:main.c        ****     // If S5 and S6 condition are GONE, then we will reach this point.
 277:main.c        ****     return Stop;
 1121              		.loc 1 277 0
 1122 005c 0523     		movs	r3, #5
 1123              	.L52:
 278:main.c        **** }
 1124              		.loc 1 278 0
 1125 005e 1846     		mov	r0, r3
 1126 0060 BD46     		mov	sp, r7
 1127              		.cfi_def_cfa_register 13
 1128              		@ sp needed
 1129 0062 80BC     		pop	{r7}
 1130              		.cfi_restore 7
 1131              		.cfi_def_cfa_offset 0
 1132 0064 7047     		bx	lr
 1133              	.L56:
 1134 0066 00BF     		.align	2
ARM GAS  C:\Users\ikui753\AppData\Local\Temp\ccYGTKr5.s 			page 26


 1135              	.L55:
 1136 0068 3D000000 		.word	spinCourseCorrectionStarted
 1137 006c 00000000 		.word	currentDirection
 1138 0070 00000000 		.word	lastDirectionAfter180
 1139 0074 00000000 		.word	s5
 1140 0078 00000000 		.word	s6
 1141              		.cfi_endproc
 1142              	.LFE74:
 1143              		.size	SpinCourseCorrection, .-SpinCourseCorrection
 1144              		.section	.text.SpinTurnCourseCorrection,"ax",%progbits
 1145              		.align	2
 1146              		.global	SpinTurnCourseCorrection
 1147              		.thumb
 1148              		.thumb_func
 1149              		.type	SpinTurnCourseCorrection, %function
 1150              	SpinTurnCourseCorrection:
 1151              	.LFB75:
 279:main.c        **** enum RobotMovement SpinTurnCourseCorrection();
 280:main.c        **** enum RobotMovement SpinTurnCourseCorrection() {
 1152              		.loc 1 280 0
 1153              		.cfi_startproc
 1154              		@ args = 0, pretend = 0, frame = 0
 1155              		@ frame_needed = 1, uses_anonymous_args = 0
 1156              		@ link register save eliminated.
 1157 0000 80B4     		push	{r7}
 1158              		.cfi_def_cfa_offset 4
 1159              		.cfi_offset 7, -4
 1160 0002 00AF     		add	r7, sp, #0
 1161              		.cfi_def_cfa_register 7
 281:main.c        ****     // if S5 and S6 are on black, move forward
 282:main.c        ****     if (!s5 && !s6) {
 1162              		.loc 1 282 0
 1163 0004 1C4B     		ldr	r3, .L65
 1164 0006 1B78     		ldrb	r3, [r3]	@ zero_extendqisi2
 1165 0008 002B     		cmp	r3, #0
 1166 000a 0FD1     		bne	.L58
 1167              		.loc 1 282 0 is_stmt 0 discriminator 1
 1168 000c 1B4B     		ldr	r3, .L65+4
 1169 000e 1B78     		ldrb	r3, [r3]	@ zero_extendqisi2
 1170 0010 002B     		cmp	r3, #0
 1171 0012 0BD1     		bne	.L58
 283:main.c        ****         if (previousDirection != AdjustToTheLeft) {
 1172              		.loc 1 283 0 is_stmt 1
 1173 0014 1A4B     		ldr	r3, .L65+8
 1174 0016 1B78     		ldrb	r3, [r3]	@ zero_extendqisi2
 1175 0018 032B     		cmp	r3, #3
 1176 001a 01D0     		beq	.L59
 284:main.c        ****             return TurnLeft;
 1177              		.loc 1 284 0
 1178 001c 0223     		movs	r3, #2
 1179 001e 26E0     		b	.L60
 1180              	.L59:
 285:main.c        ****         }
 286:main.c        ****         if (previousDirection != AdjustToTheRight) {
 1181              		.loc 1 286 0
 1182 0020 174B     		ldr	r3, .L65+8
 1183 0022 1B78     		ldrb	r3, [r3]	@ zero_extendqisi2
ARM GAS  C:\Users\ikui753\AppData\Local\Temp\ccYGTKr5.s 			page 27


 1184 0024 042B     		cmp	r3, #4
 1185 0026 01D0     		beq	.L58
 287:main.c        ****             return TurnRight;    
 1186              		.loc 1 287 0
 1187 0028 0123     		movs	r3, #1
 1188 002a 20E0     		b	.L60
 1189              	.L58:
 288:main.c        ****         }
 289:main.c        ****     }
 290:main.c        ****     
 291:main.c        ****     // ATTEMPTED COURSE CORRECTION WHEN BOTH ON WHITE
 292:main.c        ****     if (s5 && s6) {
 1190              		.loc 1 292 0
 1191 002c 124B     		ldr	r3, .L65
 1192 002e 1B78     		ldrb	r3, [r3]	@ zero_extendqisi2
 1193 0030 002B     		cmp	r3, #0
 1194 0032 0FD0     		beq	.L61
 1195              		.loc 1 292 0 is_stmt 0 discriminator 1
 1196 0034 114B     		ldr	r3, .L65+4
 1197 0036 1B78     		ldrb	r3, [r3]	@ zero_extendqisi2
 1198 0038 002B     		cmp	r3, #0
 1199 003a 0BD0     		beq	.L61
 293:main.c        ****         if (previousDirection != AdjustToTheLeft) {
 1200              		.loc 1 293 0 is_stmt 1
 1201 003c 104B     		ldr	r3, .L65+8
 1202 003e 1B78     		ldrb	r3, [r3]	@ zero_extendqisi2
 1203 0040 032B     		cmp	r3, #3
 1204 0042 01D0     		beq	.L62
 294:main.c        ****             return TurnLeft;
 1205              		.loc 1 294 0
 1206 0044 0223     		movs	r3, #2
 1207 0046 12E0     		b	.L60
 1208              	.L62:
 295:main.c        ****         }
 296:main.c        ****         if (previousDirection != AdjustToTheRight) {
 1209              		.loc 1 296 0
 1210 0048 0D4B     		ldr	r3, .L65+8
 1211 004a 1B78     		ldrb	r3, [r3]	@ zero_extendqisi2
 1212 004c 042B     		cmp	r3, #4
 1213 004e 01D0     		beq	.L61
 297:main.c        ****             return TurnRight;    
 1214              		.loc 1 297 0
 1215 0050 0123     		movs	r3, #1
 1216 0052 0CE0     		b	.L60
 1217              	.L61:
 298:main.c        ****         }
 299:main.c        ****     }
 300:main.c        **** 
 301:main.c        ****     // if S5 OR S6 are on white, adjust accordingly
 302:main.c        ****     if (s5) {
 1218              		.loc 1 302 0
 1219 0054 084B     		ldr	r3, .L65
 1220 0056 1B78     		ldrb	r3, [r3]	@ zero_extendqisi2
 1221 0058 002B     		cmp	r3, #0
 1222 005a 01D0     		beq	.L63
 303:main.c        ****         return TurnRight;    
 1223              		.loc 1 303 0
ARM GAS  C:\Users\ikui753\AppData\Local\Temp\ccYGTKr5.s 			page 28


 1224 005c 0123     		movs	r3, #1
 1225 005e 06E0     		b	.L60
 1226              	.L63:
 304:main.c        ****     }
 305:main.c        ****     if (s6) {
 1227              		.loc 1 305 0
 1228 0060 064B     		ldr	r3, .L65+4
 1229 0062 1B78     		ldrb	r3, [r3]	@ zero_extendqisi2
 1230 0064 002B     		cmp	r3, #0
 1231 0066 01D0     		beq	.L64
 306:main.c        ****         return TurnLeft;    
 1232              		.loc 1 306 0
 1233 0068 0223     		movs	r3, #2
 1234 006a 00E0     		b	.L60
 1235              	.L64:
 307:main.c        ****     }
 308:main.c        ****    
 309:main.c        ****     // We should never actually get to this point
 310:main.c        ****     // If S5 and S6 condition are GONE, then we will reach this point.
 311:main.c        ****     return Stop;
 1236              		.loc 1 311 0
 1237 006c 0523     		movs	r3, #5
 1238              	.L60:
 312:main.c        **** }
 1239              		.loc 1 312 0
 1240 006e 1846     		mov	r0, r3
 1241 0070 BD46     		mov	sp, r7
 1242              		.cfi_def_cfa_register 13
 1243              		@ sp needed
 1244 0072 80BC     		pop	{r7}
 1245              		.cfi_restore 7
 1246              		.cfi_def_cfa_offset 0
 1247 0074 7047     		bx	lr
 1248              	.L66:
 1249 0076 00BF     		.align	2
 1250              	.L65:
 1251 0078 00000000 		.word	s5
 1252 007c 00000000 		.word	s6
 1253 0080 00000000 		.word	previousDirection
 1254              		.cfi_endproc
 1255              	.LFE75:
 1256              		.size	SpinTurnCourseCorrection, .-SpinTurnCourseCorrection
 1257              		.global	firstTurnIteration
 1258              		.bss
 1259              		.type	firstTurnIteration, %object
 1260              		.size	firstTurnIteration, 1
 1261              	firstTurnIteration:
 1262 0052 00       		.space	1
 1263              		.global	__aeabi_i2f
 1264              		.global	__aeabi_fcmpge
 1265              		.section	.text.GetMovementAccordingToInstruction,"ax",%progbits
 1266              		.align	2
 1267              		.global	GetMovementAccordingToInstruction
 1268              		.thumb
 1269              		.thumb_func
 1270              		.type	GetMovementAccordingToInstruction, %function
 1271              	GetMovementAccordingToInstruction:
ARM GAS  C:\Users\ikui753\AppData\Local\Temp\ccYGTKr5.s 			page 29


 1272              	.LFB76:
 313:main.c        **** 
 314:main.c        **** uint8 firstTurnIteration = 0;
 315:main.c        **** enum RobotMovement GetMovementAccordingToInstruction() {
 1273              		.loc 1 315 0
 1274              		.cfi_startproc
 1275              		@ args = 0, pretend = 0, frame = 40
 1276              		@ frame_needed = 1, uses_anonymous_args = 0
 1277 0000 B0B5     		push	{r4, r5, r7, lr}
 1278              		.cfi_def_cfa_offset 16
 1279              		.cfi_offset 4, -16
 1280              		.cfi_offset 5, -12
 1281              		.cfi_offset 7, -8
 1282              		.cfi_offset 14, -4
 1283 0002 8AB0     		sub	sp, sp, #40
 1284              		.cfi_def_cfa_offset 56
 1285 0004 00AF     		add	r7, sp, #0
 1286              		.cfi_def_cfa_register 7
 316:main.c        ****     float blocksize;
 317:main.c        ****     if(currentInstruction.expectedOrientation == Up || currentInstruction.expectedOrientation == Do
 1287              		.loc 1 317 0
 1288 0006 9E4B     		ldr	r3, .L129
 1289 0008 1B7C     		ldrb	r3, [r3, #16]	@ zero_extendqisi2
 1290 000a 002B     		cmp	r3, #0
 1291 000c 03D0     		beq	.L68
 1292              		.loc 1 317 0 is_stmt 0 discriminator 1
 1293 000e 9C4B     		ldr	r3, .L129
 1294 0010 1B7C     		ldrb	r3, [r3, #16]	@ zero_extendqisi2
 1295 0012 012B     		cmp	r3, #1
 1296 0014 03D1     		bne	.L69
 1297              	.L68:
 318:main.c        ****         blocksize = yBlocksize;
 1298              		.loc 1 318 0 is_stmt 1
 1299 0016 9B4B     		ldr	r3, .L129+4
 1300 0018 1B68     		ldr	r3, [r3]	@ float
 1301 001a 7B62     		str	r3, [r7, #36]	@ float
 1302 001c 02E0     		b	.L70
 1303              	.L69:
 319:main.c        ****     } else {
 320:main.c        ****         blocksize = xBlocksize;
 1304              		.loc 1 320 0
 1305 001e 9A4B     		ldr	r3, .L129+8
 1306 0020 1B68     		ldr	r3, [r3]	@ float
 1307 0022 7B62     		str	r3, [r7, #36]	@ float
 1308              	.L70:
 321:main.c        ****     }
 322:main.c        ****     
 323:main.c        ****     // This function makes it so that it will return a robotmovement direction according to the cur
 324:main.c        ****     // AND move to the next instruction when EITHER totalDistance >= blocksize, 
 325:main.c        ****         // OR an EVENT happens in the current instruction
 326:main.c        ****         // e.g. CurrentInstruction: GoForward 
 327:main.c        ****         //      S3 on BLACK
 328:main.c        ****         //      Check Ignore Count
 329:main.c        ****         //      If Ignore Count = 0, move to next instruction.
 330:main.c        ****     
 331:main.c        ****     enum InstructionDirection currentInstructionDirection = currentInstruction.direction;
 1309              		.loc 1 331 0
ARM GAS  C:\Users\ikui753\AppData\Local\Temp\ccYGTKr5.s 			page 30


 1310 0024 964B     		ldr	r3, .L129
 1311 0026 1B78     		ldrb	r3, [r3]
 1312 0028 87F82330 		strb	r3, [r7, #35]
 332:main.c        ****     
 333:main.c        ****     switch (currentInstructionDirection) {
 1313              		.loc 1 333 0
 1314 002c 97F82330 		ldrb	r3, [r7, #35]	@ zero_extendqisi2
 1315 0030 052B     		cmp	r3, #5
 1316 0032 00F28882 		bhi	.L71
 1317 0036 01A2     		adr	r2, .L73
 1318 0038 52F823F0 		ldr	pc, [r2, r3, lsl #2]
 1319              		.p2align 2
 1320              	.L73:
 1321 003c 55000000 		.word	.L72+1
 1322 0040 17010000 		.word	.L74+1
 1323 0044 3B020000 		.word	.L75+1
 1324 0048 C1040000 		.word	.L76+1
 1325 004c A5030000 		.word	.L77+1
 1326 0050 01040000 		.word	.L78+1
 1327              		.p2align 1
 1328              	.L72:
 334:main.c        ****         case GoForward:
 335:main.c        ****             if(currentDirection == Stop) {
 1329              		.loc 1 335 0
 1330 0054 8D4B     		ldr	r3, .L129+12
 1331 0056 1B78     		ldrb	r3, [r3]	@ zero_extendqisi2
 1332 0058 052B     		cmp	r3, #5
 1333 005a 08D1     		bne	.L79
 336:main.c        ****                 if(stopBuffer <= 25) {
 1334              		.loc 1 336 0
 1335 005c 8C4B     		ldr	r3, .L129+16
 1336 005e 1B68     		ldr	r3, [r3]
 1337 0060 192B     		cmp	r3, #25
 1338 0062 01D8     		bhi	.L80
 337:main.c        ****                     return Stop;
 1339              		.loc 1 337 0
 1340 0064 0523     		movs	r3, #5
 1341 0066 6FE2     		b	.L81
 1342              	.L80:
 338:main.c        ****                 } else {
 339:main.c        ****                     stopBuffer = 100;
 1343              		.loc 1 339 0
 1344 0068 894B     		ldr	r3, .L129+16
 1345 006a 6422     		movs	r2, #100
 1346 006c 1A60     		str	r2, [r3]
 1347              	.L79:
 340:main.c        ****                 }
 341:main.c        ****             }
 342:main.c        ****             if (s3) {
 1348              		.loc 1 342 0
 1349 006e 894B     		ldr	r3, .L129+20
 1350 0070 1B78     		ldrb	r3, [r3]	@ zero_extendqisi2
 1351 0072 002B     		cmp	r3, #0
 1352 0074 02D0     		beq	.L82
 343:main.c        ****                 leftStatusFlag = 1;
 1353              		.loc 1 343 0
 1354 0076 884B     		ldr	r3, .L129+24
ARM GAS  C:\Users\ikui753\AppData\Local\Temp\ccYGTKr5.s 			page 31


 1355 0078 0122     		movs	r2, #1
 1356 007a 1A70     		strb	r2, [r3]
 1357              	.L82:
 344:main.c        ****             }
 345:main.c        ****             
 346:main.c        ****             if (s4) {
 1358              		.loc 1 346 0
 1359 007c 874B     		ldr	r3, .L129+28
 1360 007e 1B78     		ldrb	r3, [r3]	@ zero_extendqisi2
 1361 0080 002B     		cmp	r3, #0
 1362 0082 02D0     		beq	.L83
 347:main.c        ****                 rightStatusFlag = 1;
 1363              		.loc 1 347 0
 1364 0084 864B     		ldr	r3, .L129+32
 1365 0086 0122     		movs	r2, #1
 1366 0088 1A70     		strb	r2, [r3]
 1367              	.L83:
 348:main.c        ****             }
 349:main.c        ****             
 350:main.c        ****             // LEFT WING CHECK =-=-=-=-=-=-=-=-=-=-=
 351:main.c        ****             if (leftStatusFlag) {
 1368              		.loc 1 351 0
 1369 008a 834B     		ldr	r3, .L129+24
 1370 008c 1B78     		ldrb	r3, [r3]
 1371 008e DBB2     		uxtb	r3, r3
 1372 0090 002B     		cmp	r3, #0
 1373 0092 1BD0     		beq	.L84
 352:main.c        ****                 if (!s3) {
 1374              		.loc 1 352 0
 1375 0094 7F4B     		ldr	r3, .L129+20
 1376 0096 1B78     		ldrb	r3, [r3]	@ zero_extendqisi2
 1377 0098 002B     		cmp	r3, #0
 1378 009a 17D1     		bne	.L84
 353:main.c        ****                     leftStatusFlag = 0;    
 1379              		.loc 1 353 0
 1380 009c 7E4B     		ldr	r3, .L129+24
 1381 009e 0022     		movs	r2, #0
 1382 00a0 1A70     		strb	r2, [r3]
 354:main.c        ****                     if (currentIgnoreL == 0) {
 1383              		.loc 1 354 0
 1384 00a2 804B     		ldr	r3, .L129+36
 1385 00a4 1B78     		ldrb	r3, [r3]
 1386 00a6 DBB2     		uxtb	r3, r3
 1387 00a8 002B     		cmp	r3, #0
 1388 00aa 03D1     		bne	.L85
 355:main.c        ****                         MoveToNextInstruction();
 1389              		.loc 1 355 0
 1390 00ac FFF7FEFF 		bl	MoveToNextInstruction
 356:main.c        ****                         return Stop;
 1391              		.loc 1 356 0
 1392 00b0 0523     		movs	r3, #5
 1393 00b2 49E2     		b	.L81
 1394              	.L85:
 357:main.c        ****                     }
 358:main.c        ****                     if (currentIgnoreL > 0) {
 1395              		.loc 1 358 0
 1396 00b4 7B4B     		ldr	r3, .L129+36
ARM GAS  C:\Users\ikui753\AppData\Local\Temp\ccYGTKr5.s 			page 32


 1397 00b6 1B78     		ldrb	r3, [r3]
 1398 00b8 DBB2     		uxtb	r3, r3
 1399 00ba 002B     		cmp	r3, #0
 1400 00bc 06D0     		beq	.L84
 359:main.c        ****                         currentIgnoreL--;    
 1401              		.loc 1 359 0
 1402 00be 794B     		ldr	r3, .L129+36
 1403 00c0 1B78     		ldrb	r3, [r3]
 1404 00c2 DBB2     		uxtb	r3, r3
 1405 00c4 013B     		subs	r3, r3, #1
 1406 00c6 DAB2     		uxtb	r2, r3
 1407 00c8 764B     		ldr	r3, .L129+36
 1408 00ca 1A70     		strb	r2, [r3]
 1409              	.L84:
 360:main.c        ****                     }
 361:main.c        ****                 }
 362:main.c        ****             }
 363:main.c        ****             // RIGHT WING CHECK =-=-=-=-=-=-=-=-=-=-=
 364:main.c        ****             if (rightStatusFlag) {
 1410              		.loc 1 364 0
 1411 00cc 744B     		ldr	r3, .L129+32
 1412 00ce 1B78     		ldrb	r3, [r3]
 1413 00d0 DBB2     		uxtb	r3, r3
 1414 00d2 002B     		cmp	r3, #0
 1415 00d4 1BD0     		beq	.L86
 365:main.c        ****                 if (!s4) {
 1416              		.loc 1 365 0
 1417 00d6 714B     		ldr	r3, .L129+28
 1418 00d8 1B78     		ldrb	r3, [r3]	@ zero_extendqisi2
 1419 00da 002B     		cmp	r3, #0
 1420 00dc 17D1     		bne	.L86
 366:main.c        ****                     rightStatusFlag = 0;
 1421              		.loc 1 366 0
 1422 00de 704B     		ldr	r3, .L129+32
 1423 00e0 0022     		movs	r2, #0
 1424 00e2 1A70     		strb	r2, [r3]
 367:main.c        ****                     if (currentIgnoreR == 0) {
 1425              		.loc 1 367 0
 1426 00e4 704B     		ldr	r3, .L129+40
 1427 00e6 1B78     		ldrb	r3, [r3]
 1428 00e8 DBB2     		uxtb	r3, r3
 1429 00ea 002B     		cmp	r3, #0
 1430 00ec 03D1     		bne	.L87
 368:main.c        ****                         MoveToNextInstruction();
 1431              		.loc 1 368 0
 1432 00ee FFF7FEFF 		bl	MoveToNextInstruction
 369:main.c        ****                         return Stop;
 1433              		.loc 1 369 0
 1434 00f2 0523     		movs	r3, #5
 1435 00f4 28E2     		b	.L81
 1436              	.L87:
 370:main.c        ****                     }
 371:main.c        ****                     if (currentIgnoreR > 0) {
 1437              		.loc 1 371 0
 1438 00f6 6C4B     		ldr	r3, .L129+40
 1439 00f8 1B78     		ldrb	r3, [r3]
 1440 00fa DBB2     		uxtb	r3, r3
ARM GAS  C:\Users\ikui753\AppData\Local\Temp\ccYGTKr5.s 			page 33


 1441 00fc 002B     		cmp	r3, #0
 1442 00fe 06D0     		beq	.L86
 372:main.c        ****                         currentIgnoreR--;    
 1443              		.loc 1 372 0
 1444 0100 694B     		ldr	r3, .L129+40
 1445 0102 1B78     		ldrb	r3, [r3]
 1446 0104 DBB2     		uxtb	r3, r3
 1447 0106 013B     		subs	r3, r3, #1
 1448 0108 DAB2     		uxtb	r2, r3
 1449 010a 674B     		ldr	r3, .L129+40
 1450 010c 1A70     		strb	r2, [r3]
 1451              	.L86:
 373:main.c        ****                     }
 374:main.c        ****                 }
 375:main.c        ****             }
 376:main.c        ****           
 377:main.c        ****             return ForwardCourseCorrection();
 1452              		.loc 1 377 0
 1453 010e FFF7FEFF 		bl	ForwardCourseCorrection
 1454 0112 0346     		mov	r3, r0
 1455 0114 18E2     		b	.L81
 1456              	.L74:
 378:main.c        ****             break;
 379:main.c        ****         case waitForLeftTurn:
 380:main.c        ****             // continue moving forward until s3 goes on black
 381:main.c        ****             // if we are turning left already
 382:main.c        ****                 // wait until s5 || s6 are on black
 383:main.c        ****                 // return stop
 384:main.c        ****             if (!firstTurnIteration) {
 1457              		.loc 1 384 0
 1458 0116 654B     		ldr	r3, .L129+44
 1459 0118 1B78     		ldrb	r3, [r3]	@ zero_extendqisi2
 1460 011a 002B     		cmp	r3, #0
 1461 011c 08D1     		bne	.L88
 385:main.c        ****                 if (!s3) {
 1462              		.loc 1 385 0
 1463 011e 5D4B     		ldr	r3, .L129+20
 1464 0120 1B78     		ldrb	r3, [r3]	@ zero_extendqisi2
 1465 0122 002B     		cmp	r3, #0
 1466 0124 04D1     		bne	.L88
 386:main.c        ****                     firstTurnIteration = 1;
 1467              		.loc 1 386 0
 1468 0126 614B     		ldr	r3, .L129+44
 1469 0128 0122     		movs	r2, #1
 1470 012a 1A70     		strb	r2, [r3]
 387:main.c        ****                     return Stop;    
 1471              		.loc 1 387 0
 1472 012c 0523     		movs	r3, #5
 1473 012e 0BE2     		b	.L81
 1474              	.L88:
 388:main.c        ****                 }
 389:main.c        ****                 if (s3) {
 390:main.c        ****                     //return Backward;    
 391:main.c        ****                 }
 392:main.c        ****             }
 393:main.c        ****             
 394:main.c        ****             if (turnFinishedFlag) {
ARM GAS  C:\Users\ikui753\AppData\Local\Temp\ccYGTKr5.s 			page 34


 1475              		.loc 1 394 0
 1476 0130 5F4B     		ldr	r3, .L129+48
 1477 0132 1B78     		ldrb	r3, [r3]
 1478 0134 DBB2     		uxtb	r3, r3
 1479 0136 002B     		cmp	r3, #0
 1480 0138 31D0     		beq	.L90
 395:main.c        ****                 if (!s3 && !s5 && !s6) {
 1481              		.loc 1 395 0
 1482 013a 564B     		ldr	r3, .L129+20
 1483 013c 1B78     		ldrb	r3, [r3]	@ zero_extendqisi2
 1484 013e 002B     		cmp	r3, #0
 1485 0140 0BD1     		bne	.L91
 1486              		.loc 1 395 0 is_stmt 0 discriminator 1
 1487 0142 5C4B     		ldr	r3, .L129+52
 1488 0144 1B78     		ldrb	r3, [r3]	@ zero_extendqisi2
 1489 0146 002B     		cmp	r3, #0
 1490 0148 07D1     		bne	.L91
 1491              		.loc 1 395 0 discriminator 2
 1492 014a 5B4B     		ldr	r3, .L129+56
 1493 014c 1B78     		ldrb	r3, [r3]	@ zero_extendqisi2
 1494 014e 002B     		cmp	r3, #0
 1495 0150 03D1     		bne	.L91
 396:main.c        ****                     // we are correctly on the line so go forward until S4 on white
 397:main.c        ****                     return ForwardCourseCorrection();
 1496              		.loc 1 397 0 is_stmt 1
 1497 0152 FFF7FEFF 		bl	ForwardCourseCorrection
 1498 0156 0346     		mov	r3, r0
 1499 0158 F6E1     		b	.L81
 1500              	.L91:
 398:main.c        ****                 }
 399:main.c        ****                 if (s5 || s6) {
 1501              		.loc 1 399 0
 1502 015a 564B     		ldr	r3, .L129+52
 1503 015c 1B78     		ldrb	r3, [r3]	@ zero_extendqisi2
 1504 015e 002B     		cmp	r3, #0
 1505 0160 03D1     		bne	.L92
 1506              		.loc 1 399 0 is_stmt 0 discriminator 1
 1507 0162 554B     		ldr	r3, .L129+56
 1508 0164 1B78     		ldrb	r3, [r3]	@ zero_extendqisi2
 1509 0166 002B     		cmp	r3, #0
 1510 0168 03D0     		beq	.L93
 1511              	.L92:
 400:main.c        ****                     return SpinCourseCorrection();
 1512              		.loc 1 400 0 is_stmt 1
 1513 016a FFF7FEFF 		bl	SpinCourseCorrection
 1514 016e 0346     		mov	r3, r0
 1515 0170 EAE1     		b	.L81
 1516              	.L93:
 401:main.c        ****                 }
 402:main.c        ****                 if (forwardBuffer <= 10) {
 1517              		.loc 1 402 0
 1518 0172 524B     		ldr	r3, .L129+60
 1519 0174 1B88     		ldrh	r3, [r3]
 1520 0176 0A2B     		cmp	r3, #10
 1521 0178 03D8     		bhi	.L94
 403:main.c        ****                     return ForwardCourseCorrection();    
 1522              		.loc 1 403 0
ARM GAS  C:\Users\ikui753\AppData\Local\Temp\ccYGTKr5.s 			page 35


 1523 017a FFF7FEFF 		bl	ForwardCourseCorrection
 1524 017e 0346     		mov	r3, r0
 1525 0180 E2E1     		b	.L81
 1526              	.L94:
 404:main.c        **** 
 405:main.c        ****                 } else {
 406:main.c        ****                     forwardBuffer = 100;
 1527              		.loc 1 406 0
 1528 0182 4E4B     		ldr	r3, .L129+60
 1529 0184 6422     		movs	r2, #100
 1530 0186 1A80     		strh	r2, [r3]	@ movhi
 407:main.c        ****                     if (s3) {
 1531              		.loc 1 407 0
 1532 0188 424B     		ldr	r3, .L129+20
 1533 018a 1B78     		ldrb	r3, [r3]	@ zero_extendqisi2
 1534 018c 002B     		cmp	r3, #0
 1535 018e 06D0     		beq	.L90
 408:main.c        ****                         turnFinishedFlag = 0;
 1536              		.loc 1 408 0
 1537 0190 474B     		ldr	r3, .L129+48
 1538 0192 0022     		movs	r2, #0
 1539 0194 1A70     		strb	r2, [r3]
 409:main.c        ****                         MoveToNextInstruction();   
 1540              		.loc 1 409 0
 1541 0196 FFF7FEFF 		bl	MoveToNextInstruction
 410:main.c        ****                         return Stop;  
 1542              		.loc 1 410 0
 1543 019a 0523     		movs	r3, #5
 1544 019c D4E1     		b	.L81
 1545              	.L90:
 411:main.c        ****                     }
 412:main.c        ****                 }
 413:main.c        ****             }
 414:main.c        ****             
 415:main.c        ****             
 416:main.c        ****             if (currentDirection == Stop) {
 1546              		.loc 1 416 0
 1547 019e 3B4B     		ldr	r3, .L129+12
 1548 01a0 1B78     		ldrb	r3, [r3]	@ zero_extendqisi2
 1549 01a2 052B     		cmp	r3, #5
 1550 01a4 09D1     		bne	.L95
 417:main.c        ****                 // We should be facing a different direction now so we move to the next instruction
 418:main.c        ****                 if (stopBuffer <= 25) {
 1551              		.loc 1 418 0
 1552 01a6 3A4B     		ldr	r3, .L129+16
 1553 01a8 1B68     		ldr	r3, [r3]
 1554 01aa 192B     		cmp	r3, #25
 1555 01ac 01D8     		bhi	.L96
 419:main.c        ****                     return Stop;   
 1556              		.loc 1 419 0
 1557 01ae 0523     		movs	r3, #5
 1558 01b0 CAE1     		b	.L81
 1559              	.L96:
 420:main.c        ****                 }
 421:main.c        ****                 return ForwardCourseCorrection();
 1560              		.loc 1 421 0
 1561 01b2 FFF7FEFF 		bl	ForwardCourseCorrection
ARM GAS  C:\Users\ikui753\AppData\Local\Temp\ccYGTKr5.s 			page 36


 1562 01b6 0346     		mov	r3, r0
 1563 01b8 C6E1     		b	.L81
 1564              	.L95:
 422:main.c        ****             }
 423:main.c        ****          
 424:main.c        ****             // if we are already turning left, then check if s5 && s6 are on black
 425:main.c        ****             if (currentDirection == TurnLeft) {
 1565              		.loc 1 425 0
 1566 01ba 344B     		ldr	r3, .L129+12
 1567 01bc 1B78     		ldrb	r3, [r3]	@ zero_extendqisi2
 1568 01be 022B     		cmp	r3, #2
 1569 01c0 2ED1     		bne	.L97
 426:main.c        ****                 // If turn started and we are still on black, continue turning
 427:main.c        ****                 // Otherwise, if all sensors are on white, turnStartedFlag = 0;
 428:main.c        ****                 if (turnStartedFlag) {
 1570              		.loc 1 428 0
 1571 01c2 3F4B     		ldr	r3, .L129+64
 1572 01c4 1B78     		ldrb	r3, [r3]
 1573 01c6 DBB2     		uxtb	r3, r3
 1574 01c8 002B     		cmp	r3, #0
 1575 01ca 0ED0     		beq	.L98
 429:main.c        ****                     if (s3 && (s5 && s6)) {
 1576              		.loc 1 429 0
 1577 01cc 314B     		ldr	r3, .L129+20
 1578 01ce 1B78     		ldrb	r3, [r3]	@ zero_extendqisi2
 1579 01d0 002B     		cmp	r3, #0
 1580 01d2 0AD0     		beq	.L98
 1581              		.loc 1 429 0 is_stmt 0 discriminator 1
 1582 01d4 374B     		ldr	r3, .L129+52
 1583 01d6 1B78     		ldrb	r3, [r3]	@ zero_extendqisi2
 1584 01d8 002B     		cmp	r3, #0
 1585 01da 06D0     		beq	.L98
 1586              		.loc 1 429 0 discriminator 2
 1587 01dc 364B     		ldr	r3, .L129+56
 1588 01de 1B78     		ldrb	r3, [r3]	@ zero_extendqisi2
 1589 01e0 002B     		cmp	r3, #0
 1590 01e2 02D0     		beq	.L98
 430:main.c        ****                         turnStartedFlag = 0;
 1591              		.loc 1 430 0 is_stmt 1
 1592 01e4 364B     		ldr	r3, .L129+64
 1593 01e6 0022     		movs	r2, #0
 1594 01e8 1A70     		strb	r2, [r3]
 1595              	.L98:
 431:main.c        ****                     }
 432:main.c        ****                 }
 433:main.c        ****                 if (!turnStartedFlag && !s3 && (!s5 || !s6)) {
 1596              		.loc 1 433 0
 1597 01ea 354B     		ldr	r3, .L129+64
 1598 01ec 1B78     		ldrb	r3, [r3]
 1599 01ee DBB2     		uxtb	r3, r3
 1600 01f0 002B     		cmp	r3, #0
 1601 01f2 13D1     		bne	.L99
 1602              		.loc 1 433 0 is_stmt 0 discriminator 1
 1603 01f4 274B     		ldr	r3, .L129+20
 1604 01f6 1B78     		ldrb	r3, [r3]	@ zero_extendqisi2
 1605 01f8 002B     		cmp	r3, #0
 1606 01fa 0FD1     		bne	.L99
ARM GAS  C:\Users\ikui753\AppData\Local\Temp\ccYGTKr5.s 			page 37


 1607              		.loc 1 433 0 discriminator 2
 1608 01fc 2D4B     		ldr	r3, .L129+52
 1609 01fe 1B78     		ldrb	r3, [r3]	@ zero_extendqisi2
 1610 0200 002B     		cmp	r3, #0
 1611 0202 03D0     		beq	.L100
 1612              		.loc 1 433 0 discriminator 3
 1613 0204 2C4B     		ldr	r3, .L129+56
 1614 0206 1B78     		ldrb	r3, [r3]	@ zero_extendqisi2
 1615 0208 002B     		cmp	r3, #0
 1616 020a 07D1     		bne	.L99
 1617              	.L100:
 434:main.c        ****                     turnFinishedFlag = 1;
 1618              		.loc 1 434 0 is_stmt 1
 1619 020c 284B     		ldr	r3, .L129+48
 1620 020e 0122     		movs	r2, #1
 1621 0210 1A70     		strb	r2, [r3]
 435:main.c        ****                     firstTurnIteration = 0;
 1622              		.loc 1 435 0
 1623 0212 264B     		ldr	r3, .L129+44
 1624 0214 0022     		movs	r2, #0
 1625 0216 1A70     		strb	r2, [r3]
 436:main.c        ****                     return ForwardAfterTurn;
 1626              		.loc 1 436 0
 1627 0218 0823     		movs	r3, #8
 1628 021a 95E1     		b	.L81
 1629              	.L99:
 437:main.c        ****                 }
 438:main.c        ****                 else
 439:main.c        ****                 {
 440:main.c        ****                     return TurnLeft;
 1630              		.loc 1 440 0
 1631 021c 0223     		movs	r3, #2
 1632 021e 93E1     		b	.L81
 1633              	.L97:
 441:main.c        ****                 }
 442:main.c        ****             }
 443:main.c        ****             
 444:main.c        ****             // If we are not already turning left then once s3 goes on BLACK, turn left
 445:main.c        ****             if (!s3) {
 1634              		.loc 1 445 0
 1635 0220 1C4B     		ldr	r3, .L129+20
 1636 0222 1B78     		ldrb	r3, [r3]	@ zero_extendqisi2
 1637 0224 002B     		cmp	r3, #0
 1638 0226 04D1     		bne	.L101
 446:main.c        ****                 turnStartedFlag = 1;
 1639              		.loc 1 446 0
 1640 0228 254B     		ldr	r3, .L129+64
 1641 022a 0122     		movs	r2, #1
 1642 022c 1A70     		strb	r2, [r3]
 447:main.c        ****                 return TurnLeft;
 1643              		.loc 1 447 0
 1644 022e 0223     		movs	r3, #2
 1645 0230 8AE1     		b	.L81
 1646              	.L101:
 448:main.c        ****             }
 449:main.c        ****             
 450:main.c        ****             // Otherwise, keep going forward
ARM GAS  C:\Users\ikui753\AppData\Local\Temp\ccYGTKr5.s 			page 38


 451:main.c        ****             return ForwardCourseCorrection(); 
 1647              		.loc 1 451 0
 1648 0232 FFF7FEFF 		bl	ForwardCourseCorrection
 1649 0236 0346     		mov	r3, r0
 1650 0238 86E1     		b	.L81
 1651              	.L75:
 452:main.c        ****             break;
 453:main.c        ****         case waitForRightTurn:
 454:main.c        ****             // continue moving forward until s4 goes on black
 455:main.c        ****             // if we are turning left already
 456:main.c        ****                 // wait until s5 || s6 are on black
 457:main.c        ****                 // return stop
 458:main.c        ****             if (!firstTurnIteration) {
 1652              		.loc 1 458 0
 1653 023a 1C4B     		ldr	r3, .L129+44
 1654 023c 1B78     		ldrb	r3, [r3]	@ zero_extendqisi2
 1655 023e 002B     		cmp	r3, #0
 1656 0240 08D1     		bne	.L102
 459:main.c        ****                 if (!s4) {
 1657              		.loc 1 459 0
 1658 0242 164B     		ldr	r3, .L129+28
 1659 0244 1B78     		ldrb	r3, [r3]	@ zero_extendqisi2
 1660 0246 002B     		cmp	r3, #0
 1661 0248 04D1     		bne	.L102
 460:main.c        ****                     firstTurnIteration = 1; 
 1662              		.loc 1 460 0
 1663 024a 184B     		ldr	r3, .L129+44
 1664 024c 0122     		movs	r2, #1
 1665 024e 1A70     		strb	r2, [r3]
 461:main.c        ****                     return Stop;
 1666              		.loc 1 461 0
 1667 0250 0523     		movs	r3, #5
 1668 0252 79E1     		b	.L81
 1669              	.L102:
 462:main.c        ****                 }
 463:main.c        ****                 if (s4) {
 464:main.c        ****                     //return Backward;    
 465:main.c        ****                 }
 466:main.c        ****             }
 467:main.c        **** 
 468:main.c        ****             if (turnFinishedFlag) {
 1670              		.loc 1 468 0
 1671 0254 164B     		ldr	r3, .L129+48
 1672 0256 1B78     		ldrb	r3, [r3]
 1673 0258 DBB2     		uxtb	r3, r3
 1674 025a 002B     		cmp	r3, #0
 1675 025c 57D0     		beq	.L104
 469:main.c        ****                 if (!s4 && !s5 && !s6) {
 1676              		.loc 1 469 0
 1677 025e 0F4B     		ldr	r3, .L129+28
 1678 0260 1B78     		ldrb	r3, [r3]	@ zero_extendqisi2
 1679 0262 002B     		cmp	r3, #0
 1680 0264 2ED1     		bne	.L105
 1681              		.loc 1 469 0 is_stmt 0 discriminator 1
 1682 0266 134B     		ldr	r3, .L129+52
 1683 0268 1B78     		ldrb	r3, [r3]	@ zero_extendqisi2
 1684 026a 002B     		cmp	r3, #0
ARM GAS  C:\Users\ikui753\AppData\Local\Temp\ccYGTKr5.s 			page 39


 1685 026c 2AD1     		bne	.L105
 1686              		.loc 1 469 0 discriminator 2
 1687 026e 124B     		ldr	r3, .L129+56
 1688 0270 1B78     		ldrb	r3, [r3]	@ zero_extendqisi2
 1689 0272 002B     		cmp	r3, #0
 1690 0274 26D1     		bne	.L105
 470:main.c        ****                     // we are correctly on the line so go forward until S4 on white
 471:main.c        ****                     return ForwardCourseCorrection();
 1691              		.loc 1 471 0 is_stmt 1
 1692 0276 FFF7FEFF 		bl	ForwardCourseCorrection
 1693 027a 0346     		mov	r3, r0
 1694 027c 64E1     		b	.L81
 1695              	.L130:
 1696 027e 00BF     		.align	2
 1697              	.L129:
 1698 0280 00000000 		.word	currentInstruction
 1699 0284 00000000 		.word	yBlocksize
 1700 0288 00000000 		.word	xBlocksize
 1701 028c 00000000 		.word	currentDirection
 1702 0290 00000000 		.word	stopBuffer
 1703 0294 00000000 		.word	s3
 1704 0298 3B000000 		.word	leftStatusFlag
 1705 029c 00000000 		.word	s4
 1706 02a0 3C000000 		.word	rightStatusFlag
 1707 02a4 3E000000 		.word	currentIgnoreL
 1708 02a8 45000000 		.word	currentIgnoreR
 1709 02ac 00000000 		.word	firstTurnIteration
 1710 02b0 37000000 		.word	turnFinishedFlag
 1711 02b4 00000000 		.word	s5
 1712 02b8 00000000 		.word	s6
 1713 02bc 00000000 		.word	forwardBuffer
 1714 02c0 36000000 		.word	turnStartedFlag
 1715              	.L105:
 472:main.c        ****                 }
 473:main.c        ****                 if (s5 || s6) {
 1716              		.loc 1 473 0
 1717 02c4 A24B     		ldr	r3, .L131
 1718 02c6 1B78     		ldrb	r3, [r3]	@ zero_extendqisi2
 1719 02c8 002B     		cmp	r3, #0
 1720 02ca 03D1     		bne	.L106
 1721              		.loc 1 473 0 is_stmt 0 discriminator 1
 1722 02cc A14B     		ldr	r3, .L131+4
 1723 02ce 1B78     		ldrb	r3, [r3]	@ zero_extendqisi2
 1724 02d0 002B     		cmp	r3, #0
 1725 02d2 03D0     		beq	.L107
 1726              	.L106:
 474:main.c        ****                     return SpinCourseCorrection();
 1727              		.loc 1 474 0 is_stmt 1
 1728 02d4 FFF7FEFF 		bl	SpinCourseCorrection
 1729 02d8 0346     		mov	r3, r0
 1730 02da 35E1     		b	.L81
 1731              	.L107:
 475:main.c        ****                 }
 476:main.c        ****                 if (forwardBuffer <= 10) {
 1732              		.loc 1 476 0
 1733 02dc 9E4B     		ldr	r3, .L131+8
 1734 02de 1B88     		ldrh	r3, [r3]
ARM GAS  C:\Users\ikui753\AppData\Local\Temp\ccYGTKr5.s 			page 40


 1735 02e0 0A2B     		cmp	r3, #10
 1736 02e2 03D8     		bhi	.L108
 477:main.c        ****                     return ForwardCourseCorrection();    
 1737              		.loc 1 477 0
 1738 02e4 FFF7FEFF 		bl	ForwardCourseCorrection
 1739 02e8 0346     		mov	r3, r0
 1740 02ea 2DE1     		b	.L81
 1741              	.L108:
 478:main.c        **** 
 479:main.c        ****                 } else {
 480:main.c        ****                     forwardBuffer = 100;
 1742              		.loc 1 480 0
 1743 02ec 9A4B     		ldr	r3, .L131+8
 1744 02ee 6422     		movs	r2, #100
 1745 02f0 1A80     		strh	r2, [r3]	@ movhi
 481:main.c        ****                     if (s4) {
 1746              		.loc 1 481 0
 1747 02f2 9A4B     		ldr	r3, .L131+12
 1748 02f4 1B78     		ldrb	r3, [r3]	@ zero_extendqisi2
 1749 02f6 002B     		cmp	r3, #0
 1750 02f8 09D0     		beq	.L104
 482:main.c        ****                         firstTurnIteration = 0;
 1751              		.loc 1 482 0
 1752 02fa 994B     		ldr	r3, .L131+16
 1753 02fc 0022     		movs	r2, #0
 1754 02fe 1A70     		strb	r2, [r3]
 483:main.c        ****                         turnFinishedFlag = 0;
 1755              		.loc 1 483 0
 1756 0300 984B     		ldr	r3, .L131+20
 1757 0302 0022     		movs	r2, #0
 1758 0304 1A70     		strb	r2, [r3]
 484:main.c        ****                         MoveToNextInstruction();   
 1759              		.loc 1 484 0
 1760 0306 FFF7FEFF 		bl	MoveToNextInstruction
 485:main.c        ****                         return Stop;  
 1761              		.loc 1 485 0
 1762 030a 0523     		movs	r3, #5
 1763 030c 1CE1     		b	.L81
 1764              	.L104:
 486:main.c        ****                     }
 487:main.c        ****                 }
 488:main.c        ****             }
 489:main.c        ****             
 490:main.c        ****             if (currentDirection == Stop) {
 1765              		.loc 1 490 0
 1766 030e 964B     		ldr	r3, .L131+24
 1767 0310 1B78     		ldrb	r3, [r3]	@ zero_extendqisi2
 1768 0312 052B     		cmp	r3, #5
 1769 0314 09D1     		bne	.L109
 491:main.c        ****                 // We should be facing a different direction now so we move to the next instruction
 492:main.c        ****                 if (stopBuffer <= 25) {
 1770              		.loc 1 492 0
 1771 0316 954B     		ldr	r3, .L131+28
 1772 0318 1B68     		ldr	r3, [r3]
 1773 031a 192B     		cmp	r3, #25
 1774 031c 01D8     		bhi	.L110
 493:main.c        ****                     return Stop;   
ARM GAS  C:\Users\ikui753\AppData\Local\Temp\ccYGTKr5.s 			page 41


 1775              		.loc 1 493 0
 1776 031e 0523     		movs	r3, #5
 1777 0320 12E1     		b	.L81
 1778              	.L110:
 494:main.c        ****                 }
 495:main.c        **** 
 496:main.c        ****                 return ForwardCourseCorrection();
 1779              		.loc 1 496 0
 1780 0322 FFF7FEFF 		bl	ForwardCourseCorrection
 1781 0326 0346     		mov	r3, r0
 1782 0328 0EE1     		b	.L81
 1783              	.L109:
 497:main.c        ****             }
 498:main.c        ****                       
 499:main.c        ****             // if we are already turning right, then check if s5 && s6 are on black
 500:main.c        ****             if (currentDirection == TurnRight) {
 1784              		.loc 1 500 0
 1785 032a 8F4B     		ldr	r3, .L131+24
 1786 032c 1B78     		ldrb	r3, [r3]	@ zero_extendqisi2
 1787 032e 012B     		cmp	r3, #1
 1788 0330 2BD1     		bne	.L111
 501:main.c        ****                 // If turn started and we are still on black, continue turning
 502:main.c        ****                 // Otherwise, if all sensors are on white, turnStartedFlag = 0;
 503:main.c        ****                 if (turnStartedFlag) {
 1789              		.loc 1 503 0
 1790 0332 8F4B     		ldr	r3, .L131+32
 1791 0334 1B78     		ldrb	r3, [r3]
 1792 0336 DBB2     		uxtb	r3, r3
 1793 0338 002B     		cmp	r3, #0
 1794 033a 0ED0     		beq	.L112
 504:main.c        ****                     if (s4 && (s5 && s6)) {
 1795              		.loc 1 504 0
 1796 033c 874B     		ldr	r3, .L131+12
 1797 033e 1B78     		ldrb	r3, [r3]	@ zero_extendqisi2
 1798 0340 002B     		cmp	r3, #0
 1799 0342 0AD0     		beq	.L112
 1800              		.loc 1 504 0 is_stmt 0 discriminator 1
 1801 0344 824B     		ldr	r3, .L131
 1802 0346 1B78     		ldrb	r3, [r3]	@ zero_extendqisi2
 1803 0348 002B     		cmp	r3, #0
 1804 034a 06D0     		beq	.L112
 1805              		.loc 1 504 0 discriminator 2
 1806 034c 814B     		ldr	r3, .L131+4
 1807 034e 1B78     		ldrb	r3, [r3]	@ zero_extendqisi2
 1808 0350 002B     		cmp	r3, #0
 1809 0352 02D0     		beq	.L112
 505:main.c        ****                         turnStartedFlag = 0;
 1810              		.loc 1 505 0 is_stmt 1
 1811 0354 864B     		ldr	r3, .L131+32
 1812 0356 0022     		movs	r2, #0
 1813 0358 1A70     		strb	r2, [r3]
 1814              	.L112:
 506:main.c        ****                     }
 507:main.c        ****                 }
 508:main.c        ****                 if (!turnStartedFlag && !s4 && (!s5 || !s6)) {
 1815              		.loc 1 508 0
 1816 035a 854B     		ldr	r3, .L131+32
ARM GAS  C:\Users\ikui753\AppData\Local\Temp\ccYGTKr5.s 			page 42


 1817 035c 1B78     		ldrb	r3, [r3]
 1818 035e DBB2     		uxtb	r3, r3
 1819 0360 002B     		cmp	r3, #0
 1820 0362 10D1     		bne	.L113
 1821              		.loc 1 508 0 is_stmt 0 discriminator 1
 1822 0364 7D4B     		ldr	r3, .L131+12
 1823 0366 1B78     		ldrb	r3, [r3]	@ zero_extendqisi2
 1824 0368 002B     		cmp	r3, #0
 1825 036a 0CD1     		bne	.L113
 1826              		.loc 1 508 0 discriminator 2
 1827 036c 784B     		ldr	r3, .L131
 1828 036e 1B78     		ldrb	r3, [r3]	@ zero_extendqisi2
 1829 0370 002B     		cmp	r3, #0
 1830 0372 03D0     		beq	.L114
 1831              		.loc 1 508 0 discriminator 3
 1832 0374 774B     		ldr	r3, .L131+4
 1833 0376 1B78     		ldrb	r3, [r3]	@ zero_extendqisi2
 1834 0378 002B     		cmp	r3, #0
 1835 037a 04D1     		bne	.L113
 1836              	.L114:
 509:main.c        ****                     turnFinishedFlag = 1;
 1837              		.loc 1 509 0 is_stmt 1
 1838 037c 794B     		ldr	r3, .L131+20
 1839 037e 0122     		movs	r2, #1
 1840 0380 1A70     		strb	r2, [r3]
 510:main.c        ****                     return ForwardAfterTurn;
 1841              		.loc 1 510 0
 1842 0382 0823     		movs	r3, #8
 1843 0384 E0E0     		b	.L81
 1844              	.L113:
 511:main.c        ****                 }
 512:main.c        ****                 else
 513:main.c        ****                 {
 514:main.c        ****                     return TurnRight;
 1845              		.loc 1 514 0
 1846 0386 0123     		movs	r3, #1
 1847 0388 DEE0     		b	.L81
 1848              	.L111:
 515:main.c        ****                 }
 516:main.c        ****             }
 517:main.c        ****             
 518:main.c        ****             // If we are not already turning right then once s4 goes on BLACK, turn left
 519:main.c        ****             if (!s4) {
 1849              		.loc 1 519 0
 1850 038a 744B     		ldr	r3, .L131+12
 1851 038c 1B78     		ldrb	r3, [r3]	@ zero_extendqisi2
 1852 038e 002B     		cmp	r3, #0
 1853 0390 04D1     		bne	.L115
 520:main.c        ****                 turnStartedFlag = 1;
 1854              		.loc 1 520 0
 1855 0392 774B     		ldr	r3, .L131+32
 1856 0394 0122     		movs	r2, #1
 1857 0396 1A70     		strb	r2, [r3]
 521:main.c        ****                 return TurnRight;
 1858              		.loc 1 521 0
 1859 0398 0123     		movs	r3, #1
 1860 039a D5E0     		b	.L81
ARM GAS  C:\Users\ikui753\AppData\Local\Temp\ccYGTKr5.s 			page 43


 1861              	.L115:
 522:main.c        ****             }
 523:main.c        ****             
 524:main.c        ****             // Otherwise, keep going forward
 525:main.c        ****             return ForwardCourseCorrection(); 
 1862              		.loc 1 525 0
 1863 039c FFF7FEFF 		bl	ForwardCourseCorrection
 1864 03a0 0346     		mov	r3, r0
 1865 03a2 D1E0     		b	.L81
 1866              	.L77:
 526:main.c        ****             break;
 527:main.c        ****         case ForwardUntilTarget:
 528:main.c        ****             // Reset distance on first iteration of this instruction
 529:main.c        ****             if (!forwardUntilTargetStartedFlag) {
 1867              		.loc 1 529 0
 1868 03a4 734B     		ldr	r3, .L131+36
 1869 03a6 1B78     		ldrb	r3, [r3]
 1870 03a8 DBB2     		uxtb	r3, r3
 1871 03aa 002B     		cmp	r3, #0
 1872 03ac 15D1     		bne	.L116
 1873              	.LBB3:
 530:main.c        ****                 forwardUntilTargetStartedFlag = 1;
 1874              		.loc 1 530 0
 1875 03ae 714B     		ldr	r3, .L131+36
 1876 03b0 0122     		movs	r2, #1
 1877 03b2 1A70     		strb	r2, [r3]
 531:main.c        ****                 totalDistance = 0;
 1878              		.loc 1 531 0
 1879 03b4 704B     		ldr	r3, .L131+40
 1880 03b6 4FF00002 		mov	r2, #0
 1881 03ba 1A60     		str	r2, [r3]	@ float
 532:main.c        **** 
 533:main.c        ****                 //blockSizeTotal = CalculateDistanceToTravel(blocksize);
 534:main.c        ****                 int blocksToTarget = currentInstruction.distanceToTarget;
 1882              		.loc 1 534 0
 1883 03bc 6F4B     		ldr	r3, .L131+44
 1884 03be DB68     		ldr	r3, [r3, #12]
 1885 03c0 FB61     		str	r3, [r7, #28]
 535:main.c        ****                 blockSizeTotal = blocksize * blocksToTarget;
 1886              		.loc 1 535 0
 1887 03c2 F869     		ldr	r0, [r7, #28]
 1888 03c4 FFF7FEFF 		bl	__aeabi_i2f
 1889 03c8 0346     		mov	r3, r0
 1890 03ca 796A     		ldr	r1, [r7, #36]	@ float
 1891 03cc 1846     		mov	r0, r3
 1892 03ce FFF7FEFF 		bl	__aeabi_fmul
 1893 03d2 0346     		mov	r3, r0
 1894 03d4 1A46     		mov	r2, r3
 1895 03d6 6A4B     		ldr	r3, .L131+48
 1896 03d8 1A60     		str	r2, [r3]	@ float
 1897              	.L116:
 1898              	.LBE3:
 536:main.c        ****             }
 537:main.c        ****             
 538:main.c        ****             
 539:main.c        ****             // If totalDistance >= blockSizeTotal then we should be at target
 540:main.c        ****             if (totalDistance >= blockSizeTotal) {
ARM GAS  C:\Users\ikui753\AppData\Local\Temp\ccYGTKr5.s 			page 44


 1899              		.loc 1 540 0
 1900 03da 674B     		ldr	r3, .L131+40
 1901 03dc 1A68     		ldr	r2, [r3]	@ float
 1902 03de 684B     		ldr	r3, .L131+48
 1903 03e0 1B68     		ldr	r3, [r3]	@ float
 1904 03e2 1946     		mov	r1, r3
 1905 03e4 1046     		mov	r0, r2
 1906 03e6 FFF7FEFF 		bl	__aeabi_fcmpge
 1907 03ea 0346     		mov	r3, r0
 1908 03ec 002B     		cmp	r3, #0
 1909 03ee 03D0     		beq	.L128
 541:main.c        ****                 // Get next instruction
 542:main.c        ****                 MoveToNextInstruction();
 1910              		.loc 1 542 0
 1911 03f0 FFF7FEFF 		bl	MoveToNextInstruction
 543:main.c        **** 
 544:main.c        ****                 
 545:main.c        ****                 return Stop;
 1912              		.loc 1 545 0
 1913 03f4 0523     		movs	r3, #5
 1914 03f6 A7E0     		b	.L81
 1915              	.L128:
 546:main.c        ****             }
 547:main.c        ****             
 548:main.c        ****             return ForwardCourseCorrection();
 1916              		.loc 1 548 0
 1917 03f8 FFF7FEFF 		bl	ForwardCourseCorrection
 1918 03fc 0346     		mov	r3, r0
 1919 03fe A3E0     		b	.L81
 1920              	.L78:
 549:main.c        ****             break;
 550:main.c        ****         case StopAtTarget:
 551:main.c        ****             // Reset Forward Until Target Flags (Had to move in here to make it work)
 552:main.c        ****             // Reset flags
 553:main.c        ****             totalDistance = 0;
 1921              		.loc 1 553 0
 1922 0400 5D4B     		ldr	r3, .L131+40
 1923 0402 4FF00002 		mov	r2, #0
 1924 0406 1A60     		str	r2, [r3]	@ float
 554:main.c        ****             forwardUntilTargetStartedFlag = 0;
 1925              		.loc 1 554 0
 1926 0408 5A4B     		ldr	r3, .L131+36
 1927 040a 0022     		movs	r2, #0
 1928 040c 1A70     		strb	r2, [r3]
 555:main.c        ****             blockSizeTotal = 0;
 1929              		.loc 1 555 0
 1930 040e 5C4B     		ldr	r3, .L131+48
 1931 0410 4FF00002 		mov	r2, #0
 1932 0414 1A60     		str	r2, [r3]	@ float
 556:main.c        ****             
 557:main.c        ****             if (currentDirection == Stop) {
 1933              		.loc 1 557 0
 1934 0416 544B     		ldr	r3, .L131+24
 1935 0418 1B78     		ldrb	r3, [r3]	@ zero_extendqisi2
 1936 041a 052B     		cmp	r3, #5
 1937 041c 08D1     		bne	.L119
 558:main.c        ****                 if (stopBuffer <= 1) {
ARM GAS  C:\Users\ikui753\AppData\Local\Temp\ccYGTKr5.s 			page 45


 1938              		.loc 1 558 0
 1939 041e 534B     		ldr	r3, .L131+28
 1940 0420 1B68     		ldr	r3, [r3]
 1941 0422 012B     		cmp	r3, #1
 1942 0424 01D8     		bhi	.L120
 559:main.c        ****                     return Stop;    
 1943              		.loc 1 559 0
 1944 0426 0523     		movs	r3, #5
 1945 0428 8EE0     		b	.L81
 1946              	.L120:
 560:main.c        ****                 } else {
 561:main.c        ****                     stopBuffer = 250;
 1947              		.loc 1 561 0
 1948 042a 504B     		ldr	r3, .L131+28
 1949 042c FA22     		movs	r2, #250
 1950 042e 1A60     		str	r2, [r3]
 1951              	.L119:
 562:main.c        ****                 }
 563:main.c        ****             }
 564:main.c        ****             
 565:main.c        ****             // RESET EVERYTHING AND FIND NEW PATH FOR NEXT FOOD LIST
 566:main.c        ****             // Make sure index doesn't go over cap
 567:main.c        ****             // Stop at final location
 568:main.c        ****             if (currentFoodListIndex == 4) {
 1952              		.loc 1 568 0
 1953 0430 544B     		ldr	r3, .L131+52
 1954 0432 1B78     		ldrb	r3, [r3]	@ zero_extendqisi2
 1955 0434 042B     		cmp	r3, #4
 1956 0436 01D1     		bne	.L121
 569:main.c        ****                 return Stop;    
 1957              		.loc 1 569 0
 1958 0438 0523     		movs	r3, #5
 1959 043a 85E0     		b	.L81
 1960              	.L121:
 570:main.c        ****             }
 571:main.c        ****             
 572:main.c        ****             currentFoodListIndex++;
 1961              		.loc 1 572 0
 1962 043c 514B     		ldr	r3, .L131+52
 1963 043e 1B78     		ldrb	r3, [r3]	@ zero_extendqisi2
 1964 0440 0133     		adds	r3, r3, #1
 1965 0442 DAB2     		uxtb	r2, r3
 1966 0444 4F4B     		ldr	r3, .L131+52
 1967 0446 1A70     		strb	r2, [r3]
 573:main.c        ****             instructionIndex = 0;
 1968              		.loc 1 573 0
 1969 0448 4F4B     		ldr	r3, .L131+56
 1970 044a 0022     		movs	r2, #0
 1971 044c 1A60     		str	r2, [r3]
 574:main.c        ****             instructionList = findPathNewOrientation(map, food_list, currentFoodListIndex, currentI
 1972              		.loc 1 574 0
 1973 044e 4D4B     		ldr	r3, .L131+52
 1974 0450 1B78     		ldrb	r3, [r3]	@ zero_extendqisi2
 1975 0452 1A46     		mov	r2, r3
 1976 0454 494B     		ldr	r3, .L131+44
 1977 0456 1B7C     		ldrb	r3, [r3, #16]	@ zero_extendqisi2
 1978 0458 4C49     		ldr	r1, .L131+60
ARM GAS  C:\Users\ikui753\AppData\Local\Temp\ccYGTKr5.s 			page 46


 1979 045a 4D48     		ldr	r0, .L131+64
 1980 045c FFF7FEFF 		bl	findPathNewOrientation
 1981 0460 0246     		mov	r2, r0
 1982 0462 4C4B     		ldr	r3, .L131+68
 1983 0464 1A60     		str	r2, [r3]
 575:main.c        ****             numSteps = instructionsListLength();
 1984              		.loc 1 575 0
 1985 0466 FFF7FEFF 		bl	instructionsListLength
 1986 046a 0346     		mov	r3, r0
 1987 046c 1A46     		mov	r2, r3
 1988 046e 4A4B     		ldr	r3, .L131+72
 1989 0470 1A60     		str	r2, [r3]
 576:main.c        ****     
 577:main.c        ****             currentInstruction = GetInstructionAtIndex();
 1990              		.loc 1 577 0
 1991 0472 424C     		ldr	r4, .L131+44
 1992 0474 3B46     		mov	r3, r7
 1993 0476 1846     		mov	r0, r3
 1994 0478 FFF7FEFF 		bl	GetInstructionAtIndex
 1995 047c 2546     		mov	r5, r4
 1996 047e 3C46     		mov	r4, r7
 1997 0480 0FCC     		ldmia	r4!, {r0, r1, r2, r3}
 1998 0482 0FC5     		stmia	r5!, {r0, r1, r2, r3}
 1999 0484 2368     		ldr	r3, [r4]
 2000 0486 2B60     		str	r3, [r5]
 578:main.c        **** 
 579:main.c        ****             currentIgnoreL = instructionList[instructionIndex].ignoreL;
 2001              		.loc 1 579 0
 2002 0488 424B     		ldr	r3, .L131+68
 2003 048a 1968     		ldr	r1, [r3]
 2004 048c 3E4B     		ldr	r3, .L131+56
 2005 048e 1A68     		ldr	r2, [r3]
 2006 0490 1346     		mov	r3, r2
 2007 0492 9B00     		lsls	r3, r3, #2
 2008 0494 1344     		add	r3, r3, r2
 2009 0496 9B00     		lsls	r3, r3, #2
 2010 0498 0B44     		add	r3, r3, r1
 2011 049a 5B68     		ldr	r3, [r3, #4]
 2012 049c DAB2     		uxtb	r2, r3
 2013 049e 3F4B     		ldr	r3, .L131+76
 2014 04a0 1A70     		strb	r2, [r3]
 580:main.c        ****             currentIgnoreR = instructionList[instructionIndex].ignoreR;
 2015              		.loc 1 580 0
 2016 04a2 3C4B     		ldr	r3, .L131+68
 2017 04a4 1968     		ldr	r1, [r3]
 2018 04a6 384B     		ldr	r3, .L131+56
 2019 04a8 1A68     		ldr	r2, [r3]
 2020 04aa 1346     		mov	r3, r2
 2021 04ac 9B00     		lsls	r3, r3, #2
 2022 04ae 1344     		add	r3, r3, r2
 2023 04b0 9B00     		lsls	r3, r3, #2
 2024 04b2 0B44     		add	r3, r3, r1
 2025 04b4 9B68     		ldr	r3, [r3, #8]
 2026 04b6 DAB2     		uxtb	r2, r3
 2027 04b8 394B     		ldr	r3, .L131+80
 2028 04ba 1A70     		strb	r2, [r3]
 581:main.c        ****             
ARM GAS  C:\Users\ikui753\AppData\Local\Temp\ccYGTKr5.s 			page 47


 582:main.c        ****             return Stop;
 2029              		.loc 1 582 0
 2030 04bc 0523     		movs	r3, #5
 2031 04be 43E0     		b	.L81
 2032              	.L76:
 583:main.c        ****             break;
 584:main.c        ****         case uTurn:
 585:main.c        ****             if (currentDirection == Stop) {
 2033              		.loc 1 585 0
 2034 04c0 294B     		ldr	r3, .L131+24
 2035 04c2 1B78     		ldrb	r3, [r3]	@ zero_extendqisi2
 2036 04c4 052B     		cmp	r3, #5
 2037 04c6 08D1     		bne	.L122
 586:main.c        ****                 if (stopBuffer <= 50) {
 2038              		.loc 1 586 0
 2039 04c8 284B     		ldr	r3, .L131+28
 2040 04ca 1B68     		ldr	r3, [r3]
 2041 04cc 322B     		cmp	r3, #50
 2042 04ce 01D8     		bhi	.L123
 587:main.c        ****                     return Stop;    
 2043              		.loc 1 587 0
 2044 04d0 0523     		movs	r3, #5
 2045 04d2 39E0     		b	.L81
 2046              	.L123:
 588:main.c        ****                 } else {
 589:main.c        ****                     stopBuffer = 100;    
 2047              		.loc 1 589 0
 2048 04d4 254B     		ldr	r3, .L131+28
 2049 04d6 6422     		movs	r2, #100
 2050 04d8 1A60     		str	r2, [r3]
 2051              	.L122:
 590:main.c        ****                 }
 591:main.c        ****             }
 592:main.c        ****             
 593:main.c        ****             
 594:main.c        ****             if (!uTurnStartedFlag) {
 2052              		.loc 1 594 0
 2053 04da 324B     		ldr	r3, .L131+84
 2054 04dc 1B78     		ldrb	r3, [r3]
 2055 04de DBB2     		uxtb	r3, r3
 2056 04e0 002B     		cmp	r3, #0
 2057 04e2 07D1     		bne	.L124
 595:main.c        ****                 uTurnStartedFlag = 1;
 2058              		.loc 1 595 0
 2059 04e4 2F4B     		ldr	r3, .L131+84
 2060 04e6 0122     		movs	r2, #1
 2061 04e8 1A70     		strb	r2, [r3]
 596:main.c        ****                 spinCourseCorrectionStarted = 0;
 2062              		.loc 1 596 0
 2063 04ea 2F4B     		ldr	r3, .L131+88
 2064 04ec 0022     		movs	r2, #0
 2065 04ee 1A70     		strb	r2, [r3]
 597:main.c        ****                 return Spin180;
 2066              		.loc 1 597 0
 2067 04f0 0A23     		movs	r3, #10
 2068 04f2 29E0     		b	.L81
 2069              	.L124:
ARM GAS  C:\Users\ikui753\AppData\Local\Temp\ccYGTKr5.s 			page 48


 598:main.c        ****             } 
 599:main.c        ****             
 600:main.c        ****             if (uTurnFinishedFlag) {
 2070              		.loc 1 600 0
 2071 04f4 2D4B     		ldr	r3, .L131+92
 2072 04f6 1B78     		ldrb	r3, [r3]
 2073 04f8 DBB2     		uxtb	r3, r3
 2074 04fa 002B     		cmp	r3, #0
 2075 04fc 03D0     		beq	.L125
 601:main.c        ****                 // MOVE TO NEXT INSTRUCTION
 602:main.c        ****                 MoveToNextInstruction();
 2076              		.loc 1 602 0
 2077 04fe FFF7FEFF 		bl	MoveToNextInstruction
 603:main.c        ****                 return Stop;    
 2078              		.loc 1 603 0
 2079 0502 0523     		movs	r3, #5
 2080 0504 20E0     		b	.L81
 2081              	.L125:
 604:main.c        ****             }
 605:main.c        ****             
 606:main.c        ****             // Repeat SpinCourseCorrection until both or one on black
 607:main.c        ****             if (uTurnStartedFlag) {
 2082              		.loc 1 607 0
 2083 0506 274B     		ldr	r3, .L131+84
 2084 0508 1B78     		ldrb	r3, [r3]
 2085 050a DBB2     		uxtb	r3, r3
 2086 050c 002B     		cmp	r3, #0
 2087 050e 16D0     		beq	.L126
 608:main.c        ****                 if (!s5 && !s6) {
 2088              		.loc 1 608 0
 2089 0510 0F4B     		ldr	r3, .L131
 2090 0512 1B78     		ldrb	r3, [r3]	@ zero_extendqisi2
 2091 0514 002B     		cmp	r3, #0
 2092 0516 12D1     		bne	.L126
 2093              		.loc 1 608 0 is_stmt 0 discriminator 1
 2094 0518 0E4B     		ldr	r3, .L131+4
 2095 051a 1B78     		ldrb	r3, [r3]	@ zero_extendqisi2
 2096 051c 002B     		cmp	r3, #0
 2097 051e 0ED1     		bne	.L126
 609:main.c        ****                     totalLineCount = 0;
 2098              		.loc 1 609 0 is_stmt 1
 2099 0520 234B     		ldr	r3, .L131+96
 2100 0522 0022     		movs	r2, #0
 2101 0524 1A70     		strb	r2, [r3]
 610:main.c        ****                     lineCount = 0;
 2102              		.loc 1 610 0
 2103 0526 234B     		ldr	r3, .L131+100
 2104 0528 0022     		movs	r2, #0
 2105 052a 1A70     		strb	r2, [r3]
 611:main.c        ****                     tooEarlyFlag = 0;
 2106              		.loc 1 611 0
 2107 052c 224B     		ldr	r3, .L131+104
 2108 052e 0022     		movs	r2, #0
 2109 0530 1A70     		strb	r2, [r3]
 612:main.c        ****                     tooLateFlag = 0;
 2110              		.loc 1 612 0
 2111 0532 224B     		ldr	r3, .L131+108
ARM GAS  C:\Users\ikui753\AppData\Local\Temp\ccYGTKr5.s 			page 49


 2112 0534 0022     		movs	r2, #0
 2113 0536 1A70     		strb	r2, [r3]
 613:main.c        ****                     uTurnFinishedFlag = 1;    
 2114              		.loc 1 613 0
 2115 0538 1C4B     		ldr	r3, .L131+92
 2116 053a 0122     		movs	r2, #1
 2117 053c 1A70     		strb	r2, [r3]
 2118              	.L126:
 614:main.c        ****                 }    
 615:main.c        ****             }
 616:main.c        ****             
 617:main.c        ****             return SpinCourseCorrection();
 2119              		.loc 1 617 0
 2120 053e FFF7FEFF 		bl	SpinCourseCorrection
 2121 0542 0346     		mov	r3, r0
 2122 0544 00E0     		b	.L81
 2123              	.L71:
 618:main.c        ****             break;
 619:main.c        ****         default:
 620:main.c        ****             return Stop;
 2124              		.loc 1 620 0
 2125 0546 0523     		movs	r3, #5
 2126              	.L81:
 621:main.c        ****             break;
 622:main.c        ****     }
 623:main.c        ****     return Stop;
 624:main.c        **** }
 2127              		.loc 1 624 0
 2128 0548 1846     		mov	r0, r3
 2129 054a 2837     		adds	r7, r7, #40
 2130              		.cfi_def_cfa_offset 16
 2131 054c BD46     		mov	sp, r7
 2132              		.cfi_def_cfa_register 13
 2133              		@ sp needed
 2134 054e B0BD     		pop	{r4, r5, r7, pc}
 2135              	.L132:
 2136              		.align	2
 2137              	.L131:
 2138 0550 00000000 		.word	s5
 2139 0554 00000000 		.word	s6
 2140 0558 00000000 		.word	forwardBuffer
 2141 055c 00000000 		.word	s4
 2142 0560 00000000 		.word	firstTurnIteration
 2143 0564 37000000 		.word	turnFinishedFlag
 2144 0568 00000000 		.word	currentDirection
 2145 056c 00000000 		.word	stopBuffer
 2146 0570 36000000 		.word	turnStartedFlag
 2147 0574 38000000 		.word	forwardUntilTargetStartedFlag
 2148 0578 00000000 		.word	totalDistance
 2149 057c 00000000 		.word	currentInstruction
 2150 0580 00000000 		.word	blockSizeTotal
 2151 0584 00000000 		.word	currentFoodListIndex
 2152 0588 14000000 		.word	instructionIndex
 2153 058c 00000000 		.word	food_list
 2154 0590 00000000 		.word	map
 2155 0594 00000000 		.word	instructionList
 2156 0598 00000000 		.word	numSteps
ARM GAS  C:\Users\ikui753\AppData\Local\Temp\ccYGTKr5.s 			page 50


 2157 059c 3E000000 		.word	currentIgnoreL
 2158 05a0 45000000 		.word	currentIgnoreR
 2159 05a4 39000000 		.word	uTurnStartedFlag
 2160 05a8 3D000000 		.word	spinCourseCorrectionStarted
 2161 05ac 3A000000 		.word	uTurnFinishedFlag
 2162 05b0 3F000000 		.word	totalLineCount
 2163 05b4 40000000 		.word	lineCount
 2164 05b8 42000000 		.word	tooEarlyFlag
 2165 05bc 43000000 		.word	tooLateFlag
 2166              		.cfi_endproc
 2167              	.LFE76:
 2168              		.size	GetMovementAccordingToInstruction, .-GetMovementAccordingToInstruction
 2169              		.section	.text.MoveToNextInstruction,"ax",%progbits
 2170              		.align	2
 2171              		.global	MoveToNextInstruction
 2172              		.thumb
 2173              		.thumb_func
 2174              		.type	MoveToNextInstruction, %function
 2175              	MoveToNextInstruction:
 2176              	.LFB77:
 625:main.c        **** /*
 626:main.c        **** // Calculate total blocksize to travel until target
 627:main.c        **** float CalculateDistanceToTravel(float blockSize) {
 628:main.c        ****     float totalBlockSize;
 629:main.c        ****     
 630:main.c        ****     // Check for Row, Col that target is 
 631:main.c        ****     int targetRow = food_list[0][0];
 632:main.c        ****     int targetCol = food_list[0][1];
 633:main.c        ****     
 634:main.c        ****     int pathCount = 0;
 635:main.c        ****     currentRobotOrientation = currentInstruction.expectedOrientation;
 636:main.c        ****     // Depending on the robot orientation
 637:main.c        ****     // count++ if row, col is 8
 638:main.c        ****     // count reset if row, col is 1 or 0
 639:main.c        ****     // save count if row, col is 9
 640:main.c        ****     switch (currentRobotOrientation) {
 641:main.c        ****         case Up:
 642:main.c        ****             // Column
 643:main.c        ****             // Start from Bottom (since we're facing up)
 644:main.c        ****             for (int i = MAX_ROWS; i >= 0; i--) {
 645:main.c        ****                 if (map[i][targetCol] == 9) {
 646:main.c        ****                     break;    
 647:main.c        ****                 }
 648:main.c        ****                 if (map[i][targetCol] == 0) {
 649:main.c        ****                     pathCount++;    
 650:main.c        ****                 }
 651:main.c        ****                 if (map[i][targetCol] == 1) {
 652:main.c        ****                     pathCount = 0;
 653:main.c        ****                 }
 654:main.c        ****             }
 655:main.c        ****             break;
 656:main.c        ****         case Down:
 657:main.c        ****             // Target Column, Check Row
 658:main.c        ****             // Start from Top
 659:main.c        ****             for (int i = 0; i < MAX_ROWS; i++) {
 660:main.c        ****                 if (map[i][targetCol] == 9) {
 661:main.c        ****                     break;    
ARM GAS  C:\Users\ikui753\AppData\Local\Temp\ccYGTKr5.s 			page 51


 662:main.c        ****                 }
 663:main.c        ****                 if (map[i][targetCol] == 0) {
 664:main.c        ****                     pathCount++;    
 665:main.c        ****                 }
 666:main.c        ****                 if (map[i][targetCol] == 1) {
 667:main.c        ****                     pathCount = 0;
 668:main.c        ****                 }
 669:main.c        ****             }
 670:main.c        ****             break;
 671:main.c        ****         case Left:
 672:main.c        ****             // Target Row, Check Col
 673:main.c        ****             // Start from Right
 674:main.c        ****             for (int i = MAX_COLS; i >= 0; i--) {
 675:main.c        ****                 if (map[targetRow][i] == 9) {
 676:main.c        ****                     break;    
 677:main.c        ****                 }
 678:main.c        ****                 if (map[targetRow][i] == 0) {
 679:main.c        ****                     pathCount++;    
 680:main.c        ****                 }
 681:main.c        ****                 if (map[i][targetCol] == 1) {
 682:main.c        ****                     pathCount = 0;
 683:main.c        ****                 }
 684:main.c        ****             }
 685:main.c        ****             break;
 686:main.c        ****         
 687:main.c        ****         case Right:
 688:main.c        ****             // Target Row, Check Col
 689:main.c        ****             // Start from Left
 690:main.c        ****             for (int i = 0; i < MAX_COLS; i++) {
 691:main.c        ****                 if (map[targetRow][i] == 9) {
 692:main.c        ****                     break;    
 693:main.c        ****                 }
 694:main.c        ****                 if (map[targetRow][i] == 0) {
 695:main.c        ****                     pathCount++;    
 696:main.c        ****                 }
 697:main.c        ****                 if (map[i][targetCol] == 1) {
 698:main.c        ****                     pathCount = 0;
 699:main.c        ****                 }
 700:main.c        **** 
 701:main.c        ****             }
 702:main.c        ****             break;
 703:main.c        ****     }
 704:main.c        ****     totalBlockSize = blockSize * pathCount;
 705:main.c        ****     clearMap(map); // clear map after calculating total block size to travel for forward until targ
 706:main.c        ****     return totalBlockSize;
 707:main.c        **** }
 708:main.c        **** */
 709:main.c        **** // get next instruction
 710:main.c        **** void MoveToNextInstruction() {
 2177              		.loc 1 710 0
 2178              		.cfi_startproc
 2179              		@ args = 0, pretend = 0, frame = 0
 2180              		@ frame_needed = 1, uses_anonymous_args = 0
 2181              		@ link register save eliminated.
 2182 0000 80B4     		push	{r7}
 2183              		.cfi_def_cfa_offset 4
 2184              		.cfi_offset 7, -4
ARM GAS  C:\Users\ikui753\AppData\Local\Temp\ccYGTKr5.s 			page 52


 2185 0002 00AF     		add	r7, sp, #0
 2186              		.cfi_def_cfa_register 7
 711:main.c        ****     currentIgnoreL = 0;
 2187              		.loc 1 711 0
 2188 0004 144B     		ldr	r3, .L134
 2189 0006 0022     		movs	r2, #0
 2190 0008 1A70     		strb	r2, [r3]
 712:main.c        ****     currentIgnoreR = 0;
 2191              		.loc 1 712 0
 2192 000a 144B     		ldr	r3, .L134+4
 2193 000c 0022     		movs	r2, #0
 2194 000e 1A70     		strb	r2, [r3]
 713:main.c        ****     instructionIndex++;
 2195              		.loc 1 713 0
 2196 0010 134B     		ldr	r3, .L134+8
 2197 0012 1B68     		ldr	r3, [r3]
 2198 0014 0133     		adds	r3, r3, #1
 2199 0016 124A     		ldr	r2, .L134+8
 2200 0018 1360     		str	r3, [r2]
 714:main.c        ****     currentIgnoreL = instructionList[instructionIndex].ignoreL;
 2201              		.loc 1 714 0
 2202 001a 124B     		ldr	r3, .L134+12
 2203 001c 1968     		ldr	r1, [r3]
 2204 001e 104B     		ldr	r3, .L134+8
 2205 0020 1A68     		ldr	r2, [r3]
 2206 0022 1346     		mov	r3, r2
 2207 0024 9B00     		lsls	r3, r3, #2
 2208 0026 1344     		add	r3, r3, r2
 2209 0028 9B00     		lsls	r3, r3, #2
 2210 002a 0B44     		add	r3, r3, r1
 2211 002c 5B68     		ldr	r3, [r3, #4]
 2212 002e DAB2     		uxtb	r2, r3
 2213 0030 094B     		ldr	r3, .L134
 2214 0032 1A70     		strb	r2, [r3]
 715:main.c        ****     currentIgnoreR = instructionList[instructionIndex].ignoreR;
 2215              		.loc 1 715 0
 2216 0034 0B4B     		ldr	r3, .L134+12
 2217 0036 1968     		ldr	r1, [r3]
 2218 0038 094B     		ldr	r3, .L134+8
 2219 003a 1A68     		ldr	r2, [r3]
 2220 003c 1346     		mov	r3, r2
 2221 003e 9B00     		lsls	r3, r3, #2
 2222 0040 1344     		add	r3, r3, r2
 2223 0042 9B00     		lsls	r3, r3, #2
 2224 0044 0B44     		add	r3, r3, r1
 2225 0046 9B68     		ldr	r3, [r3, #8]
 2226 0048 DAB2     		uxtb	r2, r3
 2227 004a 044B     		ldr	r3, .L134+4
 2228 004c 1A70     		strb	r2, [r3]
 716:main.c        **** 
 717:main.c        **** }
 2229              		.loc 1 717 0
 2230 004e 00BF     		nop
 2231 0050 BD46     		mov	sp, r7
 2232              		.cfi_def_cfa_register 13
 2233              		@ sp needed
 2234 0052 80BC     		pop	{r7}
ARM GAS  C:\Users\ikui753\AppData\Local\Temp\ccYGTKr5.s 			page 53


 2235              		.cfi_restore 7
 2236              		.cfi_def_cfa_offset 0
 2237 0054 7047     		bx	lr
 2238              	.L135:
 2239 0056 00BF     		.align	2
 2240              	.L134:
 2241 0058 3E000000 		.word	currentIgnoreL
 2242 005c 45000000 		.word	currentIgnoreR
 2243 0060 14000000 		.word	instructionIndex
 2244 0064 00000000 		.word	instructionList
 2245              		.cfi_endproc
 2246              	.LFE77:
 2247              		.size	MoveToNextInstruction, .-MoveToNextInstruction
 2248              		.section	.text.GetInstructionAtIndex,"ax",%progbits
 2249              		.align	2
 2250              		.global	GetInstructionAtIndex
 2251              		.thumb
 2252              		.thumb_func
 2253              		.type	GetInstructionAtIndex, %function
 2254              	GetInstructionAtIndex:
 2255              	.LFB78:
 718:main.c        **** 
 719:main.c        **** Instruction GetInstructionAtIndex() {
 2256              		.loc 1 719 0
 2257              		.cfi_startproc
 2258              		@ args = 0, pretend = 0, frame = 32
 2259              		@ frame_needed = 1, uses_anonymous_args = 0
 2260              		@ link register save eliminated.
 2261 0000 B0B4     		push	{r4, r5, r7}
 2262              		.cfi_def_cfa_offset 12
 2263              		.cfi_offset 4, -12
 2264              		.cfi_offset 5, -8
 2265              		.cfi_offset 7, -4
 2266 0002 89B0     		sub	sp, sp, #36
 2267              		.cfi_def_cfa_offset 48
 2268 0004 00AF     		add	r7, sp, #0
 2269              		.cfi_def_cfa_register 7
 2270 0006 7860     		str	r0, [r7, #4]
 720:main.c        ****     Instruction nextInstruction;
 721:main.c        ****     // input is list of instructions and robot will react accordingly
 722:main.c        ****     nextInstruction.direction = instructionList[instructionIndex].direction;        
 2271              		.loc 1 722 0
 2272 0008 164B     		ldr	r3, .L138
 2273 000a 1968     		ldr	r1, [r3]
 2274 000c 164B     		ldr	r3, .L138+4
 2275 000e 1A68     		ldr	r2, [r3]
 2276 0010 1346     		mov	r3, r2
 2277 0012 9B00     		lsls	r3, r3, #2
 2278 0014 1344     		add	r3, r3, r2
 2279 0016 9B00     		lsls	r3, r3, #2
 2280 0018 0B44     		add	r3, r3, r1
 2281 001a 1B78     		ldrb	r3, [r3]	@ zero_extendqisi2
 2282 001c 3B73     		strb	r3, [r7, #12]
 723:main.c        ****     nextInstruction.expectedOrientation = instructionList[instructionIndex].expectedOrientation;
 2283              		.loc 1 723 0
 2284 001e 114B     		ldr	r3, .L138
 2285 0020 1968     		ldr	r1, [r3]
ARM GAS  C:\Users\ikui753\AppData\Local\Temp\ccYGTKr5.s 			page 54


 2286 0022 114B     		ldr	r3, .L138+4
 2287 0024 1A68     		ldr	r2, [r3]
 2288 0026 1346     		mov	r3, r2
 2289 0028 9B00     		lsls	r3, r3, #2
 2290 002a 1344     		add	r3, r3, r2
 2291 002c 9B00     		lsls	r3, r3, #2
 2292 002e 0B44     		add	r3, r3, r1
 2293 0030 1B7C     		ldrb	r3, [r3, #16]	@ zero_extendqisi2
 2294 0032 3B77     		strb	r3, [r7, #28]
 724:main.c        ****     nextInstruction.distanceToTarget = instructionList[instructionIndex].distanceToTarget;
 2295              		.loc 1 724 0
 2296 0034 0B4B     		ldr	r3, .L138
 2297 0036 1968     		ldr	r1, [r3]
 2298 0038 0B4B     		ldr	r3, .L138+4
 2299 003a 1A68     		ldr	r2, [r3]
 2300 003c 1346     		mov	r3, r2
 2301 003e 9B00     		lsls	r3, r3, #2
 2302 0040 1344     		add	r3, r3, r2
 2303 0042 9B00     		lsls	r3, r3, #2
 2304 0044 0B44     		add	r3, r3, r1
 2305 0046 DB68     		ldr	r3, [r3, #12]
 2306 0048 BB61     		str	r3, [r7, #24]
 725:main.c        ****     return nextInstruction;
 2307              		.loc 1 725 0
 2308 004a 7B68     		ldr	r3, [r7, #4]
 2309 004c 1D46     		mov	r5, r3
 2310 004e 07F10C04 		add	r4, r7, #12
 2311 0052 0FCC     		ldmia	r4!, {r0, r1, r2, r3}
 2312 0054 0FC5     		stmia	r5!, {r0, r1, r2, r3}
 2313 0056 2368     		ldr	r3, [r4]
 2314 0058 2B60     		str	r3, [r5]
 726:main.c        **** }
 2315              		.loc 1 726 0
 2316 005a 7868     		ldr	r0, [r7, #4]
 2317 005c 2437     		adds	r7, r7, #36
 2318              		.cfi_def_cfa_offset 12
 2319 005e BD46     		mov	sp, r7
 2320              		.cfi_def_cfa_register 13
 2321              		@ sp needed
 2322 0060 B0BC     		pop	{r4, r5, r7}
 2323              		.cfi_restore 7
 2324              		.cfi_restore 5
 2325              		.cfi_restore 4
 2326              		.cfi_def_cfa_offset 0
 2327 0062 7047     		bx	lr
 2328              	.L139:
 2329              		.align	2
 2330              	.L138:
 2331 0064 00000000 		.word	instructionList
 2332 0068 14000000 		.word	instructionIndex
 2333              		.cfi_endproc
 2334              	.LFE78:
 2335              		.size	GetInstructionAtIndex, .-GetInstructionAtIndex
 2336              		.section	.text.RotateClockwise180Degrees,"ax",%progbits
 2337              		.align	2
 2338              		.global	RotateClockwise180Degrees
 2339              		.thumb
ARM GAS  C:\Users\ikui753\AppData\Local\Temp\ccYGTKr5.s 			page 55


 2340              		.thumb_func
 2341              		.type	RotateClockwise180Degrees, %function
 2342              	RotateClockwise180Degrees:
 2343              	.LFB79:
 727:main.c        **** 
 728:main.c        **** void RotateClockwise180Degrees() {
 2344              		.loc 1 728 0
 2345              		.cfi_startproc
 2346              		@ args = 0, pretend = 0, frame = 8
 2347              		@ frame_needed = 1, uses_anonymous_args = 0
 2348 0000 80B5     		push	{r7, lr}
 2349              		.cfi_def_cfa_offset 8
 2350              		.cfi_offset 7, -8
 2351              		.cfi_offset 14, -4
 2352 0002 82B0     		sub	sp, sp, #8
 2353              		.cfi_def_cfa_offset 16
 2354 0004 00AF     		add	r7, sp, #0
 2355              		.cfi_def_cfa_register 7
 729:main.c        ****     uint16 count1 = (32767 + (6553 * 0.9));
 2356              		.loc 1 729 0
 2357 0006 49F20873 		movw	r3, #38664
 2358 000a 7B80     		strh	r3, [r7, #2]	@ movhi
 730:main.c        ****     uint16 count2 = (32767 + (6553 * 0.9));
 2359              		.loc 1 730 0
 2360 000c 49F20873 		movw	r3, #38664
 2361 0010 3B80     		strh	r3, [r7]	@ movhi
 731:main.c        ****     PWM_1_WriteCompare(count1);
 2362              		.loc 1 731 0
 2363 0012 7B88     		ldrh	r3, [r7, #2]
 2364 0014 1846     		mov	r0, r3
 2365 0016 FFF7FEFF 		bl	PWM_1_WriteCompare
 732:main.c        ****     PWM_2_WriteCompare(count2);
 2366              		.loc 1 732 0
 2367 001a 3B88     		ldrh	r3, [r7]
 2368 001c 1846     		mov	r0, r3
 2369 001e FFF7FEFF 		bl	PWM_2_WriteCompare
 733:main.c        ****     
 734:main.c        ****     int quadPulseCount = 0;
 2370              		.loc 1 734 0
 2371 0022 0023     		movs	r3, #0
 2372 0024 7B60     		str	r3, [r7, #4]
 735:main.c        ****     QuadDec_M1_SetCounter(0);
 2373              		.loc 1 735 0
 2374 0026 0020     		movs	r0, #0
 2375 0028 FFF7FEFF 		bl	QuadDec_M1_SetCounter
 736:main.c        ****     // Before 180, save initial configuration
 737:main.c        ****     if (!s3) {
 2376              		.loc 1 737 0
 2377 002c 3A4B     		ldr	r3, .L153
 2378 002e 1B78     		ldrb	r3, [r3]	@ zero_extendqisi2
 2379 0030 002B     		cmp	r3, #0
 2380 0032 06D1     		bne	.L141
 738:main.c        ****         totalLineCount++;    
 2381              		.loc 1 738 0
 2382 0034 394B     		ldr	r3, .L153+4
 2383 0036 1B78     		ldrb	r3, [r3]
 2384 0038 DBB2     		uxtb	r3, r3
ARM GAS  C:\Users\ikui753\AppData\Local\Temp\ccYGTKr5.s 			page 56


 2385 003a 0133     		adds	r3, r3, #1
 2386 003c DAB2     		uxtb	r2, r3
 2387 003e 374B     		ldr	r3, .L153+4
 2388 0040 1A70     		strb	r2, [r3]
 2389              	.L141:
 739:main.c        ****     }
 740:main.c        ****     if (!s4) {
 2390              		.loc 1 740 0
 2391 0042 374B     		ldr	r3, .L153+8
 2392 0044 1B78     		ldrb	r3, [r3]	@ zero_extendqisi2
 2393 0046 002B     		cmp	r3, #0
 2394 0048 06D1     		bne	.L142
 741:main.c        ****         totalLineCount++;    
 2395              		.loc 1 741 0
 2396 004a 344B     		ldr	r3, .L153+4
 2397 004c 1B78     		ldrb	r3, [r3]
 2398 004e DBB2     		uxtb	r3, r3
 2399 0050 0133     		adds	r3, r3, #1
 2400 0052 DAB2     		uxtb	r2, r3
 2401 0054 314B     		ldr	r3, .L153+4
 2402 0056 1A70     		strb	r2, [r3]
 2403              	.L142:
 742:main.c        ****     }
 743:main.c        ****     if (!s5 || !s6) {
 2404              		.loc 1 743 0
 2405 0058 324B     		ldr	r3, .L153+12
 2406 005a 1B78     		ldrb	r3, [r3]	@ zero_extendqisi2
 2407 005c 002B     		cmp	r3, #0
 2408 005e 03D0     		beq	.L143
 2409              		.loc 1 743 0 is_stmt 0 discriminator 1
 2410 0060 314B     		ldr	r3, .L153+16
 2411 0062 1B78     		ldrb	r3, [r3]	@ zero_extendqisi2
 2412 0064 002B     		cmp	r3, #0
 2413 0066 2AD1     		bne	.L145
 2414              	.L143:
 744:main.c        ****         totalLineCount++;    
 2415              		.loc 1 744 0 is_stmt 1
 2416 0068 2C4B     		ldr	r3, .L153+4
 2417 006a 1B78     		ldrb	r3, [r3]
 2418 006c DBB2     		uxtb	r3, r3
 2419 006e 0133     		adds	r3, r3, #1
 2420 0070 DAB2     		uxtb	r2, r3
 2421 0072 2A4B     		ldr	r3, .L153+4
 2422 0074 1A70     		strb	r2, [r3]
 745:main.c        ****     }
 746:main.c        ****     
 747:main.c        ****     // During 180
 748:main.c        ****     while(quadPulseCount < 210) {
 2423              		.loc 1 748 0
 2424 0076 22E0     		b	.L145
 2425              	.L148:
 749:main.c        ****         quadPulseCount = QuadDec_M1_GetCounter();
 2426              		.loc 1 749 0
 2427 0078 FFF7FEFF 		bl	QuadDec_M1_GetCounter
 2428 007c 0346     		mov	r3, r0
 2429 007e 7B60     		str	r3, [r7, #4]
 750:main.c        ****         if (!s3) {
ARM GAS  C:\Users\ikui753\AppData\Local\Temp\ccYGTKr5.s 			page 57


 2430              		.loc 1 750 0
 2431 0080 254B     		ldr	r3, .L153
 2432 0082 1B78     		ldrb	r3, [r3]	@ zero_extendqisi2
 2433 0084 002B     		cmp	r3, #0
 2434 0086 02D1     		bne	.L146
 751:main.c        ****             onLineFlag = 1;    
 2435              		.loc 1 751 0
 2436 0088 284B     		ldr	r3, .L153+20
 2437 008a 0122     		movs	r2, #1
 2438 008c 1A70     		strb	r2, [r3]
 2439              	.L146:
 752:main.c        ****         }
 753:main.c        ****         
 754:main.c        ****         if (onLineFlag) {
 2440              		.loc 1 754 0
 2441 008e 274B     		ldr	r3, .L153+20
 2442 0090 1B78     		ldrb	r3, [r3]
 2443 0092 DBB2     		uxtb	r3, r3
 2444 0094 002B     		cmp	r3, #0
 2445 0096 06D0     		beq	.L147
 755:main.c        ****             lineCount++;    
 2446              		.loc 1 755 0
 2447 0098 254B     		ldr	r3, .L153+24
 2448 009a 1B78     		ldrb	r3, [r3]
 2449 009c DBB2     		uxtb	r3, r3
 2450 009e 0133     		adds	r3, r3, #1
 2451 00a0 DAB2     		uxtb	r2, r3
 2452 00a2 234B     		ldr	r3, .L153+24
 2453 00a4 1A70     		strb	r2, [r3]
 2454              	.L147:
 756:main.c        ****         }
 757:main.c        ****         
 758:main.c        ****         if (!onLineFlag) {
 2455              		.loc 1 758 0
 2456 00a6 214B     		ldr	r3, .L153+20
 2457 00a8 1B78     		ldrb	r3, [r3]
 2458 00aa DBB2     		uxtb	r3, r3
 2459 00ac 002B     		cmp	r3, #0
 2460 00ae 06D1     		bne	.L145
 759:main.c        ****             if (s3) {
 2461              		.loc 1 759 0
 2462 00b0 194B     		ldr	r3, .L153
 2463 00b2 1B78     		ldrb	r3, [r3]	@ zero_extendqisi2
 2464 00b4 002B     		cmp	r3, #0
 2465 00b6 02D0     		beq	.L145
 760:main.c        ****                 onLineFlag = 0;    
 2466              		.loc 1 760 0
 2467 00b8 1C4B     		ldr	r3, .L153+20
 2468 00ba 0022     		movs	r2, #0
 2469 00bc 1A70     		strb	r2, [r3]
 2470              	.L145:
 748:main.c        ****         quadPulseCount = QuadDec_M1_GetCounter();
 2471              		.loc 1 748 0
 2472 00be 7B68     		ldr	r3, [r7, #4]
 2473 00c0 D12B     		cmp	r3, #209
 2474 00c2 D9DD     		ble	.L148
 761:main.c        ****             }
ARM GAS  C:\Users\ikui753\AppData\Local\Temp\ccYGTKr5.s 			page 58


 762:main.c        ****         }
 763:main.c        ****     }
 764:main.c        ****     
 765:main.c        ****     // After 180
 766:main.c        ****     if (totalLineCount == 0) {
 2475              		.loc 1 766 0
 2476 00c4 154B     		ldr	r3, .L153+4
 2477 00c6 1B78     		ldrb	r3, [r3]
 2478 00c8 DBB2     		uxtb	r3, r3
 2479 00ca 002B     		cmp	r3, #0
 2480 00cc 06D1     		bne	.L149
 767:main.c        ****         // we are on no lines
 768:main.c        ****         tooEarlyFlag = 1;
 2481              		.loc 1 768 0
 2482 00ce 194B     		ldr	r3, .L153+28
 2483 00d0 0122     		movs	r2, #1
 2484 00d2 1A70     		strb	r2, [r3]
 769:main.c        ****         QuadDec_M1_SetCounter(0);
 2485              		.loc 1 769 0
 2486 00d4 0020     		movs	r0, #0
 2487 00d6 FFF7FEFF 		bl	QuadDec_M1_SetCounter
 770:main.c        ****         return;
 2488              		.loc 1 770 0
 2489 00da 19E0     		b	.L140
 2490              	.L149:
 771:main.c        ****     }
 772:main.c        ****     else if (lineCount > totalLineCount) {
 2491              		.loc 1 772 0
 2492 00dc 144B     		ldr	r3, .L153+24
 2493 00de 1B78     		ldrb	r3, [r3]
 2494 00e0 DAB2     		uxtb	r2, r3
 2495 00e2 0E4B     		ldr	r3, .L153+4
 2496 00e4 1B78     		ldrb	r3, [r3]
 2497 00e6 DBB2     		uxtb	r3, r3
 2498 00e8 9A42     		cmp	r2, r3
 2499 00ea 03D9     		bls	.L151
 773:main.c        ****         tooLateFlag = 1;    
 2500              		.loc 1 773 0
 2501 00ec 124B     		ldr	r3, .L153+32
 2502 00ee 0122     		movs	r2, #1
 2503 00f0 1A70     		strb	r2, [r3]
 2504 00f2 0AE0     		b	.L152
 2505              	.L151:
 774:main.c        ****     }
 775:main.c        ****     else if (lineCount < totalLineCount) {
 2506              		.loc 1 775 0
 2507 00f4 0E4B     		ldr	r3, .L153+24
 2508 00f6 1B78     		ldrb	r3, [r3]
 2509 00f8 DAB2     		uxtb	r2, r3
 2510 00fa 084B     		ldr	r3, .L153+4
 2511 00fc 1B78     		ldrb	r3, [r3]
 2512 00fe DBB2     		uxtb	r3, r3
 2513 0100 9A42     		cmp	r2, r3
 2514 0102 02D2     		bcs	.L152
 776:main.c        ****         tooEarlyFlag = 1;    
 2515              		.loc 1 776 0
 2516 0104 0B4B     		ldr	r3, .L153+28
ARM GAS  C:\Users\ikui753\AppData\Local\Temp\ccYGTKr5.s 			page 59


 2517 0106 0122     		movs	r2, #1
 2518 0108 1A70     		strb	r2, [r3]
 2519              	.L152:
 777:main.c        ****     }
 778:main.c        ****     QuadDec_M1_SetCounter(0);
 2520              		.loc 1 778 0
 2521 010a 0020     		movs	r0, #0
 2522 010c FFF7FEFF 		bl	QuadDec_M1_SetCounter
 2523              	.L140:
 779:main.c        **** }
 2524              		.loc 1 779 0
 2525 0110 0837     		adds	r7, r7, #8
 2526              		.cfi_def_cfa_offset 8
 2527 0112 BD46     		mov	sp, r7
 2528              		.cfi_def_cfa_register 13
 2529              		@ sp needed
 2530 0114 80BD     		pop	{r7, pc}
 2531              	.L154:
 2532 0116 00BF     		.align	2
 2533              	.L153:
 2534 0118 00000000 		.word	s3
 2535 011c 3F000000 		.word	totalLineCount
 2536 0120 00000000 		.word	s4
 2537 0124 00000000 		.word	s5
 2538 0128 00000000 		.word	s6
 2539 012c 41000000 		.word	onLineFlag
 2540 0130 40000000 		.word	lineCount
 2541 0134 42000000 		.word	tooEarlyFlag
 2542 0138 43000000 		.word	tooLateFlag
 2543              		.cfi_endproc
 2544              	.LFE79:
 2545              		.size	RotateClockwise180Degrees, .-RotateClockwise180Degrees
 2546              		.section	.text.SetRobotMovement,"ax",%progbits
 2547              		.align	2
 2548              		.global	SetRobotMovement
 2549              		.thumb
 2550              		.thumb_func
 2551              		.type	SetRobotMovement, %function
 2552              	SetRobotMovement:
 2553              	.LFB80:
 780:main.c        **** 
 781:main.c        **** // Sets robot movement direction state according to currentDirection which is set by Check
 782:main.c        **** void SetRobotMovement() {
 2554              		.loc 1 782 0
 2555              		.cfi_startproc
 2556              		@ args = 0, pretend = 0, frame = 24
 2557              		@ frame_needed = 1, uses_anonymous_args = 0
 2558 0000 B0B5     		push	{r4, r5, r7, lr}
 2559              		.cfi_def_cfa_offset 16
 2560              		.cfi_offset 4, -16
 2561              		.cfi_offset 5, -12
 2562              		.cfi_offset 7, -8
 2563              		.cfi_offset 14, -4
 2564 0002 86B0     		sub	sp, sp, #24
 2565              		.cfi_def_cfa_offset 40
 2566 0004 00AF     		add	r7, sp, #0
 2567              		.cfi_def_cfa_register 7
ARM GAS  C:\Users\ikui753\AppData\Local\Temp\ccYGTKr5.s 			page 60


 783:main.c        ****     currentInstruction = GetInstructionAtIndex(); // get current/ next instruction
 2568              		.loc 1 783 0
 2569 0006 294C     		ldr	r4, .L171
 2570 0008 3B46     		mov	r3, r7
 2571 000a 1846     		mov	r0, r3
 2572 000c FFF7FEFF 		bl	GetInstructionAtIndex
 2573 0010 2546     		mov	r5, r4
 2574 0012 3C46     		mov	r4, r7
 2575 0014 0FCC     		ldmia	r4!, {r0, r1, r2, r3}
 2576 0016 0FC5     		stmia	r5!, {r0, r1, r2, r3}
 2577 0018 2368     		ldr	r3, [r4]
 2578 001a 2B60     		str	r3, [r5]
 784:main.c        ****     previousDirection = currentDirection;
 2579              		.loc 1 784 0
 2580 001c 244B     		ldr	r3, .L171+4
 2581 001e 1A78     		ldrb	r2, [r3]	@ zero_extendqisi2
 2582 0020 244B     		ldr	r3, .L171+8
 2583 0022 1A70     		strb	r2, [r3]
 785:main.c        ****     currentDirection = GetMovementAccordingToInstruction(); // check sensors, adjust robot movement
 2584              		.loc 1 785 0
 2585 0024 FFF7FEFF 		bl	GetMovementAccordingToInstruction
 2586 0028 0346     		mov	r3, r0
 2587 002a 1A46     		mov	r2, r3
 2588 002c 204B     		ldr	r3, .L171+4
 2589 002e 1A70     		strb	r2, [r3]
 786:main.c        ****     // move robot depending on sensors
 787:main.c        ****     switch (currentDirection) {
 2590              		.loc 1 787 0
 2591 0030 1F4B     		ldr	r3, .L171+4
 2592 0032 1B78     		ldrb	r3, [r3]	@ zero_extendqisi2
 2593 0034 0A2B     		cmp	r3, #10
 2594 0036 35D8     		bhi	.L169
 2595 0038 01A2     		adr	r2, .L158
 2596 003a 52F823F0 		ldr	pc, [r2, r3, lsl #2]
 2597 003e 00BF     		.p2align 2
 2598              	.L158:
 2599 0040 6D000000 		.word	.L157+1
 2600 0044 73000000 		.word	.L159+1
 2601 0048 79000000 		.word	.L160+1
 2602 004c 85000000 		.word	.L161+1
 2603 0050 7F000000 		.word	.L162+1
 2604 0054 8B000000 		.word	.L163+1
 2605 0058 A3000000 		.word	.L170+1
 2606 005c A3000000 		.word	.L170+1
 2607 0060 91000000 		.word	.L166+1
 2608 0064 97000000 		.word	.L167+1
 2609 0068 9D000000 		.word	.L168+1
 2610              		.p2align 1
 2611              	.L157:
 788:main.c        ****         //Forward, TurnRight, TurnLeft, AdjustToTheRight, AdjustToTheLeft, Stop, Unknown
 789:main.c        ****         case Forward:
 790:main.c        ****             moveForward();
 2612              		.loc 1 790 0
 2613 006c FFF7FEFF 		bl	moveForward
 791:main.c        ****             break;
 2614              		.loc 1 791 0
 2615 0070 18E0     		b	.L156
ARM GAS  C:\Users\ikui753\AppData\Local\Temp\ccYGTKr5.s 			page 61


 2616              	.L159:
 792:main.c        ****         case TurnRight:
 793:main.c        ****             turnRight();
 2617              		.loc 1 793 0
 2618 0072 FFF7FEFF 		bl	turnRight
 794:main.c        ****             break;
 2619              		.loc 1 794 0
 2620 0076 15E0     		b	.L156
 2621              	.L160:
 795:main.c        ****         case TurnLeft:
 796:main.c        ****             turnLeft(); // try course correction methods for L/R turn
 2622              		.loc 1 796 0
 2623 0078 FFF7FEFF 		bl	turnLeft
 797:main.c        ****             break;
 2624              		.loc 1 797 0
 2625 007c 12E0     		b	.L156
 2626              	.L162:
 798:main.c        ****         case AdjustToTheRight:
 799:main.c        ****             adjustRight();
 2627              		.loc 1 799 0
 2628 007e FFF7FEFF 		bl	adjustRight
 800:main.c        ****             break;
 2629              		.loc 1 800 0
 2630 0082 0FE0     		b	.L156
 2631              	.L161:
 801:main.c        ****         case AdjustToTheLeft:
 802:main.c        ****             adjustLeft();
 2632              		.loc 1 802 0
 2633 0084 FFF7FEFF 		bl	adjustLeft
 803:main.c        ****             break;
 2634              		.loc 1 803 0
 2635 0088 0CE0     		b	.L156
 2636              	.L163:
 804:main.c        ****         case Stop:
 805:main.c        ****             stopMoving();
 2637              		.loc 1 805 0
 2638 008a FFF7FEFF 		bl	stopMoving
 806:main.c        ****             break;
 2639              		.loc 1 806 0
 2640 008e 09E0     		b	.L156
 2641              	.L166:
 807:main.c        ****         case ForwardAfterTurn:
 808:main.c        ****             moveForward();
 2642              		.loc 1 808 0
 2643 0090 FFF7FEFF 		bl	moveForward
 809:main.c        ****             break;
 2644              		.loc 1 809 0
 2645 0094 06E0     		b	.L156
 2646              	.L167:
 810:main.c        ****         case Backward:
 811:main.c        ****             moveBackward();
 2647              		.loc 1 811 0
 2648 0096 FFF7FEFF 		bl	moveBackward
 812:main.c        ****             break;
 2649              		.loc 1 812 0
 2650 009a 03E0     		b	.L156
 2651              	.L168:
ARM GAS  C:\Users\ikui753\AppData\Local\Temp\ccYGTKr5.s 			page 62


 813:main.c        ****         case waitForTurn:
 814:main.c        ****             break;
 815:main.c        ****         case Spin180:
 816:main.c        ****             RotateClockwise180Degrees();
 2652              		.loc 1 816 0
 2653 009c FFF7FEFF 		bl	RotateClockwise180Degrees
 817:main.c        ****             break;
 2654              		.loc 1 817 0
 2655 00a0 00E0     		b	.L156
 2656              	.L170:
 818:main.c        ****         /*case waitForLeftTurn:
 819:main.c        ****             moveForward();
 820:main.c        ****             break;
 821:main.c        ****         case waitForRightTurn:
 822:main.c        ****             moveForward();
 823:main.c        ****             break;*/
 824:main.c        ****         case Unknown:
 825:main.c        ****             // UNKNOWN CONFIGURATION
 826:main.c        ****             break;  
 2657              		.loc 1 826 0
 2658 00a2 00BF     		nop
 2659              	.L156:
 2660              	.L169:
 827:main.c        ****     }
 828:main.c        **** }
 2661              		.loc 1 828 0
 2662 00a4 00BF     		nop
 2663 00a6 1837     		adds	r7, r7, #24
 2664              		.cfi_def_cfa_offset 16
 2665 00a8 BD46     		mov	sp, r7
 2666              		.cfi_def_cfa_register 13
 2667              		@ sp needed
 2668 00aa B0BD     		pop	{r4, r5, r7, pc}
 2669              	.L172:
 2670              		.align	2
 2671              	.L171:
 2672 00ac 00000000 		.word	currentInstruction
 2673 00b0 00000000 		.word	currentDirection
 2674 00b4 00000000 		.word	previousDirection
 2675              		.cfi_endproc
 2676              	.LFE80:
 2677              		.size	SetRobotMovement, .-SetRobotMovement
 2678              		.text
 2679              	.Letext0:
 2680              		.file 2 "c:\\program files (x86)\\cypress\\psoc creator\\4.2\\psoc creator\\import\\gnu\\arm\\5.4.
 2681              		.file 3 "c:\\program files (x86)\\cypress\\psoc creator\\4.2\\psoc creator\\import\\gnu\\arm\\5.4.
 2682              		.file 4 "Generated_Source\\PSoC5/cytypes.h"
 2683              		.file 5 "vars.h"
 2684              		.file 6 "pathfinding.h"
 2685              		.file 7 "Generated_Source\\PSoC5/core_cm3.h"
 2686              		.file 8 "map.h"
 2687              		.section	.debug_info,"",%progbits
 2688              	.Ldebug_info0:
 2689 0000 BB090000 		.4byte	0x9bb
 2690 0004 0400     		.2byte	0x4
 2691 0006 00000000 		.4byte	.Ldebug_abbrev0
 2692 000a 04       		.byte	0x4
ARM GAS  C:\Users\ikui753\AppData\Local\Temp\ccYGTKr5.s 			page 63


 2693 000b 01       		.uleb128 0x1
 2694 000c F5000000 		.4byte	.LASF153
 2695 0010 0C       		.byte	0xc
 2696 0011 66040000 		.4byte	.LASF154
 2697 0015 85000000 		.4byte	.LASF155
 2698 0019 00000000 		.4byte	.Ldebug_ranges0+0
 2699 001d 00000000 		.4byte	0
 2700 0021 00000000 		.4byte	.Ldebug_line0
 2701 0025 02       		.uleb128 0x2
 2702 0026 01       		.byte	0x1
 2703 0027 06       		.byte	0x6
 2704 0028 79000000 		.4byte	.LASF0
 2705 002c 02       		.uleb128 0x2
 2706 002d 01       		.byte	0x1
 2707 002e 08       		.byte	0x8
 2708 002f 15060000 		.4byte	.LASF1
 2709 0033 02       		.uleb128 0x2
 2710 0034 02       		.byte	0x2
 2711 0035 05       		.byte	0x5
 2712 0036 47060000 		.4byte	.LASF2
 2713 003a 02       		.uleb128 0x2
 2714 003b 02       		.byte	0x2
 2715 003c 07       		.byte	0x7
 2716 003d 1B040000 		.4byte	.LASF3
 2717 0041 03       		.uleb128 0x3
 2718 0042 5C040000 		.4byte	.LASF12
 2719 0046 02       		.byte	0x2
 2720 0047 3F       		.byte	0x3f
 2721 0048 4C000000 		.4byte	0x4c
 2722 004c 02       		.uleb128 0x2
 2723 004d 04       		.byte	0x4
 2724 004e 05       		.byte	0x5
 2725 004f 84020000 		.4byte	.LASF4
 2726 0053 02       		.uleb128 0x2
 2727 0054 04       		.byte	0x4
 2728 0055 07       		.byte	0x7
 2729 0056 C0030000 		.4byte	.LASF5
 2730 005a 02       		.uleb128 0x2
 2731 005b 08       		.byte	0x8
 2732 005c 05       		.byte	0x5
 2733 005d ED020000 		.4byte	.LASF6
 2734 0061 02       		.uleb128 0x2
 2735 0062 08       		.byte	0x8
 2736 0063 07       		.byte	0x7
 2737 0064 A5010000 		.4byte	.LASF7
 2738 0068 04       		.uleb128 0x4
 2739 0069 04       		.byte	0x4
 2740 006a 05       		.byte	0x5
 2741 006b 696E7400 		.ascii	"int\000"
 2742 006f 02       		.uleb128 0x2
 2743 0070 04       		.byte	0x4
 2744 0071 07       		.byte	0x7
 2745 0072 39070000 		.4byte	.LASF8
 2746 0076 02       		.uleb128 0x2
 2747 0077 08       		.byte	0x8
 2748 0078 04       		.byte	0x4
 2749 0079 18070000 		.4byte	.LASF9
ARM GAS  C:\Users\ikui753\AppData\Local\Temp\ccYGTKr5.s 			page 64


 2750 007d 02       		.uleb128 0x2
 2751 007e 04       		.byte	0x4
 2752 007f 07       		.byte	0x7
 2753 0080 0C050000 		.4byte	.LASF10
 2754 0084 02       		.uleb128 0x2
 2755 0085 01       		.byte	0x1
 2756 0086 08       		.byte	0x8
 2757 0087 24070000 		.4byte	.LASF11
 2758 008b 03       		.uleb128 0x3
 2759 008c 0D060000 		.4byte	.LASF13
 2760 0090 03       		.byte	0x3
 2761 0091 2C       		.byte	0x2c
 2762 0092 41000000 		.4byte	0x41
 2763 0096 05       		.uleb128 0x5
 2764 0097 E7020000 		.4byte	.LASF14
 2765 009b 04       		.byte	0x4
 2766 009c E701     		.2byte	0x1e7
 2767 009e 2C000000 		.4byte	0x2c
 2768 00a2 05       		.uleb128 0x5
 2769 00a3 23060000 		.4byte	.LASF15
 2770 00a7 04       		.byte	0x4
 2771 00a8 E801     		.2byte	0x1e8
 2772 00aa 3A000000 		.4byte	0x3a
 2773 00ae 05       		.uleb128 0x5
 2774 00af 4D030000 		.4byte	.LASF16
 2775 00b3 04       		.byte	0x4
 2776 00b4 E901     		.2byte	0x1e9
 2777 00b6 53000000 		.4byte	0x53
 2778 00ba 05       		.uleb128 0x5
 2779 00bb 4C040000 		.4byte	.LASF17
 2780 00bf 04       		.byte	0x4
 2781 00c0 EA01     		.2byte	0x1ea
 2782 00c2 25000000 		.4byte	0x25
 2783 00c6 05       		.uleb128 0x5
 2784 00c7 75080000 		.4byte	.LASF18
 2785 00cb 04       		.byte	0x4
 2786 00cc EB01     		.2byte	0x1eb
 2787 00ce 33000000 		.4byte	0x33
 2788 00d2 02       		.uleb128 0x2
 2789 00d3 04       		.byte	0x4
 2790 00d4 04       		.byte	0x4
 2791 00d5 B2050000 		.4byte	.LASF19
 2792 00d9 02       		.uleb128 0x2
 2793 00da 08       		.byte	0x8
 2794 00db 04       		.byte	0x4
 2795 00dc FB020000 		.4byte	.LASF20
 2796 00e0 06       		.uleb128 0x6
 2797 00e1 96000000 		.4byte	0x96
 2798 00e5 06       		.uleb128 0x6
 2799 00e6 AE000000 		.4byte	0xae
 2800 00ea 07       		.uleb128 0x7
 2801 00eb 96000000 		.4byte	0x96
 2802 00ef FA000000 		.4byte	0xfa
 2803 00f3 08       		.uleb128 0x8
 2804 00f4 7D000000 		.4byte	0x7d
 2805 00f8 03       		.byte	0x3
 2806 00f9 00       		.byte	0
ARM GAS  C:\Users\ikui753\AppData\Local\Temp\ccYGTKr5.s 			page 65


 2807 00fa 09       		.uleb128 0x9
 2808 00fb A5030000 		.4byte	.LASF49
 2809 00ff 20       		.byte	0x20
 2810 0100 05       		.byte	0x5
 2811 0101 28       		.byte	0x28
 2812 0102 D3010000 		.4byte	0x1d3
 2813 0106 0A       		.uleb128 0xa
 2814 0107 46070000 		.4byte	.LASF21
 2815 010b 05       		.byte	0x5
 2816 010c 2A       		.byte	0x2a
 2817 010d BA000000 		.4byte	0xba
 2818 0111 00       		.byte	0
 2819 0112 0A       		.uleb128 0xa
 2820 0113 4B070000 		.4byte	.LASF22
 2821 0117 05       		.byte	0x5
 2822 0118 2B       		.byte	0x2b
 2823 0119 96000000 		.4byte	0x96
 2824 011d 01       		.byte	0x1
 2825 011e 0A       		.uleb128 0xa
 2826 011f 90070000 		.4byte	.LASF23
 2827 0123 05       		.byte	0x5
 2828 0124 2C       		.byte	0x2c
 2829 0125 C6000000 		.4byte	0xc6
 2830 0129 02       		.byte	0x2
 2831 012a 0A       		.uleb128 0xa
 2832 012b 9D060000 		.4byte	.LASF24
 2833 012f 05       		.byte	0x5
 2834 0130 2D       		.byte	0x2d
 2835 0131 C6000000 		.4byte	0xc6
 2836 0135 04       		.byte	0x4
 2837 0136 0A       		.uleb128 0xa
 2838 0137 BC080000 		.4byte	.LASF25
 2839 013b 05       		.byte	0x5
 2840 013c 2E       		.byte	0x2e
 2841 013d C6000000 		.4byte	0xc6
 2842 0141 06       		.byte	0x6
 2843 0142 0A       		.uleb128 0xa
 2844 0143 D6010000 		.4byte	.LASF26
 2845 0147 05       		.byte	0x5
 2846 0148 2F       		.byte	0x2f
 2847 0149 C6000000 		.4byte	0xc6
 2848 014d 08       		.byte	0x8
 2849 014e 0A       		.uleb128 0xa
 2850 014f 29070000 		.4byte	.LASF27
 2851 0153 05       		.byte	0x5
 2852 0154 30       		.byte	0x30
 2853 0155 C6000000 		.4byte	0xc6
 2854 0159 0A       		.byte	0xa
 2855 015a 0A       		.uleb128 0xa
 2856 015b B3080000 		.4byte	.LASF28
 2857 015f 05       		.byte	0x5
 2858 0160 31       		.byte	0x31
 2859 0161 C6000000 		.4byte	0xc6
 2860 0165 0C       		.byte	0xc
 2861 0166 0A       		.uleb128 0xa
 2862 0167 92010000 		.4byte	.LASF29
 2863 016b 05       		.byte	0x5
ARM GAS  C:\Users\ikui753\AppData\Local\Temp\ccYGTKr5.s 			page 66


 2864 016c 32       		.byte	0x32
 2865 016d C6000000 		.4byte	0xc6
 2866 0171 0E       		.byte	0xe
 2867 0172 0A       		.uleb128 0xa
 2868 0173 54050000 		.4byte	.LASF30
 2869 0177 05       		.byte	0x5
 2870 0178 33       		.byte	0x33
 2871 0179 C6000000 		.4byte	0xc6
 2872 017d 10       		.byte	0x10
 2873 017e 0A       		.uleb128 0xa
 2874 017f 6D040000 		.4byte	.LASF31
 2875 0183 05       		.byte	0x5
 2876 0184 34       		.byte	0x34
 2877 0185 C6000000 		.4byte	0xc6
 2878 0189 12       		.byte	0x12
 2879 018a 0A       		.uleb128 0xa
 2880 018b EC040000 		.4byte	.LASF32
 2881 018f 05       		.byte	0x5
 2882 0190 35       		.byte	0x35
 2883 0191 C6000000 		.4byte	0xc6
 2884 0195 14       		.byte	0x14
 2885 0196 0A       		.uleb128 0xa
 2886 0197 2D050000 		.4byte	.LASF33
 2887 019b 05       		.byte	0x5
 2888 019c 36       		.byte	0x36
 2889 019d C6000000 		.4byte	0xc6
 2890 01a1 16       		.byte	0x16
 2891 01a2 0A       		.uleb128 0xa
 2892 01a3 3F060000 		.4byte	.LASF34
 2893 01a7 05       		.byte	0x5
 2894 01a8 37       		.byte	0x37
 2895 01a9 C6000000 		.4byte	0xc6
 2896 01ad 18       		.byte	0x18
 2897 01ae 0A       		.uleb128 0xa
 2898 01af 5C050000 		.4byte	.LASF35
 2899 01b3 05       		.byte	0x5
 2900 01b4 38       		.byte	0x38
 2901 01b5 C6000000 		.4byte	0xc6
 2902 01b9 1A       		.byte	0x1a
 2903 01ba 0A       		.uleb128 0xa
 2904 01bb 1F000000 		.4byte	.LASF36
 2905 01bf 05       		.byte	0x5
 2906 01c0 39       		.byte	0x39
 2907 01c1 C6000000 		.4byte	0xc6
 2908 01c5 1C       		.byte	0x1c
 2909 01c6 0A       		.uleb128 0xa
 2910 01c7 6F030000 		.4byte	.LASF37
 2911 01cb 05       		.byte	0x5
 2912 01cc 3A       		.byte	0x3a
 2913 01cd C6000000 		.4byte	0xc6
 2914 01d1 1E       		.byte	0x1e
 2915 01d2 00       		.byte	0
 2916 01d3 0B       		.uleb128 0xb
 2917 01d4 0E000000 		.4byte	.LASF41
 2918 01d8 01       		.byte	0x1
 2919 01d9 2C000000 		.4byte	0x2c
 2920 01dd 06       		.byte	0x6
ARM GAS  C:\Users\ikui753\AppData\Local\Temp\ccYGTKr5.s 			page 67


 2921 01de 0D       		.byte	0xd
 2922 01df FB010000 		.4byte	0x1fb
 2923 01e3 0C       		.uleb128 0xc
 2924 01e4 557000   		.ascii	"Up\000"
 2925 01e7 00       		.byte	0
 2926 01e8 0D       		.uleb128 0xd
 2927 01e9 67070000 		.4byte	.LASF38
 2928 01ed 01       		.byte	0x1
 2929 01ee 0D       		.uleb128 0xd
 2930 01ef F5040000 		.4byte	.LASF39
 2931 01f3 02       		.byte	0x2
 2932 01f4 0D       		.uleb128 0xd
 2933 01f5 C2060000 		.4byte	.LASF40
 2934 01f9 03       		.byte	0x3
 2935 01fa 00       		.byte	0
 2936 01fb 0B       		.uleb128 0xb
 2937 01fc 2A060000 		.4byte	.LASF42
 2938 0200 01       		.byte	0x1
 2939 0201 2C000000 		.4byte	0x2c
 2940 0205 06       		.byte	0x6
 2941 0206 0E       		.byte	0xe
 2942 0207 30020000 		.4byte	0x230
 2943 020b 0D       		.uleb128 0xd
 2944 020c B8060000 		.4byte	.LASF43
 2945 0210 00       		.byte	0
 2946 0211 0D       		.uleb128 0xd
 2947 0212 44050000 		.4byte	.LASF44
 2948 0216 01       		.byte	0x1
 2949 0217 0D       		.uleb128 0xd
 2950 0218 07080000 		.4byte	.LASF45
 2951 021c 02       		.byte	0x2
 2952 021d 0D       		.uleb128 0xd
 2953 021e D0010000 		.4byte	.LASF46
 2954 0222 03       		.byte	0x3
 2955 0223 0D       		.uleb128 0xd
 2956 0224 CB020000 		.4byte	.LASF47
 2957 0228 04       		.byte	0x4
 2958 0229 0D       		.uleb128 0xd
 2959 022a 05020000 		.4byte	.LASF48
 2960 022e 05       		.byte	0x5
 2961 022f 00       		.byte	0
 2962 0230 09       		.uleb128 0x9
 2963 0231 68020000 		.4byte	.LASF50
 2964 0235 14       		.byte	0x14
 2965 0236 06       		.byte	0x6
 2966 0237 10       		.byte	0x10
 2967 0238 79020000 		.4byte	0x279
 2968 023c 0A       		.uleb128 0xa
 2969 023d E2000000 		.4byte	.LASF51
 2970 0241 06       		.byte	0x6
 2971 0242 11       		.byte	0x11
 2972 0243 FB010000 		.4byte	0x1fb
 2973 0247 00       		.byte	0
 2974 0248 0A       		.uleb128 0xa
 2975 0249 8A080000 		.4byte	.LASF52
 2976 024d 06       		.byte	0x6
 2977 024e 12       		.byte	0x12
ARM GAS  C:\Users\ikui753\AppData\Local\Temp\ccYGTKr5.s 			page 68


 2978 024f 68000000 		.4byte	0x68
 2979 0253 04       		.byte	0x4
 2980 0254 0A       		.uleb128 0xa
 2981 0255 9B080000 		.4byte	.LASF53
 2982 0259 06       		.byte	0x6
 2983 025a 13       		.byte	0x13
 2984 025b 68000000 		.4byte	0x68
 2985 025f 08       		.byte	0x8
 2986 0260 0A       		.uleb128 0xa
 2987 0261 F4010000 		.4byte	.LASF54
 2988 0265 06       		.byte	0x6
 2989 0266 14       		.byte	0x14
 2990 0267 68000000 		.4byte	0x68
 2991 026b 0C       		.byte	0xc
 2992 026c 0A       		.uleb128 0xa
 2993 026d BC010000 		.4byte	.LASF55
 2994 0271 06       		.byte	0x6
 2995 0272 15       		.byte	0x15
 2996 0273 D3010000 		.4byte	0x1d3
 2997 0277 10       		.byte	0x10
 2998 0278 00       		.byte	0
 2999 0279 03       		.uleb128 0x3
 3000 027a 68020000 		.4byte	.LASF50
 3001 027e 06       		.byte	0x6
 3002 027f 16       		.byte	0x16
 3003 0280 30020000 		.4byte	0x230
 3004 0284 0B       		.uleb128 0xb
 3005 0285 46000000 		.4byte	.LASF56
 3006 0289 01       		.byte	0x1
 3007 028a 2C000000 		.4byte	0x2c
 3008 028e 01       		.byte	0x1
 3009 028f 18       		.byte	0x18
 3010 0290 D7020000 		.4byte	0x2d7
 3011 0294 0D       		.uleb128 0xd
 3012 0295 13040000 		.4byte	.LASF57
 3013 0299 00       		.byte	0
 3014 029a 0D       		.uleb128 0xd
 3015 029b 8A030000 		.4byte	.LASF58
 3016 029f 01       		.byte	0x1
 3017 02a0 0D       		.uleb128 0xd
 3018 02a1 92080000 		.4byte	.LASF59
 3019 02a5 02       		.byte	0x2
 3020 02a6 0D       		.uleb128 0xd
 3021 02a7 A8060000 		.4byte	.LASF60
 3022 02ab 03       		.byte	0x3
 3023 02ac 0D       		.uleb128 0xd
 3024 02ad 34030000 		.4byte	.LASF61
 3025 02b1 04       		.byte	0x4
 3026 02b2 0D       		.uleb128 0xd
 3027 02b3 7F020000 		.4byte	.LASF62
 3028 02b7 05       		.byte	0x5
 3029 02b8 0D       		.uleb128 0xd
 3030 02b9 CA050000 		.4byte	.LASF63
 3031 02bd 06       		.byte	0x6
 3032 02be 0D       		.uleb128 0xd
 3033 02bf 07040000 		.4byte	.LASF64
 3034 02c3 07       		.byte	0x7
ARM GAS  C:\Users\ikui753\AppData\Local\Temp\ccYGTKr5.s 			page 69


 3035 02c4 0D       		.uleb128 0xd
 3036 02c5 94030000 		.4byte	.LASF65
 3037 02c9 08       		.byte	0x8
 3038 02ca 0D       		.uleb128 0xd
 3039 02cb DE020000 		.4byte	.LASF66
 3040 02cf 09       		.byte	0x9
 3041 02d0 0D       		.uleb128 0xd
 3042 02d1 31070000 		.4byte	.LASF67
 3043 02d5 0A       		.byte	0xa
 3044 02d6 00       		.byte	0
 3045 02d7 0E       		.uleb128 0xe
 3046 02d8 51040000 		.4byte	.LASF78
 3047 02dc 01       		.byte	0x1
 3048 02dd 51       		.byte	0x51
 3049 02de 00000000 		.4byte	.LFB64
 3050 02e2 EC000000 		.4byte	.LFE64-.LFB64
 3051 02e6 01       		.uleb128 0x1
 3052 02e7 9C       		.byte	0x9c
 3053 02e8 05030000 		.4byte	0x305
 3054 02ec 0F       		.uleb128 0xf
 3055 02ed 50000000 		.4byte	.LBB2
 3056 02f1 62000000 		.4byte	.LBE2-.LBB2
 3057 02f5 10       		.uleb128 0x10
 3058 02f6 0C070000 		.4byte	.LASF74
 3059 02fa 01       		.byte	0x1
 3060 02fb 5E       		.byte	0x5e
 3061 02fc D2000000 		.4byte	0xd2
 3062 0300 02       		.uleb128 0x2
 3063 0301 91       		.byte	0x91
 3064 0302 6C       		.sleb128 -20
 3065 0303 00       		.byte	0
 3066 0304 00       		.byte	0
 3067 0305 11       		.uleb128 0x11
 3068 0306 31020000 		.4byte	.LASF68
 3069 030a 01       		.byte	0x1
 3070 030b 69       		.byte	0x69
 3071 030c 00000000 		.4byte	.LFB65
 3072 0310 18000000 		.4byte	.LFE65-.LFB65
 3073 0314 01       		.uleb128 0x1
 3074 0315 9C       		.byte	0x9c
 3075 0316 11       		.uleb128 0x11
 3076 0317 D6000000 		.4byte	.LASF69
 3077 031b 01       		.byte	0x1
 3078 031c 6F       		.byte	0x6f
 3079 031d 00000000 		.4byte	.LFB66
 3080 0321 18000000 		.4byte	.LFE66-.LFB66
 3081 0325 01       		.uleb128 0x1
 3082 0326 9C       		.byte	0x9c
 3083 0327 11       		.uleb128 0x11
 3084 0328 4C020000 		.4byte	.LASF70
 3085 032c 01       		.byte	0x1
 3086 032d 75       		.byte	0x75
 3087 032e 00000000 		.4byte	.LFB67
 3088 0332 18000000 		.4byte	.LFE67-.LFB67
 3089 0336 01       		.uleb128 0x1
 3090 0337 9C       		.byte	0x9c
 3091 0338 11       		.uleb128 0x11
ARM GAS  C:\Users\ikui753\AppData\Local\Temp\ccYGTKr5.s 			page 70


 3092 0339 51070000 		.4byte	.LASF71
 3093 033d 01       		.byte	0x1
 3094 033e 7B       		.byte	0x7b
 3095 033f 00000000 		.4byte	.LFB68
 3096 0343 18000000 		.4byte	.LFE68-.LFB68
 3097 0347 01       		.uleb128 0x1
 3098 0348 9C       		.byte	0x9c
 3099 0349 12       		.uleb128 0x12
 3100 034a 57080000 		.4byte	.LASF72
 3101 034e 01       		.byte	0x1
 3102 034f 81       		.byte	0x81
 3103 0350 00000000 		.4byte	.LFB69
 3104 0354 68000000 		.4byte	.LFE69-.LFB69
 3105 0358 01       		.uleb128 0x1
 3106 0359 9C       		.byte	0x9c
 3107 035a 13       		.uleb128 0x13
 3108 035b 20030000 		.4byte	.LASF73
 3109 035f 01       		.byte	0x1
 3110 0360 92       		.byte	0x92
 3111 0361 68000000 		.4byte	0x68
 3112 0365 00000000 		.4byte	.LFB70
 3113 0369 04010000 		.4byte	.LFE70-.LFB70
 3114 036d 01       		.uleb128 0x1
 3115 036e 9C       		.byte	0x9c
 3116 036f 14       		.uleb128 0x14
 3117 0370 7B080000 		.4byte	.LASF156
 3118 0374 01       		.byte	0x1
 3119 0375 B9       		.byte	0xb9
 3120 0376 C6000000 		.4byte	0xc6
 3121 037a 00000000 		.4byte	.LFB71
 3122 037e 54000000 		.4byte	.LFE71-.LFB71
 3123 0382 01       		.uleb128 0x1
 3124 0383 9C       		.byte	0x9c
 3125 0384 B3030000 		.4byte	0x3b3
 3126 0388 15       		.uleb128 0x15
 3127 0389 64030000 		.4byte	.LASF157
 3128 038d 01       		.byte	0x1
 3129 038e B9       		.byte	0xb9
 3130 038f A2000000 		.4byte	0xa2
 3131 0393 02       		.uleb128 0x2
 3132 0394 91       		.byte	0x91
 3133 0395 66       		.sleb128 -26
 3134 0396 16       		.uleb128 0x16
 3135 0397 63707300 		.ascii	"cps\000"
 3136 039b 01       		.byte	0x1
 3137 039c BA       		.byte	0xba
 3138 039d D2000000 		.4byte	0xd2
 3139 03a1 02       		.uleb128 0x2
 3140 03a2 91       		.byte	0x91
 3141 03a3 6C       		.sleb128 -20
 3142 03a4 16       		.uleb128 0x16
 3143 03a5 72706D00 		.ascii	"rpm\000"
 3144 03a9 01       		.byte	0x1
 3145 03aa BB       		.byte	0xbb
 3146 03ab C6000000 		.4byte	0xc6
 3147 03af 02       		.uleb128 0x2
 3148 03b0 91       		.byte	0x91
ARM GAS  C:\Users\ikui753\AppData\Local\Temp\ccYGTKr5.s 			page 71


 3149 03b1 6A       		.sleb128 -22
 3150 03b2 00       		.byte	0
 3151 03b3 17       		.uleb128 0x17
 3152 03b4 64080000 		.4byte	.LASF83
 3153 03b8 01       		.byte	0x1
 3154 03b9 C3       		.byte	0xc3
 3155 03ba 00000000 		.4byte	.LFB72
 3156 03be 34000000 		.4byte	.LFE72-.LFB72
 3157 03c2 01       		.uleb128 0x1
 3158 03c3 9C       		.byte	0x9c
 3159 03c4 18       		.uleb128 0x18
 3160 03c5 BA040000 		.4byte	.LASF75
 3161 03c9 01       		.byte	0x1
 3162 03ca D4       		.byte	0xd4
 3163 03cb 84020000 		.4byte	0x284
 3164 03cf 00000000 		.4byte	.LFB73
 3165 03d3 84000000 		.4byte	.LFE73-.LFB73
 3166 03d7 01       		.uleb128 0x1
 3167 03d8 9C       		.byte	0x9c
 3168 03d9 18       		.uleb128 0x18
 3169 03da E7060000 		.4byte	.LASF76
 3170 03de 01       		.byte	0x1
 3171 03df FA       		.byte	0xfa
 3172 03e0 84020000 		.4byte	0x284
 3173 03e4 00000000 		.4byte	.LFB74
 3174 03e8 7C000000 		.4byte	.LFE74-.LFB74
 3175 03ec 01       		.uleb128 0x1
 3176 03ed 9C       		.byte	0x9c
 3177 03ee 19       		.uleb128 0x19
 3178 03ef B2020000 		.4byte	.LASF77
 3179 03f3 01       		.byte	0x1
 3180 03f4 1801     		.2byte	0x118
 3181 03f6 84020000 		.4byte	0x284
 3182 03fa 00000000 		.4byte	.LFB75
 3183 03fe 84000000 		.4byte	.LFE75-.LFB75
 3184 0402 01       		.uleb128 0x1
 3185 0403 9C       		.byte	0x9c
 3186 0404 1A       		.uleb128 0x1a
 3187 0405 C4070000 		.4byte	.LASF79
 3188 0409 01       		.byte	0x1
 3189 040a 3B01     		.2byte	0x13b
 3190 040c 84020000 		.4byte	0x284
 3191 0410 00000000 		.4byte	.LFB76
 3192 0414 C0050000 		.4byte	.LFE76-.LFB76
 3193 0418 01       		.uleb128 0x1
 3194 0419 9C       		.byte	0x9c
 3195 041a 56040000 		.4byte	0x456
 3196 041e 1B       		.uleb128 0x1b
 3197 041f AF030000 		.4byte	.LASF80
 3198 0423 01       		.byte	0x1
 3199 0424 3C01     		.2byte	0x13c
 3200 0426 D2000000 		.4byte	0xd2
 3201 042a 02       		.uleb128 0x2
 3202 042b 91       		.byte	0x91
 3203 042c 6C       		.sleb128 -20
 3204 042d 1B       		.uleb128 0x1b
 3205 042e 81060000 		.4byte	.LASF81
ARM GAS  C:\Users\ikui753\AppData\Local\Temp\ccYGTKr5.s 			page 72


 3206 0432 01       		.byte	0x1
 3207 0433 4B01     		.2byte	0x14b
 3208 0435 FB010000 		.4byte	0x1fb
 3209 0439 02       		.uleb128 0x2
 3210 043a 91       		.byte	0x91
 3211 043b 6B       		.sleb128 -21
 3212 043c 0F       		.uleb128 0xf
 3213 043d AE030000 		.4byte	.LBB3
 3214 0441 2C000000 		.4byte	.LBE3-.LBB3
 3215 0445 1B       		.uleb128 0x1b
 3216 0446 83010000 		.4byte	.LASF82
 3217 044a 01       		.byte	0x1
 3218 044b 1602     		.2byte	0x216
 3219 044d 68000000 		.4byte	0x68
 3220 0451 02       		.uleb128 0x2
 3221 0452 91       		.byte	0x91
 3222 0453 64       		.sleb128 -28
 3223 0454 00       		.byte	0
 3224 0455 00       		.byte	0
 3225 0456 1C       		.uleb128 0x1c
 3226 0457 75040000 		.4byte	.LASF84
 3227 045b 01       		.byte	0x1
 3228 045c C602     		.2byte	0x2c6
 3229 045e 00000000 		.4byte	.LFB77
 3230 0462 68000000 		.4byte	.LFE77-.LFB77
 3231 0466 01       		.uleb128 0x1
 3232 0467 9C       		.byte	0x9c
 3233 0468 1D       		.uleb128 0x1d
 3234 0469 D2050000 		.4byte	.LASF85
 3235 046d 01       		.byte	0x1
 3236 046e CF02     		.2byte	0x2cf
 3237 0470 79020000 		.4byte	0x279
 3238 0474 00000000 		.4byte	.LFB78
 3239 0478 6C000000 		.4byte	.LFE78-.LFB78
 3240 047c 01       		.uleb128 0x1
 3241 047d 9C       		.byte	0x9c
 3242 047e 92040000 		.4byte	0x492
 3243 0482 1B       		.uleb128 0x1b
 3244 0483 54030000 		.4byte	.LASF86
 3245 0487 01       		.byte	0x1
 3246 0488 D002     		.2byte	0x2d0
 3247 048a 79020000 		.4byte	0x279
 3248 048e 02       		.uleb128 0x2
 3249 048f 91       		.byte	0x91
 3250 0490 5C       		.sleb128 -36
 3251 0491 00       		.byte	0
 3252 0492 1E       		.uleb128 0x1e
 3253 0493 ED030000 		.4byte	.LASF158
 3254 0497 01       		.byte	0x1
 3255 0498 D802     		.2byte	0x2d8
 3256 049a 00000000 		.4byte	.LFB79
 3257 049e 3C010000 		.4byte	.LFE79-.LFB79
 3258 04a2 01       		.uleb128 0x1
 3259 04a3 9C       		.byte	0x9c
 3260 04a4 D6040000 		.4byte	0x4d6
 3261 04a8 1B       		.uleb128 0x1b
 3262 04a9 50080000 		.4byte	.LASF87
ARM GAS  C:\Users\ikui753\AppData\Local\Temp\ccYGTKr5.s 			page 73


 3263 04ad 01       		.byte	0x1
 3264 04ae D902     		.2byte	0x2d9
 3265 04b0 A2000000 		.4byte	0xa2
 3266 04b4 02       		.uleb128 0x2
 3267 04b5 91       		.byte	0x91
 3268 04b6 72       		.sleb128 -14
 3269 04b7 1B       		.uleb128 0x1b
 3270 04b8 9A020000 		.4byte	.LASF88
 3271 04bc 01       		.byte	0x1
 3272 04bd DA02     		.2byte	0x2da
 3273 04bf A2000000 		.4byte	0xa2
 3274 04c3 02       		.uleb128 0x2
 3275 04c4 91       		.byte	0x91
 3276 04c5 70       		.sleb128 -16
 3277 04c6 1B       		.uleb128 0x1b
 3278 04c7 8B040000 		.4byte	.LASF89
 3279 04cb 01       		.byte	0x1
 3280 04cc DE02     		.2byte	0x2de
 3281 04ce 68000000 		.4byte	0x68
 3282 04d2 02       		.uleb128 0x2
 3283 04d3 91       		.byte	0x91
 3284 04d4 74       		.sleb128 -12
 3285 04d5 00       		.byte	0
 3286 04d6 1F       		.uleb128 0x1f
 3287 04d7 3B040000 		.4byte	.LASF90
 3288 04db 01       		.byte	0x1
 3289 04dc 0E03     		.2byte	0x30e
 3290 04de 00000000 		.4byte	.LFB80
 3291 04e2 B8000000 		.4byte	.LFE80-.LFB80
 3292 04e6 01       		.uleb128 0x1
 3293 04e7 9C       		.byte	0x9c
 3294 04e8 10       		.uleb128 0x10
 3295 04e9 A1020000 		.4byte	.LASF91
 3296 04ed 01       		.byte	0x1
 3297 04ee 20       		.byte	0x20
 3298 04ef E5000000 		.4byte	0xe5
 3299 04f3 05       		.uleb128 0x5
 3300 04f4 03       		.byte	0x3
 3301 04f5 14000000 		.4byte	instructionIndex
 3302 04f9 10       		.uleb128 0x10
 3303 04fa A3080000 		.4byte	.LASF92
 3304 04fe 01       		.byte	0x1
 3305 04ff 34       		.byte	0x34
 3306 0500 E0000000 		.4byte	0xe0
 3307 0504 05       		.uleb128 0x5
 3308 0505 03       		.byte	0x3
 3309 0506 36000000 		.4byte	turnStartedFlag
 3310 050a 10       		.uleb128 0x10
 3311 050b E6070000 		.4byte	.LASF93
 3312 050f 01       		.byte	0x1
 3313 0510 35       		.byte	0x35
 3314 0511 E0000000 		.4byte	0xe0
 3315 0515 05       		.uleb128 0x5
 3316 0516 03       		.byte	0x3
 3317 0517 37000000 		.4byte	turnFinishedFlag
 3318 051b 10       		.uleb128 0x10
 3319 051c 28000000 		.4byte	.LASF94
ARM GAS  C:\Users\ikui753\AppData\Local\Temp\ccYGTKr5.s 			page 74


 3320 0520 01       		.byte	0x1
 3321 0521 37       		.byte	0x37
 3322 0522 E0000000 		.4byte	0xe0
 3323 0526 05       		.uleb128 0x5
 3324 0527 03       		.byte	0x3
 3325 0528 38000000 		.4byte	forwardUntilTargetStartedFlag
 3326 052c 10       		.uleb128 0x10
 3327 052d FC050000 		.4byte	.LASF95
 3328 0531 01       		.byte	0x1
 3329 0532 38       		.byte	0x38
 3330 0533 E0000000 		.4byte	0xe0
 3331 0537 05       		.uleb128 0x5
 3332 0538 03       		.byte	0x3
 3333 0539 39000000 		.4byte	uTurnStartedFlag
 3334 053d 10       		.uleb128 0x10
 3335 053e FA040000 		.4byte	.LASF96
 3336 0542 01       		.byte	0x1
 3337 0543 39       		.byte	0x39
 3338 0544 E0000000 		.4byte	0xe0
 3339 0548 05       		.uleb128 0x5
 3340 0549 03       		.byte	0x3
 3341 054a 3A000000 		.4byte	uTurnFinishedFlag
 3342 054e 10       		.uleb128 0x10
 3343 054f 72060000 		.4byte	.LASF97
 3344 0553 01       		.byte	0x1
 3345 0554 3B       		.byte	0x3b
 3346 0555 E0000000 		.4byte	0xe0
 3347 0559 05       		.uleb128 0x5
 3348 055a 03       		.byte	0x3
 3349 055b 3B000000 		.4byte	leftStatusFlag
 3350 055f 10       		.uleb128 0x10
 3351 0560 58020000 		.4byte	.LASF98
 3352 0564 01       		.byte	0x1
 3353 0565 3C       		.byte	0x3c
 3354 0566 E0000000 		.4byte	0xe0
 3355 056a 05       		.uleb128 0x5
 3356 056b 03       		.byte	0x3
 3357 056c 3C000000 		.4byte	rightStatusFlag
 3358 0570 10       		.uleb128 0x10
 3359 0571 64050000 		.4byte	.LASF99
 3360 0575 01       		.byte	0x1
 3361 0576 3E       		.byte	0x3e
 3362 0577 E0000000 		.4byte	0xe0
 3363 057b 05       		.uleb128 0x5
 3364 057c 03       		.byte	0x3
 3365 057d 3D000000 		.4byte	spinCourseCorrectionStarted
 3366 0581 10       		.uleb128 0x10
 3367 0582 02030000 		.4byte	.LASF100
 3368 0586 01       		.byte	0x1
 3369 0587 3F       		.byte	0x3f
 3370 0588 E0000000 		.4byte	0xe0
 3371 058c 05       		.uleb128 0x5
 3372 058d 03       		.byte	0x3
 3373 058e 3E000000 		.4byte	currentIgnoreL
 3374 0592 10       		.uleb128 0x10
 3375 0593 25030000 		.4byte	.LASF101
 3376 0597 01       		.byte	0x1
ARM GAS  C:\Users\ikui753\AppData\Local\Temp\ccYGTKr5.s 			page 75


 3377 0598 40       		.byte	0x40
 3378 0599 E0000000 		.4byte	0xe0
 3379 059d 05       		.uleb128 0x5
 3380 059e 03       		.byte	0x3
 3381 059f 45000000 		.4byte	currentIgnoreR
 3382 05a3 10       		.uleb128 0x10
 3383 05a4 41080000 		.4byte	.LASF102
 3384 05a8 01       		.byte	0x1
 3385 05a9 44       		.byte	0x44
 3386 05aa E0000000 		.4byte	0xe0
 3387 05ae 05       		.uleb128 0x5
 3388 05af 03       		.byte	0x3
 3389 05b0 3F000000 		.4byte	totalLineCount
 3390 05b4 10       		.uleb128 0x10
 3391 05b5 66000000 		.4byte	.LASF103
 3392 05b9 01       		.byte	0x1
 3393 05ba 45       		.byte	0x45
 3394 05bb E0000000 		.4byte	0xe0
 3395 05bf 05       		.uleb128 0x5
 3396 05c0 03       		.byte	0x3
 3397 05c1 40000000 		.4byte	lineCount
 3398 05c5 10       		.uleb128 0x10
 3399 05c6 E9010000 		.4byte	.LASF104
 3400 05ca 01       		.byte	0x1
 3401 05cb 46       		.byte	0x46
 3402 05cc E0000000 		.4byte	0xe0
 3403 05d0 05       		.uleb128 0x5
 3404 05d1 03       		.byte	0x3
 3405 05d2 41000000 		.4byte	onLineFlag
 3406 05d6 10       		.uleb128 0x10
 3407 05d7 2E040000 		.4byte	.LASF105
 3408 05db 01       		.byte	0x1
 3409 05dc 48       		.byte	0x48
 3410 05dd E0000000 		.4byte	0xe0
 3411 05e1 05       		.uleb128 0x5
 3412 05e2 03       		.byte	0x3
 3413 05e3 42000000 		.4byte	tooEarlyFlag
 3414 05e7 10       		.uleb128 0x10
 3415 05e8 D2030000 		.4byte	.LASF106
 3416 05ec 01       		.byte	0x1
 3417 05ed 49       		.byte	0x49
 3418 05ee E0000000 		.4byte	0xe0
 3419 05f2 05       		.uleb128 0x5
 3420 05f3 03       		.byte	0x3
 3421 05f4 43000000 		.4byte	tooLateFlag
 3422 05f8 20       		.uleb128 0x20
 3423 05f9 8D020000 		.4byte	.LASF107
 3424 05fd 07       		.byte	0x7
 3425 05fe 1207     		.2byte	0x712
 3426 0600 04060000 		.4byte	0x604
 3427 0604 06       		.uleb128 0x6
 3428 0605 8B000000 		.4byte	0x8b
 3429 0609 21       		.uleb128 0x21
 3430 060a 747300   		.ascii	"ts\000"
 3431 060d 05       		.byte	0x5
 3432 060e 10       		.byte	0x10
 3433 060f 96000000 		.4byte	0x96
ARM GAS  C:\Users\ikui753\AppData\Local\Temp\ccYGTKr5.s 			page 76


 3434 0613 05       		.uleb128 0x5
 3435 0614 03       		.byte	0x3
 3436 0615 00000000 		.4byte	ts
 3437 0619 22       		.uleb128 0x22
 3438 061a B9030000 		.4byte	.LASF108
 3439 061e 05       		.byte	0x5
 3440 061f 11       		.byte	0x11
 3441 0620 A2000000 		.4byte	0xa2
 3442 0624 05       		.uleb128 0x5
 3443 0625 03       		.byte	0x3
 3444 0626 00000000 		.4byte	ts_enc
 3445 062a 22       		.uleb128 0x22
 3446 062b F2050000 		.4byte	.LASF109
 3447 062f 05       		.byte	0x5
 3448 0630 12       		.byte	0x12
 3449 0631 A2000000 		.4byte	0xa2
 3450 0635 05       		.uleb128 0x5
 3451 0636 03       		.byte	0x3
 3452 0637 00000000 		.4byte	ts_update
 3453 063b 22       		.uleb128 0x22
 3454 063c 70000000 		.4byte	.LASF110
 3455 0640 05       		.byte	0x5
 3456 0641 13       		.byte	0x13
 3457 0642 A2000000 		.4byte	0xa2
 3458 0646 05       		.uleb128 0x5
 3459 0647 03       		.byte	0x3
 3460 0648 00000000 		.4byte	ts_speed
 3461 064c 22       		.uleb128 0x22
 3462 064d 9A040000 		.4byte	.LASF111
 3463 0651 05       		.byte	0x5
 3464 0652 14       		.byte	0x14
 3465 0653 A2000000 		.4byte	0xa2
 3466 0657 05       		.uleb128 0x5
 3467 0658 03       		.byte	0x3
 3468 0659 00000000 		.4byte	ts_display
 3469 065d 22       		.uleb128 0x22
 3470 065e 25020000 		.4byte	.LASF112
 3471 0662 05       		.byte	0x5
 3472 0663 16       		.byte	0x16
 3473 0664 96000000 		.4byte	0x96
 3474 0668 05       		.uleb128 0x5
 3475 0669 03       		.byte	0x3
 3476 066a 00000000 		.4byte	flag_ts_enc
 3477 066e 22       		.uleb128 0x22
 3478 066f 73070000 		.4byte	.LASF113
 3479 0673 05       		.byte	0x5
 3480 0674 17       		.byte	0x17
 3481 0675 96000000 		.4byte	0x96
 3482 0679 05       		.uleb128 0x5
 3483 067a 03       		.byte	0x3
 3484 067b 00000000 		.4byte	flag_ts_update
 3485 067f 22       		.uleb128 0x22
 3486 0680 DE040000 		.4byte	.LASF114
 3487 0684 05       		.byte	0x5
 3488 0685 18       		.byte	0x18
 3489 0686 96000000 		.4byte	0x96
 3490 068a 05       		.uleb128 0x5
ARM GAS  C:\Users\ikui753\AppData\Local\Temp\ccYGTKr5.s 			page 77


 3491 068b 03       		.byte	0x3
 3492 068c 00000000 		.4byte	flag_ts_speed
 3493 0690 22       		.uleb128 0x22
 3494 0691 FC060000 		.4byte	.LASF115
 3495 0695 05       		.byte	0x5
 3496 0696 19       		.byte	0x19
 3497 0697 96000000 		.4byte	0x96
 3498 069b 05       		.uleb128 0x5
 3499 069c 03       		.byte	0x3
 3500 069d 00000000 		.4byte	flag_ts_display
 3501 06a1 22       		.uleb128 0x22
 3502 06a2 45030000 		.4byte	.LASF116
 3503 06a6 05       		.byte	0x5
 3504 06a7 1B       		.byte	0x1b
 3505 06a8 96000000 		.4byte	0x96
 3506 06ac 05       		.uleb128 0x5
 3507 06ad 03       		.byte	0x3
 3508 06ae 00000000 		.4byte	flag_rx
 3509 06b2 22       		.uleb128 0x22
 3510 06b3 D2040000 		.4byte	.LASF117
 3511 06b7 05       		.byte	0x5
 3512 06b8 1C       		.byte	0x1c
 3513 06b9 96000000 		.4byte	0x96
 3514 06bd 05       		.uleb128 0x5
 3515 06be 03       		.byte	0x3
 3516 06bf 00000000 		.4byte	flag_packet
 3517 06c3 22       		.uleb128 0x22
 3518 06c4 3D020000 		.4byte	.LASF118
 3519 06c8 05       		.byte	0x5
 3520 06c9 1D       		.byte	0x1d
 3521 06ca 96000000 		.4byte	0x96
 3522 06ce 05       		.uleb128 0x5
 3523 06cf 03       		.byte	0x3
 3524 06d0 00000000 		.4byte	flag_KB_string
 3525 06d4 22       		.uleb128 0x22
 3526 06d5 11030000 		.4byte	.LASF119
 3527 06d9 05       		.byte	0x5
 3528 06da 1F       		.byte	0x1f
 3529 06db 96000000 		.4byte	0x96
 3530 06df 05       		.uleb128 0x5
 3531 06e0 03       		.byte	0x3
 3532 06e1 00000000 		.4byte	dataready_flag
 3533 06e5 22       		.uleb128 0x22
 3534 06e6 80050000 		.4byte	.LASF120
 3535 06ea 05       		.byte	0x5
 3536 06eb 21       		.byte	0x21
 3537 06ec 96000000 		.4byte	0x96
 3538 06f0 05       		.uleb128 0x5
 3539 06f1 03       		.byte	0x3
 3540 06f2 00000000 		.4byte	flag_rf_transmission_active
 3541 06f6 07       		.uleb128 0x7
 3542 06f7 84000000 		.4byte	0x84
 3543 06fb 06070000 		.4byte	0x706
 3544 06ff 08       		.uleb128 0x8
 3545 0700 7D000000 		.4byte	0x7d
 3546 0704 3F       		.byte	0x3f
 3547 0705 00       		.byte	0
ARM GAS  C:\Users\ikui753\AppData\Local\Temp\ccYGTKr5.s 			page 78


 3548 0706 22       		.uleb128 0x22
 3549 0707 82070000 		.4byte	.LASF121
 3550 070b 05       		.byte	0x5
 3551 070c 24       		.byte	0x24
 3552 070d F6060000 		.4byte	0x6f6
 3553 0711 05       		.uleb128 0x5
 3554 0712 03       		.byte	0x3
 3555 0713 00000000 		.4byte	displaystring
 3556 0717 22       		.uleb128 0x22
 3557 0718 6A030000 		.4byte	.LASF122
 3558 071c 05       		.byte	0x5
 3559 071d 25       		.byte	0x25
 3560 071e F6060000 		.4byte	0x6f6
 3561 0722 05       		.uleb128 0x5
 3562 0723 03       		.byte	0x3
 3563 0724 00000000 		.4byte	line
 3564 0728 22       		.uleb128 0x22
 3565 0729 9F010000 		.4byte	.LASF123
 3566 072d 05       		.byte	0x5
 3567 072e 25       		.byte	0x25
 3568 072f F6060000 		.4byte	0x6f6
 3569 0733 05       		.uleb128 0x5
 3570 0734 03       		.byte	0x3
 3571 0735 00000000 		.4byte	entry
 3572 0739 07       		.uleb128 0x7
 3573 073a 96000000 		.4byte	0x96
 3574 073e 49070000 		.4byte	0x749
 3575 0742 08       		.uleb128 0x8
 3576 0743 7D000000 		.4byte	0x7d
 3577 0747 3F       		.byte	0x3f
 3578 0748 00       		.byte	0
 3579 0749 22       		.uleb128 0x22
 3580 074a 3A050000 		.4byte	.LASF124
 3581 074e 05       		.byte	0x5
 3582 074f 26       		.byte	0x26
 3583 0750 39070000 		.4byte	0x739
 3584 0754 05       		.uleb128 0x5
 3585 0755 03       		.byte	0x3
 3586 0756 00000000 		.4byte	usbBuffer
 3587 075a 22       		.uleb128 0x22
 3588 075b 20050000 		.4byte	.LASF125
 3589 075f 05       		.byte	0x5
 3590 0760 3C       		.byte	0x3c
 3591 0761 FA000000 		.4byte	0xfa
 3592 0765 05       		.uleb128 0x5
 3593 0766 03       		.byte	0x3
 3594 0767 00000000 		.4byte	system_state
 3595 076b 07       		.uleb128 0x7
 3596 076c 68000000 		.4byte	0x68
 3597 0770 81070000 		.4byte	0x781
 3598 0774 08       		.uleb128 0x8
 3599 0775 7D000000 		.4byte	0x7d
 3600 0779 0E       		.byte	0xe
 3601 077a 08       		.uleb128 0x8
 3602 077b 7D000000 		.4byte	0x7d
 3603 077f 12       		.byte	0x12
 3604 0780 00       		.byte	0
ARM GAS  C:\Users\ikui753\AppData\Local\Temp\ccYGTKr5.s 			page 79


 3605 0781 23       		.uleb128 0x23
 3606 0782 6D617000 		.ascii	"map\000"
 3607 0786 08       		.byte	0x8
 3608 0787 04       		.byte	0x4
 3609 0788 6B070000 		.4byte	0x76b
 3610 078c 07       		.uleb128 0x7
 3611 078d 68000000 		.4byte	0x68
 3612 0791 A2070000 		.4byte	0x7a2
 3613 0795 08       		.uleb128 0x8
 3614 0796 7D000000 		.4byte	0x7d
 3615 079a 05       		.byte	0x5
 3616 079b 08       		.uleb128 0x8
 3617 079c 7D000000 		.4byte	0x7d
 3618 07a0 01       		.byte	0x1
 3619 07a1 00       		.byte	0
 3620 07a2 24       		.uleb128 0x24
 3621 07a3 5D070000 		.4byte	.LASF126
 3622 07a7 08       		.byte	0x8
 3623 07a8 05       		.byte	0x5
 3624 07a9 8C070000 		.4byte	0x78c
 3625 07ad 22       		.uleb128 0x22
 3626 07ae B3070000 		.4byte	.LASF127
 3627 07b2 01       		.byte	0x1
 3628 07b3 19       		.byte	0x19
 3629 07b4 84020000 		.4byte	0x284
 3630 07b8 05       		.uleb128 0x5
 3631 07b9 03       		.byte	0x3
 3632 07ba 00000000 		.4byte	currentDirection
 3633 07be 22       		.uleb128 0x22
 3634 07bf 54000000 		.4byte	.LASF128
 3635 07c3 01       		.byte	0x1
 3636 07c4 19       		.byte	0x19
 3637 07c5 84020000 		.4byte	0x284
 3638 07c9 05       		.uleb128 0x5
 3639 07ca 03       		.byte	0x3
 3640 07cb 00000000 		.4byte	previousDirection
 3641 07cf 22       		.uleb128 0x22
 3642 07d0 9B070000 		.4byte	.LASF129
 3643 07d4 01       		.byte	0x1
 3644 07d5 1B       		.byte	0x1b
 3645 07d6 D3010000 		.4byte	0x1d3
 3646 07da 05       		.uleb128 0x5
 3647 07db 03       		.byte	0x3
 3648 07dc 00000000 		.4byte	currentRobotOrientation
 3649 07e0 22       		.uleb128 0x22
 3650 07e1 51060000 		.4byte	.LASF130
 3651 07e5 01       		.byte	0x1
 3652 07e6 1B       		.byte	0x1b
 3653 07e7 D3010000 		.4byte	0x1d3
 3654 07eb 05       		.uleb128 0x5
 3655 07ec 03       		.byte	0x3
 3656 07ed 00000000 		.4byte	previousOrientation
 3657 07f1 22       		.uleb128 0x22
 3658 07f2 2E080000 		.4byte	.LASF131
 3659 07f6 01       		.byte	0x1
 3660 07f7 1C       		.byte	0x1c
 3661 07f8 79020000 		.4byte	0x279
ARM GAS  C:\Users\ikui753\AppData\Local\Temp\ccYGTKr5.s 			page 80


 3662 07fc 05       		.uleb128 0x5
 3663 07fd 03       		.byte	0x3
 3664 07fe 00000000 		.4byte	currentInstruction
 3665 0802 22       		.uleb128 0x22
 3666 0803 DE060000 		.4byte	.LASF132
 3667 0807 01       		.byte	0x1
 3668 0808 1D       		.byte	0x1d
 3669 0809 68000000 		.4byte	0x68
 3670 080d 05       		.uleb128 0x5
 3671 080e 03       		.byte	0x3
 3672 080f 00000000 		.4byte	numSteps
 3673 0813 22       		.uleb128 0x22
 3674 0814 F7070000 		.4byte	.LASF133
 3675 0818 01       		.byte	0x1
 3676 0819 1F       		.byte	0x1f
 3677 081a 24080000 		.4byte	0x824
 3678 081e 05       		.uleb128 0x5
 3679 081f 03       		.byte	0x3
 3680 0820 00000000 		.4byte	instructionList
 3681 0824 25       		.uleb128 0x25
 3682 0825 04       		.byte	0x4
 3683 0826 79020000 		.4byte	0x279
 3684 082a 21       		.uleb128 0x21
 3685 082b 733300   		.ascii	"s3\000"
 3686 082e 01       		.byte	0x1
 3687 082f 25       		.byte	0x25
 3688 0830 96000000 		.4byte	0x96
 3689 0834 05       		.uleb128 0x5
 3690 0835 03       		.byte	0x3
 3691 0836 00000000 		.4byte	s3
 3692 083a 21       		.uleb128 0x21
 3693 083b 733400   		.ascii	"s4\000"
 3694 083e 01       		.byte	0x1
 3695 083f 25       		.byte	0x25
 3696 0840 96000000 		.4byte	0x96
 3697 0844 05       		.uleb128 0x5
 3698 0845 03       		.byte	0x3
 3699 0846 00000000 		.4byte	s4
 3700 084a 21       		.uleb128 0x21
 3701 084b 733500   		.ascii	"s5\000"
 3702 084e 01       		.byte	0x1
 3703 084f 25       		.byte	0x25
 3704 0850 96000000 		.4byte	0x96
 3705 0854 05       		.uleb128 0x5
 3706 0855 03       		.byte	0x3
 3707 0856 00000000 		.4byte	s5
 3708 085a 21       		.uleb128 0x21
 3709 085b 733600   		.ascii	"s6\000"
 3710 085e 01       		.byte	0x1
 3711 085f 25       		.byte	0x25
 3712 0860 96000000 		.4byte	0x96
 3713 0864 05       		.uleb128 0x5
 3714 0865 03       		.byte	0x3
 3715 0866 00000000 		.4byte	s6
 3716 086a 22       		.uleb128 0x22
 3717 086b B8050000 		.4byte	.LASF134
 3718 086f 01       		.byte	0x1
ARM GAS  C:\Users\ikui753\AppData\Local\Temp\ccYGTKr5.s 			page 81


 3719 0870 2A       		.byte	0x2a
 3720 0871 AE000000 		.4byte	0xae
 3721 0875 05       		.uleb128 0x5
 3722 0876 03       		.byte	0x3
 3723 0877 00000000 		.4byte	totalMilliseconds
 3724 087b 22       		.uleb128 0x22
 3725 087c 00000000 		.4byte	.LASF135
 3726 0880 01       		.byte	0x1
 3727 0881 2B       		.byte	0x2b
 3728 0882 D2000000 		.4byte	0xd2
 3729 0886 05       		.uleb128 0x5
 3730 0887 03       		.byte	0x3
 3731 0888 00000000 		.4byte	totalDistance
 3732 088c 07       		.uleb128 0x7
 3733 088d 84000000 		.4byte	0x84
 3734 0891 9C080000 		.4byte	0x89c
 3735 0895 08       		.uleb128 0x8
 3736 0896 7D000000 		.4byte	0x7d
 3737 089a 44       		.byte	0x44
 3738 089b 00       		.byte	0
 3739 089c 22       		.uleb128 0x22
 3740 089d 6C070000 		.4byte	.LASF136
 3741 08a1 01       		.byte	0x1
 3742 08a2 2D       		.byte	0x2d
 3743 08a3 8C080000 		.4byte	0x88c
 3744 08a7 05       		.uleb128 0x5
 3745 08a8 03       		.byte	0x3
 3746 08a9 00000000 		.4byte	buffer
 3747 08ad 22       		.uleb128 0x22
 3748 08ae 7C030000 		.4byte	.LASF137
 3749 08b2 01       		.byte	0x1
 3750 08b3 2E       		.byte	0x2e
 3751 08b4 68000000 		.4byte	0x68
 3752 08b8 05       		.uleb128 0x5
 3753 08b9 03       		.byte	0x3
 3754 08ba 00000000 		.4byte	quadDec2Count
 3755 08be 22       		.uleb128 0x22
 3756 08bf EC000000 		.4byte	.LASF138
 3757 08c3 01       		.byte	0x1
 3758 08c4 2F       		.byte	0x2f
 3759 08c5 68000000 		.4byte	0x68
 3760 08c9 05       		.uleb128 0x5
 3761 08ca 03       		.byte	0x3
 3762 08cb 00000000 		.4byte	timerInt
 3763 08cf 22       		.uleb128 0x22
 3764 08d0 E8050000 		.4byte	.LASF139
 3765 08d4 01       		.byte	0x1
 3766 08d5 30       		.byte	0x30
 3767 08d6 68000000 		.4byte	0x68
 3768 08da 05       		.uleb128 0x5
 3769 08db 03       		.byte	0x3
 3770 08dc 00000000 		.4byte	keepLedOn
 3771 08e0 22       		.uleb128 0x22
 3772 08e1 DE010000 		.4byte	.LASF140
 3773 08e5 01       		.byte	0x1
 3774 08e6 32       		.byte	0x32
 3775 08e7 AE000000 		.4byte	0xae
ARM GAS  C:\Users\ikui753\AppData\Local\Temp\ccYGTKr5.s 			page 82


 3776 08eb 05       		.uleb128 0x5
 3777 08ec 03       		.byte	0x3
 3778 08ed 00000000 		.4byte	stopBuffer
 3779 08f1 22       		.uleb128 0x22
 3780 08f2 DF080000 		.4byte	.LASF141
 3781 08f6 01       		.byte	0x1
 3782 08f7 33       		.byte	0x33
 3783 08f8 A2000000 		.4byte	0xa2
 3784 08fc 05       		.uleb128 0x5
 3785 08fd 03       		.byte	0x3
 3786 08fe 00000000 		.4byte	forwardBuffer
 3787 0902 22       		.uleb128 0x22
 3788 0903 18080000 		.4byte	.LASF142
 3789 0907 01       		.byte	0x1
 3790 0908 4B       		.byte	0x4b
 3791 0909 EA000000 		.4byte	0xea
 3792 090d 05       		.uleb128 0x5
 3793 090e 03       		.byte	0x3
 3794 090f 00000000 		.4byte	junctionConfiguration
 3795 0913 22       		.uleb128 0x22
 3796 0914 A5040000 		.4byte	.LASF143
 3797 0918 01       		.byte	0x1
 3798 0919 4C       		.byte	0x4c
 3799 091a 96000000 		.4byte	0x96
 3800 091e 05       		.uleb128 0x5
 3801 091f 03       		.byte	0x3
 3802 0920 00000000 		.4byte	currentFoodListIndex
 3803 0924 22       		.uleb128 0x22
 3804 0925 DE030000 		.4byte	.LASF144
 3805 0929 01       		.byte	0x1
 3806 092a 4E       		.byte	0x4e
 3807 092b D2000000 		.4byte	0xd2
 3808 092f 05       		.uleb128 0x5
 3809 0930 03       		.byte	0x3
 3810 0931 00000000 		.4byte	blockSizeTotal
 3811 0935 22       		.uleb128 0x22
 3812 0936 9C050000 		.4byte	.LASF145
 3813 093a 01       		.byte	0x1
 3814 093b CA       		.byte	0xca
 3815 093c D2000000 		.4byte	0xd2
 3816 0940 05       		.uleb128 0x5
 3817 0941 03       		.byte	0x3
 3818 0942 00000000 		.4byte	xBlocksize
 3819 0946 22       		.uleb128 0x22
 3820 0947 A7050000 		.4byte	.LASF146
 3821 094b 01       		.byte	0x1
 3822 094c CB       		.byte	0xcb
 3823 094d D2000000 		.4byte	0xd2
 3824 0951 05       		.uleb128 0x5
 3825 0952 03       		.byte	0x3
 3826 0953 00000000 		.4byte	yBlocksize
 3827 0957 22       		.uleb128 0x22
 3828 0958 15050000 		.4byte	.LASF147
 3829 095c 01       		.byte	0x1
 3830 095d CC       		.byte	0xcc
 3831 095e 96000000 		.4byte	0x96
 3832 0962 05       		.uleb128 0x5
ARM GAS  C:\Users\ikui753\AppData\Local\Temp\ccYGTKr5.s 			page 83


 3833 0963 03       		.byte	0x3
 3834 0964 00000000 		.4byte	currentRow
 3835 0968 22       		.uleb128 0x22
 3836 0969 74020000 		.4byte	.LASF148
 3837 096d 01       		.byte	0x1
 3838 096e CD       		.byte	0xcd
 3839 096f 96000000 		.4byte	0x96
 3840 0973 05       		.uleb128 0x5
 3841 0974 03       		.byte	0x3
 3842 0975 00000000 		.4byte	currentCol
 3843 0979 22       		.uleb128 0x22
 3844 097a CE080000 		.4byte	.LASF149
 3845 097e 01       		.byte	0x1
 3846 097f CF       		.byte	0xcf
 3847 0980 96000000 		.4byte	0x96
 3848 0984 05       		.uleb128 0x5
 3849 0985 03       		.byte	0x3
 3850 0986 00000000 		.4byte	stoppedAfterTurn
 3851 098a 22       		.uleb128 0x22
 3852 098b 65060000 		.4byte	.LASF150
 3853 098f 01       		.byte	0x1
 3854 0990 D0       		.byte	0xd0
 3855 0991 96000000 		.4byte	0x96
 3856 0995 05       		.uleb128 0x5
 3857 0996 03       		.byte	0x3
 3858 0997 00000000 		.4byte	ignoreSensor
 3859 099b 22       		.uleb128 0x22
 3860 099c C8060000 		.4byte	.LASF151
 3861 09a0 01       		.byte	0x1
 3862 09a1 F8       		.byte	0xf8
 3863 09a2 84020000 		.4byte	0x284
 3864 09a6 05       		.uleb128 0x5
 3865 09a7 03       		.byte	0x3
 3866 09a8 00000000 		.4byte	lastDirectionAfter180
 3867 09ac 26       		.uleb128 0x26
 3868 09ad 12020000 		.4byte	.LASF152
 3869 09b1 01       		.byte	0x1
 3870 09b2 3A01     		.2byte	0x13a
 3871 09b4 96000000 		.4byte	0x96
 3872 09b8 05       		.uleb128 0x5
 3873 09b9 03       		.byte	0x3
 3874 09ba 00000000 		.4byte	firstTurnIteration
 3875 09be 00       		.byte	0
 3876              		.section	.debug_abbrev,"",%progbits
 3877              	.Ldebug_abbrev0:
 3878 0000 01       		.uleb128 0x1
 3879 0001 11       		.uleb128 0x11
 3880 0002 01       		.byte	0x1
 3881 0003 25       		.uleb128 0x25
 3882 0004 0E       		.uleb128 0xe
 3883 0005 13       		.uleb128 0x13
 3884 0006 0B       		.uleb128 0xb
 3885 0007 03       		.uleb128 0x3
 3886 0008 0E       		.uleb128 0xe
 3887 0009 1B       		.uleb128 0x1b
 3888 000a 0E       		.uleb128 0xe
 3889 000b 55       		.uleb128 0x55
ARM GAS  C:\Users\ikui753\AppData\Local\Temp\ccYGTKr5.s 			page 84


 3890 000c 17       		.uleb128 0x17
 3891 000d 11       		.uleb128 0x11
 3892 000e 01       		.uleb128 0x1
 3893 000f 10       		.uleb128 0x10
 3894 0010 17       		.uleb128 0x17
 3895 0011 00       		.byte	0
 3896 0012 00       		.byte	0
 3897 0013 02       		.uleb128 0x2
 3898 0014 24       		.uleb128 0x24
 3899 0015 00       		.byte	0
 3900 0016 0B       		.uleb128 0xb
 3901 0017 0B       		.uleb128 0xb
 3902 0018 3E       		.uleb128 0x3e
 3903 0019 0B       		.uleb128 0xb
 3904 001a 03       		.uleb128 0x3
 3905 001b 0E       		.uleb128 0xe
 3906 001c 00       		.byte	0
 3907 001d 00       		.byte	0
 3908 001e 03       		.uleb128 0x3
 3909 001f 16       		.uleb128 0x16
 3910 0020 00       		.byte	0
 3911 0021 03       		.uleb128 0x3
 3912 0022 0E       		.uleb128 0xe
 3913 0023 3A       		.uleb128 0x3a
 3914 0024 0B       		.uleb128 0xb
 3915 0025 3B       		.uleb128 0x3b
 3916 0026 0B       		.uleb128 0xb
 3917 0027 49       		.uleb128 0x49
 3918 0028 13       		.uleb128 0x13
 3919 0029 00       		.byte	0
 3920 002a 00       		.byte	0
 3921 002b 04       		.uleb128 0x4
 3922 002c 24       		.uleb128 0x24
 3923 002d 00       		.byte	0
 3924 002e 0B       		.uleb128 0xb
 3925 002f 0B       		.uleb128 0xb
 3926 0030 3E       		.uleb128 0x3e
 3927 0031 0B       		.uleb128 0xb
 3928 0032 03       		.uleb128 0x3
 3929 0033 08       		.uleb128 0x8
 3930 0034 00       		.byte	0
 3931 0035 00       		.byte	0
 3932 0036 05       		.uleb128 0x5
 3933 0037 16       		.uleb128 0x16
 3934 0038 00       		.byte	0
 3935 0039 03       		.uleb128 0x3
 3936 003a 0E       		.uleb128 0xe
 3937 003b 3A       		.uleb128 0x3a
 3938 003c 0B       		.uleb128 0xb
 3939 003d 3B       		.uleb128 0x3b
 3940 003e 05       		.uleb128 0x5
 3941 003f 49       		.uleb128 0x49
 3942 0040 13       		.uleb128 0x13
 3943 0041 00       		.byte	0
 3944 0042 00       		.byte	0
 3945 0043 06       		.uleb128 0x6
 3946 0044 35       		.uleb128 0x35
ARM GAS  C:\Users\ikui753\AppData\Local\Temp\ccYGTKr5.s 			page 85


 3947 0045 00       		.byte	0
 3948 0046 49       		.uleb128 0x49
 3949 0047 13       		.uleb128 0x13
 3950 0048 00       		.byte	0
 3951 0049 00       		.byte	0
 3952 004a 07       		.uleb128 0x7
 3953 004b 01       		.uleb128 0x1
 3954 004c 01       		.byte	0x1
 3955 004d 49       		.uleb128 0x49
 3956 004e 13       		.uleb128 0x13
 3957 004f 01       		.uleb128 0x1
 3958 0050 13       		.uleb128 0x13
 3959 0051 00       		.byte	0
 3960 0052 00       		.byte	0
 3961 0053 08       		.uleb128 0x8
 3962 0054 21       		.uleb128 0x21
 3963 0055 00       		.byte	0
 3964 0056 49       		.uleb128 0x49
 3965 0057 13       		.uleb128 0x13
 3966 0058 2F       		.uleb128 0x2f
 3967 0059 0B       		.uleb128 0xb
 3968 005a 00       		.byte	0
 3969 005b 00       		.byte	0
 3970 005c 09       		.uleb128 0x9
 3971 005d 13       		.uleb128 0x13
 3972 005e 01       		.byte	0x1
 3973 005f 03       		.uleb128 0x3
 3974 0060 0E       		.uleb128 0xe
 3975 0061 0B       		.uleb128 0xb
 3976 0062 0B       		.uleb128 0xb
 3977 0063 3A       		.uleb128 0x3a
 3978 0064 0B       		.uleb128 0xb
 3979 0065 3B       		.uleb128 0x3b
 3980 0066 0B       		.uleb128 0xb
 3981 0067 01       		.uleb128 0x1
 3982 0068 13       		.uleb128 0x13
 3983 0069 00       		.byte	0
 3984 006a 00       		.byte	0
 3985 006b 0A       		.uleb128 0xa
 3986 006c 0D       		.uleb128 0xd
 3987 006d 00       		.byte	0
 3988 006e 03       		.uleb128 0x3
 3989 006f 0E       		.uleb128 0xe
 3990 0070 3A       		.uleb128 0x3a
 3991 0071 0B       		.uleb128 0xb
 3992 0072 3B       		.uleb128 0x3b
 3993 0073 0B       		.uleb128 0xb
 3994 0074 49       		.uleb128 0x49
 3995 0075 13       		.uleb128 0x13
 3996 0076 38       		.uleb128 0x38
 3997 0077 0B       		.uleb128 0xb
 3998 0078 00       		.byte	0
 3999 0079 00       		.byte	0
 4000 007a 0B       		.uleb128 0xb
 4001 007b 04       		.uleb128 0x4
 4002 007c 01       		.byte	0x1
 4003 007d 03       		.uleb128 0x3
ARM GAS  C:\Users\ikui753\AppData\Local\Temp\ccYGTKr5.s 			page 86


 4004 007e 0E       		.uleb128 0xe
 4005 007f 0B       		.uleb128 0xb
 4006 0080 0B       		.uleb128 0xb
 4007 0081 49       		.uleb128 0x49
 4008 0082 13       		.uleb128 0x13
 4009 0083 3A       		.uleb128 0x3a
 4010 0084 0B       		.uleb128 0xb
 4011 0085 3B       		.uleb128 0x3b
 4012 0086 0B       		.uleb128 0xb
 4013 0087 01       		.uleb128 0x1
 4014 0088 13       		.uleb128 0x13
 4015 0089 00       		.byte	0
 4016 008a 00       		.byte	0
 4017 008b 0C       		.uleb128 0xc
 4018 008c 28       		.uleb128 0x28
 4019 008d 00       		.byte	0
 4020 008e 03       		.uleb128 0x3
 4021 008f 08       		.uleb128 0x8
 4022 0090 1C       		.uleb128 0x1c
 4023 0091 0B       		.uleb128 0xb
 4024 0092 00       		.byte	0
 4025 0093 00       		.byte	0
 4026 0094 0D       		.uleb128 0xd
 4027 0095 28       		.uleb128 0x28
 4028 0096 00       		.byte	0
 4029 0097 03       		.uleb128 0x3
 4030 0098 0E       		.uleb128 0xe
 4031 0099 1C       		.uleb128 0x1c
 4032 009a 0B       		.uleb128 0xb
 4033 009b 00       		.byte	0
 4034 009c 00       		.byte	0
 4035 009d 0E       		.uleb128 0xe
 4036 009e 2E       		.uleb128 0x2e
 4037 009f 01       		.byte	0x1
 4038 00a0 3F       		.uleb128 0x3f
 4039 00a1 19       		.uleb128 0x19
 4040 00a2 03       		.uleb128 0x3
 4041 00a3 0E       		.uleb128 0xe
 4042 00a4 3A       		.uleb128 0x3a
 4043 00a5 0B       		.uleb128 0xb
 4044 00a6 3B       		.uleb128 0x3b
 4045 00a7 0B       		.uleb128 0xb
 4046 00a8 27       		.uleb128 0x27
 4047 00a9 19       		.uleb128 0x19
 4048 00aa 11       		.uleb128 0x11
 4049 00ab 01       		.uleb128 0x1
 4050 00ac 12       		.uleb128 0x12
 4051 00ad 06       		.uleb128 0x6
 4052 00ae 40       		.uleb128 0x40
 4053 00af 18       		.uleb128 0x18
 4054 00b0 9642     		.uleb128 0x2116
 4055 00b2 19       		.uleb128 0x19
 4056 00b3 01       		.uleb128 0x1
 4057 00b4 13       		.uleb128 0x13
 4058 00b5 00       		.byte	0
 4059 00b6 00       		.byte	0
 4060 00b7 0F       		.uleb128 0xf
ARM GAS  C:\Users\ikui753\AppData\Local\Temp\ccYGTKr5.s 			page 87


 4061 00b8 0B       		.uleb128 0xb
 4062 00b9 01       		.byte	0x1
 4063 00ba 11       		.uleb128 0x11
 4064 00bb 01       		.uleb128 0x1
 4065 00bc 12       		.uleb128 0x12
 4066 00bd 06       		.uleb128 0x6
 4067 00be 00       		.byte	0
 4068 00bf 00       		.byte	0
 4069 00c0 10       		.uleb128 0x10
 4070 00c1 34       		.uleb128 0x34
 4071 00c2 00       		.byte	0
 4072 00c3 03       		.uleb128 0x3
 4073 00c4 0E       		.uleb128 0xe
 4074 00c5 3A       		.uleb128 0x3a
 4075 00c6 0B       		.uleb128 0xb
 4076 00c7 3B       		.uleb128 0x3b
 4077 00c8 0B       		.uleb128 0xb
 4078 00c9 49       		.uleb128 0x49
 4079 00ca 13       		.uleb128 0x13
 4080 00cb 02       		.uleb128 0x2
 4081 00cc 18       		.uleb128 0x18
 4082 00cd 00       		.byte	0
 4083 00ce 00       		.byte	0
 4084 00cf 11       		.uleb128 0x11
 4085 00d0 2E       		.uleb128 0x2e
 4086 00d1 00       		.byte	0
 4087 00d2 3F       		.uleb128 0x3f
 4088 00d3 19       		.uleb128 0x19
 4089 00d4 03       		.uleb128 0x3
 4090 00d5 0E       		.uleb128 0xe
 4091 00d6 3A       		.uleb128 0x3a
 4092 00d7 0B       		.uleb128 0xb
 4093 00d8 3B       		.uleb128 0x3b
 4094 00d9 0B       		.uleb128 0xb
 4095 00da 27       		.uleb128 0x27
 4096 00db 19       		.uleb128 0x19
 4097 00dc 11       		.uleb128 0x11
 4098 00dd 01       		.uleb128 0x1
 4099 00de 12       		.uleb128 0x12
 4100 00df 06       		.uleb128 0x6
 4101 00e0 40       		.uleb128 0x40
 4102 00e1 18       		.uleb128 0x18
 4103 00e2 9742     		.uleb128 0x2117
 4104 00e4 19       		.uleb128 0x19
 4105 00e5 00       		.byte	0
 4106 00e6 00       		.byte	0
 4107 00e7 12       		.uleb128 0x12
 4108 00e8 2E       		.uleb128 0x2e
 4109 00e9 00       		.byte	0
 4110 00ea 3F       		.uleb128 0x3f
 4111 00eb 19       		.uleb128 0x19
 4112 00ec 03       		.uleb128 0x3
 4113 00ed 0E       		.uleb128 0xe
 4114 00ee 3A       		.uleb128 0x3a
 4115 00ef 0B       		.uleb128 0xb
 4116 00f0 3B       		.uleb128 0x3b
 4117 00f1 0B       		.uleb128 0xb
ARM GAS  C:\Users\ikui753\AppData\Local\Temp\ccYGTKr5.s 			page 88


 4118 00f2 27       		.uleb128 0x27
 4119 00f3 19       		.uleb128 0x19
 4120 00f4 11       		.uleb128 0x11
 4121 00f5 01       		.uleb128 0x1
 4122 00f6 12       		.uleb128 0x12
 4123 00f7 06       		.uleb128 0x6
 4124 00f8 40       		.uleb128 0x40
 4125 00f9 18       		.uleb128 0x18
 4126 00fa 9642     		.uleb128 0x2116
 4127 00fc 19       		.uleb128 0x19
 4128 00fd 00       		.byte	0
 4129 00fe 00       		.byte	0
 4130 00ff 13       		.uleb128 0x13
 4131 0100 2E       		.uleb128 0x2e
 4132 0101 00       		.byte	0
 4133 0102 3F       		.uleb128 0x3f
 4134 0103 19       		.uleb128 0x19
 4135 0104 03       		.uleb128 0x3
 4136 0105 0E       		.uleb128 0xe
 4137 0106 3A       		.uleb128 0x3a
 4138 0107 0B       		.uleb128 0xb
 4139 0108 3B       		.uleb128 0x3b
 4140 0109 0B       		.uleb128 0xb
 4141 010a 49       		.uleb128 0x49
 4142 010b 13       		.uleb128 0x13
 4143 010c 11       		.uleb128 0x11
 4144 010d 01       		.uleb128 0x1
 4145 010e 12       		.uleb128 0x12
 4146 010f 06       		.uleb128 0x6
 4147 0110 40       		.uleb128 0x40
 4148 0111 18       		.uleb128 0x18
 4149 0112 9642     		.uleb128 0x2116
 4150 0114 19       		.uleb128 0x19
 4151 0115 00       		.byte	0
 4152 0116 00       		.byte	0
 4153 0117 14       		.uleb128 0x14
 4154 0118 2E       		.uleb128 0x2e
 4155 0119 01       		.byte	0x1
 4156 011a 3F       		.uleb128 0x3f
 4157 011b 19       		.uleb128 0x19
 4158 011c 03       		.uleb128 0x3
 4159 011d 0E       		.uleb128 0xe
 4160 011e 3A       		.uleb128 0x3a
 4161 011f 0B       		.uleb128 0xb
 4162 0120 3B       		.uleb128 0x3b
 4163 0121 0B       		.uleb128 0xb
 4164 0122 27       		.uleb128 0x27
 4165 0123 19       		.uleb128 0x19
 4166 0124 49       		.uleb128 0x49
 4167 0125 13       		.uleb128 0x13
 4168 0126 11       		.uleb128 0x11
 4169 0127 01       		.uleb128 0x1
 4170 0128 12       		.uleb128 0x12
 4171 0129 06       		.uleb128 0x6
 4172 012a 40       		.uleb128 0x40
 4173 012b 18       		.uleb128 0x18
 4174 012c 9642     		.uleb128 0x2116
ARM GAS  C:\Users\ikui753\AppData\Local\Temp\ccYGTKr5.s 			page 89


 4175 012e 19       		.uleb128 0x19
 4176 012f 01       		.uleb128 0x1
 4177 0130 13       		.uleb128 0x13
 4178 0131 00       		.byte	0
 4179 0132 00       		.byte	0
 4180 0133 15       		.uleb128 0x15
 4181 0134 05       		.uleb128 0x5
 4182 0135 00       		.byte	0
 4183 0136 03       		.uleb128 0x3
 4184 0137 0E       		.uleb128 0xe
 4185 0138 3A       		.uleb128 0x3a
 4186 0139 0B       		.uleb128 0xb
 4187 013a 3B       		.uleb128 0x3b
 4188 013b 0B       		.uleb128 0xb
 4189 013c 49       		.uleb128 0x49
 4190 013d 13       		.uleb128 0x13
 4191 013e 02       		.uleb128 0x2
 4192 013f 18       		.uleb128 0x18
 4193 0140 00       		.byte	0
 4194 0141 00       		.byte	0
 4195 0142 16       		.uleb128 0x16
 4196 0143 34       		.uleb128 0x34
 4197 0144 00       		.byte	0
 4198 0145 03       		.uleb128 0x3
 4199 0146 08       		.uleb128 0x8
 4200 0147 3A       		.uleb128 0x3a
 4201 0148 0B       		.uleb128 0xb
 4202 0149 3B       		.uleb128 0x3b
 4203 014a 0B       		.uleb128 0xb
 4204 014b 49       		.uleb128 0x49
 4205 014c 13       		.uleb128 0x13
 4206 014d 02       		.uleb128 0x2
 4207 014e 18       		.uleb128 0x18
 4208 014f 00       		.byte	0
 4209 0150 00       		.byte	0
 4210 0151 17       		.uleb128 0x17
 4211 0152 2E       		.uleb128 0x2e
 4212 0153 00       		.byte	0
 4213 0154 3F       		.uleb128 0x3f
 4214 0155 19       		.uleb128 0x19
 4215 0156 03       		.uleb128 0x3
 4216 0157 0E       		.uleb128 0xe
 4217 0158 3A       		.uleb128 0x3a
 4218 0159 0B       		.uleb128 0xb
 4219 015a 3B       		.uleb128 0x3b
 4220 015b 0B       		.uleb128 0xb
 4221 015c 11       		.uleb128 0x11
 4222 015d 01       		.uleb128 0x1
 4223 015e 12       		.uleb128 0x12
 4224 015f 06       		.uleb128 0x6
 4225 0160 40       		.uleb128 0x40
 4226 0161 18       		.uleb128 0x18
 4227 0162 9742     		.uleb128 0x2117
 4228 0164 19       		.uleb128 0x19
 4229 0165 00       		.byte	0
 4230 0166 00       		.byte	0
 4231 0167 18       		.uleb128 0x18
ARM GAS  C:\Users\ikui753\AppData\Local\Temp\ccYGTKr5.s 			page 90


 4232 0168 2E       		.uleb128 0x2e
 4233 0169 00       		.byte	0
 4234 016a 3F       		.uleb128 0x3f
 4235 016b 19       		.uleb128 0x19
 4236 016c 03       		.uleb128 0x3
 4237 016d 0E       		.uleb128 0xe
 4238 016e 3A       		.uleb128 0x3a
 4239 016f 0B       		.uleb128 0xb
 4240 0170 3B       		.uleb128 0x3b
 4241 0171 0B       		.uleb128 0xb
 4242 0172 49       		.uleb128 0x49
 4243 0173 13       		.uleb128 0x13
 4244 0174 11       		.uleb128 0x11
 4245 0175 01       		.uleb128 0x1
 4246 0176 12       		.uleb128 0x12
 4247 0177 06       		.uleb128 0x6
 4248 0178 40       		.uleb128 0x40
 4249 0179 18       		.uleb128 0x18
 4250 017a 9742     		.uleb128 0x2117
 4251 017c 19       		.uleb128 0x19
 4252 017d 00       		.byte	0
 4253 017e 00       		.byte	0
 4254 017f 19       		.uleb128 0x19
 4255 0180 2E       		.uleb128 0x2e
 4256 0181 00       		.byte	0
 4257 0182 3F       		.uleb128 0x3f
 4258 0183 19       		.uleb128 0x19
 4259 0184 03       		.uleb128 0x3
 4260 0185 0E       		.uleb128 0xe
 4261 0186 3A       		.uleb128 0x3a
 4262 0187 0B       		.uleb128 0xb
 4263 0188 3B       		.uleb128 0x3b
 4264 0189 05       		.uleb128 0x5
 4265 018a 49       		.uleb128 0x49
 4266 018b 13       		.uleb128 0x13
 4267 018c 11       		.uleb128 0x11
 4268 018d 01       		.uleb128 0x1
 4269 018e 12       		.uleb128 0x12
 4270 018f 06       		.uleb128 0x6
 4271 0190 40       		.uleb128 0x40
 4272 0191 18       		.uleb128 0x18
 4273 0192 9742     		.uleb128 0x2117
 4274 0194 19       		.uleb128 0x19
 4275 0195 00       		.byte	0
 4276 0196 00       		.byte	0
 4277 0197 1A       		.uleb128 0x1a
 4278 0198 2E       		.uleb128 0x2e
 4279 0199 01       		.byte	0x1
 4280 019a 3F       		.uleb128 0x3f
 4281 019b 19       		.uleb128 0x19
 4282 019c 03       		.uleb128 0x3
 4283 019d 0E       		.uleb128 0xe
 4284 019e 3A       		.uleb128 0x3a
 4285 019f 0B       		.uleb128 0xb
 4286 01a0 3B       		.uleb128 0x3b
 4287 01a1 05       		.uleb128 0x5
 4288 01a2 49       		.uleb128 0x49
ARM GAS  C:\Users\ikui753\AppData\Local\Temp\ccYGTKr5.s 			page 91


 4289 01a3 13       		.uleb128 0x13
 4290 01a4 11       		.uleb128 0x11
 4291 01a5 01       		.uleb128 0x1
 4292 01a6 12       		.uleb128 0x12
 4293 01a7 06       		.uleb128 0x6
 4294 01a8 40       		.uleb128 0x40
 4295 01a9 18       		.uleb128 0x18
 4296 01aa 9642     		.uleb128 0x2116
 4297 01ac 19       		.uleb128 0x19
 4298 01ad 01       		.uleb128 0x1
 4299 01ae 13       		.uleb128 0x13
 4300 01af 00       		.byte	0
 4301 01b0 00       		.byte	0
 4302 01b1 1B       		.uleb128 0x1b
 4303 01b2 34       		.uleb128 0x34
 4304 01b3 00       		.byte	0
 4305 01b4 03       		.uleb128 0x3
 4306 01b5 0E       		.uleb128 0xe
 4307 01b6 3A       		.uleb128 0x3a
 4308 01b7 0B       		.uleb128 0xb
 4309 01b8 3B       		.uleb128 0x3b
 4310 01b9 05       		.uleb128 0x5
 4311 01ba 49       		.uleb128 0x49
 4312 01bb 13       		.uleb128 0x13
 4313 01bc 02       		.uleb128 0x2
 4314 01bd 18       		.uleb128 0x18
 4315 01be 00       		.byte	0
 4316 01bf 00       		.byte	0
 4317 01c0 1C       		.uleb128 0x1c
 4318 01c1 2E       		.uleb128 0x2e
 4319 01c2 00       		.byte	0
 4320 01c3 3F       		.uleb128 0x3f
 4321 01c4 19       		.uleb128 0x19
 4322 01c5 03       		.uleb128 0x3
 4323 01c6 0E       		.uleb128 0xe
 4324 01c7 3A       		.uleb128 0x3a
 4325 01c8 0B       		.uleb128 0xb
 4326 01c9 3B       		.uleb128 0x3b
 4327 01ca 05       		.uleb128 0x5
 4328 01cb 11       		.uleb128 0x11
 4329 01cc 01       		.uleb128 0x1
 4330 01cd 12       		.uleb128 0x12
 4331 01ce 06       		.uleb128 0x6
 4332 01cf 40       		.uleb128 0x40
 4333 01d0 18       		.uleb128 0x18
 4334 01d1 9742     		.uleb128 0x2117
 4335 01d3 19       		.uleb128 0x19
 4336 01d4 00       		.byte	0
 4337 01d5 00       		.byte	0
 4338 01d6 1D       		.uleb128 0x1d
 4339 01d7 2E       		.uleb128 0x2e
 4340 01d8 01       		.byte	0x1
 4341 01d9 3F       		.uleb128 0x3f
 4342 01da 19       		.uleb128 0x19
 4343 01db 03       		.uleb128 0x3
 4344 01dc 0E       		.uleb128 0xe
 4345 01dd 3A       		.uleb128 0x3a
ARM GAS  C:\Users\ikui753\AppData\Local\Temp\ccYGTKr5.s 			page 92


 4346 01de 0B       		.uleb128 0xb
 4347 01df 3B       		.uleb128 0x3b
 4348 01e0 05       		.uleb128 0x5
 4349 01e1 49       		.uleb128 0x49
 4350 01e2 13       		.uleb128 0x13
 4351 01e3 11       		.uleb128 0x11
 4352 01e4 01       		.uleb128 0x1
 4353 01e5 12       		.uleb128 0x12
 4354 01e6 06       		.uleb128 0x6
 4355 01e7 40       		.uleb128 0x40
 4356 01e8 18       		.uleb128 0x18
 4357 01e9 9742     		.uleb128 0x2117
 4358 01eb 19       		.uleb128 0x19
 4359 01ec 01       		.uleb128 0x1
 4360 01ed 13       		.uleb128 0x13
 4361 01ee 00       		.byte	0
 4362 01ef 00       		.byte	0
 4363 01f0 1E       		.uleb128 0x1e
 4364 01f1 2E       		.uleb128 0x2e
 4365 01f2 01       		.byte	0x1
 4366 01f3 3F       		.uleb128 0x3f
 4367 01f4 19       		.uleb128 0x19
 4368 01f5 03       		.uleb128 0x3
 4369 01f6 0E       		.uleb128 0xe
 4370 01f7 3A       		.uleb128 0x3a
 4371 01f8 0B       		.uleb128 0xb
 4372 01f9 3B       		.uleb128 0x3b
 4373 01fa 05       		.uleb128 0x5
 4374 01fb 11       		.uleb128 0x11
 4375 01fc 01       		.uleb128 0x1
 4376 01fd 12       		.uleb128 0x12
 4377 01fe 06       		.uleb128 0x6
 4378 01ff 40       		.uleb128 0x40
 4379 0200 18       		.uleb128 0x18
 4380 0201 9642     		.uleb128 0x2116
 4381 0203 19       		.uleb128 0x19
 4382 0204 01       		.uleb128 0x1
 4383 0205 13       		.uleb128 0x13
 4384 0206 00       		.byte	0
 4385 0207 00       		.byte	0
 4386 0208 1F       		.uleb128 0x1f
 4387 0209 2E       		.uleb128 0x2e
 4388 020a 00       		.byte	0
 4389 020b 3F       		.uleb128 0x3f
 4390 020c 19       		.uleb128 0x19
 4391 020d 03       		.uleb128 0x3
 4392 020e 0E       		.uleb128 0xe
 4393 020f 3A       		.uleb128 0x3a
 4394 0210 0B       		.uleb128 0xb
 4395 0211 3B       		.uleb128 0x3b
 4396 0212 05       		.uleb128 0x5
 4397 0213 11       		.uleb128 0x11
 4398 0214 01       		.uleb128 0x1
 4399 0215 12       		.uleb128 0x12
 4400 0216 06       		.uleb128 0x6
 4401 0217 40       		.uleb128 0x40
 4402 0218 18       		.uleb128 0x18
ARM GAS  C:\Users\ikui753\AppData\Local\Temp\ccYGTKr5.s 			page 93


 4403 0219 9642     		.uleb128 0x2116
 4404 021b 19       		.uleb128 0x19
 4405 021c 00       		.byte	0
 4406 021d 00       		.byte	0
 4407 021e 20       		.uleb128 0x20
 4408 021f 34       		.uleb128 0x34
 4409 0220 00       		.byte	0
 4410 0221 03       		.uleb128 0x3
 4411 0222 0E       		.uleb128 0xe
 4412 0223 3A       		.uleb128 0x3a
 4413 0224 0B       		.uleb128 0xb
 4414 0225 3B       		.uleb128 0x3b
 4415 0226 05       		.uleb128 0x5
 4416 0227 49       		.uleb128 0x49
 4417 0228 13       		.uleb128 0x13
 4418 0229 3F       		.uleb128 0x3f
 4419 022a 19       		.uleb128 0x19
 4420 022b 3C       		.uleb128 0x3c
 4421 022c 19       		.uleb128 0x19
 4422 022d 00       		.byte	0
 4423 022e 00       		.byte	0
 4424 022f 21       		.uleb128 0x21
 4425 0230 34       		.uleb128 0x34
 4426 0231 00       		.byte	0
 4427 0232 03       		.uleb128 0x3
 4428 0233 08       		.uleb128 0x8
 4429 0234 3A       		.uleb128 0x3a
 4430 0235 0B       		.uleb128 0xb
 4431 0236 3B       		.uleb128 0x3b
 4432 0237 0B       		.uleb128 0xb
 4433 0238 49       		.uleb128 0x49
 4434 0239 13       		.uleb128 0x13
 4435 023a 3F       		.uleb128 0x3f
 4436 023b 19       		.uleb128 0x19
 4437 023c 02       		.uleb128 0x2
 4438 023d 18       		.uleb128 0x18
 4439 023e 00       		.byte	0
 4440 023f 00       		.byte	0
 4441 0240 22       		.uleb128 0x22
 4442 0241 34       		.uleb128 0x34
 4443 0242 00       		.byte	0
 4444 0243 03       		.uleb128 0x3
 4445 0244 0E       		.uleb128 0xe
 4446 0245 3A       		.uleb128 0x3a
 4447 0246 0B       		.uleb128 0xb
 4448 0247 3B       		.uleb128 0x3b
 4449 0248 0B       		.uleb128 0xb
 4450 0249 49       		.uleb128 0x49
 4451 024a 13       		.uleb128 0x13
 4452 024b 3F       		.uleb128 0x3f
 4453 024c 19       		.uleb128 0x19
 4454 024d 02       		.uleb128 0x2
 4455 024e 18       		.uleb128 0x18
 4456 024f 00       		.byte	0
 4457 0250 00       		.byte	0
 4458 0251 23       		.uleb128 0x23
 4459 0252 34       		.uleb128 0x34
ARM GAS  C:\Users\ikui753\AppData\Local\Temp\ccYGTKr5.s 			page 94


 4460 0253 00       		.byte	0
 4461 0254 03       		.uleb128 0x3
 4462 0255 08       		.uleb128 0x8
 4463 0256 3A       		.uleb128 0x3a
 4464 0257 0B       		.uleb128 0xb
 4465 0258 3B       		.uleb128 0x3b
 4466 0259 0B       		.uleb128 0xb
 4467 025a 49       		.uleb128 0x49
 4468 025b 13       		.uleb128 0x13
 4469 025c 3F       		.uleb128 0x3f
 4470 025d 19       		.uleb128 0x19
 4471 025e 3C       		.uleb128 0x3c
 4472 025f 19       		.uleb128 0x19
 4473 0260 00       		.byte	0
 4474 0261 00       		.byte	0
 4475 0262 24       		.uleb128 0x24
 4476 0263 34       		.uleb128 0x34
 4477 0264 00       		.byte	0
 4478 0265 03       		.uleb128 0x3
 4479 0266 0E       		.uleb128 0xe
 4480 0267 3A       		.uleb128 0x3a
 4481 0268 0B       		.uleb128 0xb
 4482 0269 3B       		.uleb128 0x3b
 4483 026a 0B       		.uleb128 0xb
 4484 026b 49       		.uleb128 0x49
 4485 026c 13       		.uleb128 0x13
 4486 026d 3F       		.uleb128 0x3f
 4487 026e 19       		.uleb128 0x19
 4488 026f 3C       		.uleb128 0x3c
 4489 0270 19       		.uleb128 0x19
 4490 0271 00       		.byte	0
 4491 0272 00       		.byte	0
 4492 0273 25       		.uleb128 0x25
 4493 0274 0F       		.uleb128 0xf
 4494 0275 00       		.byte	0
 4495 0276 0B       		.uleb128 0xb
 4496 0277 0B       		.uleb128 0xb
 4497 0278 49       		.uleb128 0x49
 4498 0279 13       		.uleb128 0x13
 4499 027a 00       		.byte	0
 4500 027b 00       		.byte	0
 4501 027c 26       		.uleb128 0x26
 4502 027d 34       		.uleb128 0x34
 4503 027e 00       		.byte	0
 4504 027f 03       		.uleb128 0x3
 4505 0280 0E       		.uleb128 0xe
 4506 0281 3A       		.uleb128 0x3a
 4507 0282 0B       		.uleb128 0xb
 4508 0283 3B       		.uleb128 0x3b
 4509 0284 05       		.uleb128 0x5
 4510 0285 49       		.uleb128 0x49
 4511 0286 13       		.uleb128 0x13
 4512 0287 3F       		.uleb128 0x3f
 4513 0288 19       		.uleb128 0x19
 4514 0289 02       		.uleb128 0x2
 4515 028a 18       		.uleb128 0x18
 4516 028b 00       		.byte	0
ARM GAS  C:\Users\ikui753\AppData\Local\Temp\ccYGTKr5.s 			page 95


 4517 028c 00       		.byte	0
 4518 028d 00       		.byte	0
 4519              		.section	.debug_aranges,"",%progbits
 4520 0000 9C000000 		.4byte	0x9c
 4521 0004 0200     		.2byte	0x2
 4522 0006 00000000 		.4byte	.Ldebug_info0
 4523 000a 04       		.byte	0x4
 4524 000b 00       		.byte	0
 4525 000c 0000     		.2byte	0
 4526 000e 0000     		.2byte	0
 4527 0010 00000000 		.4byte	.LFB64
 4528 0014 EC000000 		.4byte	.LFE64-.LFB64
 4529 0018 00000000 		.4byte	.LFB65
 4530 001c 18000000 		.4byte	.LFE65-.LFB65
 4531 0020 00000000 		.4byte	.LFB66
 4532 0024 18000000 		.4byte	.LFE66-.LFB66
 4533 0028 00000000 		.4byte	.LFB67
 4534 002c 18000000 		.4byte	.LFE67-.LFB67
 4535 0030 00000000 		.4byte	.LFB68
 4536 0034 18000000 		.4byte	.LFE68-.LFB68
 4537 0038 00000000 		.4byte	.LFB69
 4538 003c 68000000 		.4byte	.LFE69-.LFB69
 4539 0040 00000000 		.4byte	.LFB70
 4540 0044 04010000 		.4byte	.LFE70-.LFB70
 4541 0048 00000000 		.4byte	.LFB71
 4542 004c 54000000 		.4byte	.LFE71-.LFB71
 4543 0050 00000000 		.4byte	.LFB72
 4544 0054 34000000 		.4byte	.LFE72-.LFB72
 4545 0058 00000000 		.4byte	.LFB73
 4546 005c 84000000 		.4byte	.LFE73-.LFB73
 4547 0060 00000000 		.4byte	.LFB74
 4548 0064 7C000000 		.4byte	.LFE74-.LFB74
 4549 0068 00000000 		.4byte	.LFB75
 4550 006c 84000000 		.4byte	.LFE75-.LFB75
 4551 0070 00000000 		.4byte	.LFB76
 4552 0074 C0050000 		.4byte	.LFE76-.LFB76
 4553 0078 00000000 		.4byte	.LFB77
 4554 007c 68000000 		.4byte	.LFE77-.LFB77
 4555 0080 00000000 		.4byte	.LFB78
 4556 0084 6C000000 		.4byte	.LFE78-.LFB78
 4557 0088 00000000 		.4byte	.LFB79
 4558 008c 3C010000 		.4byte	.LFE79-.LFB79
 4559 0090 00000000 		.4byte	.LFB80
 4560 0094 B8000000 		.4byte	.LFE80-.LFB80
 4561 0098 00000000 		.4byte	0
 4562 009c 00000000 		.4byte	0
 4563              		.section	.debug_ranges,"",%progbits
 4564              	.Ldebug_ranges0:
 4565 0000 00000000 		.4byte	.LFB64
 4566 0004 EC000000 		.4byte	.LFE64
 4567 0008 00000000 		.4byte	.LFB65
 4568 000c 18000000 		.4byte	.LFE65
 4569 0010 00000000 		.4byte	.LFB66
 4570 0014 18000000 		.4byte	.LFE66
 4571 0018 00000000 		.4byte	.LFB67
 4572 001c 18000000 		.4byte	.LFE67
 4573 0020 00000000 		.4byte	.LFB68
ARM GAS  C:\Users\ikui753\AppData\Local\Temp\ccYGTKr5.s 			page 96


 4574 0024 18000000 		.4byte	.LFE68
 4575 0028 00000000 		.4byte	.LFB69
 4576 002c 68000000 		.4byte	.LFE69
 4577 0030 00000000 		.4byte	.LFB70
 4578 0034 04010000 		.4byte	.LFE70
 4579 0038 00000000 		.4byte	.LFB71
 4580 003c 54000000 		.4byte	.LFE71
 4581 0040 00000000 		.4byte	.LFB72
 4582 0044 34000000 		.4byte	.LFE72
 4583 0048 00000000 		.4byte	.LFB73
 4584 004c 84000000 		.4byte	.LFE73
 4585 0050 00000000 		.4byte	.LFB74
 4586 0054 7C000000 		.4byte	.LFE74
 4587 0058 00000000 		.4byte	.LFB75
 4588 005c 84000000 		.4byte	.LFE75
 4589 0060 00000000 		.4byte	.LFB76
 4590 0064 C0050000 		.4byte	.LFE76
 4591 0068 00000000 		.4byte	.LFB77
 4592 006c 68000000 		.4byte	.LFE77
 4593 0070 00000000 		.4byte	.LFB78
 4594 0074 6C000000 		.4byte	.LFE78
 4595 0078 00000000 		.4byte	.LFB79
 4596 007c 3C010000 		.4byte	.LFE79
 4597 0080 00000000 		.4byte	.LFB80
 4598 0084 B8000000 		.4byte	.LFE80
 4599 0088 00000000 		.4byte	0
 4600 008c 00000000 		.4byte	0
 4601              		.section	.debug_line,"",%progbits
 4602              	.Ldebug_line0:
 4603 0000 84040000 		.section	.debug_str,"MS",%progbits,1
 4603      02007001 
 4603      00000201 
 4603      FB0E0D00 
 4603      01010101 
 4604              	.LASF135:
 4605 0000 746F7461 		.ascii	"totalDistance\000"
 4605      6C446973 
 4605      74616E63 
 4605      6500
 4606              	.LASF41:
 4607 000e 4F726965 		.ascii	"OrientationState\000"
 4607      6E746174 
 4607      696F6E53 
 4607      74617465 
 4607      00
 4608              	.LASF36:
 4609 001f 67325F73 		.ascii	"g2_speed\000"
 4609      70656564 
 4609      00
 4610              	.LASF94:
 4611 0028 666F7277 		.ascii	"forwardUntilTargetStartedFlag\000"
 4611      61726455 
 4611      6E74696C 
 4611      54617267 
 4611      65745374 
 4612              	.LASF56:
 4613 0046 526F626F 		.ascii	"RobotMovement\000"
ARM GAS  C:\Users\ikui753\AppData\Local\Temp\ccYGTKr5.s 			page 97


 4613      744D6F76 
 4613      656D656E 
 4613      7400
 4614              	.LASF128:
 4615 0054 70726576 		.ascii	"previousDirection\000"
 4615      696F7573 
 4615      44697265 
 4615      6374696F 
 4615      6E00
 4616              	.LASF103:
 4617 0066 6C696E65 		.ascii	"lineCount\000"
 4617      436F756E 
 4617      7400
 4618              	.LASF110:
 4619 0070 74735F73 		.ascii	"ts_speed\000"
 4619      70656564 
 4619      00
 4620              	.LASF0:
 4621 0079 7369676E 		.ascii	"signed char\000"
 4621      65642063 
 4621      68617200 
 4622              	.LASF155:
 4623 0085 483A5C44 		.ascii	"H:\\Documents\\GitHub\\301-Robot\\psoc student pack"
 4623      6F63756D 
 4623      656E7473 
 4623      5C476974 
 4623      4875625C 
 4624 00b4 5C70736F 		.ascii	"\\psoc_code_base\\CS301_Class.cydsn\000"
 4624      635F636F 
 4624      64655F62 
 4624      6173655C 
 4624      43533330 
 4625              	.LASF69:
 4626 00d6 53345F44 		.ascii	"S4_DETECTED\000"
 4626      45544543 
 4626      54454400 
 4627              	.LASF51:
 4628 00e2 64697265 		.ascii	"direction\000"
 4628      6374696F 
 4628      6E00
 4629              	.LASF138:
 4630 00ec 74696D65 		.ascii	"timerInt\000"
 4630      72496E74 
 4630      00
 4631              	.LASF153:
 4632 00f5 474E5520 		.ascii	"GNU C11 5.4.1 20160609 (release) [ARM/embedded-5-br"
 4632      43313120 
 4632      352E342E 
 4632      31203230 
 4632      31363036 
 4633 0128 616E6368 		.ascii	"anch revision 237715] -mcpu=cortex-m3 -mthumb -g -O"
 4633      20726576 
 4633      6973696F 
 4633      6E203233 
 4633      37373135 
 4634 015b 30202D66 		.ascii	"0 -ffunction-sections -ffat-lto-objects\000"
 4634      66756E63 
ARM GAS  C:\Users\ikui753\AppData\Local\Temp\ccYGTKr5.s 			page 98


 4634      74696F6E 
 4634      2D736563 
 4634      74696F6E 
 4635              	.LASF82:
 4636 0183 626C6F63 		.ascii	"blocksToTarget\000"
 4636      6B73546F 
 4636      54617267 
 4636      657400
 4637              	.LASF29:
 4638 0192 67305F64 		.ascii	"g0_direction\000"
 4638      69726563 
 4638      74696F6E 
 4638      00
 4639              	.LASF123:
 4640 019f 656E7472 		.ascii	"entry\000"
 4640      7900
 4641              	.LASF7:
 4642 01a5 6C6F6E67 		.ascii	"long long unsigned int\000"
 4642      206C6F6E 
 4642      6720756E 
 4642      7369676E 
 4642      65642069 
 4643              	.LASF55:
 4644 01bc 65787065 		.ascii	"expectedOrientation\000"
 4644      63746564 
 4644      4F726965 
 4644      6E746174 
 4644      696F6E00 
 4645              	.LASF46:
 4646 01d0 75547572 		.ascii	"uTurn\000"
 4646      6E00
 4647              	.LASF26:
 4648 01d6 67305F78 		.ascii	"g0_xpos\000"
 4648      706F7300 
 4649              	.LASF140:
 4650 01de 73746F70 		.ascii	"stopBuffer\000"
 4650      42756666 
 4650      657200
 4651              	.LASF104:
 4652 01e9 6F6E4C69 		.ascii	"onLineFlag\000"
 4652      6E65466C 
 4652      616700
 4653              	.LASF54:
 4654 01f4 64697374 		.ascii	"distanceToTarget\000"
 4654      616E6365 
 4654      546F5461 
 4654      72676574 
 4654      00
 4655              	.LASF48:
 4656 0205 53746F70 		.ascii	"StopAtTarget\000"
 4656      41745461 
 4656      72676574 
 4656      00
 4657              	.LASF152:
 4658 0212 66697273 		.ascii	"firstTurnIteration\000"
 4658      74547572 
 4658      6E497465 
ARM GAS  C:\Users\ikui753\AppData\Local\Temp\ccYGTKr5.s 			page 99


 4658      72617469 
 4658      6F6E00
 4659              	.LASF112:
 4660 0225 666C6167 		.ascii	"flag_ts_enc\000"
 4660      5F74735F 
 4660      656E6300 
 4661              	.LASF68:
 4662 0231 53335F44 		.ascii	"S3_DETECTED\000"
 4662      45544543 
 4662      54454400 
 4663              	.LASF118:
 4664 023d 666C6167 		.ascii	"flag_KB_string\000"
 4664      5F4B425F 
 4664      73747269 
 4664      6E6700
 4665              	.LASF70:
 4666 024c 53355F44 		.ascii	"S5_DETECTED\000"
 4666      45544543 
 4666      54454400 
 4667              	.LASF98:
 4668 0258 72696768 		.ascii	"rightStatusFlag\000"
 4668      74537461 
 4668      74757346 
 4668      6C616700 
 4669              	.LASF50:
 4670 0268 496E7374 		.ascii	"Instruction\000"
 4670      72756374 
 4670      696F6E00 
 4671              	.LASF148:
 4672 0274 63757272 		.ascii	"currentCol\000"
 4672      656E7443 
 4672      6F6C00
 4673              	.LASF62:
 4674 027f 53746F70 		.ascii	"Stop\000"
 4674      00
 4675              	.LASF4:
 4676 0284 6C6F6E67 		.ascii	"long int\000"
 4676      20696E74 
 4676      00
 4677              	.LASF107:
 4678 028d 49544D5F 		.ascii	"ITM_RxBuffer\000"
 4678      52784275 
 4678      66666572 
 4678      00
 4679              	.LASF88:
 4680 029a 636F756E 		.ascii	"count2\000"
 4680      743200
 4681              	.LASF91:
 4682 02a1 696E7374 		.ascii	"instructionIndex\000"
 4682      72756374 
 4682      696F6E49 
 4682      6E646578 
 4682      00
 4683              	.LASF77:
 4684 02b2 5370696E 		.ascii	"SpinTurnCourseCorrection\000"
 4684      5475726E 
 4684      436F7572 
ARM GAS  C:\Users\ikui753\AppData\Local\Temp\ccYGTKr5.s 			page 100


 4684      7365436F 
 4684      72726563 
 4685              	.LASF47:
 4686 02cb 466F7277 		.ascii	"ForwardUntilTarget\000"
 4686      61726455 
 4686      6E74696C 
 4686      54617267 
 4686      657400
 4687              	.LASF66:
 4688 02de 4261636B 		.ascii	"Backward\000"
 4688      77617264 
 4688      00
 4689              	.LASF14:
 4690 02e7 75696E74 		.ascii	"uint8\000"
 4690      3800
 4691              	.LASF6:
 4692 02ed 6C6F6E67 		.ascii	"long long int\000"
 4692      206C6F6E 
 4692      6720696E 
 4692      7400
 4693              	.LASF20:
 4694 02fb 646F7562 		.ascii	"double\000"
 4694      6C6500
 4695              	.LASF100:
 4696 0302 63757272 		.ascii	"currentIgnoreL\000"
 4696      656E7449 
 4696      676E6F72 
 4696      654C00
 4697              	.LASF119:
 4698 0311 64617461 		.ascii	"dataready_flag\000"
 4698      72656164 
 4698      795F666C 
 4698      616700
 4699              	.LASF73:
 4700 0320 6D61696E 		.ascii	"main\000"
 4700      00
 4701              	.LASF101:
 4702 0325 63757272 		.ascii	"currentIgnoreR\000"
 4702      656E7449 
 4702      676E6F72 
 4702      655200
 4703              	.LASF61:
 4704 0334 41646A75 		.ascii	"AdjustToTheRight\000"
 4704      7374546F 
 4704      54686552 
 4704      69676874 
 4704      00
 4705              	.LASF116:
 4706 0345 666C6167 		.ascii	"flag_rx\000"
 4706      5F727800 
 4707              	.LASF16:
 4708 034d 75696E74 		.ascii	"uint32\000"
 4708      333200
 4709              	.LASF86:
 4710 0354 6E657874 		.ascii	"nextInstruction\000"
 4710      496E7374 
 4710      72756374 
ARM GAS  C:\Users\ikui753\AppData\Local\Temp\ccYGTKr5.s 			page 101


 4710      696F6E00 
 4711              	.LASF157:
 4712 0364 636F756E 		.ascii	"count\000"
 4712      7400
 4713              	.LASF122:
 4714 036a 6C696E65 		.ascii	"line\000"
 4714      00
 4715              	.LASF37:
 4716 036f 67325F64 		.ascii	"g2_direction\000"
 4716      69726563 
 4716      74696F6E 
 4716      00
 4717              	.LASF137:
 4718 037c 71756164 		.ascii	"quadDec2Count\000"
 4718      44656332 
 4718      436F756E 
 4718      7400
 4719              	.LASF58:
 4720 038a 5475726E 		.ascii	"TurnRight\000"
 4720      52696768 
 4720      7400
 4721              	.LASF65:
 4722 0394 466F7277 		.ascii	"ForwardAfterTurn\000"
 4722      61726441 
 4722      66746572 
 4722      5475726E 
 4722      00
 4723              	.LASF49:
 4724 03a5 64617461 		.ascii	"data_main\000"
 4724      5F6D6169 
 4724      6E00
 4725              	.LASF80:
 4726 03af 626C6F63 		.ascii	"blocksize\000"
 4726      6B73697A 
 4726      6500
 4727              	.LASF108:
 4728 03b9 74735F65 		.ascii	"ts_enc\000"
 4728      6E6300
 4729              	.LASF5:
 4730 03c0 6C6F6E67 		.ascii	"long unsigned int\000"
 4730      20756E73 
 4730      69676E65 
 4730      6420696E 
 4730      7400
 4731              	.LASF106:
 4732 03d2 746F6F4C 		.ascii	"tooLateFlag\000"
 4732      61746546 
 4732      6C616700 
 4733              	.LASF144:
 4734 03de 626C6F63 		.ascii	"blockSizeTotal\000"
 4734      6B53697A 
 4734      65546F74 
 4734      616C00
 4735              	.LASF158:
 4736 03ed 526F7461 		.ascii	"RotateClockwise180Degrees\000"
 4736      7465436C 
 4736      6F636B77 
ARM GAS  C:\Users\ikui753\AppData\Local\Temp\ccYGTKr5.s 			page 102


 4736      69736531 
 4736      38304465 
 4737              	.LASF64:
 4738 0407 77616974 		.ascii	"waitForTurn\000"
 4738      466F7254 
 4738      75726E00 
 4739              	.LASF57:
 4740 0413 466F7277 		.ascii	"Forward\000"
 4740      61726400 
 4741              	.LASF3:
 4742 041b 73686F72 		.ascii	"short unsigned int\000"
 4742      7420756E 
 4742      7369676E 
 4742      65642069 
 4742      6E7400
 4743              	.LASF105:
 4744 042e 746F6F45 		.ascii	"tooEarlyFlag\000"
 4744      61726C79 
 4744      466C6167 
 4744      00
 4745              	.LASF90:
 4746 043b 53657452 		.ascii	"SetRobotMovement\000"
 4746      6F626F74 
 4746      4D6F7665 
 4746      6D656E74 
 4746      00
 4747              	.LASF17:
 4748 044c 696E7438 		.ascii	"int8\000"
 4748      00
 4749              	.LASF78:
 4750 0451 73706565 		.ascii	"speedTimer\000"
 4750      6454696D 
 4750      657200
 4751              	.LASF12:
 4752 045c 5F5F696E 		.ascii	"__int32_t\000"
 4752      7433325F 
 4752      7400
 4753              	.LASF154:
 4754 0466 6D61696E 		.ascii	"main.c\000"
 4754      2E6300
 4755              	.LASF31:
 4756 046d 67315F79 		.ascii	"g1_ypos\000"
 4756      706F7300 
 4757              	.LASF84:
 4758 0475 4D6F7665 		.ascii	"MoveToNextInstruction\000"
 4758      546F4E65 
 4758      7874496E 
 4758      73747275 
 4758      6374696F 
 4759              	.LASF89:
 4760 048b 71756164 		.ascii	"quadPulseCount\000"
 4760      50756C73 
 4760      65436F75 
 4760      6E7400
 4761              	.LASF111:
 4762 049a 74735F64 		.ascii	"ts_display\000"
 4762      6973706C 
ARM GAS  C:\Users\ikui753\AppData\Local\Temp\ccYGTKr5.s 			page 103


 4762      617900
 4763              	.LASF143:
 4764 04a5 63757272 		.ascii	"currentFoodListIndex\000"
 4764      656E7446 
 4764      6F6F644C 
 4764      69737449 
 4764      6E646578 
 4765              	.LASF75:
 4766 04ba 466F7277 		.ascii	"ForwardCourseCorrection\000"
 4766      61726443 
 4766      6F757273 
 4766      65436F72 
 4766      72656374 
 4767              	.LASF117:
 4768 04d2 666C6167 		.ascii	"flag_packet\000"
 4768      5F706163 
 4768      6B657400 
 4769              	.LASF114:
 4770 04de 666C6167 		.ascii	"flag_ts_speed\000"
 4770      5F74735F 
 4770      73706565 
 4770      6400
 4771              	.LASF32:
 4772 04ec 67315F73 		.ascii	"g1_speed\000"
 4772      70656564 
 4772      00
 4773              	.LASF39:
 4774 04f5 4C656674 		.ascii	"Left\000"
 4774      00
 4775              	.LASF96:
 4776 04fa 75547572 		.ascii	"uTurnFinishedFlag\000"
 4776      6E46696E 
 4776      69736865 
 4776      64466C61 
 4776      6700
 4777              	.LASF10:
 4778 050c 73697A65 		.ascii	"sizetype\000"
 4778      74797065 
 4778      00
 4779              	.LASF147:
 4780 0515 63757272 		.ascii	"currentRow\000"
 4780      656E7452 
 4780      6F7700
 4781              	.LASF125:
 4782 0520 73797374 		.ascii	"system_state\000"
 4782      656D5F73 
 4782      74617465 
 4782      00
 4783              	.LASF33:
 4784 052d 67315F64 		.ascii	"g1_direction\000"
 4784      69726563 
 4784      74696F6E 
 4784      00
 4785              	.LASF124:
 4786 053a 75736242 		.ascii	"usbBuffer\000"
 4786      75666665 
 4786      7200
ARM GAS  C:\Users\ikui753\AppData\Local\Temp\ccYGTKr5.s 			page 104


 4787              	.LASF44:
 4788 0544 77616974 		.ascii	"waitForLeftTurn\000"
 4788      466F724C 
 4788      65667454 
 4788      75726E00 
 4789              	.LASF30:
 4790 0554 67315F78 		.ascii	"g1_xpos\000"
 4790      706F7300 
 4791              	.LASF35:
 4792 055c 67325F79 		.ascii	"g2_ypos\000"
 4792      706F7300 
 4793              	.LASF99:
 4794 0564 7370696E 		.ascii	"spinCourseCorrectionStarted\000"
 4794      436F7572 
 4794      7365436F 
 4794      72726563 
 4794      74696F6E 
 4795              	.LASF120:
 4796 0580 666C6167 		.ascii	"flag_rf_transmission_active\000"
 4796      5F72665F 
 4796      7472616E 
 4796      736D6973 
 4796      73696F6E 
 4797              	.LASF145:
 4798 059c 78426C6F 		.ascii	"xBlocksize\000"
 4798      636B7369 
 4798      7A6500
 4799              	.LASF146:
 4800 05a7 79426C6F 		.ascii	"yBlocksize\000"
 4800      636B7369 
 4800      7A6500
 4801              	.LASF19:
 4802 05b2 666C6F61 		.ascii	"float\000"
 4802      7400
 4803              	.LASF134:
 4804 05b8 746F7461 		.ascii	"totalMilliseconds\000"
 4804      6C4D696C 
 4804      6C697365 
 4804      636F6E64 
 4804      7300
 4805              	.LASF63:
 4806 05ca 556E6B6E 		.ascii	"Unknown\000"
 4806      6F776E00 
 4807              	.LASF85:
 4808 05d2 47657449 		.ascii	"GetInstructionAtIndex\000"
 4808      6E737472 
 4808      75637469 
 4808      6F6E4174 
 4808      496E6465 
 4809              	.LASF139:
 4810 05e8 6B656570 		.ascii	"keepLedOn\000"
 4810      4C65644F 
 4810      6E00
 4811              	.LASF109:
 4812 05f2 74735F75 		.ascii	"ts_update\000"
 4812      70646174 
 4812      6500
ARM GAS  C:\Users\ikui753\AppData\Local\Temp\ccYGTKr5.s 			page 105


 4813              	.LASF95:
 4814 05fc 75547572 		.ascii	"uTurnStartedFlag\000"
 4814      6E537461 
 4814      72746564 
 4814      466C6167 
 4814      00
 4815              	.LASF13:
 4816 060d 696E7433 		.ascii	"int32_t\000"
 4816      325F7400 
 4817              	.LASF1:
 4818 0615 756E7369 		.ascii	"unsigned char\000"
 4818      676E6564 
 4818      20636861 
 4818      7200
 4819              	.LASF15:
 4820 0623 75696E74 		.ascii	"uint16\000"
 4820      313600
 4821              	.LASF42:
 4822 062a 496E7374 		.ascii	"InstructionDirection\000"
 4822      72756374 
 4822      696F6E44 
 4822      69726563 
 4822      74696F6E 
 4823              	.LASF34:
 4824 063f 67325F78 		.ascii	"g2_xpos\000"
 4824      706F7300 
 4825              	.LASF2:
 4826 0647 73686F72 		.ascii	"short int\000"
 4826      7420696E 
 4826      7400
 4827              	.LASF130:
 4828 0651 70726576 		.ascii	"previousOrientation\000"
 4828      696F7573 
 4828      4F726965 
 4828      6E746174 
 4828      696F6E00 
 4829              	.LASF150:
 4830 0665 69676E6F 		.ascii	"ignoreSensor\000"
 4830      72655365 
 4830      6E736F72 
 4830      00
 4831              	.LASF97:
 4832 0672 6C656674 		.ascii	"leftStatusFlag\000"
 4832      53746174 
 4832      7573466C 
 4832      616700
 4833              	.LASF81:
 4834 0681 63757272 		.ascii	"currentInstructionDirection\000"
 4834      656E7449 
 4834      6E737472 
 4834      75637469 
 4834      6F6E4469 
 4835              	.LASF24:
 4836 069d 726F626F 		.ascii	"robot_ypos\000"
 4836      745F7970 
 4836      6F7300
 4837              	.LASF60:
ARM GAS  C:\Users\ikui753\AppData\Local\Temp\ccYGTKr5.s 			page 106


 4838 06a8 41646A75 		.ascii	"AdjustToTheLeft\000"
 4838      7374546F 
 4838      5468654C 
 4838      65667400 
 4839              	.LASF43:
 4840 06b8 476F466F 		.ascii	"GoForward\000"
 4840      72776172 
 4840      6400
 4841              	.LASF40:
 4842 06c2 52696768 		.ascii	"Right\000"
 4842      7400
 4843              	.LASF151:
 4844 06c8 6C617374 		.ascii	"lastDirectionAfter180\000"
 4844      44697265 
 4844      6374696F 
 4844      6E416674 
 4844      65723138 
 4845              	.LASF132:
 4846 06de 6E756D53 		.ascii	"numSteps\000"
 4846      74657073 
 4846      00
 4847              	.LASF76:
 4848 06e7 5370696E 		.ascii	"SpinCourseCorrection\000"
 4848      436F7572 
 4848      7365436F 
 4848      72726563 
 4848      74696F6E 
 4849              	.LASF115:
 4850 06fc 666C6167 		.ascii	"flag_ts_display\000"
 4850      5F74735F 
 4850      64697370 
 4850      6C617900 
 4851              	.LASF74:
 4852 070c 6E657744 		.ascii	"newDistance\000"
 4852      69737461 
 4852      6E636500 
 4853              	.LASF9:
 4854 0718 6C6F6E67 		.ascii	"long double\000"
 4854      20646F75 
 4854      626C6500 
 4855              	.LASF11:
 4856 0724 63686172 		.ascii	"char\000"
 4856      00
 4857              	.LASF27:
 4858 0729 67305F79 		.ascii	"g0_ypos\000"
 4858      706F7300 
 4859              	.LASF67:
 4860 0731 5370696E 		.ascii	"Spin180\000"
 4860      31383000 
 4861              	.LASF8:
 4862 0739 756E7369 		.ascii	"unsigned int\000"
 4862      676E6564 
 4862      20696E74 
 4862      00
 4863              	.LASF21:
 4864 0746 72737369 		.ascii	"rssi\000"
 4864      00
ARM GAS  C:\Users\ikui753\AppData\Local\Temp\ccYGTKr5.s 			page 107


 4865              	.LASF22:
 4866 074b 696E6465 		.ascii	"index\000"
 4866      7800
 4867              	.LASF71:
 4868 0751 53365F44 		.ascii	"S6_DETECTED\000"
 4868      45544543 
 4868      54454400 
 4869              	.LASF126:
 4870 075d 666F6F64 		.ascii	"food_list\000"
 4870      5F6C6973 
 4870      7400
 4871              	.LASF38:
 4872 0767 446F776E 		.ascii	"Down\000"
 4872      00
 4873              	.LASF136:
 4874 076c 62756666 		.ascii	"buffer\000"
 4874      657200
 4875              	.LASF113:
 4876 0773 666C6167 		.ascii	"flag_ts_update\000"
 4876      5F74735F 
 4876      75706461 
 4876      746500
 4877              	.LASF121:
 4878 0782 64697370 		.ascii	"displaystring\000"
 4878      6C617973 
 4878      7472696E 
 4878      6700
 4879              	.LASF23:
 4880 0790 726F626F 		.ascii	"robot_xpos\000"
 4880      745F7870 
 4880      6F7300
 4881              	.LASF129:
 4882 079b 63757272 		.ascii	"currentRobotOrientation\000"
 4882      656E7452 
 4882      6F626F74 
 4882      4F726965 
 4882      6E746174 
 4883              	.LASF127:
 4884 07b3 63757272 		.ascii	"currentDirection\000"
 4884      656E7444 
 4884      69726563 
 4884      74696F6E 
 4884      00
 4885              	.LASF79:
 4886 07c4 4765744D 		.ascii	"GetMovementAccordingToInstruction\000"
 4886      6F76656D 
 4886      656E7441 
 4886      63636F72 
 4886      64696E67 
 4887              	.LASF93:
 4888 07e6 7475726E 		.ascii	"turnFinishedFlag\000"
 4888      46696E69 
 4888      73686564 
 4888      466C6167 
 4888      00
 4889              	.LASF133:
 4890 07f7 696E7374 		.ascii	"instructionList\000"
ARM GAS  C:\Users\ikui753\AppData\Local\Temp\ccYGTKr5.s 			page 108


 4890      72756374 
 4890      696F6E4C 
 4890      69737400 
 4891              	.LASF45:
 4892 0807 77616974 		.ascii	"waitForRightTurn\000"
 4892      466F7252 
 4892      69676874 
 4892      5475726E 
 4892      00
 4893              	.LASF142:
 4894 0818 6A756E63 		.ascii	"junctionConfiguration\000"
 4894      74696F6E 
 4894      436F6E66 
 4894      69677572 
 4894      6174696F 
 4895              	.LASF131:
 4896 082e 63757272 		.ascii	"currentInstruction\000"
 4896      656E7449 
 4896      6E737472 
 4896      75637469 
 4896      6F6E00
 4897              	.LASF102:
 4898 0841 746F7461 		.ascii	"totalLineCount\000"
 4898      6C4C696E 
 4898      65436F75 
 4898      6E7400
 4899              	.LASF87:
 4900 0850 636F756E 		.ascii	"count1\000"
 4900      743100
 4901              	.LASF72:
 4902 0857 54494D45 		.ascii	"TIMER_FINISH\000"
 4902      525F4649 
 4902      4E495348 
 4902      00
 4903              	.LASF83:
 4904 0864 52657365 		.ascii	"ResetSensorFlags\000"
 4904      7453656E 
 4904      736F7246 
 4904      6C616773 
 4904      00
 4905              	.LASF18:
 4906 0875 696E7431 		.ascii	"int16\000"
 4906      3600
 4907              	.LASF156:
 4908 087b 71756164 		.ascii	"quadCountToRPM\000"
 4908      436F756E 
 4908      74546F52 
 4908      504D00
 4909              	.LASF52:
 4910 088a 69676E6F 		.ascii	"ignoreL\000"
 4910      72654C00 
 4911              	.LASF59:
 4912 0892 5475726E 		.ascii	"TurnLeft\000"
 4912      4C656674 
 4912      00
 4913              	.LASF53:
 4914 089b 69676E6F 		.ascii	"ignoreR\000"
ARM GAS  C:\Users\ikui753\AppData\Local\Temp\ccYGTKr5.s 			page 109


 4914      72655200 
 4915              	.LASF92:
 4916 08a3 7475726E 		.ascii	"turnStartedFlag\000"
 4916      53746172 
 4916      74656446 
 4916      6C616700 
 4917              	.LASF28:
 4918 08b3 67305F73 		.ascii	"g0_speed\000"
 4918      70656564 
 4918      00
 4919              	.LASF25:
 4920 08bc 726F626F 		.ascii	"robot_orientation\000"
 4920      745F6F72 
 4920      69656E74 
 4920      6174696F 
 4920      6E00
 4921              	.LASF149:
 4922 08ce 73746F70 		.ascii	"stoppedAfterTurn\000"
 4922      70656441 
 4922      66746572 
 4922      5475726E 
 4922      00
 4923              	.LASF141:
 4924 08df 666F7277 		.ascii	"forwardBuffer\000"
 4924      61726442 
 4924      75666665 
 4924      7200
 4925              		.ident	"GCC: (GNU Tools for ARM Embedded Processors) 5.4.1 20160609 (release) [ARM/embedded-5-bran
