ARM GAS  C:\Users\ikui753\AppData\Local\Temp\cc2QeP5b.s 			page 1


   1              		.syntax unified
   2              		.cpu cortex-m3
   3              		.fpu softvfp
   4              		.eabi_attribute 20, 1
   5              		.eabi_attribute 21, 1
   6              		.eabi_attribute 23, 3
   7              		.eabi_attribute 24, 1
   8              		.eabi_attribute 25, 1
   9              		.eabi_attribute 26, 1
  10              		.eabi_attribute 30, 6
  11              		.eabi_attribute 34, 1
  12              		.eabi_attribute 18, 4
  13              		.thumb
  14              		.syntax unified
  15              		.file	"movement.c"
  16              		.text
  17              	.Ltext0:
  18              		.cfi_sections	.debug_frame
  19              		.global	rangeMovementMultiplier
  20              		.data
  21              		.align	2
  22              		.type	rangeMovementMultiplier, %object
  23              		.size	rangeMovementMultiplier, 4
  24              	rangeMovementMultiplier:
  25 0000 CDCCCC3E 		.word	1053609165
  26              		.global	minMovementMultiplier
  27              		.align	2
  28              		.type	minMovementMultiplier, %object
  29              		.size	minMovementMultiplier, 4
  30              	minMovementMultiplier:
  31 0004 3333333F 		.word	1060320051
  32              		.global	turnCount
  33              		.bss
  34              		.align	1
  35              		.type	turnCount, %object
  36              		.size	turnCount, 2
  37              	turnCount:
  38 0000 0000     		.space	2
  39              		.global	maxTurnCount
  40              		.data
  41              		.align	1
  42              		.type	maxTurnCount, %object
  43              		.size	maxTurnCount, 2
  44              	maxTurnCount:
  45 0008 1900     		.short	25
  46              		.section	.text.stopMoving,"ax",%progbits
  47              		.align	2
  48              		.global	stopMoving
  49              		.thumb
  50              		.thumb_func
  51              		.type	stopMoving, %function
  52              	stopMoving:
  53              	.LFB64:
  54              		.file 1 "movement.c"
   1:movement.c    **** /* ========================================
   2:movement.c    ****  *
   3:movement.c    ****  * Copyright YOUR COMPANY, THE YEAR
ARM GAS  C:\Users\ikui753\AppData\Local\Temp\cc2QeP5b.s 			page 2


   4:movement.c    ****  * All Rights Reserved
   5:movement.c    ****  * UNPUBLISHED, LICENSED SOFTWARE.
   6:movement.c    ****  *
   7:movement.c    ****  * CONFIDENTIAL AND PROPRIETARY INFORMATION
   8:movement.c    ****  * WHICH IS THE PROPERTY OF your company.
   9:movement.c    ****  *
  10:movement.c    ****  * ========================================
  11:movement.c    **** */
  12:movement.c    **** #include "project.h"
  13:movement.c    **** 
  14:movement.c    **** #include <stdio.h>
  15:movement.c    **** #include <string.h>
  16:movement.c    **** #include <stdlib.h>
  17:movement.c    **** #define maxForwardPWM 9830
  18:movement.c    **** #define maxTurningPWM 6553
  19:movement.c    **** 
  20:movement.c    **** // CHANGE SPEED
  21:movement.c    **** // max speed is 20.83cm/s
  22:movement.c    **** // min speed is 11.69cm/s
  23:movement.c    **** #define MOVEMENT_SPEED_MULTIPLIER 1
  24:movement.c    **** 
  25:movement.c    **** float rangeMovementMultiplier = 0.4;
  26:movement.c    **** float minMovementMultiplier = 0.7;
  27:movement.c    **** 
  28:movement.c    **** uint16 turnCount = 0;
  29:movement.c    **** uint16 maxTurnCount = 25; // clock counts for one complete 90 deg turn
  30:movement.c    **** 
  31:movement.c    **** // Direction/ Movement macros
  32:movement.c    **** //* ========================================
  33:movement.c    **** // stop moving
  34:movement.c    **** void stopMoving() {
  55              		.loc 1 34 0
  56              		.cfi_startproc
  57              		@ args = 0, pretend = 0, frame = 0
  58              		@ frame_needed = 1, uses_anonymous_args = 0
  59 0000 80B5     		push	{r7, lr}
  60              		.cfi_def_cfa_offset 8
  61              		.cfi_offset 7, -8
  62              		.cfi_offset 14, -4
  63 0002 00AF     		add	r7, sp, #0
  64              		.cfi_def_cfa_register 7
  35:movement.c    ****     PWM_1_WriteCompare(32768); // 50%
  65              		.loc 1 35 0
  66 0004 4FF40040 		mov	r0, #32768
  67 0008 FFF7FEFF 		bl	PWM_1_WriteCompare
  36:movement.c    ****     PWM_2_WriteCompare(32768); // 50%
  68              		.loc 1 36 0
  69 000c 4FF40040 		mov	r0, #32768
  70 0010 FFF7FEFF 		bl	PWM_2_WriteCompare
  37:movement.c    **** }
  71              		.loc 1 37 0
  72 0014 00BF     		nop
  73 0016 80BD     		pop	{r7, pc}
  74              		.cfi_endproc
  75              	.LFE64:
  76              		.size	stopMoving, .-stopMoving
  77              		.global	__aeabi_fadd
ARM GAS  C:\Users\ikui753\AppData\Local\Temp\cc2QeP5b.s 			page 3


  78              		.global	__aeabi_fmul
  79              		.global	__aeabi_f2uiz
  80              		.global	__aeabi_fsub
  81              		.section	.text.adjustRight,"ax",%progbits
  82              		.align	2
  83              		.global	adjustRight
  84              		.thumb
  85              		.thumb_func
  86              		.type	adjustRight, %function
  87              	adjustRight:
  88              	.LFB65:
  38:movement.c    **** 
  39:movement.c    **** // keep rotating clockwise
  40:movement.c    **** // used for adjusting deviations
  41:movement.c    **** void adjustRight() {
  89              		.loc 1 41 0
  90              		.cfi_startproc
  91              		@ args = 0, pretend = 0, frame = 8
  92              		@ frame_needed = 1, uses_anonymous_args = 0
  93 0000 80B5     		push	{r7, lr}
  94              		.cfi_def_cfa_offset 8
  95              		.cfi_offset 7, -8
  96              		.cfi_offset 14, -4
  97 0002 82B0     		sub	sp, sp, #8
  98              		.cfi_def_cfa_offset 16
  99 0004 00AF     		add	r7, sp, #0
 100              		.cfi_def_cfa_register 7
  42:movement.c    ****     // totalMultiplier = 0.5 + (0.7 * movement_speed_multiplier)
  43:movement.c    ****     float totalMultiplier = minMovementMultiplier + (rangeMovementMultiplier * MOVEMENT_SPEED_MULTI
 101              		.loc 1 43 0
 102 0006 1A4B     		ldr	r3, .L3
 103 0008 1A68     		ldr	r2, [r3]	@ float
 104 000a 1A4B     		ldr	r3, .L3+4
 105 000c 1B68     		ldr	r3, [r3]	@ float
 106 000e 1946     		mov	r1, r3
 107 0010 1046     		mov	r0, r2
 108 0012 FFF7FEFF 		bl	__aeabi_fadd
 109 0016 0346     		mov	r3, r0
 110 0018 7B60     		str	r3, [r7, #4]	@ float
  44:movement.c    ****     
  45:movement.c    ****     uint16 count1 = (32767 + (maxForwardPWM * totalMultiplier));
 111              		.loc 1 45 0
 112 001a 1749     		ldr	r1, .L3+8
 113 001c 7868     		ldr	r0, [r7, #4]	@ float
 114 001e FFF7FEFF 		bl	__aeabi_fmul
 115 0022 0346     		mov	r3, r0
 116 0024 1549     		ldr	r1, .L3+12
 117 0026 1846     		mov	r0, r3
 118 0028 FFF7FEFF 		bl	__aeabi_fadd
 119 002c 0346     		mov	r3, r0
 120 002e 1846     		mov	r0, r3
 121 0030 FFF7FEFF 		bl	__aeabi_f2uiz
 122 0034 0346     		mov	r3, r0
 123 0036 7B80     		strh	r3, [r7, #2]	@ movhi
  46:movement.c    ****     uint16 count2 = (32767 - (maxTurningPWM * totalMultiplier));
 124              		.loc 1 46 0
 125 0038 1149     		ldr	r1, .L3+16
ARM GAS  C:\Users\ikui753\AppData\Local\Temp\cc2QeP5b.s 			page 4


 126 003a 7868     		ldr	r0, [r7, #4]	@ float
 127 003c FFF7FEFF 		bl	__aeabi_fmul
 128 0040 0346     		mov	r3, r0
 129 0042 1946     		mov	r1, r3
 130 0044 0D48     		ldr	r0, .L3+12
 131 0046 FFF7FEFF 		bl	__aeabi_fsub
 132 004a 0346     		mov	r3, r0
 133 004c 1846     		mov	r0, r3
 134 004e FFF7FEFF 		bl	__aeabi_f2uiz
 135 0052 0346     		mov	r3, r0
 136 0054 3B80     		strh	r3, [r7]	@ movhi
  47:movement.c    ****     PWM_1_WriteCompare(count1); // 65% - Left Wheel Clockwise
 137              		.loc 1 47 0
 138 0056 7B88     		ldrh	r3, [r7, #2]
 139 0058 1846     		mov	r0, r3
 140 005a FFF7FEFF 		bl	PWM_1_WriteCompare
  48:movement.c    ****     PWM_2_WriteCompare(count2); // 40% - Right Wheel Clockwise
 141              		.loc 1 48 0
 142 005e 3B88     		ldrh	r3, [r7]
 143 0060 1846     		mov	r0, r3
 144 0062 FFF7FEFF 		bl	PWM_2_WriteCompare
  49:movement.c    **** }
 145              		.loc 1 49 0
 146 0066 00BF     		nop
 147 0068 0837     		adds	r7, r7, #8
 148              		.cfi_def_cfa_offset 8
 149 006a BD46     		mov	sp, r7
 150              		.cfi_def_cfa_register 13
 151              		@ sp needed
 152 006c 80BD     		pop	{r7, pc}
 153              	.L4:
 154 006e 00BF     		.align	2
 155              	.L3:
 156 0070 00000000 		.word	minMovementMultiplier
 157 0074 00000000 		.word	rangeMovementMultiplier
 158 0078 00981946 		.word	1176082432
 159 007c 00FEFF46 		.word	1191181824
 160 0080 00C8CC45 		.word	1171048448
 161              		.cfi_endproc
 162              	.LFE65:
 163              		.size	adjustRight, .-adjustRight
 164              		.section	.text.adjustLeft,"ax",%progbits
 165              		.align	2
 166              		.global	adjustLeft
 167              		.thumb
 168              		.thumb_func
 169              		.type	adjustLeft, %function
 170              	adjustLeft:
 171              	.LFB66:
  50:movement.c    **** 
  51:movement.c    **** // keep rotating anticlockwise
  52:movement.c    **** // used for adjusting deviations
  53:movement.c    **** void adjustLeft() {
 172              		.loc 1 53 0
 173              		.cfi_startproc
 174              		@ args = 0, pretend = 0, frame = 8
 175              		@ frame_needed = 1, uses_anonymous_args = 0
ARM GAS  C:\Users\ikui753\AppData\Local\Temp\cc2QeP5b.s 			page 5


 176 0000 80B5     		push	{r7, lr}
 177              		.cfi_def_cfa_offset 8
 178              		.cfi_offset 7, -8
 179              		.cfi_offset 14, -4
 180 0002 82B0     		sub	sp, sp, #8
 181              		.cfi_def_cfa_offset 16
 182 0004 00AF     		add	r7, sp, #0
 183              		.cfi_def_cfa_register 7
  54:movement.c    ****     // totalMultiplier = 0.5 + (0.7 * movement_speed_multiplier)
  55:movement.c    ****     float totalMultiplier = minMovementMultiplier + (rangeMovementMultiplier * MOVEMENT_SPEED_MULTI
 184              		.loc 1 55 0
 185 0006 1A4B     		ldr	r3, .L6
 186 0008 1A68     		ldr	r2, [r3]	@ float
 187 000a 1A4B     		ldr	r3, .L6+4
 188 000c 1B68     		ldr	r3, [r3]	@ float
 189 000e 1946     		mov	r1, r3
 190 0010 1046     		mov	r0, r2
 191 0012 FFF7FEFF 		bl	__aeabi_fadd
 192 0016 0346     		mov	r3, r0
 193 0018 7B60     		str	r3, [r7, #4]	@ float
  56:movement.c    ****     
  57:movement.c    ****     uint16 count1 = (32767 + (maxTurningPWM * totalMultiplier));
 194              		.loc 1 57 0
 195 001a 1749     		ldr	r1, .L6+8
 196 001c 7868     		ldr	r0, [r7, #4]	@ float
 197 001e FFF7FEFF 		bl	__aeabi_fmul
 198 0022 0346     		mov	r3, r0
 199 0024 1549     		ldr	r1, .L6+12
 200 0026 1846     		mov	r0, r3
 201 0028 FFF7FEFF 		bl	__aeabi_fadd
 202 002c 0346     		mov	r3, r0
 203 002e 1846     		mov	r0, r3
 204 0030 FFF7FEFF 		bl	__aeabi_f2uiz
 205 0034 0346     		mov	r3, r0
 206 0036 7B80     		strh	r3, [r7, #2]	@ movhi
  58:movement.c    ****     uint16 count2 = (32767 - (maxForwardPWM * totalMultiplier));
 207              		.loc 1 58 0
 208 0038 1149     		ldr	r1, .L6+16
 209 003a 7868     		ldr	r0, [r7, #4]	@ float
 210 003c FFF7FEFF 		bl	__aeabi_fmul
 211 0040 0346     		mov	r3, r0
 212 0042 1946     		mov	r1, r3
 213 0044 0D48     		ldr	r0, .L6+12
 214 0046 FFF7FEFF 		bl	__aeabi_fsub
 215 004a 0346     		mov	r3, r0
 216 004c 1846     		mov	r0, r3
 217 004e FFF7FEFF 		bl	__aeabi_f2uiz
 218 0052 0346     		mov	r3, r0
 219 0054 3B80     		strh	r3, [r7]	@ movhi
  59:movement.c    ****     PWM_1_WriteCompare(count1); // 60% - Left Wheel Clockwise
 220              		.loc 1 59 0
 221 0056 7B88     		ldrh	r3, [r7, #2]
 222 0058 1846     		mov	r0, r3
 223 005a FFF7FEFF 		bl	PWM_1_WriteCompare
  60:movement.c    ****     PWM_2_WriteCompare(count2); // 35% - Right Wheel Clockwise
 224              		.loc 1 60 0
 225 005e 3B88     		ldrh	r3, [r7]
ARM GAS  C:\Users\ikui753\AppData\Local\Temp\cc2QeP5b.s 			page 6


 226 0060 1846     		mov	r0, r3
 227 0062 FFF7FEFF 		bl	PWM_2_WriteCompare
  61:movement.c    **** }
 228              		.loc 1 61 0
 229 0066 00BF     		nop
 230 0068 0837     		adds	r7, r7, #8
 231              		.cfi_def_cfa_offset 8
 232 006a BD46     		mov	sp, r7
 233              		.cfi_def_cfa_register 13
 234              		@ sp needed
 235 006c 80BD     		pop	{r7, pc}
 236              	.L7:
 237 006e 00BF     		.align	2
 238              	.L6:
 239 0070 00000000 		.word	minMovementMultiplier
 240 0074 00000000 		.word	rangeMovementMultiplier
 241 0078 00C8CC45 		.word	1171048448
 242 007c 00FEFF46 		.word	1191181824
 243 0080 00981946 		.word	1176082432
 244              		.cfi_endproc
 245              	.LFE66:
 246              		.size	adjustLeft, .-adjustLeft
 247              		.section	.text.turnLeft,"ax",%progbits
 248              		.align	2
 249              		.global	turnLeft
 250              		.thumb
 251              		.thumb_func
 252              		.type	turnLeft, %function
 253              	turnLeft:
 254              	.LFB67:
  62:movement.c    **** 
  63:movement.c    **** // Anti-clockwise
  64:movement.c    **** void turnLeft() {
 255              		.loc 1 64 0
 256              		.cfi_startproc
 257              		@ args = 0, pretend = 0, frame = 8
 258              		@ frame_needed = 1, uses_anonymous_args = 0
 259 0000 80B5     		push	{r7, lr}
 260              		.cfi_def_cfa_offset 8
 261              		.cfi_offset 7, -8
 262              		.cfi_offset 14, -4
 263 0002 82B0     		sub	sp, sp, #8
 264              		.cfi_def_cfa_offset 16
 265 0004 00AF     		add	r7, sp, #0
 266              		.cfi_def_cfa_register 7
  65:movement.c    ****     uint16 count1 = (32767 - (maxTurningPWM * 0.9));
 267              		.loc 1 65 0
 268 0006 46F6F503 		movw	r3, #26869
 269 000a FB80     		strh	r3, [r7, #6]	@ movhi
  66:movement.c    ****     uint16 count2 = (32767 - (maxTurningPWM * 0.9)); // try 45%
 270              		.loc 1 66 0
 271 000c 46F6F503 		movw	r3, #26869
 272 0010 BB80     		strh	r3, [r7, #4]	@ movhi
  67:movement.c    ****     PWM_1_WriteCompare(count1); // 40% -- Left Wheel spins Clockwise
 273              		.loc 1 67 0
 274 0012 FB88     		ldrh	r3, [r7, #6]
 275 0014 1846     		mov	r0, r3
ARM GAS  C:\Users\ikui753\AppData\Local\Temp\cc2QeP5b.s 			page 7


 276 0016 FFF7FEFF 		bl	PWM_1_WriteCompare
  68:movement.c    ****     PWM_2_WriteCompare(count2); // 40% -- Right wheel spins clockwise
 277              		.loc 1 68 0
 278 001a BB88     		ldrh	r3, [r7, #4]
 279 001c 1846     		mov	r0, r3
 280 001e FFF7FEFF 		bl	PWM_2_WriteCompare
  69:movement.c    **** }
 281              		.loc 1 69 0
 282 0022 00BF     		nop
 283 0024 0837     		adds	r7, r7, #8
 284              		.cfi_def_cfa_offset 8
 285 0026 BD46     		mov	sp, r7
 286              		.cfi_def_cfa_register 13
 287              		@ sp needed
 288 0028 80BD     		pop	{r7, pc}
 289              		.cfi_endproc
 290              	.LFE67:
 291              		.size	turnLeft, .-turnLeft
 292 002a 00BF     		.section	.text.turnRight,"ax",%progbits
 293              		.align	2
 294              		.global	turnRight
 295              		.thumb
 296              		.thumb_func
 297              		.type	turnRight, %function
 298              	turnRight:
 299              	.LFB68:
  70:movement.c    **** 
  71:movement.c    **** // Clockwise
  72:movement.c    **** void turnRight() {
 300              		.loc 1 72 0
 301              		.cfi_startproc
 302              		@ args = 0, pretend = 0, frame = 8
 303              		@ frame_needed = 1, uses_anonymous_args = 0
 304 0000 80B5     		push	{r7, lr}
 305              		.cfi_def_cfa_offset 8
 306              		.cfi_offset 7, -8
 307              		.cfi_offset 14, -4
 308 0002 82B0     		sub	sp, sp, #8
 309              		.cfi_def_cfa_offset 16
 310 0004 00AF     		add	r7, sp, #0
 311              		.cfi_def_cfa_register 7
  73:movement.c    ****     uint16 count1 = (32767 + (maxTurningPWM * 0.9));
 312              		.loc 1 73 0
 313 0006 49F20873 		movw	r3, #38664
 314 000a FB80     		strh	r3, [r7, #6]	@ movhi
  74:movement.c    ****     uint16 count2 = (32767 + (maxTurningPWM * 0.9));
 315              		.loc 1 74 0
 316 000c 49F20873 		movw	r3, #38664
 317 0010 BB80     		strh	r3, [r7, #4]	@ movhi
  75:movement.c    ****     PWM_1_WriteCompare(count1); // 60% -- Left wheel spins clockwise
 318              		.loc 1 75 0
 319 0012 FB88     		ldrh	r3, [r7, #6]
 320 0014 1846     		mov	r0, r3
 321 0016 FFF7FEFF 		bl	PWM_1_WriteCompare
  76:movement.c    ****     PWM_2_WriteCompare(count2); // 60% - Right wheel spins Anti Clockwise
 322              		.loc 1 76 0
 323 001a BB88     		ldrh	r3, [r7, #4]
ARM GAS  C:\Users\ikui753\AppData\Local\Temp\cc2QeP5b.s 			page 8


 324 001c 1846     		mov	r0, r3
 325 001e FFF7FEFF 		bl	PWM_2_WriteCompare
  77:movement.c    **** }
 326              		.loc 1 77 0
 327 0022 00BF     		nop
 328 0024 0837     		adds	r7, r7, #8
 329              		.cfi_def_cfa_offset 8
 330 0026 BD46     		mov	sp, r7
 331              		.cfi_def_cfa_register 13
 332              		@ sp needed
 333 0028 80BD     		pop	{r7, pc}
 334              		.cfi_endproc
 335              	.LFE68:
 336              		.size	turnRight, .-turnRight
 337              		.global	__aeabi_f2d
 338              		.global	__aeabi_dmul
 339              		.global	__aeabi_dsub
 340              		.global	__aeabi_d2uiz
 341 002a 00BF     		.section	.text.moveForward,"ax",%progbits
 342              		.align	2
 343              		.global	moveForward
 344              		.thumb
 345              		.thumb_func
 346              		.type	moveForward, %function
 347              	moveForward:
 348              	.LFB69:
  78:movement.c    **** 
  79:movement.c    **** void moveForward() {
 349              		.loc 1 79 0
 350              		.cfi_startproc
 351              		@ args = 0, pretend = 0, frame = 8
 352              		@ frame_needed = 1, uses_anonymous_args = 0
 353 0000 90B5     		push	{r4, r7, lr}
 354              		.cfi_def_cfa_offset 12
 355              		.cfi_offset 4, -12
 356              		.cfi_offset 7, -8
 357              		.cfi_offset 14, -4
 358 0002 83B0     		sub	sp, sp, #12
 359              		.cfi_def_cfa_offset 24
 360 0004 00AF     		add	r7, sp, #0
 361              		.cfi_def_cfa_register 7
  80:movement.c    ****     // totalMultiplier = 0.5 + (0.7 * movement_speed_multiplier)
  81:movement.c    ****     float totalMultiplier = minMovementMultiplier + (rangeMovementMultiplier * MOVEMENT_SPEED_MULTI
 362              		.loc 1 81 0
 363 0006 244B     		ldr	r3, .L11+8
 364 0008 1A68     		ldr	r2, [r3]	@ float
 365 000a 244B     		ldr	r3, .L11+12
 366 000c 1B68     		ldr	r3, [r3]	@ float
 367 000e 1946     		mov	r1, r3
 368 0010 1046     		mov	r0, r2
 369 0012 FFF7FEFF 		bl	__aeabi_fadd
 370 0016 0346     		mov	r3, r0
 371 0018 7B60     		str	r3, [r7, #4]	@ float
  82:movement.c    ****     
  83:movement.c    ****     uint16 count1 = (32767 + (maxForwardPWM * totalMultiplier));
 372              		.loc 1 83 0
 373 001a 2149     		ldr	r1, .L11+16
ARM GAS  C:\Users\ikui753\AppData\Local\Temp\cc2QeP5b.s 			page 9


 374 001c 7868     		ldr	r0, [r7, #4]	@ float
 375 001e FFF7FEFF 		bl	__aeabi_fmul
 376 0022 0346     		mov	r3, r0
 377 0024 1F49     		ldr	r1, .L11+20
 378 0026 1846     		mov	r0, r3
 379 0028 FFF7FEFF 		bl	__aeabi_fadd
 380 002c 0346     		mov	r3, r0
 381 002e 1846     		mov	r0, r3
 382 0030 FFF7FEFF 		bl	__aeabi_f2uiz
 383 0034 0346     		mov	r3, r0
 384 0036 7B80     		strh	r3, [r7, #2]	@ movhi
  84:movement.c    ****     uint16 count2 = (32767 - (maxForwardPWM * totalMultiplier * 0.5)); // left wheel is slower, so 
 385              		.loc 1 84 0
 386 0038 1949     		ldr	r1, .L11+16
 387 003a 7868     		ldr	r0, [r7, #4]	@ float
 388 003c FFF7FEFF 		bl	__aeabi_fmul
 389 0040 0346     		mov	r3, r0
 390 0042 1846     		mov	r0, r3
 391 0044 FFF7FEFF 		bl	__aeabi_f2d
 392 0048 4FF00002 		mov	r2, #0
 393 004c 164B     		ldr	r3, .L11+24
 394 004e FFF7FEFF 		bl	__aeabi_dmul
 395 0052 0346     		mov	r3, r0
 396 0054 0C46     		mov	r4, r1
 397 0056 1A46     		mov	r2, r3
 398 0058 2346     		mov	r3, r4
 399 005a 0DA1     		adr	r1, .L11
 400 005c D1E90001 		ldrd	r0, [r1]
 401 0060 FFF7FEFF 		bl	__aeabi_dsub
 402 0064 0346     		mov	r3, r0
 403 0066 0C46     		mov	r4, r1
 404 0068 1846     		mov	r0, r3
 405 006a 2146     		mov	r1, r4
 406 006c FFF7FEFF 		bl	__aeabi_d2uiz
 407 0070 0346     		mov	r3, r0
 408 0072 3B80     		strh	r3, [r7]	@ movhi
  85:movement.c    ****     PWM_1_WriteCompare(count1); // 65% - Left Wheel Clockwise
 409              		.loc 1 85 0
 410 0074 7B88     		ldrh	r3, [r7, #2]
 411 0076 1846     		mov	r0, r3
 412 0078 FFF7FEFF 		bl	PWM_1_WriteCompare
  86:movement.c    ****     PWM_2_WriteCompare(count2); // 35% - Right Wheel Clockwise
 413              		.loc 1 86 0
 414 007c 3B88     		ldrh	r3, [r7]
 415 007e 1846     		mov	r0, r3
 416 0080 FFF7FEFF 		bl	PWM_2_WriteCompare
  87:movement.c    **** }
 417              		.loc 1 87 0
 418 0084 00BF     		nop
 419 0086 0C37     		adds	r7, r7, #12
 420              		.cfi_def_cfa_offset 12
 421 0088 BD46     		mov	sp, r7
 422              		.cfi_def_cfa_register 13
 423              		@ sp needed
 424 008a 90BD     		pop	{r4, r7, pc}
 425              	.L12:
 426 008c AFF30080 		.align	3
ARM GAS  C:\Users\ikui753\AppData\Local\Temp\cc2QeP5b.s 			page 10


 427              	.L11:
 428 0090 00000000 		.word	0
 429 0094 C0FFDF40 		.word	1088421824
 430 0098 00000000 		.word	minMovementMultiplier
 431 009c 00000000 		.word	rangeMovementMultiplier
 432 00a0 00981946 		.word	1176082432
 433 00a4 00FEFF46 		.word	1191181824
 434 00a8 0000E03F 		.word	1071644672
 435              		.cfi_endproc
 436              	.LFE69:
 437              		.size	moveForward, .-moveForward
 438              		.section	.text.moveBackward,"ax",%progbits
 439              		.align	2
 440              		.global	moveBackward
 441              		.thumb
 442              		.thumb_func
 443              		.type	moveBackward, %function
 444              	moveBackward:
 445              	.LFB70:
  88:movement.c    **** 
  89:movement.c    **** void moveBackward() {
 446              		.loc 1 89 0
 447              		.cfi_startproc
 448              		@ args = 0, pretend = 0, frame = 0
 449              		@ frame_needed = 1, uses_anonymous_args = 0
 450 0000 80B5     		push	{r7, lr}
 451              		.cfi_def_cfa_offset 8
 452              		.cfi_offset 7, -8
 453              		.cfi_offset 14, -4
 454 0002 00AF     		add	r7, sp, #0
 455              		.cfi_def_cfa_register 7
  90:movement.c    ****     PWM_1_WriteCompare(22937); // 35% - Left Wheel Anti Clockwise
 456              		.loc 1 90 0
 457 0004 45F69910 		movw	r0, #22937
 458 0008 FFF7FEFF 		bl	PWM_1_WriteCompare
  91:movement.c    ****     PWM_2_WriteCompare(42598); // 65% - Right Wheel Anti Clockwise
 459              		.loc 1 91 0
 460 000c 4AF26660 		movw	r0, #42598
 461 0010 FFF7FEFF 		bl	PWM_2_WriteCompare
  92:movement.c    **** }
 462              		.loc 1 92 0
 463 0014 00BF     		nop
 464 0016 80BD     		pop	{r7, pc}
 465              		.cfi_endproc
 466              	.LFE70:
 467              		.size	moveBackward, .-moveBackward
 468              		.section	.text.HardForward,"ax",%progbits
 469              		.align	2
 470              		.global	HardForward
 471              		.thumb
 472              		.thumb_func
 473              		.type	HardForward, %function
 474              	HardForward:
 475              	.LFB71:
  93:movement.c    **** 
  94:movement.c    **** 
  95:movement.c    **** 
ARM GAS  C:\Users\ikui753\AppData\Local\Temp\cc2QeP5b.s 			page 11


  96:movement.c    **** void HardForward() {
 476              		.loc 1 96 0
 477              		.cfi_startproc
 478              		@ args = 0, pretend = 0, frame = 16
 479              		@ frame_needed = 1, uses_anonymous_args = 0
 480 0000 90B5     		push	{r4, r7, lr}
 481              		.cfi_def_cfa_offset 12
 482              		.cfi_offset 4, -12
 483              		.cfi_offset 7, -8
 484              		.cfi_offset 14, -4
 485 0002 85B0     		sub	sp, sp, #20
 486              		.cfi_def_cfa_offset 32
 487 0004 00AF     		add	r7, sp, #0
 488              		.cfi_def_cfa_register 7
  97:movement.c    ****     // totalMultiplier = 0.5 + (0.7 * movement_speed_multiplier)
  98:movement.c    ****     float totalMultiplier = minMovementMultiplier + (rangeMovementMultiplier * MOVEMENT_SPEED_MULTI
 489              		.loc 1 98 0
 490 0006 2C4B     		ldr	r3, .L17+8
 491 0008 1A68     		ldr	r2, [r3]	@ float
 492 000a 2C4B     		ldr	r3, .L17+12
 493 000c 1B68     		ldr	r3, [r3]	@ float
 494 000e 1946     		mov	r1, r3
 495 0010 1046     		mov	r0, r2
 496 0012 FFF7FEFF 		bl	__aeabi_fadd
 497 0016 0346     		mov	r3, r0
 498 0018 BB60     		str	r3, [r7, #8]	@ float
  99:movement.c    ****     
 100:movement.c    ****     uint16 count1 = (32767 + (maxForwardPWM * totalMultiplier));
 499              		.loc 1 100 0
 500 001a 2949     		ldr	r1, .L17+16
 501 001c B868     		ldr	r0, [r7, #8]	@ float
 502 001e FFF7FEFF 		bl	__aeabi_fmul
 503 0022 0346     		mov	r3, r0
 504 0024 2749     		ldr	r1, .L17+20
 505 0026 1846     		mov	r0, r3
 506 0028 FFF7FEFF 		bl	__aeabi_fadd
 507 002c 0346     		mov	r3, r0
 508 002e 1846     		mov	r0, r3
 509 0030 FFF7FEFF 		bl	__aeabi_f2uiz
 510 0034 0346     		mov	r3, r0
 511 0036 FB80     		strh	r3, [r7, #6]	@ movhi
 101:movement.c    ****     uint16 count2 = (32767 - (maxForwardPWM * totalMultiplier * 0.5)); // left wheel is slower, so 
 512              		.loc 1 101 0
 513 0038 2149     		ldr	r1, .L17+16
 514 003a B868     		ldr	r0, [r7, #8]	@ float
 515 003c FFF7FEFF 		bl	__aeabi_fmul
 516 0040 0346     		mov	r3, r0
 517 0042 1846     		mov	r0, r3
 518 0044 FFF7FEFF 		bl	__aeabi_f2d
 519 0048 4FF00002 		mov	r2, #0
 520 004c 1E4B     		ldr	r3, .L17+24
 521 004e FFF7FEFF 		bl	__aeabi_dmul
 522 0052 0346     		mov	r3, r0
 523 0054 0C46     		mov	r4, r1
 524 0056 1A46     		mov	r2, r3
 525 0058 2346     		mov	r3, r4
 526 005a 15A1     		adr	r1, .L17
ARM GAS  C:\Users\ikui753\AppData\Local\Temp\cc2QeP5b.s 			page 12


 527 005c D1E90001 		ldrd	r0, [r1]
 528 0060 FFF7FEFF 		bl	__aeabi_dsub
 529 0064 0346     		mov	r3, r0
 530 0066 0C46     		mov	r4, r1
 531 0068 1846     		mov	r0, r3
 532 006a 2146     		mov	r1, r4
 533 006c FFF7FEFF 		bl	__aeabi_d2uiz
 534 0070 0346     		mov	r3, r0
 535 0072 BB80     		strh	r3, [r7, #4]	@ movhi
 102:movement.c    ****     PWM_1_WriteCompare(count1); // 65% - Left Wheel Clockwise
 536              		.loc 1 102 0
 537 0074 FB88     		ldrh	r3, [r7, #6]
 538 0076 1846     		mov	r0, r3
 539 0078 FFF7FEFF 		bl	PWM_1_WriteCompare
 103:movement.c    ****     PWM_2_WriteCompare(count2); // 35% - Right Wheel Clockwise
 540              		.loc 1 103 0
 541 007c BB88     		ldrh	r3, [r7, #4]
 542 007e 1846     		mov	r0, r3
 543 0080 FFF7FEFF 		bl	PWM_2_WriteCompare
 104:movement.c    ****     
 105:movement.c    ****     int quadPulseCount = 0;
 544              		.loc 1 105 0
 545 0084 0023     		movs	r3, #0
 546 0086 FB60     		str	r3, [r7, #12]
 106:movement.c    ****     QuadDec_M1_SetCounter(0);
 547              		.loc 1 106 0
 548 0088 0020     		movs	r0, #0
 549 008a FFF7FEFF 		bl	QuadDec_M1_SetCounter
 107:movement.c    ****     while(quadPulseCount < 10) {
 550              		.loc 1 107 0
 551 008e 03E0     		b	.L15
 552              	.L16:
 108:movement.c    ****         quadPulseCount = QuadDec_M1_GetCounter();
 553              		.loc 1 108 0
 554 0090 FFF7FEFF 		bl	QuadDec_M1_GetCounter
 555 0094 0346     		mov	r3, r0
 556 0096 FB60     		str	r3, [r7, #12]
 557              	.L15:
 107:movement.c    ****     while(quadPulseCount < 10) {
 558              		.loc 1 107 0
 559 0098 FB68     		ldr	r3, [r7, #12]
 560 009a 092B     		cmp	r3, #9
 561 009c F8DD     		ble	.L16
 109:movement.c    ****     }
 110:movement.c    ****     QuadDec_M1_SetCounter(0);
 562              		.loc 1 110 0
 563 009e 0020     		movs	r0, #0
 564 00a0 FFF7FEFF 		bl	QuadDec_M1_SetCounter
 111:movement.c    **** }
 565              		.loc 1 111 0
 566 00a4 00BF     		nop
 567 00a6 1437     		adds	r7, r7, #20
 568              		.cfi_def_cfa_offset 12
 569 00a8 BD46     		mov	sp, r7
 570              		.cfi_def_cfa_register 13
 571              		@ sp needed
 572 00aa 90BD     		pop	{r4, r7, pc}
ARM GAS  C:\Users\ikui753\AppData\Local\Temp\cc2QeP5b.s 			page 13


 573              	.L18:
 574 00ac AFF30080 		.align	3
 575              	.L17:
 576 00b0 00000000 		.word	0
 577 00b4 C0FFDF40 		.word	1088421824
 578 00b8 00000000 		.word	minMovementMultiplier
 579 00bc 00000000 		.word	rangeMovementMultiplier
 580 00c0 00981946 		.word	1176082432
 581 00c4 00FEFF46 		.word	1191181824
 582 00c8 0000E03F 		.word	1071644672
 583              		.cfi_endproc
 584              	.LFE71:
 585              		.size	HardForward, .-HardForward
 586              		.text
 587              	.Letext0:
 588              		.file 2 "c:\\program files (x86)\\cypress\\psoc creator\\4.2\\psoc creator\\import\\gnu\\arm\\5.4.
 589              		.file 3 "c:\\program files (x86)\\cypress\\psoc creator\\4.2\\psoc creator\\import\\gnu\\arm\\5.4.
 590              		.file 4 "Generated_Source\\PSoC5/cytypes.h"
 591              		.file 5 "Generated_Source\\PSoC5/core_cm3.h"
 592              		.section	.debug_info,"",%progbits
 593              	.Ldebug_info0:
 594 0000 96020000 		.4byte	0x296
 595 0004 0400     		.2byte	0x4
 596 0006 00000000 		.4byte	.Ldebug_abbrev0
 597 000a 04       		.byte	0x4
 598 000b 01       		.uleb128 0x1
 599 000c 0B000000 		.4byte	.LASF34
 600 0010 0C       		.byte	0xc
 601 0011 96010000 		.4byte	.LASF35
 602 0015 33010000 		.4byte	.LASF36
 603 0019 00000000 		.4byte	.Ldebug_ranges0+0
 604 001d 00000000 		.4byte	0
 605 0021 00000000 		.4byte	.Ldebug_line0
 606 0025 02       		.uleb128 0x2
 607 0026 01       		.byte	0x1
 608 0027 06       		.byte	0x6
 609 0028 7B020000 		.4byte	.LASF0
 610 002c 02       		.uleb128 0x2
 611 002d 01       		.byte	0x1
 612 002e 08       		.byte	0x8
 613 002f C1000000 		.4byte	.LASF1
 614 0033 02       		.uleb128 0x2
 615 0034 02       		.byte	0x2
 616 0035 05       		.byte	0x5
 617 0036 5C020000 		.4byte	.LASF2
 618 003a 02       		.uleb128 0x2
 619 003b 02       		.byte	0x2
 620 003c 07       		.byte	0x7
 621 003d FE000000 		.4byte	.LASF3
 622 0041 03       		.uleb128 0x3
 623 0042 A7000000 		.4byte	.LASF9
 624 0046 02       		.byte	0x2
 625 0047 3F       		.byte	0x3f
 626 0048 4C000000 		.4byte	0x4c
 627 004c 02       		.uleb128 0x2
 628 004d 04       		.byte	0x4
 629 004e 05       		.byte	0x5
ARM GAS  C:\Users\ikui753\AppData\Local\Temp\cc2QeP5b.s 			page 14


 630 004f 66020000 		.4byte	.LASF4
 631 0053 02       		.uleb128 0x2
 632 0054 04       		.byte	0x4
 633 0055 07       		.byte	0x7
 634 0056 DF000000 		.4byte	.LASF5
 635 005a 02       		.uleb128 0x2
 636 005b 08       		.byte	0x8
 637 005c 05       		.byte	0x5
 638 005d 27020000 		.4byte	.LASF6
 639 0061 02       		.uleb128 0x2
 640 0062 08       		.byte	0x8
 641 0063 07       		.byte	0x7
 642 0064 E9010000 		.4byte	.LASF7
 643 0068 04       		.uleb128 0x4
 644 0069 04       		.byte	0x4
 645 006a 05       		.byte	0x5
 646 006b 696E7400 		.ascii	"int\000"
 647 006f 02       		.uleb128 0x2
 648 0070 04       		.byte	0x4
 649 0071 07       		.byte	0x7
 650 0072 DC010000 		.4byte	.LASF8
 651 0076 03       		.uleb128 0x3
 652 0077 16020000 		.4byte	.LASF10
 653 007b 03       		.byte	0x3
 654 007c 2C       		.byte	0x2c
 655 007d 41000000 		.4byte	0x41
 656 0081 05       		.uleb128 0x5
 657 0082 8F010000 		.4byte	.LASF11
 658 0086 04       		.byte	0x4
 659 0087 E801     		.2byte	0x1e8
 660 0089 3A000000 		.4byte	0x3a
 661 008d 02       		.uleb128 0x2
 662 008e 04       		.byte	0x4
 663 008f 04       		.byte	0x4
 664 0090 BB000000 		.4byte	.LASF12
 665 0094 02       		.uleb128 0x2
 666 0095 08       		.byte	0x8
 667 0096 04       		.byte	0x4
 668 0097 2C010000 		.4byte	.LASF13
 669 009b 02       		.uleb128 0x2
 670 009c 01       		.byte	0x1
 671 009d 08       		.byte	0x8
 672 009e 35020000 		.4byte	.LASF14
 673 00a2 02       		.uleb128 0x2
 674 00a3 08       		.byte	0x8
 675 00a4 04       		.byte	0x4
 676 00a5 6F020000 		.4byte	.LASF15
 677 00a9 02       		.uleb128 0x2
 678 00aa 04       		.byte	0x4
 679 00ab 07       		.byte	0x7
 680 00ac 1E020000 		.4byte	.LASF16
 681 00b0 06       		.uleb128 0x6
 682 00b1 00000000 		.4byte	.LASF25
 683 00b5 01       		.byte	0x1
 684 00b6 22       		.byte	0x22
 685 00b7 00000000 		.4byte	.LFB64
 686 00bb 18000000 		.4byte	.LFE64-.LFB64
ARM GAS  C:\Users\ikui753\AppData\Local\Temp\cc2QeP5b.s 			page 15


 687 00bf 01       		.uleb128 0x1
 688 00c0 9C       		.byte	0x9c
 689 00c1 07       		.uleb128 0x7
 690 00c2 20010000 		.4byte	.LASF20
 691 00c6 01       		.byte	0x1
 692 00c7 29       		.byte	0x29
 693 00c8 00000000 		.4byte	.LFB65
 694 00cc 84000000 		.4byte	.LFE65-.LFB65
 695 00d0 01       		.uleb128 0x1
 696 00d1 9C       		.byte	0x9c
 697 00d2 01010000 		.4byte	0x101
 698 00d6 08       		.uleb128 0x8
 699 00d7 CF000000 		.4byte	.LASF17
 700 00db 01       		.byte	0x1
 701 00dc 2B       		.byte	0x2b
 702 00dd 8D000000 		.4byte	0x8d
 703 00e1 02       		.uleb128 0x2
 704 00e2 91       		.byte	0x91
 705 00e3 74       		.sleb128 -12
 706 00e4 08       		.uleb128 0x8
 707 00e5 99000000 		.4byte	.LASF18
 708 00e9 01       		.byte	0x1
 709 00ea 2D       		.byte	0x2d
 710 00eb 81000000 		.4byte	0x81
 711 00ef 02       		.uleb128 0x2
 712 00f0 91       		.byte	0x91
 713 00f1 72       		.sleb128 -14
 714 00f2 08       		.uleb128 0x8
 715 00f3 A0000000 		.4byte	.LASF19
 716 00f7 01       		.byte	0x1
 717 00f8 2E       		.byte	0x2e
 718 00f9 81000000 		.4byte	0x81
 719 00fd 02       		.uleb128 0x2
 720 00fe 91       		.byte	0x91
 721 00ff 70       		.sleb128 -16
 722 0100 00       		.byte	0
 723 0101 07       		.uleb128 0x7
 724 0102 84010000 		.4byte	.LASF21
 725 0106 01       		.byte	0x1
 726 0107 35       		.byte	0x35
 727 0108 00000000 		.4byte	.LFB66
 728 010c 84000000 		.4byte	.LFE66-.LFB66
 729 0110 01       		.uleb128 0x1
 730 0111 9C       		.byte	0x9c
 731 0112 41010000 		.4byte	0x141
 732 0116 08       		.uleb128 0x8
 733 0117 CF000000 		.4byte	.LASF17
 734 011b 01       		.byte	0x1
 735 011c 37       		.byte	0x37
 736 011d 8D000000 		.4byte	0x8d
 737 0121 02       		.uleb128 0x2
 738 0122 91       		.byte	0x91
 739 0123 74       		.sleb128 -12
 740 0124 08       		.uleb128 0x8
 741 0125 99000000 		.4byte	.LASF18
 742 0129 01       		.byte	0x1
 743 012a 39       		.byte	0x39
ARM GAS  C:\Users\ikui753\AppData\Local\Temp\cc2QeP5b.s 			page 16


 744 012b 81000000 		.4byte	0x81
 745 012f 02       		.uleb128 0x2
 746 0130 91       		.byte	0x91
 747 0131 72       		.sleb128 -14
 748 0132 08       		.uleb128 0x8
 749 0133 A0000000 		.4byte	.LASF19
 750 0137 01       		.byte	0x1
 751 0138 3A       		.byte	0x3a
 752 0139 81000000 		.4byte	0x81
 753 013d 02       		.uleb128 0x2
 754 013e 91       		.byte	0x91
 755 013f 70       		.sleb128 -16
 756 0140 00       		.byte	0
 757 0141 07       		.uleb128 0x7
 758 0142 0D020000 		.4byte	.LASF22
 759 0146 01       		.byte	0x1
 760 0147 40       		.byte	0x40
 761 0148 00000000 		.4byte	.LFB67
 762 014c 2A000000 		.4byte	.LFE67-.LFB67
 763 0150 01       		.uleb128 0x1
 764 0151 9C       		.byte	0x9c
 765 0152 73010000 		.4byte	0x173
 766 0156 08       		.uleb128 0x8
 767 0157 99000000 		.4byte	.LASF18
 768 015b 01       		.byte	0x1
 769 015c 41       		.byte	0x41
 770 015d 81000000 		.4byte	0x81
 771 0161 02       		.uleb128 0x2
 772 0162 91       		.byte	0x91
 773 0163 76       		.sleb128 -10
 774 0164 08       		.uleb128 0x8
 775 0165 A0000000 		.4byte	.LASF19
 776 0169 01       		.byte	0x1
 777 016a 42       		.byte	0x42
 778 016b 81000000 		.4byte	0x81
 779 016f 02       		.uleb128 0x2
 780 0170 91       		.byte	0x91
 781 0171 74       		.sleb128 -12
 782 0172 00       		.byte	0
 783 0173 07       		.uleb128 0x7
 784 0174 B1000000 		.4byte	.LASF23
 785 0178 01       		.byte	0x1
 786 0179 48       		.byte	0x48
 787 017a 00000000 		.4byte	.LFB68
 788 017e 2A000000 		.4byte	.LFE68-.LFB68
 789 0182 01       		.uleb128 0x1
 790 0183 9C       		.byte	0x9c
 791 0184 A5010000 		.4byte	0x1a5
 792 0188 08       		.uleb128 0x8
 793 0189 99000000 		.4byte	.LASF18
 794 018d 01       		.byte	0x1
 795 018e 49       		.byte	0x49
 796 018f 81000000 		.4byte	0x81
 797 0193 02       		.uleb128 0x2
 798 0194 91       		.byte	0x91
 799 0195 76       		.sleb128 -10
 800 0196 08       		.uleb128 0x8
ARM GAS  C:\Users\ikui753\AppData\Local\Temp\cc2QeP5b.s 			page 17


 801 0197 A0000000 		.4byte	.LASF19
 802 019b 01       		.byte	0x1
 803 019c 4A       		.byte	0x4a
 804 019d 81000000 		.4byte	0x81
 805 01a1 02       		.uleb128 0x2
 806 01a2 91       		.byte	0x91
 807 01a3 74       		.sleb128 -12
 808 01a4 00       		.byte	0
 809 01a5 07       		.uleb128 0x7
 810 01a6 3A020000 		.4byte	.LASF24
 811 01aa 01       		.byte	0x1
 812 01ab 4F       		.byte	0x4f
 813 01ac 00000000 		.4byte	.LFB69
 814 01b0 AC000000 		.4byte	.LFE69-.LFB69
 815 01b4 01       		.uleb128 0x1
 816 01b5 9C       		.byte	0x9c
 817 01b6 E5010000 		.4byte	0x1e5
 818 01ba 08       		.uleb128 0x8
 819 01bb CF000000 		.4byte	.LASF17
 820 01bf 01       		.byte	0x1
 821 01c0 51       		.byte	0x51
 822 01c1 8D000000 		.4byte	0x8d
 823 01c5 02       		.uleb128 0x2
 824 01c6 91       		.byte	0x91
 825 01c7 6C       		.sleb128 -20
 826 01c8 08       		.uleb128 0x8
 827 01c9 99000000 		.4byte	.LASF18
 828 01cd 01       		.byte	0x1
 829 01ce 53       		.byte	0x53
 830 01cf 81000000 		.4byte	0x81
 831 01d3 02       		.uleb128 0x2
 832 01d4 91       		.byte	0x91
 833 01d5 6A       		.sleb128 -22
 834 01d6 08       		.uleb128 0x8
 835 01d7 A0000000 		.4byte	.LASF19
 836 01db 01       		.byte	0x1
 837 01dc 54       		.byte	0x54
 838 01dd 81000000 		.4byte	0x81
 839 01e1 02       		.uleb128 0x2
 840 01e2 91       		.byte	0x91
 841 01e3 68       		.sleb128 -24
 842 01e4 00       		.byte	0
 843 01e5 06       		.uleb128 0x6
 844 01e6 F1000000 		.4byte	.LASF26
 845 01ea 01       		.byte	0x1
 846 01eb 59       		.byte	0x59
 847 01ec 00000000 		.4byte	.LFB70
 848 01f0 18000000 		.4byte	.LFE70-.LFB70
 849 01f4 01       		.uleb128 0x1
 850 01f5 9C       		.byte	0x9c
 851 01f6 07       		.uleb128 0x7
 852 01f7 46020000 		.4byte	.LASF27
 853 01fb 01       		.byte	0x1
 854 01fc 60       		.byte	0x60
 855 01fd 00000000 		.4byte	.LFB71
 856 0201 CC000000 		.4byte	.LFE71-.LFB71
 857 0205 01       		.uleb128 0x1
ARM GAS  C:\Users\ikui753\AppData\Local\Temp\cc2QeP5b.s 			page 18


 858 0206 9C       		.byte	0x9c
 859 0207 44020000 		.4byte	0x244
 860 020b 08       		.uleb128 0x8
 861 020c CF000000 		.4byte	.LASF17
 862 0210 01       		.byte	0x1
 863 0211 62       		.byte	0x62
 864 0212 8D000000 		.4byte	0x8d
 865 0216 02       		.uleb128 0x2
 866 0217 91       		.byte	0x91
 867 0218 68       		.sleb128 -24
 868 0219 08       		.uleb128 0x8
 869 021a 99000000 		.4byte	.LASF18
 870 021e 01       		.byte	0x1
 871 021f 64       		.byte	0x64
 872 0220 81000000 		.4byte	0x81
 873 0224 02       		.uleb128 0x2
 874 0225 91       		.byte	0x91
 875 0226 66       		.sleb128 -26
 876 0227 08       		.uleb128 0x8
 877 0228 A0000000 		.4byte	.LASF19
 878 022c 01       		.byte	0x1
 879 022d 65       		.byte	0x65
 880 022e 81000000 		.4byte	0x81
 881 0232 02       		.uleb128 0x2
 882 0233 91       		.byte	0x91
 883 0234 64       		.sleb128 -28
 884 0235 08       		.uleb128 0x8
 885 0236 11010000 		.4byte	.LASF28
 886 023a 01       		.byte	0x1
 887 023b 69       		.byte	0x69
 888 023c 68000000 		.4byte	0x68
 889 0240 02       		.uleb128 0x2
 890 0241 91       		.byte	0x91
 891 0242 6C       		.sleb128 -20
 892 0243 00       		.byte	0
 893 0244 09       		.uleb128 0x9
 894 0245 A1010000 		.4byte	.LASF29
 895 0249 05       		.byte	0x5
 896 024a 1207     		.2byte	0x712
 897 024c 50020000 		.4byte	0x250
 898 0250 0A       		.uleb128 0xa
 899 0251 76000000 		.4byte	0x76
 900 0255 0B       		.uleb128 0xb
 901 0256 AE010000 		.4byte	.LASF30
 902 025a 01       		.byte	0x1
 903 025b 19       		.byte	0x19
 904 025c 8D000000 		.4byte	0x8d
 905 0260 05       		.uleb128 0x5
 906 0261 03       		.byte	0x3
 907 0262 00000000 		.4byte	rangeMovementMultiplier
 908 0266 0B       		.uleb128 0xb
 909 0267 C6010000 		.4byte	.LASF31
 910 026b 01       		.byte	0x1
 911 026c 1A       		.byte	0x1a
 912 026d 8D000000 		.4byte	0x8d
 913 0271 05       		.uleb128 0x5
 914 0272 03       		.byte	0x3
ARM GAS  C:\Users\ikui753\AppData\Local\Temp\cc2QeP5b.s 			page 19


 915 0273 00000000 		.4byte	minMovementMultiplier
 916 0277 0B       		.uleb128 0xb
 917 0278 52020000 		.4byte	.LASF32
 918 027c 01       		.byte	0x1
 919 027d 1C       		.byte	0x1c
 920 027e 81000000 		.4byte	0x81
 921 0282 05       		.uleb128 0x5
 922 0283 03       		.byte	0x3
 923 0284 00000000 		.4byte	turnCount
 924 0288 0B       		.uleb128 0xb
 925 0289 00020000 		.4byte	.LASF33
 926 028d 01       		.byte	0x1
 927 028e 1D       		.byte	0x1d
 928 028f 81000000 		.4byte	0x81
 929 0293 05       		.uleb128 0x5
 930 0294 03       		.byte	0x3
 931 0295 00000000 		.4byte	maxTurnCount
 932 0299 00       		.byte	0
 933              		.section	.debug_abbrev,"",%progbits
 934              	.Ldebug_abbrev0:
 935 0000 01       		.uleb128 0x1
 936 0001 11       		.uleb128 0x11
 937 0002 01       		.byte	0x1
 938 0003 25       		.uleb128 0x25
 939 0004 0E       		.uleb128 0xe
 940 0005 13       		.uleb128 0x13
 941 0006 0B       		.uleb128 0xb
 942 0007 03       		.uleb128 0x3
 943 0008 0E       		.uleb128 0xe
 944 0009 1B       		.uleb128 0x1b
 945 000a 0E       		.uleb128 0xe
 946 000b 55       		.uleb128 0x55
 947 000c 17       		.uleb128 0x17
 948 000d 11       		.uleb128 0x11
 949 000e 01       		.uleb128 0x1
 950 000f 10       		.uleb128 0x10
 951 0010 17       		.uleb128 0x17
 952 0011 00       		.byte	0
 953 0012 00       		.byte	0
 954 0013 02       		.uleb128 0x2
 955 0014 24       		.uleb128 0x24
 956 0015 00       		.byte	0
 957 0016 0B       		.uleb128 0xb
 958 0017 0B       		.uleb128 0xb
 959 0018 3E       		.uleb128 0x3e
 960 0019 0B       		.uleb128 0xb
 961 001a 03       		.uleb128 0x3
 962 001b 0E       		.uleb128 0xe
 963 001c 00       		.byte	0
 964 001d 00       		.byte	0
 965 001e 03       		.uleb128 0x3
 966 001f 16       		.uleb128 0x16
 967 0020 00       		.byte	0
 968 0021 03       		.uleb128 0x3
 969 0022 0E       		.uleb128 0xe
 970 0023 3A       		.uleb128 0x3a
 971 0024 0B       		.uleb128 0xb
ARM GAS  C:\Users\ikui753\AppData\Local\Temp\cc2QeP5b.s 			page 20


 972 0025 3B       		.uleb128 0x3b
 973 0026 0B       		.uleb128 0xb
 974 0027 49       		.uleb128 0x49
 975 0028 13       		.uleb128 0x13
 976 0029 00       		.byte	0
 977 002a 00       		.byte	0
 978 002b 04       		.uleb128 0x4
 979 002c 24       		.uleb128 0x24
 980 002d 00       		.byte	0
 981 002e 0B       		.uleb128 0xb
 982 002f 0B       		.uleb128 0xb
 983 0030 3E       		.uleb128 0x3e
 984 0031 0B       		.uleb128 0xb
 985 0032 03       		.uleb128 0x3
 986 0033 08       		.uleb128 0x8
 987 0034 00       		.byte	0
 988 0035 00       		.byte	0
 989 0036 05       		.uleb128 0x5
 990 0037 16       		.uleb128 0x16
 991 0038 00       		.byte	0
 992 0039 03       		.uleb128 0x3
 993 003a 0E       		.uleb128 0xe
 994 003b 3A       		.uleb128 0x3a
 995 003c 0B       		.uleb128 0xb
 996 003d 3B       		.uleb128 0x3b
 997 003e 05       		.uleb128 0x5
 998 003f 49       		.uleb128 0x49
 999 0040 13       		.uleb128 0x13
 1000 0041 00       		.byte	0
 1001 0042 00       		.byte	0
 1002 0043 06       		.uleb128 0x6
 1003 0044 2E       		.uleb128 0x2e
 1004 0045 00       		.byte	0
 1005 0046 3F       		.uleb128 0x3f
 1006 0047 19       		.uleb128 0x19
 1007 0048 03       		.uleb128 0x3
 1008 0049 0E       		.uleb128 0xe
 1009 004a 3A       		.uleb128 0x3a
 1010 004b 0B       		.uleb128 0xb
 1011 004c 3B       		.uleb128 0x3b
 1012 004d 0B       		.uleb128 0xb
 1013 004e 11       		.uleb128 0x11
 1014 004f 01       		.uleb128 0x1
 1015 0050 12       		.uleb128 0x12
 1016 0051 06       		.uleb128 0x6
 1017 0052 40       		.uleb128 0x40
 1018 0053 18       		.uleb128 0x18
 1019 0054 9642     		.uleb128 0x2116
 1020 0056 19       		.uleb128 0x19
 1021 0057 00       		.byte	0
 1022 0058 00       		.byte	0
 1023 0059 07       		.uleb128 0x7
 1024 005a 2E       		.uleb128 0x2e
 1025 005b 01       		.byte	0x1
 1026 005c 3F       		.uleb128 0x3f
 1027 005d 19       		.uleb128 0x19
 1028 005e 03       		.uleb128 0x3
ARM GAS  C:\Users\ikui753\AppData\Local\Temp\cc2QeP5b.s 			page 21


 1029 005f 0E       		.uleb128 0xe
 1030 0060 3A       		.uleb128 0x3a
 1031 0061 0B       		.uleb128 0xb
 1032 0062 3B       		.uleb128 0x3b
 1033 0063 0B       		.uleb128 0xb
 1034 0064 11       		.uleb128 0x11
 1035 0065 01       		.uleb128 0x1
 1036 0066 12       		.uleb128 0x12
 1037 0067 06       		.uleb128 0x6
 1038 0068 40       		.uleb128 0x40
 1039 0069 18       		.uleb128 0x18
 1040 006a 9642     		.uleb128 0x2116
 1041 006c 19       		.uleb128 0x19
 1042 006d 01       		.uleb128 0x1
 1043 006e 13       		.uleb128 0x13
 1044 006f 00       		.byte	0
 1045 0070 00       		.byte	0
 1046 0071 08       		.uleb128 0x8
 1047 0072 34       		.uleb128 0x34
 1048 0073 00       		.byte	0
 1049 0074 03       		.uleb128 0x3
 1050 0075 0E       		.uleb128 0xe
 1051 0076 3A       		.uleb128 0x3a
 1052 0077 0B       		.uleb128 0xb
 1053 0078 3B       		.uleb128 0x3b
 1054 0079 0B       		.uleb128 0xb
 1055 007a 49       		.uleb128 0x49
 1056 007b 13       		.uleb128 0x13
 1057 007c 02       		.uleb128 0x2
 1058 007d 18       		.uleb128 0x18
 1059 007e 00       		.byte	0
 1060 007f 00       		.byte	0
 1061 0080 09       		.uleb128 0x9
 1062 0081 34       		.uleb128 0x34
 1063 0082 00       		.byte	0
 1064 0083 03       		.uleb128 0x3
 1065 0084 0E       		.uleb128 0xe
 1066 0085 3A       		.uleb128 0x3a
 1067 0086 0B       		.uleb128 0xb
 1068 0087 3B       		.uleb128 0x3b
 1069 0088 05       		.uleb128 0x5
 1070 0089 49       		.uleb128 0x49
 1071 008a 13       		.uleb128 0x13
 1072 008b 3F       		.uleb128 0x3f
 1073 008c 19       		.uleb128 0x19
 1074 008d 3C       		.uleb128 0x3c
 1075 008e 19       		.uleb128 0x19
 1076 008f 00       		.byte	0
 1077 0090 00       		.byte	0
 1078 0091 0A       		.uleb128 0xa
 1079 0092 35       		.uleb128 0x35
 1080 0093 00       		.byte	0
 1081 0094 49       		.uleb128 0x49
 1082 0095 13       		.uleb128 0x13
 1083 0096 00       		.byte	0
 1084 0097 00       		.byte	0
 1085 0098 0B       		.uleb128 0xb
ARM GAS  C:\Users\ikui753\AppData\Local\Temp\cc2QeP5b.s 			page 22


 1086 0099 34       		.uleb128 0x34
 1087 009a 00       		.byte	0
 1088 009b 03       		.uleb128 0x3
 1089 009c 0E       		.uleb128 0xe
 1090 009d 3A       		.uleb128 0x3a
 1091 009e 0B       		.uleb128 0xb
 1092 009f 3B       		.uleb128 0x3b
 1093 00a0 0B       		.uleb128 0xb
 1094 00a1 49       		.uleb128 0x49
 1095 00a2 13       		.uleb128 0x13
 1096 00a3 3F       		.uleb128 0x3f
 1097 00a4 19       		.uleb128 0x19
 1098 00a5 02       		.uleb128 0x2
 1099 00a6 18       		.uleb128 0x18
 1100 00a7 00       		.byte	0
 1101 00a8 00       		.byte	0
 1102 00a9 00       		.byte	0
 1103              		.section	.debug_aranges,"",%progbits
 1104 0000 54000000 		.4byte	0x54
 1105 0004 0200     		.2byte	0x2
 1106 0006 00000000 		.4byte	.Ldebug_info0
 1107 000a 04       		.byte	0x4
 1108 000b 00       		.byte	0
 1109 000c 0000     		.2byte	0
 1110 000e 0000     		.2byte	0
 1111 0010 00000000 		.4byte	.LFB64
 1112 0014 18000000 		.4byte	.LFE64-.LFB64
 1113 0018 00000000 		.4byte	.LFB65
 1114 001c 84000000 		.4byte	.LFE65-.LFB65
 1115 0020 00000000 		.4byte	.LFB66
 1116 0024 84000000 		.4byte	.LFE66-.LFB66
 1117 0028 00000000 		.4byte	.LFB67
 1118 002c 2A000000 		.4byte	.LFE67-.LFB67
 1119 0030 00000000 		.4byte	.LFB68
 1120 0034 2A000000 		.4byte	.LFE68-.LFB68
 1121 0038 00000000 		.4byte	.LFB69
 1122 003c AC000000 		.4byte	.LFE69-.LFB69
 1123 0040 00000000 		.4byte	.LFB70
 1124 0044 18000000 		.4byte	.LFE70-.LFB70
 1125 0048 00000000 		.4byte	.LFB71
 1126 004c CC000000 		.4byte	.LFE71-.LFB71
 1127 0050 00000000 		.4byte	0
 1128 0054 00000000 		.4byte	0
 1129              		.section	.debug_ranges,"",%progbits
 1130              	.Ldebug_ranges0:
 1131 0000 00000000 		.4byte	.LFB64
 1132 0004 18000000 		.4byte	.LFE64
 1133 0008 00000000 		.4byte	.LFB65
 1134 000c 84000000 		.4byte	.LFE65
 1135 0010 00000000 		.4byte	.LFB66
 1136 0014 84000000 		.4byte	.LFE66
 1137 0018 00000000 		.4byte	.LFB67
 1138 001c 2A000000 		.4byte	.LFE67
 1139 0020 00000000 		.4byte	.LFB68
 1140 0024 2A000000 		.4byte	.LFE68
 1141 0028 00000000 		.4byte	.LFB69
 1142 002c AC000000 		.4byte	.LFE69
ARM GAS  C:\Users\ikui753\AppData\Local\Temp\cc2QeP5b.s 			page 23


 1143 0030 00000000 		.4byte	.LFB70
 1144 0034 18000000 		.4byte	.LFE70
 1145 0038 00000000 		.4byte	.LFB71
 1146 003c CC000000 		.4byte	.LFE71
 1147 0040 00000000 		.4byte	0
 1148 0044 00000000 		.4byte	0
 1149              		.section	.debug_line,"",%progbits
 1150              	.Ldebug_line0:
 1151 0000 02020000 		.section	.debug_str,"MS",%progbits,1
 1151      02005001 
 1151      00000201 
 1151      FB0E0D00 
 1151      01010101 
 1152              	.LASF25:
 1153 0000 73746F70 		.ascii	"stopMoving\000"
 1153      4D6F7669 
 1153      6E6700
 1154              	.LASF34:
 1155 000b 474E5520 		.ascii	"GNU C11 5.4.1 20160609 (release) [ARM/embedded-5-br"
 1155      43313120 
 1155      352E342E 
 1155      31203230 
 1155      31363036 
 1156 003e 616E6368 		.ascii	"anch revision 237715] -mcpu=cortex-m3 -mthumb -g -O"
 1156      20726576 
 1156      6973696F 
 1156      6E203233 
 1156      37373135 
 1157 0071 30202D66 		.ascii	"0 -ffunction-sections -ffat-lto-objects\000"
 1157      66756E63 
 1157      74696F6E 
 1157      2D736563 
 1157      74696F6E 
 1158              	.LASF18:
 1159 0099 636F756E 		.ascii	"count1\000"
 1159      743100
 1160              	.LASF19:
 1161 00a0 636F756E 		.ascii	"count2\000"
 1161      743200
 1162              	.LASF9:
 1163 00a7 5F5F696E 		.ascii	"__int32_t\000"
 1163      7433325F 
 1163      7400
 1164              	.LASF23:
 1165 00b1 7475726E 		.ascii	"turnRight\000"
 1165      52696768 
 1165      7400
 1166              	.LASF12:
 1167 00bb 666C6F61 		.ascii	"float\000"
 1167      7400
 1168              	.LASF1:
 1169 00c1 756E7369 		.ascii	"unsigned char\000"
 1169      676E6564 
 1169      20636861 
 1169      7200
 1170              	.LASF17:
 1171 00cf 746F7461 		.ascii	"totalMultiplier\000"
ARM GAS  C:\Users\ikui753\AppData\Local\Temp\cc2QeP5b.s 			page 24


 1171      6C4D756C 
 1171      7469706C 
 1171      69657200 
 1172              	.LASF5:
 1173 00df 6C6F6E67 		.ascii	"long unsigned int\000"
 1173      20756E73 
 1173      69676E65 
 1173      6420696E 
 1173      7400
 1174              	.LASF26:
 1175 00f1 6D6F7665 		.ascii	"moveBackward\000"
 1175      4261636B 
 1175      77617264 
 1175      00
 1176              	.LASF3:
 1177 00fe 73686F72 		.ascii	"short unsigned int\000"
 1177      7420756E 
 1177      7369676E 
 1177      65642069 
 1177      6E7400
 1178              	.LASF28:
 1179 0111 71756164 		.ascii	"quadPulseCount\000"
 1179      50756C73 
 1179      65436F75 
 1179      6E7400
 1180              	.LASF20:
 1181 0120 61646A75 		.ascii	"adjustRight\000"
 1181      73745269 
 1181      67687400 
 1182              	.LASF13:
 1183 012c 646F7562 		.ascii	"double\000"
 1183      6C6500
 1184              	.LASF36:
 1185 0133 483A5C44 		.ascii	"H:\\Documents\\GitHub\\301-Robot\\psoc student pack"
 1185      6F63756D 
 1185      656E7473 
 1185      5C476974 
 1185      4875625C 
 1186 0162 5C70736F 		.ascii	"\\psoc_code_base\\CS301_Class.cydsn\000"
 1186      635F636F 
 1186      64655F62 
 1186      6173655C 
 1186      43533330 
 1187              	.LASF21:
 1188 0184 61646A75 		.ascii	"adjustLeft\000"
 1188      73744C65 
 1188      667400
 1189              	.LASF11:
 1190 018f 75696E74 		.ascii	"uint16\000"
 1190      313600
 1191              	.LASF35:
 1192 0196 6D6F7665 		.ascii	"movement.c\000"
 1192      6D656E74 
 1192      2E6300
 1193              	.LASF29:
 1194 01a1 49544D5F 		.ascii	"ITM_RxBuffer\000"
 1194      52784275 
ARM GAS  C:\Users\ikui753\AppData\Local\Temp\cc2QeP5b.s 			page 25


 1194      66666572 
 1194      00
 1195              	.LASF30:
 1196 01ae 72616E67 		.ascii	"rangeMovementMultiplier\000"
 1196      654D6F76 
 1196      656D656E 
 1196      744D756C 
 1196      7469706C 
 1197              	.LASF31:
 1198 01c6 6D696E4D 		.ascii	"minMovementMultiplier\000"
 1198      6F76656D 
 1198      656E744D 
 1198      756C7469 
 1198      706C6965 
 1199              	.LASF8:
 1200 01dc 756E7369 		.ascii	"unsigned int\000"
 1200      676E6564 
 1200      20696E74 
 1200      00
 1201              	.LASF7:
 1202 01e9 6C6F6E67 		.ascii	"long long unsigned int\000"
 1202      206C6F6E 
 1202      6720756E 
 1202      7369676E 
 1202      65642069 
 1203              	.LASF33:
 1204 0200 6D617854 		.ascii	"maxTurnCount\000"
 1204      75726E43 
 1204      6F756E74 
 1204      00
 1205              	.LASF22:
 1206 020d 7475726E 		.ascii	"turnLeft\000"
 1206      4C656674 
 1206      00
 1207              	.LASF10:
 1208 0216 696E7433 		.ascii	"int32_t\000"
 1208      325F7400 
 1209              	.LASF16:
 1210 021e 73697A65 		.ascii	"sizetype\000"
 1210      74797065 
 1210      00
 1211              	.LASF6:
 1212 0227 6C6F6E67 		.ascii	"long long int\000"
 1212      206C6F6E 
 1212      6720696E 
 1212      7400
 1213              	.LASF14:
 1214 0235 63686172 		.ascii	"char\000"
 1214      00
 1215              	.LASF24:
 1216 023a 6D6F7665 		.ascii	"moveForward\000"
 1216      466F7277 
 1216      61726400 
 1217              	.LASF27:
 1218 0246 48617264 		.ascii	"HardForward\000"
 1218      466F7277 
 1218      61726400 
ARM GAS  C:\Users\ikui753\AppData\Local\Temp\cc2QeP5b.s 			page 26


 1219              	.LASF32:
 1220 0252 7475726E 		.ascii	"turnCount\000"
 1220      436F756E 
 1220      7400
 1221              	.LASF2:
 1222 025c 73686F72 		.ascii	"short int\000"
 1222      7420696E 
 1222      7400
 1223              	.LASF4:
 1224 0266 6C6F6E67 		.ascii	"long int\000"
 1224      20696E74 
 1224      00
 1225              	.LASF15:
 1226 026f 6C6F6E67 		.ascii	"long double\000"
 1226      20646F75 
 1226      626C6500 
 1227              	.LASF0:
 1228 027b 7369676E 		.ascii	"signed char\000"
 1228      65642063 
 1228      68617200 
 1229              		.ident	"GCC: (GNU Tools for ARM Embedded Processors) 5.4.1 20160609 (release) [ARM/embedded-5-bran
