ARM GAS  C:\Users\rshu284\AppData\Local\Temp\ccdo75jC.s 			page 1


   1              		.syntax unified
   2              		.cpu cortex-m3
   3              		.fpu softvfp
   4              		.eabi_attribute 20, 1
   5              		.eabi_attribute 21, 1
   6              		.eabi_attribute 23, 3
   7              		.eabi_attribute 24, 1
   8              		.eabi_attribute 25, 1
   9              		.eabi_attribute 26, 1
  10              		.eabi_attribute 30, 6
  11              		.eabi_attribute 34, 1
  12              		.eabi_attribute 18, 4
  13              		.thumb
  14              		.syntax unified
  15              		.file	"movement.c"
  16              		.text
  17              	.Ltext0:
  18              		.cfi_sections	.debug_frame
  19              		.global	turnCount
  20              		.bss
  21              		.align	1
  22              		.type	turnCount, %object
  23              		.size	turnCount, 2
  24              	turnCount:
  25 0000 0000     		.space	2
  26              		.global	maxTurnCount
  27              		.data
  28              		.align	1
  29              		.type	maxTurnCount, %object
  30              		.size	maxTurnCount, 2
  31              	maxTurnCount:
  32 0000 1900     		.short	25
  33              		.section	.text.stopMoving,"ax",%progbits
  34              		.align	2
  35              		.global	stopMoving
  36              		.thumb
  37              		.thumb_func
  38              		.type	stopMoving, %function
  39              	stopMoving:
  40              	.LFB64:
  41              		.file 1 "movement.c"
   1:movement.c    **** /* ========================================
   2:movement.c    ****  *
   3:movement.c    ****  * Copyright YOUR COMPANY, THE YEAR
   4:movement.c    ****  * All Rights Reserved
   5:movement.c    ****  * UNPUBLISHED, LICENSED SOFTWARE.
   6:movement.c    ****  *
   7:movement.c    ****  * CONFIDENTIAL AND PROPRIETARY INFORMATION
   8:movement.c    ****  * WHICH IS THE PROPERTY OF your company.
   9:movement.c    ****  *
  10:movement.c    ****  * ========================================
  11:movement.c    **** */
  12:movement.c    **** #include "project.h"
  13:movement.c    **** 
  14:movement.c    **** #include <stdio.h>
  15:movement.c    **** #include <string.h>
  16:movement.c    **** #include <stdlib.h>
ARM GAS  C:\Users\rshu284\AppData\Local\Temp\ccdo75jC.s 			page 2


  17:movement.c    **** 
  18:movement.c    **** uint16 turnCount = 0;
  19:movement.c    **** uint16 maxTurnCount = 25; // clock counts for one complete 90 deg turn
  20:movement.c    **** 
  21:movement.c    **** 
  22:movement.c    **** // Direction/ Movement macros
  23:movement.c    **** //* ========================================
  24:movement.c    **** // stop moving
  25:movement.c    **** void stopMoving() {
  42              		.loc 1 25 0
  43              		.cfi_startproc
  44              		@ args = 0, pretend = 0, frame = 0
  45              		@ frame_needed = 1, uses_anonymous_args = 0
  46 0000 80B5     		push	{r7, lr}
  47              		.cfi_def_cfa_offset 8
  48              		.cfi_offset 7, -8
  49              		.cfi_offset 14, -4
  50 0002 00AF     		add	r7, sp, #0
  51              		.cfi_def_cfa_register 7
  26:movement.c    ****     PWM_1_WriteCompare(32768); // 50%
  52              		.loc 1 26 0
  53 0004 4FF40040 		mov	r0, #32768
  54 0008 FFF7FEFF 		bl	PWM_1_WriteCompare
  27:movement.c    ****     PWM_2_WriteCompare(32768); // 50%
  55              		.loc 1 27 0
  56 000c 4FF40040 		mov	r0, #32768
  57 0010 FFF7FEFF 		bl	PWM_2_WriteCompare
  28:movement.c    **** }
  58              		.loc 1 28 0
  59 0014 00BF     		nop
  60 0016 80BD     		pop	{r7, pc}
  61              		.cfi_endproc
  62              	.LFE64:
  63              		.size	stopMoving, .-stopMoving
  64              		.section	.text.adjustRight,"ax",%progbits
  65              		.align	2
  66              		.global	adjustRight
  67              		.thumb
  68              		.thumb_func
  69              		.type	adjustRight, %function
  70              	adjustRight:
  71              	.LFB65:
  29:movement.c    **** 
  30:movement.c    **** // keep rotating clockwise
  31:movement.c    **** // used for adjusting deviations
  32:movement.c    **** void adjustRight() {
  72              		.loc 1 32 0
  73              		.cfi_startproc
  74              		@ args = 0, pretend = 0, frame = 0
  75              		@ frame_needed = 1, uses_anonymous_args = 0
  76 0000 80B5     		push	{r7, lr}
  77              		.cfi_def_cfa_offset 8
  78              		.cfi_offset 7, -8
  79              		.cfi_offset 14, -4
  80 0002 00AF     		add	r7, sp, #0
  81              		.cfi_def_cfa_register 7
  33:movement.c    ****     PWM_1_WriteCompare(42598); // 65% - Left Wheel Clockwise
ARM GAS  C:\Users\rshu284\AppData\Local\Temp\ccdo75jC.s 			page 3


  82              		.loc 1 33 0
  83 0004 4AF26660 		movw	r0, #42598
  84 0008 FFF7FEFF 		bl	PWM_1_WriteCompare
  34:movement.c    ****     PWM_2_WriteCompare(26214); // 40% - Right Wheel Clockwise
  85              		.loc 1 34 0
  86 000c 46F26660 		movw	r0, #26214
  87 0010 FFF7FEFF 		bl	PWM_2_WriteCompare
  35:movement.c    **** }
  88              		.loc 1 35 0
  89 0014 00BF     		nop
  90 0016 80BD     		pop	{r7, pc}
  91              		.cfi_endproc
  92              	.LFE65:
  93              		.size	adjustRight, .-adjustRight
  94              		.section	.text.adjustLeft,"ax",%progbits
  95              		.align	2
  96              		.global	adjustLeft
  97              		.thumb
  98              		.thumb_func
  99              		.type	adjustLeft, %function
 100              	adjustLeft:
 101              	.LFB66:
  36:movement.c    **** 
  37:movement.c    **** // keep rotating anticlockwise
  38:movement.c    **** // used for adjusting deviations
  39:movement.c    **** void adjustLeft() {
 102              		.loc 1 39 0
 103              		.cfi_startproc
 104              		@ args = 0, pretend = 0, frame = 0
 105              		@ frame_needed = 1, uses_anonymous_args = 0
 106 0000 80B5     		push	{r7, lr}
 107              		.cfi_def_cfa_offset 8
 108              		.cfi_offset 7, -8
 109              		.cfi_offset 14, -4
 110 0002 00AF     		add	r7, sp, #0
 111              		.cfi_def_cfa_register 7
  40:movement.c    ****     PWM_1_WriteCompare(39321); // 60% - Left Wheel Clockwise
 112              		.loc 1 40 0
 113 0004 49F69910 		movw	r0, #39321
 114 0008 FFF7FEFF 		bl	PWM_1_WriteCompare
  41:movement.c    ****     PWM_2_WriteCompare(22937); // 35% - Right Wheel Clockwise
 115              		.loc 1 41 0
 116 000c 45F69910 		movw	r0, #22937
 117 0010 FFF7FEFF 		bl	PWM_2_WriteCompare
  42:movement.c    **** }
 118              		.loc 1 42 0
 119 0014 00BF     		nop
 120 0016 80BD     		pop	{r7, pc}
 121              		.cfi_endproc
 122              	.LFE66:
 123              		.size	adjustLeft, .-adjustLeft
 124              		.section	.text.turnLeft,"ax",%progbits
 125              		.align	2
 126              		.global	turnLeft
 127              		.thumb
 128              		.thumb_func
 129              		.type	turnLeft, %function
ARM GAS  C:\Users\rshu284\AppData\Local\Temp\ccdo75jC.s 			page 4


 130              	turnLeft:
 131              	.LFB67:
  43:movement.c    **** 
  44:movement.c    **** // Anti-clockwise
  45:movement.c    **** void turnLeft() {
 132              		.loc 1 45 0
 133              		.cfi_startproc
 134              		@ args = 0, pretend = 0, frame = 0
 135              		@ frame_needed = 1, uses_anonymous_args = 0
 136 0000 80B5     		push	{r7, lr}
 137              		.cfi_def_cfa_offset 8
 138              		.cfi_offset 7, -8
 139              		.cfi_offset 14, -4
 140 0002 00AF     		add	r7, sp, #0
 141              		.cfi_def_cfa_register 7
  46:movement.c    ****     PWM_1_WriteCompare(26214); // 40% -- Left Wheel spins Clockwise
 142              		.loc 1 46 0
 143 0004 46F26660 		movw	r0, #26214
 144 0008 FFF7FEFF 		bl	PWM_1_WriteCompare
  47:movement.c    ****     PWM_2_WriteCompare(26214); // 40% -- Right wheel spins clockwise
 145              		.loc 1 47 0
 146 000c 46F26660 		movw	r0, #26214
 147 0010 FFF7FEFF 		bl	PWM_2_WriteCompare
  48:movement.c    **** }
 148              		.loc 1 48 0
 149 0014 00BF     		nop
 150 0016 80BD     		pop	{r7, pc}
 151              		.cfi_endproc
 152              	.LFE67:
 153              		.size	turnLeft, .-turnLeft
 154              		.section	.text.turnRight,"ax",%progbits
 155              		.align	2
 156              		.global	turnRight
 157              		.thumb
 158              		.thumb_func
 159              		.type	turnRight, %function
 160              	turnRight:
 161              	.LFB68:
  49:movement.c    **** 
  50:movement.c    **** // Clockwise
  51:movement.c    **** void turnRight() {
 162              		.loc 1 51 0
 163              		.cfi_startproc
 164              		@ args = 0, pretend = 0, frame = 0
 165              		@ frame_needed = 1, uses_anonymous_args = 0
 166 0000 80B5     		push	{r7, lr}
 167              		.cfi_def_cfa_offset 8
 168              		.cfi_offset 7, -8
 169              		.cfi_offset 14, -4
 170 0002 00AF     		add	r7, sp, #0
 171              		.cfi_def_cfa_register 7
  52:movement.c    ****     PWM_1_WriteCompare(39321); // 60% -- Left wheel spins clockwise
 172              		.loc 1 52 0
 173 0004 49F69910 		movw	r0, #39321
 174 0008 FFF7FEFF 		bl	PWM_1_WriteCompare
  53:movement.c    ****     PWM_2_WriteCompare(39321); // 60% - Right wheel spins Anti Clockwise
 175              		.loc 1 53 0
ARM GAS  C:\Users\rshu284\AppData\Local\Temp\ccdo75jC.s 			page 5


 176 000c 49F69910 		movw	r0, #39321
 177 0010 FFF7FEFF 		bl	PWM_2_WriteCompare
  54:movement.c    **** }
 178              		.loc 1 54 0
 179 0014 00BF     		nop
 180 0016 80BD     		pop	{r7, pc}
 181              		.cfi_endproc
 182              	.LFE68:
 183              		.size	turnRight, .-turnRight
 184              		.section	.text.moveForward,"ax",%progbits
 185              		.align	2
 186              		.global	moveForward
 187              		.thumb
 188              		.thumb_func
 189              		.type	moveForward, %function
 190              	moveForward:
 191              	.LFB69:
  55:movement.c    **** 
  56:movement.c    **** void moveForward() {
 192              		.loc 1 56 0
 193              		.cfi_startproc
 194              		@ args = 0, pretend = 0, frame = 0
 195              		@ frame_needed = 1, uses_anonymous_args = 0
 196 0000 80B5     		push	{r7, lr}
 197              		.cfi_def_cfa_offset 8
 198              		.cfi_offset 7, -8
 199              		.cfi_offset 14, -4
 200 0002 00AF     		add	r7, sp, #0
 201              		.cfi_def_cfa_register 7
  57:movement.c    ****     PWM_1_WriteCompare(42598); // 65% - Left Wheel Clockwise
 202              		.loc 1 57 0
 203 0004 4AF26660 		movw	r0, #42598
 204 0008 FFF7FEFF 		bl	PWM_1_WriteCompare
  58:movement.c    ****     PWM_2_WriteCompare(22937); // 35% - Right Wheel Clockwise
 205              		.loc 1 58 0
 206 000c 45F69910 		movw	r0, #22937
 207 0010 FFF7FEFF 		bl	PWM_2_WriteCompare
  59:movement.c    **** }
 208              		.loc 1 59 0
 209 0014 00BF     		nop
 210 0016 80BD     		pop	{r7, pc}
 211              		.cfi_endproc
 212              	.LFE69:
 213              		.size	moveForward, .-moveForward
 214              		.section	.text.moveBackward,"ax",%progbits
 215              		.align	2
 216              		.global	moveBackward
 217              		.thumb
 218              		.thumb_func
 219              		.type	moveBackward, %function
 220              	moveBackward:
 221              	.LFB70:
  60:movement.c    **** 
  61:movement.c    **** void moveBackward() {
 222              		.loc 1 61 0
 223              		.cfi_startproc
 224              		@ args = 0, pretend = 0, frame = 0
ARM GAS  C:\Users\rshu284\AppData\Local\Temp\ccdo75jC.s 			page 6


 225              		@ frame_needed = 1, uses_anonymous_args = 0
 226 0000 80B5     		push	{r7, lr}
 227              		.cfi_def_cfa_offset 8
 228              		.cfi_offset 7, -8
 229              		.cfi_offset 14, -4
 230 0002 00AF     		add	r7, sp, #0
 231              		.cfi_def_cfa_register 7
  62:movement.c    ****     PWM_1_WriteCompare(22937); // 35% - Left Wheel Anti Clockwise
 232              		.loc 1 62 0
 233 0004 45F69910 		movw	r0, #22937
 234 0008 FFF7FEFF 		bl	PWM_1_WriteCompare
  63:movement.c    ****     PWM_2_WriteCompare(42598); // 65% - Right Wheel Anti Clockwise
 235              		.loc 1 63 0
 236 000c 4AF26660 		movw	r0, #42598
 237 0010 FFF7FEFF 		bl	PWM_2_WriteCompare
  64:movement.c    **** }
 238              		.loc 1 64 0
 239 0014 00BF     		nop
 240 0016 80BD     		pop	{r7, pc}
 241              		.cfi_endproc
 242              	.LFE70:
 243              		.size	moveBackward, .-moveBackward
 244              		.text
 245              	.Letext0:
 246              		.file 2 "c:\\program files (x86)\\cypress\\psoc creator\\4.2\\psoc creator\\import\\gnu\\arm\\5.4.
 247              		.file 3 "c:\\program files (x86)\\cypress\\psoc creator\\4.2\\psoc creator\\import\\gnu\\arm\\5.4.
 248              		.file 4 "Generated_Source\\PSoC5/cytypes.h"
 249              		.file 5 "Generated_Source\\PSoC5/core_cm3.h"