ARM GAS  C:\Users\ikui753\AppData\Local\Temp\ccuCyN9r.s 			page 1


   1              		.syntax unified
   2              		.cpu cortex-m3
   3              		.fpu softvfp
   4              		.eabi_attribute 20, 1
   5              		.eabi_attribute 21, 1
   6              		.eabi_attribute 23, 3
   7              		.eabi_attribute 24, 1
   8              		.eabi_attribute 25, 1
   9              		.eabi_attribute 26, 1
  10              		.eabi_attribute 30, 6
  11              		.eabi_attribute 34, 1
  12              		.eabi_attribute 18, 4
  13              		.thumb
  14              		.syntax unified
  15              		.file	"pathfinding.c"
  16              		.text
  17              	.Ltext0:
  18              		.cfi_sections	.debug_frame
  19              		.data
  20              		.align	2
  21              		.type	map, %object
  22              		.size	map, 1140
  23              	map:
  24 0000 01000000 		.word	1
  25 0004 01000000 		.word	1
  26 0008 01000000 		.word	1
  27 000c 01000000 		.word	1
  28 0010 01000000 		.word	1
  29 0014 01000000 		.word	1
  30 0018 01000000 		.word	1
  31 001c 01000000 		.word	1
  32 0020 01000000 		.word	1
  33 0024 01000000 		.word	1
  34 0028 01000000 		.word	1
  35 002c 01000000 		.word	1
  36 0030 01000000 		.word	1
  37 0034 01000000 		.word	1
  38 0038 01000000 		.word	1
  39 003c 01000000 		.word	1
  40 0040 01000000 		.word	1
  41 0044 01000000 		.word	1
  42 0048 01000000 		.word	1
  43 004c 01000000 		.word	1
  44 0050 00000000 		.word	0
  45 0054 00000000 		.word	0
  46 0058 00000000 		.word	0
  47 005c 00000000 		.word	0
  48 0060 00000000 		.word	0
  49 0064 01000000 		.word	1
  50 0068 00000000 		.word	0
  51 006c 00000000 		.word	0
  52 0070 00000000 		.word	0
  53 0074 00000000 		.word	0
  54 0078 00000000 		.word	0
  55 007c 00000000 		.word	0
  56 0080 00000000 		.word	0
  57 0084 00000000 		.word	0
ARM GAS  C:\Users\ikui753\AppData\Local\Temp\ccuCyN9r.s 			page 2


  58 0088 00000000 		.word	0
  59 008c 00000000 		.word	0
  60 0090 00000000 		.word	0
  61 0094 01000000 		.word	1
  62 0098 01000000 		.word	1
  63 009c 01000000 		.word	1
  64 00a0 01000000 		.word	1
  65 00a4 01000000 		.word	1
  66 00a8 01000000 		.word	1
  67 00ac 00000000 		.word	0
  68 00b0 01000000 		.word	1
  69 00b4 00000000 		.word	0
  70 00b8 01000000 		.word	1
  71 00bc 01000000 		.word	1
  72 00c0 01000000 		.word	1
  73 00c4 01000000 		.word	1
  74 00c8 01000000 		.word	1
  75 00cc 01000000 		.word	1
  76 00d0 01000000 		.word	1
  77 00d4 00000000 		.word	0
  78 00d8 01000000 		.word	1
  79 00dc 00000000 		.word	0
  80 00e0 01000000 		.word	1
  81 00e4 01000000 		.word	1
  82 00e8 00000000 		.word	0
  83 00ec 00000000 		.word	0
  84 00f0 00000000 		.word	0
  85 00f4 00000000 		.word	0
  86 00f8 00000000 		.word	0
  87 00fc 00000000 		.word	0
  88 0100 00000000 		.word	0
  89 0104 00000000 		.word	0
  90 0108 00000000 		.word	0
  91 010c 00000000 		.word	0
  92 0110 00000000 		.word	0
  93 0114 00000000 		.word	0
  94 0118 00000000 		.word	0
  95 011c 01000000 		.word	1
  96 0120 00000000 		.word	0
  97 0124 01000000 		.word	1
  98 0128 00000000 		.word	0
  99 012c 01000000 		.word	1
 100 0130 01000000 		.word	1
 101 0134 00000000 		.word	0
 102 0138 01000000 		.word	1
 103 013c 00000000 		.word	0
 104 0140 01000000 		.word	1
 105 0144 01000000 		.word	1
 106 0148 01000000 		.word	1
 107 014c 01000000 		.word	1
 108 0150 01000000 		.word	1
 109 0154 00000000 		.word	0
 110 0158 01000000 		.word	1
 111 015c 00000000 		.word	0
 112 0160 01000000 		.word	1
 113 0164 01000000 		.word	1
 114 0168 01000000 		.word	1
ARM GAS  C:\Users\ikui753\AppData\Local\Temp\ccuCyN9r.s 			page 3


 115 016c 00000000 		.word	0
 116 0170 01000000 		.word	1
 117 0174 00000000 		.word	0
 118 0178 01000000 		.word	1
 119 017c 01000000 		.word	1
 120 0180 00000000 		.word	0
 121 0184 01000000 		.word	1
 122 0188 00000000 		.word	0
 123 018c 00000000 		.word	0
 124 0190 00000000 		.word	0
 125 0194 01000000 		.word	1
 126 0198 00000000 		.word	0
 127 019c 00000000 		.word	0
 128 01a0 00000000 		.word	0
 129 01a4 01000000 		.word	1
 130 01a8 00000000 		.word	0
 131 01ac 01000000 		.word	1
 132 01b0 00000000 		.word	0
 133 01b4 00000000 		.word	0
 134 01b8 00000000 		.word	0
 135 01bc 01000000 		.word	1
 136 01c0 00000000 		.word	0
 137 01c4 01000000 		.word	1
 138 01c8 01000000 		.word	1
 139 01cc 00000000 		.word	0
 140 01d0 01000000 		.word	1
 141 01d4 01000000 		.word	1
 142 01d8 01000000 		.word	1
 143 01dc 00000000 		.word	0
 144 01e0 01000000 		.word	1
 145 01e4 00000000 		.word	0
 146 01e8 01000000 		.word	1
 147 01ec 00000000 		.word	0
 148 01f0 01000000 		.word	1
 149 01f4 00000000 		.word	0
 150 01f8 01000000 		.word	1
 151 01fc 00000000 		.word	0
 152 0200 01000000 		.word	1
 153 0204 01000000 		.word	1
 154 0208 01000000 		.word	1
 155 020c 00000000 		.word	0
 156 0210 01000000 		.word	1
 157 0214 01000000 		.word	1
 158 0218 00000000 		.word	0
 159 021c 00000000 		.word	0
 160 0220 00000000 		.word	0
 161 0224 00000000 		.word	0
 162 0228 00000000 		.word	0
 163 022c 01000000 		.word	1
 164 0230 00000000 		.word	0
 165 0234 01000000 		.word	1
 166 0238 00000000 		.word	0
 167 023c 01000000 		.word	1
 168 0240 00000000 		.word	0
 169 0244 01000000 		.word	1
 170 0248 00000000 		.word	0
 171 024c 01000000 		.word	1
ARM GAS  C:\Users\ikui753\AppData\Local\Temp\ccuCyN9r.s 			page 4


 172 0250 00000000 		.word	0
 173 0254 00000000 		.word	0
 174 0258 00000000 		.word	0
 175 025c 01000000 		.word	1
 176 0260 01000000 		.word	1
 177 0264 00000000 		.word	0
 178 0268 01000000 		.word	1
 179 026c 01000000 		.word	1
 180 0270 01000000 		.word	1
 181 0274 01000000 		.word	1
 182 0278 01000000 		.word	1
 183 027c 00000000 		.word	0
 184 0280 01000000 		.word	1
 185 0284 00000000 		.word	0
 186 0288 01000000 		.word	1
 187 028c 01000000 		.word	1
 188 0290 01000000 		.word	1
 189 0294 00000000 		.word	0
 190 0298 01000000 		.word	1
 191 029c 00000000 		.word	0
 192 02a0 01000000 		.word	1
 193 02a4 01000000 		.word	1
 194 02a8 01000000 		.word	1
 195 02ac 01000000 		.word	1
 196 02b0 00000000 		.word	0
 197 02b4 00000000 		.word	0
 198 02b8 00000000 		.word	0
 199 02bc 00000000 		.word	0
 200 02c0 00000000 		.word	0
 201 02c4 00000000 		.word	0
 202 02c8 00000000 		.word	0
 203 02cc 01000000 		.word	1
 204 02d0 00000000 		.word	0
 205 02d4 00000000 		.word	0
 206 02d8 00000000 		.word	0
 207 02dc 01000000 		.word	1
 208 02e0 00000000 		.word	0
 209 02e4 01000000 		.word	1
 210 02e8 00000000 		.word	0
 211 02ec 00000000 		.word	0
 212 02f0 00000000 		.word	0
 213 02f4 01000000 		.word	1
 214 02f8 01000000 		.word	1
 215 02fc 01000000 		.word	1
 216 0300 01000000 		.word	1
 217 0304 01000000 		.word	1
 218 0308 01000000 		.word	1
 219 030c 01000000 		.word	1
 220 0310 01000000 		.word	1
 221 0314 00000000 		.word	0
 222 0318 01000000 		.word	1
 223 031c 01000000 		.word	1
 224 0320 01000000 		.word	1
 225 0324 00000000 		.word	0
 226 0328 01000000 		.word	1
 227 032c 00000000 		.word	0
 228 0330 01000000 		.word	1
ARM GAS  C:\Users\ikui753\AppData\Local\Temp\ccuCyN9r.s 			page 5


 229 0334 01000000 		.word	1
 230 0338 01000000 		.word	1
 231 033c 00000000 		.word	0
 232 0340 01000000 		.word	1
 233 0344 01000000 		.word	1
 234 0348 00000000 		.word	0
 235 034c 00000000 		.word	0
 236 0350 00000000 		.word	0
 237 0354 00000000 		.word	0
 238 0358 00000000 		.word	0
 239 035c 00000000 		.word	0
 240 0360 00000000 		.word	0
 241 0364 00000000 		.word	0
 242 0368 00000000 		.word	0
 243 036c 01000000 		.word	1
 244 0370 00000000 		.word	0
 245 0374 01000000 		.word	1
 246 0378 00000000 		.word	0
 247 037c 00000000 		.word	0
 248 0380 00000000 		.word	0
 249 0384 00000000 		.word	0
 250 0388 00000000 		.word	0
 251 038c 01000000 		.word	1
 252 0390 01000000 		.word	1
 253 0394 00000000 		.word	0
 254 0398 01000000 		.word	1
 255 039c 01000000 		.word	1
 256 03a0 01000000 		.word	1
 257 03a4 01000000 		.word	1
 258 03a8 01000000 		.word	1
 259 03ac 01000000 		.word	1
 260 03b0 01000000 		.word	1
 261 03b4 00000000 		.word	0
 262 03b8 01000000 		.word	1
 263 03bc 00000000 		.word	0
 264 03c0 01000000 		.word	1
 265 03c4 01000000 		.word	1
 266 03c8 01000000 		.word	1
 267 03cc 01000000 		.word	1
 268 03d0 01000000 		.word	1
 269 03d4 00000000 		.word	0
 270 03d8 01000000 		.word	1
 271 03dc 01000000 		.word	1
 272 03e0 00000000 		.word	0
 273 03e4 00000000 		.word	0
 274 03e8 00000000 		.word	0
 275 03ec 00000000 		.word	0
 276 03f0 00000000 		.word	0
 277 03f4 00000000 		.word	0
 278 03f8 00000000 		.word	0
 279 03fc 01000000 		.word	1
 280 0400 00000000 		.word	0
 281 0404 00000000 		.word	0
 282 0408 00000000 		.word	0
 283 040c 00000000 		.word	0
 284 0410 00000000 		.word	0
 285 0414 00000000 		.word	0
ARM GAS  C:\Users\ikui753\AppData\Local\Temp\ccuCyN9r.s 			page 6


 286 0418 00000000 		.word	0
 287 041c 00000000 		.word	0
 288 0420 00000000 		.word	0
 289 0424 01000000 		.word	1
 290 0428 01000000 		.word	1
 291 042c 01000000 		.word	1
 292 0430 01000000 		.word	1
 293 0434 01000000 		.word	1
 294 0438 01000000 		.word	1
 295 043c 01000000 		.word	1
 296 0440 01000000 		.word	1
 297 0444 01000000 		.word	1
 298 0448 01000000 		.word	1
 299 044c 01000000 		.word	1
 300 0450 01000000 		.word	1
 301 0454 01000000 		.word	1
 302 0458 01000000 		.word	1
 303 045c 01000000 		.word	1
 304 0460 01000000 		.word	1
 305 0464 01000000 		.word	1
 306 0468 01000000 		.word	1
 307 046c 01000000 		.word	1
 308 0470 01000000 		.word	1
 309              		.align	2
 310              		.type	food_list, %object
 311              		.size	food_list, 40
 312              	food_list:
 313 0474 01000000 		.word	1
 314 0478 09000000 		.word	9
 315 047c 05000000 		.word	5
 316 0480 05000000 		.word	5
 317 0484 07000000 		.word	7
 318 0488 01000000 		.word	1
 319 048c 0D000000 		.word	13
 320 0490 05000000 		.word	5
 321 0494 09000000 		.word	9
 322 0498 09000000 		.word	9
 323              		.global	moves
 324              		.align	2
 325              		.type	moves, %object
 326              		.size	moves, 32
 327              	moves:
 328 049c 00000000 		.word	0
 329 04a0 01000000 		.word	1
 330 04a4 00000000 		.word	0
 331 04a8 FFFFFFFF 		.word	-1
 332 04ac 01000000 		.word	1
 333 04b0 00000000 		.word	0
 334 04b4 FFFFFFFF 		.word	-1
 335 04b8 00000000 		.word	0
 336              		.section	.text.isValidMove,"ax",%progbits
 337              		.align	2
 338              		.global	isValidMove
 339              		.thumb
 340              		.thumb_func
 341              		.type	isValidMove, %function
 342              	isValidMove:
ARM GAS  C:\Users\ikui753\AppData\Local\Temp\ccuCyN9r.s 			page 7


 343              	.LFB64:
 344              		.file 1 "pathfinding.c"
   1:pathfinding.c **** /* ========================================
   2:pathfinding.c ****  *
   3:pathfinding.c ****  * Copyright YOUR COMPANY, THE YEAR
   4:pathfinding.c ****  * All Rights Reserved
   5:pathfinding.c ****  * UNPUBLISHED, LICENSED SOFTWARE.
   6:pathfinding.c ****  *
   7:pathfinding.c ****  * CONFIDENTIAL AND PROPRIETARY INFORMATION
   8:pathfinding.c ****  * WHICH IS THE PROPERTY OF your company.
   9:pathfinding.c ****  *
  10:pathfinding.c ****  * ========================================
  11:pathfinding.c **** */
  12:pathfinding.c **** #include <stdio.h>
  13:pathfinding.c **** #include <stdlib.h>
  14:pathfinding.c **** #include <time.h>
  15:pathfinding.c **** #include <stdbool.h>
  16:pathfinding.c **** #include "map.h"
  17:pathfinding.c **** #include "arraylist.h"
  18:pathfinding.c **** 
  19:pathfinding.c **** #define MAX_ROWS 15
  20:pathfinding.c **** #define MAX_COLS 19
  21:pathfinding.c **** #define ARRAY_LENGTH(arr) (sizeof(arr) / sizeof((arr)[0]))
  22:pathfinding.c **** 
  23:pathfinding.c **** 
  24:pathfinding.c **** // MAP INITIALISATION CODE
  25:pathfinding.c **** 
  26:pathfinding.c **** /*void printMap(char map[MAX_ROWS][MAX_COLS]) {
  27:pathfinding.c ****     // Print the map in a grid format
  28:pathfinding.c ****     for (int i = 0; i < MAX_ROWS; i++) {
  29:pathfinding.c ****         for (int j = 0; j < MAX_COLS; j++) {
  30:pathfinding.c ****             printf("%c", map[i][j]);
  31:pathfinding.c ****         }
  32:pathfinding.c ****         printf("\n");
  33:pathfinding.c ****     }
  34:pathfinding.c **** }
  35:pathfinding.c **** 
  36:pathfinding.c **** struct Location getRandomLocation(char map[MAX_ROWS][MAX_COLS]) {
  37:pathfinding.c ****     struct Location randomLocation;
  38:pathfinding.c ****     int isNotValid = 1; // true
  39:pathfinding.c ****     while (isNotValid) {
  40:pathfinding.c ****         int random_row = rand() % MAX_ROWS;
  41:pathfinding.c ****         int random_col = rand() % MAX_COLS; // get random row and column
  42:pathfinding.c ****         // check point on map to see if it's a path
  43:pathfinding.c ****         if (map[random_row][random_col] == '0') {
  44:pathfinding.c ****             randomLocation.row = random_row;
  45:pathfinding.c ****             randomLocation.col = random_col;
  46:pathfinding.c ****             isNotValid = 0; // found valid location
  47:pathfinding.c ****         }
  48:pathfinding.c ****     }
  49:pathfinding.c ****     return randomLocation;
  50:pathfinding.c **** } */
  51:pathfinding.c **** 
  52:pathfinding.c **** struct Location {
  53:pathfinding.c ****     int row;
  54:pathfinding.c ****     int col;
  55:pathfinding.c **** };
ARM GAS  C:\Users\ikui753\AppData\Local\Temp\ccuCyN9r.s 			page 8


  56:pathfinding.c **** // pathfinding 
  57:pathfinding.c **** struct Location moves[] = { {0, 1}, {0, -1}, {1, 0}, {-1, 0} };
  58:pathfinding.c **** 
  59:pathfinding.c **** bool isValidMove(int r, int c, int rows, int cols, int map[MAX_ROWS][MAX_COLS]) {
 345              		.loc 1 59 0
 346              		.cfi_startproc
 347              		@ args = 4, pretend = 0, frame = 16
 348              		@ frame_needed = 1, uses_anonymous_args = 0
 349              		@ link register save eliminated.
 350 0000 80B4     		push	{r7}
 351              		.cfi_def_cfa_offset 4
 352              		.cfi_offset 7, -4
 353 0002 85B0     		sub	sp, sp, #20
 354              		.cfi_def_cfa_offset 24
 355 0004 00AF     		add	r7, sp, #0
 356              		.cfi_def_cfa_register 7
 357 0006 F860     		str	r0, [r7, #12]
 358 0008 B960     		str	r1, [r7, #8]
 359 000a 7A60     		str	r2, [r7, #4]
 360 000c 3B60     		str	r3, [r7]
  60:pathfinding.c ****     return (r >= 0 && r < rows && c >= 0 && c < cols && map[r][c] == 0);
 361              		.loc 1 60 0
 362 000e FB68     		ldr	r3, [r7, #12]
 363 0010 002B     		cmp	r3, #0
 364 0012 17DB     		blt	.L2
 365              		.loc 1 60 0 is_stmt 0 discriminator 1
 366 0014 FA68     		ldr	r2, [r7, #12]
 367 0016 7B68     		ldr	r3, [r7, #4]
 368 0018 9A42     		cmp	r2, r3
 369 001a 13DA     		bge	.L2
 370              		.loc 1 60 0 discriminator 3
 371 001c BB68     		ldr	r3, [r7, #8]
 372 001e 002B     		cmp	r3, #0
 373 0020 10DB     		blt	.L2
 374              		.loc 1 60 0 discriminator 5
 375 0022 BA68     		ldr	r2, [r7, #8]
 376 0024 3B68     		ldr	r3, [r7]
 377 0026 9A42     		cmp	r2, r3
 378 0028 0CDA     		bge	.L2
 379              		.loc 1 60 0 discriminator 7
 380 002a FB68     		ldr	r3, [r7, #12]
 381 002c 4C22     		movs	r2, #76
 382 002e 02FB03F3 		mul	r3, r2, r3
 383 0032 BA69     		ldr	r2, [r7, #24]
 384 0034 1344     		add	r3, r3, r2
 385 0036 BA68     		ldr	r2, [r7, #8]
 386 0038 53F82230 		ldr	r3, [r3, r2, lsl #2]
 387 003c 002B     		cmp	r3, #0
 388 003e 01D1     		bne	.L2
 389              		.loc 1 60 0 discriminator 9
 390 0040 0123     		movs	r3, #1
 391 0042 00E0     		b	.L3
 392              	.L2:
 393              		.loc 1 60 0 discriminator 10
 394 0044 0023     		movs	r3, #0
 395              	.L3:
 396              		.loc 1 60 0 discriminator 12
ARM GAS  C:\Users\ikui753\AppData\Local\Temp\ccuCyN9r.s 			page 9


 397 0046 03F00103 		and	r3, r3, #1
 398 004a DBB2     		uxtb	r3, r3
  61:pathfinding.c **** }
 399              		.loc 1 61 0 is_stmt 1 discriminator 12
 400 004c 1846     		mov	r0, r3
 401 004e 1437     		adds	r7, r7, #20
 402              		.cfi_def_cfa_offset 4
 403 0050 BD46     		mov	sp, r7
 404              		.cfi_def_cfa_register 13
 405              		@ sp needed
 406 0052 80BC     		pop	{r7}
 407              		.cfi_restore 7
 408              		.cfi_def_cfa_offset 0
 409 0054 7047     		bx	lr
 410              		.cfi_endproc
 411              	.LFE64:
 412              		.size	isValidMove, .-isValidMove
 413 0056 00BF     		.section	.text.dijkstra,"ax",%progbits
 414              		.align	2
 415              		.global	dijkstra
 416              		.thumb
 417              		.thumb_func
 418              		.type	dijkstra, %function
 419              	dijkstra:
 420              	.LFB65:
  62:pathfinding.c **** void dijkstra(int map[MAX_ROWS][MAX_COLS], struct Location startlocation, struct Location targetloc
 421              		.loc 1 62 0
 422              		.cfi_startproc
 423              		@ args = 12, pretend = 8, frame = 5816
 424              		@ frame_needed = 1, uses_anonymous_args = 0
 425 0000 82B0     		sub	sp, sp, #8
 426              		.cfi_def_cfa_offset 8
 427 0002 90B5     		push	{r4, r7, lr}
 428              		.cfi_def_cfa_offset 20
 429              		.cfi_offset 4, -20
 430              		.cfi_offset 7, -16
 431              		.cfi_offset 14, -12
 432 0004 ADF5B65D 		sub	sp, sp, #5824
 433              		.cfi_def_cfa_offset 5844
 434 0008 81B0     		sub	sp, sp, #4
 435              		.cfi_def_cfa_offset 5848
 436 000a 02AF     		add	r7, sp, #8
 437              		.cfi_def_cfa 7, 5840
 438 000c 07F11804 		add	r4, r7, #24
 439 0010 0C3C     		subs	r4, r4, #12
 440 0012 2060     		str	r0, [r4]
 441 0014 07F11800 		add	r0, r7, #24
 442 0018 1438     		subs	r0, r0, #20
 443 001a 80E80600 		stmia	r0, {r1, r2}
 444 001e 07F5B652 		add	r2, r7, #5824
 445 0022 02F10C02 		add	r2, r2, #12
 446 0026 1360     		str	r3, [r2]
 447              	.LBB2:
  63:pathfinding.c **** 
  64:pathfinding.c ****     int visitedMap[MAX_ROWS][MAX_COLS];
  65:pathfinding.c ****     for (int i = 0; i < MAX_ROWS; i++) {
 448              		.loc 1 65 0
ARM GAS  C:\Users\ikui753\AppData\Local\Temp\ccuCyN9r.s 			page 10


 449 0028 0023     		movs	r3, #0
 450 002a 07F5B552 		add	r2, r7, #5792
 451 002e 02F11402 		add	r2, r2, #20
 452 0032 1360     		str	r3, [r2]
 453 0034 3AE0     		b	.L6
 454              	.L9:
 455              	.LBB3:
  66:pathfinding.c ****         for (int j = 0; j < MAX_COLS; j++) {
 456              		.loc 1 66 0
 457 0036 0023     		movs	r3, #0
 458 0038 07F5B552 		add	r2, r7, #5792
 459 003c 02F11002 		add	r2, r2, #16
 460 0040 1360     		str	r3, [r2]
 461 0042 21E0     		b	.L7
 462              	.L8:
  67:pathfinding.c ****             visitedMap[i][j] = 1; // fill visited array with 1s- mark as unvisited
 463              		.loc 1 67 0 discriminator 3
 464 0044 07F58F51 		add	r1, r7, #4576
 465 0048 01F11001 		add	r1, r1, #16
 466 004c 07F5B553 		add	r3, r7, #5792
 467 0050 03F11403 		add	r3, r3, #20
 468 0054 1A68     		ldr	r2, [r3]
 469 0056 1346     		mov	r3, r2
 470 0058 DB00     		lsls	r3, r3, #3
 471 005a 1344     		add	r3, r3, r2
 472 005c 5B00     		lsls	r3, r3, #1
 473 005e 1344     		add	r3, r3, r2
 474 0060 07F5B552 		add	r2, r7, #5792
 475 0064 02F11002 		add	r2, r2, #16
 476 0068 1268     		ldr	r2, [r2]
 477 006a 1344     		add	r3, r3, r2
 478 006c 0122     		movs	r2, #1
 479 006e 41F82320 		str	r2, [r1, r3, lsl #2]
  66:pathfinding.c ****         for (int j = 0; j < MAX_COLS; j++) {
 480              		.loc 1 66 0 discriminator 3
 481 0072 07F5B553 		add	r3, r7, #5792
 482 0076 03F11003 		add	r3, r3, #16
 483 007a 1B68     		ldr	r3, [r3]
 484 007c 0133     		adds	r3, r3, #1
 485 007e 07F5B552 		add	r2, r7, #5792
 486 0082 02F11002 		add	r2, r2, #16
 487 0086 1360     		str	r3, [r2]
 488              	.L7:
  66:pathfinding.c ****         for (int j = 0; j < MAX_COLS; j++) {
 489              		.loc 1 66 0 is_stmt 0 discriminator 1
 490 0088 07F5B553 		add	r3, r7, #5792
 491 008c 03F11003 		add	r3, r3, #16
 492 0090 1B68     		ldr	r3, [r3]
 493 0092 122B     		cmp	r3, #18
 494 0094 D6DD     		ble	.L8
 495              	.LBE3:
  65:pathfinding.c ****         for (int j = 0; j < MAX_COLS; j++) {
 496              		.loc 1 65 0 is_stmt 1 discriminator 2
 497 0096 07F5B553 		add	r3, r7, #5792
 498 009a 03F11403 		add	r3, r3, #20
 499 009e 1B68     		ldr	r3, [r3]
 500 00a0 0133     		adds	r3, r3, #1
ARM GAS  C:\Users\ikui753\AppData\Local\Temp\ccuCyN9r.s 			page 11


 501 00a2 07F5B552 		add	r2, r7, #5792
 502 00a6 02F11402 		add	r2, r2, #20
 503 00aa 1360     		str	r3, [r2]
 504              	.L6:
  65:pathfinding.c ****         for (int j = 0; j < MAX_COLS; j++) {
 505              		.loc 1 65 0 is_stmt 0 discriminator 1
 506 00ac 07F5B553 		add	r3, r7, #5792
 507 00b0 03F11403 		add	r3, r3, #20
 508 00b4 1B68     		ldr	r3, [r3]
 509 00b6 0E2B     		cmp	r3, #14
 510 00b8 BDDD     		ble	.L9
 511              	.LBE2:
  68:pathfinding.c ****         }
  69:pathfinding.c ****     }
  70:pathfinding.c **** 
  71:pathfinding.c ****     struct PriorityQueue {
  72:pathfinding.c ****         struct Location location;
  73:pathfinding.c ****         int distance;
  74:pathfinding.c ****     };
  75:pathfinding.c **** 
  76:pathfinding.c ****     struct PriorityQueue pq[MAX_ROWS * MAX_COLS]; // initialise priority queue
  77:pathfinding.c ****     int pqSize = 0;
 512              		.loc 1 77 0 is_stmt 1
 513 00ba 0023     		movs	r3, #0
 514 00bc 07F5B552 		add	r2, r7, #5792
 515 00c0 02F10C02 		add	r2, r2, #12
 516 00c4 1360     		str	r3, [r2]
 517              	.LBB4:
  78:pathfinding.c **** 
  79:pathfinding.c ****     // Initialize distances and paths arrays
  80:pathfinding.c ****     int distances[MAX_ROWS][MAX_COLS]; // array to record distance of each location
  81:pathfinding.c ****     //struct Location paths[MAX_ROWS * MAX_COLS]; // 1d array to record path- each element is a loc
  82:pathfinding.c **** 
  83:pathfinding.c ****     for (int i = 0; i < MAX_ROWS; i++) {
 518              		.loc 1 83 0
 519 00c6 0023     		movs	r3, #0
 520 00c8 07F5B552 		add	r2, r7, #5792
 521 00cc 02F10802 		add	r2, r2, #8
 522 00d0 1360     		str	r3, [r2]
 523 00d2 3AE0     		b	.L10
 524              	.L13:
 525              	.LBB5:
  84:pathfinding.c ****         for (int j = 0; j < MAX_COLS; j++) {
 526              		.loc 1 84 0
 527 00d4 0023     		movs	r3, #0
 528 00d6 07F5B552 		add	r2, r7, #5792
 529 00da 02F10402 		add	r2, r2, #4
 530 00de 1360     		str	r3, [r2]
 531 00e0 21E0     		b	.L11
 532              	.L12:
  85:pathfinding.c ****             distances[i][j] = 1000; // initialise distances as infinity
 533              		.loc 1 85 0 discriminator 3
 534 00e2 07F13802 		add	r2, r7, #56
 535 00e6 183A     		subs	r2, r2, #24
 536 00e8 07F5B553 		add	r3, r7, #5792
 537 00ec 03F10803 		add	r3, r3, #8
 538 00f0 1968     		ldr	r1, [r3]
ARM GAS  C:\Users\ikui753\AppData\Local\Temp\ccuCyN9r.s 			page 12


 539 00f2 0B46     		mov	r3, r1
 540 00f4 DB00     		lsls	r3, r3, #3
 541 00f6 0B44     		add	r3, r3, r1
 542 00f8 5B00     		lsls	r3, r3, #1
 543 00fa 0B44     		add	r3, r3, r1
 544 00fc 07F5B551 		add	r1, r7, #5792
 545 0100 01F10401 		add	r1, r1, #4
 546 0104 0968     		ldr	r1, [r1]
 547 0106 0B44     		add	r3, r3, r1
 548 0108 4FF47A71 		mov	r1, #1000
 549 010c 42F82310 		str	r1, [r2, r3, lsl #2]
  84:pathfinding.c ****         for (int j = 0; j < MAX_COLS; j++) {
 550              		.loc 1 84 0 discriminator 3
 551 0110 07F5B553 		add	r3, r7, #5792
 552 0114 03F10403 		add	r3, r3, #4
 553 0118 1B68     		ldr	r3, [r3]
 554 011a 0133     		adds	r3, r3, #1
 555 011c 07F5B552 		add	r2, r7, #5792
 556 0120 02F10402 		add	r2, r2, #4
 557 0124 1360     		str	r3, [r2]
 558              	.L11:
  84:pathfinding.c ****         for (int j = 0; j < MAX_COLS; j++) {
 559              		.loc 1 84 0 is_stmt 0 discriminator 1
 560 0126 07F5B553 		add	r3, r7, #5792
 561 012a 03F10403 		add	r3, r3, #4
 562 012e 1B68     		ldr	r3, [r3]
 563 0130 122B     		cmp	r3, #18
 564 0132 D6DD     		ble	.L12
 565              	.LBE5:
  83:pathfinding.c ****         for (int j = 0; j < MAX_COLS; j++) {
 566              		.loc 1 83 0 is_stmt 1 discriminator 2
 567 0134 07F5B553 		add	r3, r7, #5792
 568 0138 03F10803 		add	r3, r3, #8
 569 013c 1B68     		ldr	r3, [r3]
 570 013e 0133     		adds	r3, r3, #1
 571 0140 07F5B552 		add	r2, r7, #5792
 572 0144 02F10802 		add	r2, r2, #8
 573 0148 1360     		str	r3, [r2]
 574              	.L10:
  83:pathfinding.c ****         for (int j = 0; j < MAX_COLS; j++) {
 575              		.loc 1 83 0 is_stmt 0 discriminator 1
 576 014a 07F5B553 		add	r3, r7, #5792
 577 014e 03F10803 		add	r3, r3, #8
 578 0152 1B68     		ldr	r3, [r3]
 579 0154 0E2B     		cmp	r3, #14
 580 0156 BDDD     		ble	.L13
 581              	.LBE4:
  86:pathfinding.c ****         }
  87:pathfinding.c ****     }
  88:pathfinding.c **** 
  89:pathfinding.c ****     int stepNum = 0;
 582              		.loc 1 89 0 is_stmt 1
 583 0158 0023     		movs	r3, #0
 584 015a 07F5B552 		add	r2, r7, #5792
 585 015e 1360     		str	r3, [r2]
  90:pathfinding.c ****     distances[startlocation.row][startlocation.col] = 0; // initialise distance of startLoc to 0
 586              		.loc 1 90 0
ARM GAS  C:\Users\ikui753\AppData\Local\Temp\ccuCyN9r.s 			page 13


 587 0160 07F11803 		add	r3, r7, #24
 588 0164 143B     		subs	r3, r3, #20
 589 0166 1968     		ldr	r1, [r3]
 590 0168 07F11803 		add	r3, r7, #24
 591 016c 143B     		subs	r3, r3, #20
 592 016e 5868     		ldr	r0, [r3, #4]
 593 0170 07F13802 		add	r2, r7, #56
 594 0174 183A     		subs	r2, r2, #24
 595 0176 0B46     		mov	r3, r1
 596 0178 DB00     		lsls	r3, r3, #3
 597 017a 0B44     		add	r3, r3, r1
 598 017c 5B00     		lsls	r3, r3, #1
 599 017e 0B44     		add	r3, r3, r1
 600 0180 0344     		add	r3, r3, r0
 601 0182 0021     		movs	r1, #0
 602 0184 42F82310 		str	r1, [r2, r3, lsl #2]
  91:pathfinding.c ****     //paths[stepNum] = startlocation; // add start to path array
  92:pathfinding.c ****     stepNum++; // increment stepNum
 603              		.loc 1 92 0
 604 0188 07F5B553 		add	r3, r7, #5792
 605 018c 1B68     		ldr	r3, [r3]
 606 018e 0133     		adds	r3, r3, #1
 607 0190 07F5B552 		add	r2, r7, #5792
 608 0194 1360     		str	r3, [r2]
  93:pathfinding.c **** 
  94:pathfinding.c ****     pq[pqSize].location = startlocation; // add startLocation to Priority queue
 609              		.loc 1 94 0
 610 0196 07F59362 		add	r2, r7, #1176
 611 019a 043A     		subs	r2, r2, #4
 612 019c 07F5B553 		add	r3, r7, #5792
 613 01a0 03F10C03 		add	r3, r3, #12
 614 01a4 1968     		ldr	r1, [r3]
 615 01a6 0B46     		mov	r3, r1
 616 01a8 5B00     		lsls	r3, r3, #1
 617 01aa 0B44     		add	r3, r3, r1
 618 01ac 9B00     		lsls	r3, r3, #2
 619 01ae 1A44     		add	r2, r2, r3
 620 01b0 07F11803 		add	r3, r7, #24
 621 01b4 143B     		subs	r3, r3, #20
 622 01b6 93E80300 		ldmia	r3, {r0, r1}
 623 01ba 82E80300 		stmia	r2, {r0, r1}
  95:pathfinding.c ****     pq[pqSize].distance = 0; // add startlocation distance to priority queue
 624              		.loc 1 95 0
 625 01be 07F59362 		add	r2, r7, #1176
 626 01c2 043A     		subs	r2, r2, #4
 627 01c4 07F5B553 		add	r3, r7, #5792
 628 01c8 03F10C03 		add	r3, r3, #12
 629 01cc 1968     		ldr	r1, [r3]
 630 01ce 0B46     		mov	r3, r1
 631 01d0 5B00     		lsls	r3, r3, #1
 632 01d2 0B44     		add	r3, r3, r1
 633 01d4 9B00     		lsls	r3, r3, #2
 634 01d6 1344     		add	r3, r3, r2
 635 01d8 0833     		adds	r3, r3, #8
 636 01da 0022     		movs	r2, #0
 637 01dc 1A60     		str	r2, [r3]
  96:pathfinding.c ****     pqSize++; // increment pqSize- pq is not empty
ARM GAS  C:\Users\ikui753\AppData\Local\Temp\ccuCyN9r.s 			page 14


 638              		.loc 1 96 0
 639 01de 07F5B553 		add	r3, r7, #5792
 640 01e2 03F10C03 		add	r3, r3, #12
 641 01e6 1B68     		ldr	r3, [r3]
 642 01e8 0133     		adds	r3, r3, #1
 643 01ea 07F5B552 		add	r2, r7, #5792
 644 01ee 02F10C02 		add	r2, r2, #12
 645 01f2 1360     		str	r3, [r2]
  97:pathfinding.c **** 
  98:pathfinding.c ****     while (pqSize > 0) {
 646              		.loc 1 98 0
 647 01f4 E9E1     		b	.L14
 648              	.L24:
 649              	.LBB6:
  99:pathfinding.c ****         int idx = 0;
 650              		.loc 1 99 0
 651 01f6 0023     		movs	r3, #0
 652 01f8 07F5B452 		add	r2, r7, #5760
 653 01fc 02F11C02 		add	r2, r2, #28
 654 0200 1360     		str	r3, [r2]
 655              	.LBB7:
 100:pathfinding.c ****         for (int i = 1; i < pqSize; i++) {
 656              		.loc 1 100 0
 657 0202 0123     		movs	r3, #1
 658 0204 07F5B452 		add	r2, r7, #5760
 659 0208 02F11802 		add	r2, r2, #24
 660 020c 1360     		str	r3, [r2]
 661 020e 34E0     		b	.L15
 662              	.L17:
 101:pathfinding.c ****             if (pq[i].distance < pq[idx].distance) {
 663              		.loc 1 101 0
 664 0210 07F59362 		add	r2, r7, #1176
 665 0214 043A     		subs	r2, r2, #4
 666 0216 07F5B453 		add	r3, r7, #5760
 667 021a 03F11803 		add	r3, r3, #24
 668 021e 1968     		ldr	r1, [r3]
 669 0220 0B46     		mov	r3, r1
 670 0222 5B00     		lsls	r3, r3, #1
 671 0224 0B44     		add	r3, r3, r1
 672 0226 9B00     		lsls	r3, r3, #2
 673 0228 1344     		add	r3, r3, r2
 674 022a 0833     		adds	r3, r3, #8
 675 022c 1868     		ldr	r0, [r3]
 676 022e 07F59362 		add	r2, r7, #1176
 677 0232 043A     		subs	r2, r2, #4
 678 0234 07F5B453 		add	r3, r7, #5760
 679 0238 03F11C03 		add	r3, r3, #28
 680 023c 1968     		ldr	r1, [r3]
 681 023e 0B46     		mov	r3, r1
 682 0240 5B00     		lsls	r3, r3, #1
 683 0242 0B44     		add	r3, r3, r1
 684 0244 9B00     		lsls	r3, r3, #2
 685 0246 1344     		add	r3, r3, r2
 686 0248 0833     		adds	r3, r3, #8
 687 024a 1B68     		ldr	r3, [r3]
 688 024c 9842     		cmp	r0, r3
 689 024e 09DA     		bge	.L16
ARM GAS  C:\Users\ikui753\AppData\Local\Temp\ccuCyN9r.s 			page 15


 102:pathfinding.c ****                 idx = i; // find the shortest distance location 
 690              		.loc 1 102 0
 691 0250 07F5B453 		add	r3, r7, #5760
 692 0254 03F11803 		add	r3, r3, #24
 693 0258 1B68     		ldr	r3, [r3]
 694 025a 07F5B452 		add	r2, r7, #5760
 695 025e 02F11C02 		add	r2, r2, #28
 696 0262 1360     		str	r3, [r2]
 697              	.L16:
 100:pathfinding.c ****         for (int i = 1; i < pqSize; i++) {
 698              		.loc 1 100 0 discriminator 2
 699 0264 07F5B453 		add	r3, r7, #5760
 700 0268 03F11803 		add	r3, r3, #24
 701 026c 1B68     		ldr	r3, [r3]
 702 026e 0133     		adds	r3, r3, #1
 703 0270 07F5B452 		add	r2, r7, #5760
 704 0274 02F11802 		add	r2, r2, #24
 705 0278 1360     		str	r3, [r2]
 706              	.L15:
 100:pathfinding.c ****         for (int i = 1; i < pqSize; i++) {
 707              		.loc 1 100 0 is_stmt 0 discriminator 1
 708 027a 07F5B453 		add	r3, r7, #5760
 709 027e 03F11803 		add	r3, r3, #24
 710 0282 1A68     		ldr	r2, [r3]
 711 0284 07F5B553 		add	r3, r7, #5792
 712 0288 03F10C03 		add	r3, r3, #12
 713 028c 1B68     		ldr	r3, [r3]
 714 028e 9A42     		cmp	r2, r3
 715 0290 BEDB     		blt	.L17
 716              	.LBE7:
 103:pathfinding.c ****             }
 104:pathfinding.c ****         }
 105:pathfinding.c ****         struct PriorityQueue current = pq[idx]; // record current location
 717              		.loc 1 105 0 is_stmt 1
 718 0292 07F11801 		add	r1, r7, #24
 719 0296 0439     		subs	r1, r1, #4
 720 0298 07F59362 		add	r2, r7, #1176
 721 029c 043A     		subs	r2, r2, #4
 722 029e 07F5B453 		add	r3, r7, #5760
 723 02a2 03F11C03 		add	r3, r3, #28
 724 02a6 1868     		ldr	r0, [r3]
 725 02a8 0346     		mov	r3, r0
 726 02aa 5B00     		lsls	r3, r3, #1
 727 02ac 0344     		add	r3, r3, r0
 728 02ae 9B00     		lsls	r3, r3, #2
 729 02b0 1A44     		add	r2, r2, r3
 730 02b2 0B46     		mov	r3, r1
 731 02b4 07CA     		ldmia	r2, {r0, r1, r2}
 732 02b6 83E80700 		stmia	r3, {r0, r1, r2}
 106:pathfinding.c ****         pq[idx] = pq[pqSize - 1];
 733              		.loc 1 106 0
 734 02ba 07F5B553 		add	r3, r7, #5792
 735 02be 03F10C03 		add	r3, r3, #12
 736 02c2 1B68     		ldr	r3, [r3]
 737 02c4 591E     		subs	r1, r3, #1
 738 02c6 07F59362 		add	r2, r7, #1176
 739 02ca 043A     		subs	r2, r2, #4
ARM GAS  C:\Users\ikui753\AppData\Local\Temp\ccuCyN9r.s 			page 16


 740 02cc 07F5B453 		add	r3, r7, #5760
 741 02d0 03F11C03 		add	r3, r3, #28
 742 02d4 1868     		ldr	r0, [r3]
 743 02d6 0346     		mov	r3, r0
 744 02d8 5B00     		lsls	r3, r3, #1
 745 02da 0344     		add	r3, r3, r0
 746 02dc 9B00     		lsls	r3, r3, #2
 747 02de D018     		adds	r0, r2, r3
 748 02e0 07F59362 		add	r2, r7, #1176
 749 02e4 043A     		subs	r2, r2, #4
 750 02e6 0B46     		mov	r3, r1
 751 02e8 5B00     		lsls	r3, r3, #1
 752 02ea 0B44     		add	r3, r3, r1
 753 02ec 9B00     		lsls	r3, r3, #2
 754 02ee 1A44     		add	r2, r2, r3
 755 02f0 0346     		mov	r3, r0
 756 02f2 07CA     		ldmia	r2, {r0, r1, r2}
 757 02f4 83E80700 		stmia	r3, {r0, r1, r2}
 107:pathfinding.c ****         pqSize--; // decrement pqSize
 758              		.loc 1 107 0
 759 02f8 07F5B553 		add	r3, r7, #5792
 760 02fc 03F10C03 		add	r3, r3, #12
 761 0300 1B68     		ldr	r3, [r3]
 762 0302 013B     		subs	r3, r3, #1
 763 0304 07F5B552 		add	r2, r7, #5792
 764 0308 02F10C02 		add	r2, r2, #12
 765 030c 1360     		str	r3, [r2]
 108:pathfinding.c **** 
 109:pathfinding.c ****         int row = current.location.row;
 766              		.loc 1 109 0
 767 030e 07F11803 		add	r3, r7, #24
 768 0312 043B     		subs	r3, r3, #4
 769 0314 1B68     		ldr	r3, [r3]
 770 0316 07F5B452 		add	r2, r7, #5760
 771 031a 1360     		str	r3, [r2]
 110:pathfinding.c ****         int col = current.location.col; // get current location details
 772              		.loc 1 110 0
 773 031c 07F11803 		add	r3, r7, #24
 774 0320 043B     		subs	r3, r3, #4
 775 0322 5B68     		ldr	r3, [r3, #4]
 776 0324 07F5B352 		add	r2, r7, #5728
 777 0328 02F11C02 		add	r2, r2, #28
 778 032c 1360     		str	r3, [r2]
 111:pathfinding.c **** 
 112:pathfinding.c ****         if (visitedMap[row][col] == 1) {
 779              		.loc 1 112 0
 780 032e 07F58F51 		add	r1, r7, #4576
 781 0332 01F11001 		add	r1, r1, #16
 782 0336 07F5B453 		add	r3, r7, #5760
 783 033a 1A68     		ldr	r2, [r3]
 784 033c 1346     		mov	r3, r2
 785 033e DB00     		lsls	r3, r3, #3
 786 0340 1344     		add	r3, r3, r2
 787 0342 5B00     		lsls	r3, r3, #1
 788 0344 1344     		add	r3, r3, r2
 789 0346 07F5B352 		add	r2, r7, #5728
 790 034a 02F11C02 		add	r2, r2, #28
ARM GAS  C:\Users\ikui753\AppData\Local\Temp\ccuCyN9r.s 			page 17


 791 034e 1268     		ldr	r2, [r2]
 792 0350 1344     		add	r3, r3, r2
 793 0352 51F82330 		ldr	r3, [r1, r3, lsl #2]
 794 0356 012B     		cmp	r3, #1
 795 0358 40F03781 		bne	.L14
 113:pathfinding.c ****             visitedMap[row][col] = 0; // mark as visited if unvisited
 796              		.loc 1 113 0
 797 035c 07F58F51 		add	r1, r7, #4576
 798 0360 01F11001 		add	r1, r1, #16
 799 0364 07F5B453 		add	r3, r7, #5760
 800 0368 1A68     		ldr	r2, [r3]
 801 036a 1346     		mov	r3, r2
 802 036c DB00     		lsls	r3, r3, #3
 803 036e 1344     		add	r3, r3, r2
 804 0370 5B00     		lsls	r3, r3, #1
 805 0372 1344     		add	r3, r3, r2
 806 0374 07F5B352 		add	r2, r7, #5728
 807 0378 02F11C02 		add	r2, r2, #28
 808 037c 1268     		ldr	r2, [r2]
 809 037e 1344     		add	r3, r3, r2
 810 0380 0022     		movs	r2, #0
 811 0382 41F82320 		str	r2, [r1, r3, lsl #2]
 114:pathfinding.c **** 
 115:pathfinding.c ****             if (row == targetlocation.row && col == targetlocation.col) {
 812              		.loc 1 115 0
 813 0386 07F5B653 		add	r3, r7, #5824
 814 038a 03F10C03 		add	r3, r3, #12
 815 038e 1A68     		ldr	r2, [r3]
 816 0390 07F5B453 		add	r3, r7, #5760
 817 0394 1B68     		ldr	r3, [r3]
 818 0396 9A42     		cmp	r2, r3
 819 0398 0CD1     		bne	.L19
 820              		.loc 1 115 0 is_stmt 0 discriminator 1
 821 039a 07F5B653 		add	r3, r7, #5824
 822 039e 03F11003 		add	r3, r3, #16
 823 03a2 1A68     		ldr	r2, [r3]
 824 03a4 07F5B353 		add	r3, r7, #5728
 825 03a8 03F11C03 		add	r3, r3, #28
 826 03ac 1B68     		ldr	r3, [r3]
 827 03ae 9A42     		cmp	r2, r3
 828 03b0 00F01481 		beq	.L30
 829              	.L19:
 830              	.LBB8:
 116:pathfinding.c ****                 break; // if reached target destination, end
 117:pathfinding.c ****             }
 118:pathfinding.c ****             // make a move, check if valid
 119:pathfinding.c ****             for (int i = 0; i < sizeof(moves) / sizeof(moves[0]); i++) {
 831              		.loc 1 119 0 is_stmt 1
 832 03b4 0023     		movs	r3, #0
 833 03b6 07F5B452 		add	r2, r7, #5760
 834 03ba 02F11402 		add	r2, r2, #20
 835 03be 1360     		str	r3, [r2]
 836 03c0 FBE0     		b	.L21
 837              	.L23:
 838              	.LBB9:
 120:pathfinding.c ****                 int newRow = row + moves[i].row;
 839              		.loc 1 120 0
ARM GAS  C:\Users\ikui753\AppData\Local\Temp\ccuCyN9r.s 			page 18


 840 03c2 C94A     		ldr	r2, .L31
 841 03c4 07F5B453 		add	r3, r7, #5760
 842 03c8 03F11403 		add	r3, r3, #20
 843 03cc 1B68     		ldr	r3, [r3]
 844 03ce 52F83320 		ldr	r2, [r2, r3, lsl #3]
 845 03d2 07F5B453 		add	r3, r7, #5760
 846 03d6 1B68     		ldr	r3, [r3]
 847 03d8 1344     		add	r3, r3, r2
 848 03da 07F5B352 		add	r2, r7, #5728
 849 03de 02F11802 		add	r2, r2, #24
 850 03e2 1360     		str	r3, [r2]
 121:pathfinding.c ****                 int newCol = col + moves[i].col;
 851              		.loc 1 121 0
 852 03e4 C04A     		ldr	r2, .L31
 853 03e6 07F5B453 		add	r3, r7, #5760
 854 03ea 03F11403 		add	r3, r3, #20
 855 03ee 1B68     		ldr	r3, [r3]
 856 03f0 DB00     		lsls	r3, r3, #3
 857 03f2 1344     		add	r3, r3, r2
 858 03f4 5A68     		ldr	r2, [r3, #4]
 859 03f6 07F5B353 		add	r3, r7, #5728
 860 03fa 03F11C03 		add	r3, r3, #28
 861 03fe 1B68     		ldr	r3, [r3]
 862 0400 1344     		add	r3, r3, r2
 863 0402 07F5B352 		add	r2, r7, #5728
 864 0406 02F11402 		add	r2, r2, #20
 865 040a 1360     		str	r3, [r2]
 122:pathfinding.c **** 
 123:pathfinding.c ****                 if (isValidMove(newRow, newCol, MAX_ROWS, MAX_COLS, map) && visitedMap[newRow][newC
 866              		.loc 1 123 0
 867 040c 07F11803 		add	r3, r7, #24
 868 0410 0C3B     		subs	r3, r3, #12
 869 0412 1B68     		ldr	r3, [r3]
 870 0414 0093     		str	r3, [sp]
 871 0416 1323     		movs	r3, #19
 872 0418 0F22     		movs	r2, #15
 873 041a 07F5B351 		add	r1, r7, #5728
 874 041e 01F11401 		add	r1, r1, #20
 875 0422 0968     		ldr	r1, [r1]
 876 0424 07F5B350 		add	r0, r7, #5728
 877 0428 00F11800 		add	r0, r0, #24
 878 042c 0068     		ldr	r0, [r0]
 879 042e FFF7FEFF 		bl	isValidMove
 880 0432 0346     		mov	r3, r0
 881 0434 002B     		cmp	r3, #0
 882 0436 00F0B580 		beq	.L22
 883              		.loc 1 123 0 is_stmt 0 discriminator 1
 884 043a 07F58F51 		add	r1, r7, #4576
 885 043e 01F11001 		add	r1, r1, #16
 886 0442 07F5B353 		add	r3, r7, #5728
 887 0446 03F11803 		add	r3, r3, #24
 888 044a 1A68     		ldr	r2, [r3]
 889 044c 1346     		mov	r3, r2
 890 044e DB00     		lsls	r3, r3, #3
 891 0450 1344     		add	r3, r3, r2
 892 0452 5B00     		lsls	r3, r3, #1
 893 0454 1344     		add	r3, r3, r2
ARM GAS  C:\Users\ikui753\AppData\Local\Temp\ccuCyN9r.s 			page 19


 894 0456 07F5B352 		add	r2, r7, #5728
 895 045a 02F11402 		add	r2, r2, #20
 896 045e 1268     		ldr	r2, [r2]
 897 0460 1344     		add	r3, r3, r2
 898 0462 51F82330 		ldr	r3, [r1, r3, lsl #2]
 899 0466 012B     		cmp	r3, #1
 900 0468 40F09C80 		bne	.L22
 901              	.LBB10:
 124:pathfinding.c ****                     int newDistance = distances[row][col] + 1;
 902              		.loc 1 124 0 is_stmt 1
 903 046c 07F13802 		add	r2, r7, #56
 904 0470 183A     		subs	r2, r2, #24
 905 0472 07F5B453 		add	r3, r7, #5760
 906 0476 1968     		ldr	r1, [r3]
 907 0478 0B46     		mov	r3, r1
 908 047a DB00     		lsls	r3, r3, #3
 909 047c 0B44     		add	r3, r3, r1
 910 047e 5B00     		lsls	r3, r3, #1
 911 0480 0B44     		add	r3, r3, r1
 912 0482 07F5B351 		add	r1, r7, #5728
 913 0486 01F11C01 		add	r1, r1, #28
 914 048a 0968     		ldr	r1, [r1]
 915 048c 0B44     		add	r3, r3, r1
 916 048e 52F82330 		ldr	r3, [r2, r3, lsl #2]
 917 0492 0133     		adds	r3, r3, #1
 918 0494 07F5B352 		add	r2, r7, #5728
 919 0498 02F11002 		add	r2, r2, #16
 920 049c 1360     		str	r3, [r2]
 125:pathfinding.c ****                     // take the shortest distance between new and existing
 126:pathfinding.c ****                     if (newDistance < distances[newRow][newCol]) {
 921              		.loc 1 126 0
 922 049e 07F13802 		add	r2, r7, #56
 923 04a2 183A     		subs	r2, r2, #24
 924 04a4 07F5B353 		add	r3, r7, #5728
 925 04a8 03F11803 		add	r3, r3, #24
 926 04ac 1968     		ldr	r1, [r3]
 927 04ae 0B46     		mov	r3, r1
 928 04b0 DB00     		lsls	r3, r3, #3
 929 04b2 0B44     		add	r3, r3, r1
 930 04b4 5B00     		lsls	r3, r3, #1
 931 04b6 0B44     		add	r3, r3, r1
 932 04b8 07F5B351 		add	r1, r7, #5728
 933 04bc 01F11401 		add	r1, r1, #20
 934 04c0 0968     		ldr	r1, [r1]
 935 04c2 0B44     		add	r3, r3, r1
 936 04c4 52F82320 		ldr	r2, [r2, r3, lsl #2]
 937 04c8 07F5B353 		add	r3, r7, #5728
 938 04cc 03F11003 		add	r3, r3, #16
 939 04d0 1B68     		ldr	r3, [r3]
 940 04d2 9A42     		cmp	r2, r3
 941 04d4 66DD     		ble	.L22
 127:pathfinding.c ****                         distances[newRow][newCol] = newDistance; // take new distance if less than 
 942              		.loc 1 127 0
 943 04d6 07F13802 		add	r2, r7, #56
 944 04da 183A     		subs	r2, r2, #24
 945 04dc 07F5B353 		add	r3, r7, #5728
 946 04e0 03F11803 		add	r3, r3, #24
ARM GAS  C:\Users\ikui753\AppData\Local\Temp\ccuCyN9r.s 			page 20


 947 04e4 1968     		ldr	r1, [r3]
 948 04e6 0B46     		mov	r3, r1
 949 04e8 DB00     		lsls	r3, r3, #3
 950 04ea 0B44     		add	r3, r3, r1
 951 04ec 5B00     		lsls	r3, r3, #1
 952 04ee 0B44     		add	r3, r3, r1
 953 04f0 07F5B351 		add	r1, r7, #5728
 954 04f4 01F11401 		add	r1, r1, #20
 955 04f8 0968     		ldr	r1, [r1]
 956 04fa 0B44     		add	r3, r3, r1
 957 04fc 07F5B351 		add	r1, r7, #5728
 958 0500 01F11001 		add	r1, r1, #16
 959 0504 0968     		ldr	r1, [r1]
 960 0506 42F82310 		str	r1, [r2, r3, lsl #2]
 128:pathfinding.c ****                         //paths[stepNum] = (struct Location){newRow, newCol}; // add location to pa
 129:pathfinding.c ****                         
 130:pathfinding.c ****                         pq[pqSize].location.row = newRow; // update location
 961              		.loc 1 130 0
 962 050a 07F59362 		add	r2, r7, #1176
 963 050e 043A     		subs	r2, r2, #4
 964 0510 07F5B553 		add	r3, r7, #5792
 965 0514 03F10C03 		add	r3, r3, #12
 966 0518 1968     		ldr	r1, [r3]
 967 051a 0B46     		mov	r3, r1
 968 051c 5B00     		lsls	r3, r3, #1
 969 051e 0B44     		add	r3, r3, r1
 970 0520 9B00     		lsls	r3, r3, #2
 971 0522 1344     		add	r3, r3, r2
 972 0524 07F5B352 		add	r2, r7, #5728
 973 0528 02F11802 		add	r2, r2, #24
 974 052c 1268     		ldr	r2, [r2]
 975 052e 1A60     		str	r2, [r3]
 131:pathfinding.c ****                         pq[pqSize].location.col = newCol; // update location
 976              		.loc 1 131 0
 977 0530 07F59362 		add	r2, r7, #1176
 978 0534 043A     		subs	r2, r2, #4
 979 0536 07F5B553 		add	r3, r7, #5792
 980 053a 03F10C03 		add	r3, r3, #12
 981 053e 1968     		ldr	r1, [r3]
 982 0540 0B46     		mov	r3, r1
 983 0542 5B00     		lsls	r3, r3, #1
 984 0544 0B44     		add	r3, r3, r1
 985 0546 9B00     		lsls	r3, r3, #2
 986 0548 1344     		add	r3, r3, r2
 987 054a 0433     		adds	r3, r3, #4
 988 054c 07F5B352 		add	r2, r7, #5728
 989 0550 02F11402 		add	r2, r2, #20
 990 0554 1268     		ldr	r2, [r2]
 991 0556 1A60     		str	r2, [r3]
 132:pathfinding.c ****                         pq[pqSize].distance = newDistance; // update distance
 992              		.loc 1 132 0
 993 0558 07F59362 		add	r2, r7, #1176
 994 055c 043A     		subs	r2, r2, #4
 995 055e 07F5B553 		add	r3, r7, #5792
 996 0562 03F10C03 		add	r3, r3, #12
 997 0566 1968     		ldr	r1, [r3]
 998 0568 0B46     		mov	r3, r1
ARM GAS  C:\Users\ikui753\AppData\Local\Temp\ccuCyN9r.s 			page 21


 999 056a 5B00     		lsls	r3, r3, #1
 1000 056c 0B44     		add	r3, r3, r1
 1001 056e 9B00     		lsls	r3, r3, #2
 1002 0570 1344     		add	r3, r3, r2
 1003 0572 0833     		adds	r3, r3, #8
 1004 0574 07F5B352 		add	r2, r7, #5728
 1005 0578 02F11002 		add	r2, r2, #16
 1006 057c 1268     		ldr	r2, [r2]
 1007 057e 1A60     		str	r2, [r3]
 133:pathfinding.c ****                         
 134:pathfinding.c ****                         stepNum++;
 1008              		.loc 1 134 0
 1009 0580 07F5B553 		add	r3, r7, #5792
 1010 0584 1B68     		ldr	r3, [r3]
 1011 0586 0133     		adds	r3, r3, #1
 1012 0588 07F5B552 		add	r2, r7, #5792
 1013 058c 1360     		str	r3, [r2]
 135:pathfinding.c ****                         pqSize++;
 1014              		.loc 1 135 0
 1015 058e 07F5B553 		add	r3, r7, #5792
 1016 0592 03F10C03 		add	r3, r3, #12
 1017 0596 1B68     		ldr	r3, [r3]
 1018 0598 0133     		adds	r3, r3, #1
 1019 059a 07F5B552 		add	r2, r7, #5792
 1020 059e 02F10C02 		add	r2, r2, #12
 1021 05a2 1360     		str	r3, [r2]
 1022              	.L22:
 1023              	.LBE10:
 1024              	.LBE9:
 119:pathfinding.c ****                 int newRow = row + moves[i].row;
 1025              		.loc 1 119 0 discriminator 2
 1026 05a4 07F5B453 		add	r3, r7, #5760
 1027 05a8 03F11403 		add	r3, r3, #20
 1028 05ac 1B68     		ldr	r3, [r3]
 1029 05ae 0133     		adds	r3, r3, #1
 1030 05b0 07F5B452 		add	r2, r7, #5760
 1031 05b4 02F11402 		add	r2, r2, #20
 1032 05b8 1360     		str	r3, [r2]
 1033              	.L21:
 119:pathfinding.c ****                 int newRow = row + moves[i].row;
 1034              		.loc 1 119 0 is_stmt 0 discriminator 1
 1035 05ba 07F5B453 		add	r3, r7, #5760
 1036 05be 03F11403 		add	r3, r3, #20
 1037 05c2 1B68     		ldr	r3, [r3]
 1038 05c4 032B     		cmp	r3, #3
 1039 05c6 7FF6FCAE 		bls	.L23
 1040              	.L14:
 1041              	.LBE8:
 1042              	.LBE6:
  98:pathfinding.c ****         int idx = 0;
 1043              		.loc 1 98 0 is_stmt 1
 1044 05ca 07F5B553 		add	r3, r7, #5792
 1045 05ce 03F10C03 		add	r3, r3, #12
 1046 05d2 1B68     		ldr	r3, [r3]
 1047 05d4 002B     		cmp	r3, #0
 1048 05d6 3FF70EAE 		bgt	.L24
 1049 05da 00E0     		b	.L20
ARM GAS  C:\Users\ikui753\AppData\Local\Temp\ccuCyN9r.s 			page 22


 1050              	.L30:
 1051              	.LBB11:
 116:pathfinding.c ****             }
 1052              		.loc 1 116 0
 1053 05dc 00BF     		nop
 1054              	.L20:
 1055              	.LBE11:
 136:pathfinding.c ****                     }
 137:pathfinding.c ****                 }
 138:pathfinding.c ****             }
 139:pathfinding.c ****         }
 140:pathfinding.c ****     }
 141:pathfinding.c **** 
 142:pathfinding.c ****     // PATH RECONSTRUCTION
 143:pathfinding.c ****     // initialise maximum distance- will be decremented
 144:pathfinding.c ****     int shortestDist = distances[targetlocation.row][targetlocation.col];
 1056              		.loc 1 144 0
 1057 05de 07F5B653 		add	r3, r7, #5824
 1058 05e2 03F10C03 		add	r3, r3, #12
 1059 05e6 1968     		ldr	r1, [r3]
 1060 05e8 07F5B653 		add	r3, r7, #5824
 1061 05ec 03F11003 		add	r3, r3, #16
 1062 05f0 1868     		ldr	r0, [r3]
 1063 05f2 07F13802 		add	r2, r7, #56
 1064 05f6 183A     		subs	r2, r2, #24
 1065 05f8 0B46     		mov	r3, r1
 1066 05fa DB00     		lsls	r3, r3, #3
 1067 05fc 0B44     		add	r3, r3, r1
 1068 05fe 5B00     		lsls	r3, r3, #1
 1069 0600 0B44     		add	r3, r3, r1
 1070 0602 0344     		add	r3, r3, r0
 1071 0604 52F82330 		ldr	r3, [r2, r3, lsl #2]
 1072 0608 07F5B452 		add	r2, r7, #5760
 1073 060c 02F11002 		add	r2, r2, #16
 1074 0610 1360     		str	r3, [r2]
 145:pathfinding.c ****     // retsteps can be generated from here
 146:pathfinding.c ****     struct Location *retSteps = malloc(sizeof(struct Location) * shortestDist); // store every step
 1075              		.loc 1 146 0
 1076 0612 07F5B453 		add	r3, r7, #5760
 1077 0616 03F11003 		add	r3, r3, #16
 1078 061a 1B68     		ldr	r3, [r3]
 1079 061c DB00     		lsls	r3, r3, #3
 1080 061e 1846     		mov	r0, r3
 1081 0620 FFF7FEFF 		bl	malloc
 1082 0624 0346     		mov	r3, r0
 1083 0626 07F5B352 		add	r2, r7, #5728
 1084 062a 02F10C02 		add	r2, r2, #12
 1085 062e 1360     		str	r3, [r2]
 147:pathfinding.c ****     int currentRow = targetlocation.row;
 1086              		.loc 1 147 0
 1087 0630 07F5B653 		add	r3, r7, #5824
 1088 0634 03F10C03 		add	r3, r3, #12
 1089 0638 1B68     		ldr	r3, [r3]
 1090 063a 07F5B452 		add	r2, r7, #5760
 1091 063e 02F10C02 		add	r2, r2, #12
 1092 0642 1360     		str	r3, [r2]
 148:pathfinding.c ****     int currentCol = targetlocation.col;
ARM GAS  C:\Users\ikui753\AppData\Local\Temp\ccuCyN9r.s 			page 23


 1093              		.loc 1 148 0
 1094 0644 07F5B653 		add	r3, r7, #5824
 1095 0648 03F11003 		add	r3, r3, #16
 1096 064c 1B68     		ldr	r3, [r3]
 1097 064e 07F5B452 		add	r2, r7, #5760
 1098 0652 02F10802 		add	r2, r2, #8
 1099 0656 1360     		str	r3, [r2]
 149:pathfinding.c ****     retSteps[shortestDist-1].row = currentRow; 
 1100              		.loc 1 149 0
 1101 0658 07F5B453 		add	r3, r7, #5760
 1102 065c 03F11003 		add	r3, r3, #16
 1103 0660 1B68     		ldr	r3, [r3]
 1104 0662 03F10053 		add	r3, r3, #536870912
 1105 0666 013B     		subs	r3, r3, #1
 1106 0668 DB00     		lsls	r3, r3, #3
 1107 066a 07F5B352 		add	r2, r7, #5728
 1108 066e 02F10C02 		add	r2, r2, #12
 1109 0672 1268     		ldr	r2, [r2]
 1110 0674 1344     		add	r3, r3, r2
 1111 0676 07F5B452 		add	r2, r7, #5760
 1112 067a 02F10C02 		add	r2, r2, #12
 1113 067e 1268     		ldr	r2, [r2]
 1114 0680 1A60     		str	r2, [r3]
 150:pathfinding.c ****     retSteps[shortestDist-1].col = currentCol; // add targetLocation to retSteps
 1115              		.loc 1 150 0
 1116 0682 07F5B453 		add	r3, r7, #5760
 1117 0686 03F11003 		add	r3, r3, #16
 1118 068a 1B68     		ldr	r3, [r3]
 1119 068c 03F10053 		add	r3, r3, #536870912
 1120 0690 013B     		subs	r3, r3, #1
 1121 0692 DB00     		lsls	r3, r3, #3
 1122 0694 07F5B352 		add	r2, r7, #5728
 1123 0698 02F10C02 		add	r2, r2, #12
 1124 069c 1268     		ldr	r2, [r2]
 1125 069e 1344     		add	r3, r3, r2
 1126 06a0 07F5B452 		add	r2, r7, #5760
 1127 06a4 02F10802 		add	r2, r2, #8
 1128 06a8 1268     		ldr	r2, [r2]
 1129 06aa 5A60     		str	r2, [r3, #4]
 151:pathfinding.c ****     //printf("retSteps[%d]: %d,%d\n", shortestDist-1, currentRow, currentCol);
 152:pathfinding.c ****     map[currentRow][currentCol] = 9; // mark finish location
 1130              		.loc 1 152 0
 1131 06ac 07F5B453 		add	r3, r7, #5760
 1132 06b0 03F10C03 		add	r3, r3, #12
 1133 06b4 1B68     		ldr	r3, [r3]
 1134 06b6 4C22     		movs	r2, #76
 1135 06b8 02FB03F2 		mul	r2, r2, r3
 1136 06bc 07F11803 		add	r3, r7, #24
 1137 06c0 0C3B     		subs	r3, r3, #12
 1138 06c2 1B68     		ldr	r3, [r3]
 1139 06c4 1344     		add	r3, r3, r2
 1140 06c6 07F5B452 		add	r2, r7, #5760
 1141 06ca 02F10802 		add	r2, r2, #8
 1142 06ce 1268     		ldr	r2, [r2]
 1143 06d0 0921     		movs	r1, #9
 1144 06d2 43F82210 		str	r1, [r3, r2, lsl #2]
 153:pathfinding.c ****     //printf("%d,%d\n", currentRow, currentCol); // print optimal step
ARM GAS  C:\Users\ikui753\AppData\Local\Temp\ccuCyN9r.s 			page 24


 154:pathfinding.c ****     // reconstruct path by reversing paths array and taking shortest distance
 155:pathfinding.c ****     while(shortestDist > 0) {    
 1145              		.loc 1 155 0
 1146 06d6 FCE0     		b	.L25
 1147              	.L29:
 1148              	.LBB12:
 156:pathfinding.c ****         // make a move, check if valid and is the next step in path
 157:pathfinding.c ****         for (int i = 0; i < sizeof(moves) / sizeof(moves[0]); i++) {
 1149              		.loc 1 157 0
 1150 06d8 0023     		movs	r3, #0
 1151 06da 07F5B452 		add	r2, r7, #5760
 1152 06de 02F10402 		add	r2, r2, #4
 1153 06e2 1360     		str	r3, [r2]
 1154 06e4 EDE0     		b	.L26
 1155              	.L32:
 1156 06e6 00BF     		.align	2
 1157              	.L31:
 1158 06e8 00000000 		.word	moves
 1159              	.L28:
 1160              	.LBB13:
 158:pathfinding.c ****             int newRow = currentRow + moves[i].row;
 1161              		.loc 1 158 0
 1162 06ec 814A     		ldr	r2, .L33
 1163 06ee 07F5B453 		add	r3, r7, #5760
 1164 06f2 03F10403 		add	r3, r3, #4
 1165 06f6 1B68     		ldr	r3, [r3]
 1166 06f8 52F83320 		ldr	r2, [r2, r3, lsl #3]
 1167 06fc 07F5B453 		add	r3, r7, #5760
 1168 0700 03F10C03 		add	r3, r3, #12
 1169 0704 1B68     		ldr	r3, [r3]
 1170 0706 1344     		add	r3, r3, r2
 1171 0708 07F5B352 		add	r2, r7, #5728
 1172 070c 02F10802 		add	r2, r2, #8
 1173 0710 1360     		str	r3, [r2]
 159:pathfinding.c ****             int newCol = currentCol + moves[i].col;
 1174              		.loc 1 159 0
 1175 0712 784A     		ldr	r2, .L33
 1176 0714 07F5B453 		add	r3, r7, #5760
 1177 0718 03F10403 		add	r3, r3, #4
 1178 071c 1B68     		ldr	r3, [r3]
 1179 071e DB00     		lsls	r3, r3, #3
 1180 0720 1344     		add	r3, r3, r2
 1181 0722 5A68     		ldr	r2, [r3, #4]
 1182 0724 07F5B453 		add	r3, r7, #5760
 1183 0728 03F10803 		add	r3, r3, #8
 1184 072c 1B68     		ldr	r3, [r3]
 1185 072e 1344     		add	r3, r3, r2
 1186 0730 07F5B352 		add	r2, r7, #5728
 1187 0734 02F10402 		add	r2, r2, #4
 1188 0738 1360     		str	r3, [r2]
 160:pathfinding.c **** 
 161:pathfinding.c ****             if (isValidMove(newRow, newCol, MAX_ROWS, MAX_COLS, map) && distances[newRow][newCol] =
 1189              		.loc 1 161 0
 1190 073a 07F11803 		add	r3, r7, #24
 1191 073e 0C3B     		subs	r3, r3, #12
 1192 0740 1B68     		ldr	r3, [r3]
 1193 0742 0093     		str	r3, [sp]
ARM GAS  C:\Users\ikui753\AppData\Local\Temp\ccuCyN9r.s 			page 25


 1194 0744 1323     		movs	r3, #19
 1195 0746 0F22     		movs	r2, #15
 1196 0748 07F5B351 		add	r1, r7, #5728
 1197 074c 01F10401 		add	r1, r1, #4
 1198 0750 0968     		ldr	r1, [r1]
 1199 0752 07F5B350 		add	r0, r7, #5728
 1200 0756 00F10800 		add	r0, r0, #8
 1201 075a 0068     		ldr	r0, [r0]
 1202 075c FFF7FEFF 		bl	isValidMove
 1203 0760 0346     		mov	r3, r0
 1204 0762 002B     		cmp	r3, #0
 1205 0764 00F0A280 		beq	.L27
 1206              		.loc 1 161 0 is_stmt 0 discriminator 1
 1207 0768 07F13802 		add	r2, r7, #56
 1208 076c 183A     		subs	r2, r2, #24
 1209 076e 07F5B353 		add	r3, r7, #5728
 1210 0772 03F10803 		add	r3, r3, #8
 1211 0776 1968     		ldr	r1, [r3]
 1212 0778 0B46     		mov	r3, r1
 1213 077a DB00     		lsls	r3, r3, #3
 1214 077c 0B44     		add	r3, r3, r1
 1215 077e 5B00     		lsls	r3, r3, #1
 1216 0780 0B44     		add	r3, r3, r1
 1217 0782 07F5B351 		add	r1, r7, #5728
 1218 0786 01F10401 		add	r1, r1, #4
 1219 078a 0968     		ldr	r1, [r1]
 1220 078c 0B44     		add	r3, r3, r1
 1221 078e 52F82320 		ldr	r2, [r2, r3, lsl #2]
 1222 0792 07F5B453 		add	r3, r7, #5760
 1223 0796 03F11003 		add	r3, r3, #16
 1224 079a 1B68     		ldr	r3, [r3]
 1225 079c 013B     		subs	r3, r3, #1
 1226 079e 9A42     		cmp	r2, r3
 1227 07a0 40F08480 		bne	.L27
 162:pathfinding.c ****                 map[newRow][newCol] = 8; // mark optimal step
 1228              		.loc 1 162 0 is_stmt 1
 1229 07a4 07F5B353 		add	r3, r7, #5728
 1230 07a8 03F10803 		add	r3, r3, #8
 1231 07ac 1B68     		ldr	r3, [r3]
 1232 07ae 4C22     		movs	r2, #76
 1233 07b0 02FB03F2 		mul	r2, r2, r3
 1234 07b4 07F11803 		add	r3, r7, #24
 1235 07b8 0C3B     		subs	r3, r3, #12
 1236 07ba 1B68     		ldr	r3, [r3]
 1237 07bc 1344     		add	r3, r3, r2
 1238 07be 07F5B352 		add	r2, r7, #5728
 1239 07c2 02F10402 		add	r2, r2, #4
 1240 07c6 1268     		ldr	r2, [r2]
 1241 07c8 0821     		movs	r1, #8
 1242 07ca 43F82210 		str	r1, [r3, r2, lsl #2]
 163:pathfinding.c ****                 shortestDist--; // decrement distance
 1243              		.loc 1 163 0
 1244 07ce 07F5B453 		add	r3, r7, #5760
 1245 07d2 03F11003 		add	r3, r3, #16
 1246 07d6 1B68     		ldr	r3, [r3]
 1247 07d8 013B     		subs	r3, r3, #1
 1248 07da 07F5B452 		add	r2, r7, #5760
ARM GAS  C:\Users\ikui753\AppData\Local\Temp\ccuCyN9r.s 			page 26


 1249 07de 02F11002 		add	r2, r2, #16
 1250 07e2 1360     		str	r3, [r2]
 164:pathfinding.c ****                 currentRow = newRow; 
 1251              		.loc 1 164 0
 1252 07e4 07F5B353 		add	r3, r7, #5728
 1253 07e8 03F10803 		add	r3, r3, #8
 1254 07ec 1B68     		ldr	r3, [r3]
 1255 07ee 07F5B452 		add	r2, r7, #5760
 1256 07f2 02F10C02 		add	r2, r2, #12
 1257 07f6 1360     		str	r3, [r2]
 165:pathfinding.c ****                 currentCol = newCol; // change current location
 1258              		.loc 1 165 0
 1259 07f8 07F5B353 		add	r3, r7, #5728
 1260 07fc 03F10403 		add	r3, r3, #4
 1261 0800 1B68     		ldr	r3, [r3]
 1262 0802 07F5B452 		add	r2, r7, #5760
 1263 0806 02F10802 		add	r2, r2, #8
 1264 080a 1360     		str	r3, [r2]
 166:pathfinding.c ****                 //printf("retSteps[%d]: %d,%d\n", shortestDist,currentRow,currentCol); // print vis
 167:pathfinding.c ****                 retSteps[shortestDist].row = currentRow; 
 1265              		.loc 1 167 0
 1266 080c 07F5B453 		add	r3, r7, #5760
 1267 0810 03F11003 		add	r3, r3, #16
 1268 0814 1B68     		ldr	r3, [r3]
 1269 0816 DB00     		lsls	r3, r3, #3
 1270 0818 07F5B352 		add	r2, r7, #5728
 1271 081c 02F10C02 		add	r2, r2, #12
 1272 0820 1268     		ldr	r2, [r2]
 1273 0822 1344     		add	r3, r3, r2
 1274 0824 07F5B452 		add	r2, r7, #5760
 1275 0828 02F10C02 		add	r2, r2, #12
 1276 082c 1268     		ldr	r2, [r2]
 1277 082e 1A60     		str	r2, [r3]
 168:pathfinding.c ****                 retSteps[shortestDist].col = currentCol; // add currentRow and currentCol to retste
 1278              		.loc 1 168 0
 1279 0830 07F5B453 		add	r3, r7, #5760
 1280 0834 03F11003 		add	r3, r3, #16
 1281 0838 1B68     		ldr	r3, [r3]
 1282 083a DB00     		lsls	r3, r3, #3
 1283 083c 07F5B352 		add	r2, r7, #5728
 1284 0840 02F10C02 		add	r2, r2, #12
 1285 0844 1268     		ldr	r2, [r2]
 1286 0846 1344     		add	r3, r3, r2
 1287 0848 07F5B452 		add	r2, r7, #5760
 1288 084c 02F10802 		add	r2, r2, #8
 1289 0850 1268     		ldr	r2, [r2]
 1290 0852 5A60     		str	r2, [r3, #4]
 169:pathfinding.c ****                 if(currentRow == startlocation.row && currentCol == startlocation.col) {
 1291              		.loc 1 169 0
 1292 0854 07F11803 		add	r3, r7, #24
 1293 0858 143B     		subs	r3, r3, #20
 1294 085a 1A68     		ldr	r2, [r3]
 1295 085c 07F5B453 		add	r3, r7, #5760
 1296 0860 03F10C03 		add	r3, r3, #12
 1297 0864 1B68     		ldr	r3, [r3]
 1298 0866 9A42     		cmp	r2, r3
 1299 0868 20D1     		bne	.L27
ARM GAS  C:\Users\ikui753\AppData\Local\Temp\ccuCyN9r.s 			page 27


 1300              		.loc 1 169 0 is_stmt 0 discriminator 1
 1301 086a 07F11803 		add	r3, r7, #24
 1302 086e 143B     		subs	r3, r3, #20
 1303 0870 5A68     		ldr	r2, [r3, #4]
 1304 0872 07F5B453 		add	r3, r7, #5760
 1305 0876 03F10803 		add	r3, r3, #8
 1306 087a 1B68     		ldr	r3, [r3]
 1307 087c 9A42     		cmp	r2, r3
 1308 087e 15D1     		bne	.L27
 170:pathfinding.c ****                     map[currentRow][currentCol] = 2; // mark start location
 1309              		.loc 1 170 0 is_stmt 1
 1310 0880 07F5B453 		add	r3, r7, #5760
 1311 0884 03F10C03 		add	r3, r3, #12
 1312 0888 1B68     		ldr	r3, [r3]
 1313 088a 4C22     		movs	r2, #76
 1314 088c 02FB03F2 		mul	r2, r2, r3
 1315 0890 07F11803 		add	r3, r7, #24
 1316 0894 0C3B     		subs	r3, r3, #12
 1317 0896 1B68     		ldr	r3, [r3]
 1318 0898 1344     		add	r3, r3, r2
 1319 089a 07F5B452 		add	r2, r7, #5760
 1320 089e 02F10802 		add	r2, r2, #8
 1321 08a2 1268     		ldr	r2, [r2]
 1322 08a4 0221     		movs	r1, #2
 1323 08a6 43F82210 		str	r1, [r3, r2, lsl #2]
 171:pathfinding.c ****                     break;
 1324              		.loc 1 171 0
 1325 08aa 12E0     		b	.L25
 1326              	.L27:
 1327              	.LBE13:
 157:pathfinding.c ****             int newRow = currentRow + moves[i].row;
 1328              		.loc 1 157 0 discriminator 2
 1329 08ac 07F5B453 		add	r3, r7, #5760
 1330 08b0 03F10403 		add	r3, r3, #4
 1331 08b4 1B68     		ldr	r3, [r3]
 1332 08b6 0133     		adds	r3, r3, #1
 1333 08b8 07F5B452 		add	r2, r7, #5760
 1334 08bc 02F10402 		add	r2, r2, #4
 1335 08c0 1360     		str	r3, [r2]
 1336              	.L26:
 157:pathfinding.c ****             int newRow = currentRow + moves[i].row;
 1337              		.loc 1 157 0 is_stmt 0 discriminator 1
 1338 08c2 07F5B453 		add	r3, r7, #5760
 1339 08c6 03F10403 		add	r3, r3, #4
 1340 08ca 1B68     		ldr	r3, [r3]
 1341 08cc 032B     		cmp	r3, #3
 1342 08ce 7FF60DAF 		bls	.L28
 1343              	.L25:
 1344              	.LBE12:
 155:pathfinding.c ****         // make a move, check if valid and is the next step in path
 1345              		.loc 1 155 0 is_stmt 1
 1346 08d2 07F5B453 		add	r3, r7, #5760
 1347 08d6 03F11003 		add	r3, r3, #16
 1348 08da 1B68     		ldr	r3, [r3]
 1349 08dc 002B     		cmp	r3, #0
 1350 08de 3FF7FBAE 		bgt	.L29
 172:pathfinding.c ****                 }   
ARM GAS  C:\Users\ikui753\AppData\Local\Temp\ccuCyN9r.s 			page 28


 173:pathfinding.c ****             }
 174:pathfinding.c ****         }
 175:pathfinding.c ****     }
 176:pathfinding.c **** }
 1351              		.loc 1 176 0
 1352 08e2 00BF     		nop
 1353 08e4 07F5B557 		add	r7, r7, #5792
 1354 08e8 1C37     		adds	r7, r7, #28
 1355              		.cfi_def_cfa_offset 20
 1356 08ea BD46     		mov	sp, r7
 1357              		.cfi_def_cfa_register 13
 1358              		@ sp needed
 1359 08ec BDE89040 		pop	{r4, r7, lr}
 1360              		.cfi_restore 14
 1361              		.cfi_restore 7
 1362              		.cfi_restore 4
 1363              		.cfi_def_cfa_offset 8
 1364 08f0 02B0     		add	sp, sp, #8
 1365              		.cfi_def_cfa_offset 0
 1366 08f2 7047     		bx	lr
 1367              	.L34:
 1368              		.align	2
 1369              	.L33:
 1370 08f4 00000000 		.word	moves
 1371              		.cfi_endproc
 1372              	.LFE65:
 1373              		.size	dijkstra, .-dijkstra
 1374              		.section	.rodata
 1375              		.align	2
 1376              	.LC0:
 1377 0000 01000000 		.word	1
 1378 0004 01000000 		.word	1
 1379              		.align	2
 1380              	.LC1:
 1381 0008 01000000 		.word	1
 1382 000c 05000000 		.word	5
 1383              		.section	.text.findPath,"ax",%progbits
 1384              		.align	2
 1385              		.global	findPath
 1386              		.thumb
 1387              		.thumb_func
 1388              		.type	findPath, %function
 1389              	findPath:
 1390              	.LFB66:
 177:pathfinding.c **** 
 178:pathfinding.c **** void findPath() {
 1391              		.loc 1 178 0
 1392              		.cfi_startproc
 1393              		@ args = 0, pretend = 0, frame = 16
 1394              		@ frame_needed = 1, uses_anonymous_args = 0
 1395 0000 80B5     		push	{r7, lr}
 1396              		.cfi_def_cfa_offset 8
 1397              		.cfi_offset 7, -8
 1398              		.cfi_offset 14, -4
 1399 0002 86B0     		sub	sp, sp, #24
 1400              		.cfi_def_cfa_offset 32
 1401 0004 02AF     		add	r7, sp, #8
ARM GAS  C:\Users\ikui753\AppData\Local\Temp\ccuCyN9r.s 			page 29


 1402              		.cfi_def_cfa 7, 24
 179:pathfinding.c ****     struct Location startLocation = {1,1};
 1403              		.loc 1 179 0
 1404 0006 0D4A     		ldr	r2, .L36
 1405 0008 07F10803 		add	r3, r7, #8
 1406 000c 92E80300 		ldmia	r2, {r0, r1}
 1407 0010 83E80300 		stmia	r3, {r0, r1}
 180:pathfinding.c ****     struct Location targetLocation = {1,5};
 1408              		.loc 1 180 0
 1409 0014 0A4A     		ldr	r2, .L36+4
 1410 0016 3B46     		mov	r3, r7
 1411 0018 92E80300 		ldmia	r2, {r0, r1}
 1412 001c 83E80300 		stmia	r3, {r0, r1}
 181:pathfinding.c ****     dijkstra(map, startLocation, targetLocation); // find shortest path
 1413              		.loc 1 181 0
 1414 0020 7B68     		ldr	r3, [r7, #4]
 1415 0022 0093     		str	r3, [sp]
 1416 0024 3B68     		ldr	r3, [r7]
 1417 0026 07F10802 		add	r2, r7, #8
 1418 002a 06CA     		ldmia	r2, {r1, r2}
 1419 002c 0548     		ldr	r0, .L36+8
 1420 002e FFF7FEFF 		bl	dijkstra
 182:pathfinding.c **** }
 1421              		.loc 1 182 0
 1422 0032 00BF     		nop
 1423 0034 1037     		adds	r7, r7, #16
 1424              		.cfi_def_cfa_offset 8
 1425 0036 BD46     		mov	sp, r7
 1426              		.cfi_def_cfa_register 13
 1427              		@ sp needed
 1428 0038 80BD     		pop	{r7, pc}
 1429              	.L37:
 1430 003a 00BF     		.align	2
 1431              	.L36:
 1432 003c 00000000 		.word	.LC0
 1433 0040 08000000 		.word	.LC1
 1434 0044 00000000 		.word	map
 1435              		.cfi_endproc
 1436              	.LFE66:
 1437              		.size	findPath, .-findPath
 1438              		.section	.text.is_valid_Position,"ax",%progbits
 1439              		.align	2
 1440              		.global	is_valid_Position
 1441              		.thumb
 1442              		.thumb_func
 1443              		.type	is_valid_Position, %function
 1444              	is_valid_Position:
 1445              	.LFB67:
 183:pathfinding.c **** 
 184:pathfinding.c **** // ==--==--==--==--==--==--==--==--==--==--==--==--==
 185:pathfinding.c **** // ==--==--==--==--==--==--==--==--==--==--==--==--==
 186:pathfinding.c **** // ==--==--==--==-- A-STAR ALGORITHM --==--==--==--==
 187:pathfinding.c **** // ==--==--==--==--==--==--==--==--==--==--==--==--==
 188:pathfinding.c **** typedef struct {
 189:pathfinding.c ****     int x;
 190:pathfinding.c ****     int y;
 191:pathfinding.c **** } Position;
ARM GAS  C:\Users\ikui753\AppData\Local\Temp\ccuCyN9r.s 			page 30


 192:pathfinding.c **** 
 193:pathfinding.c **** typedef struct {
 194:pathfinding.c ****     Position parent, position;
 195:pathfinding.c ****     int f, g, h;
 196:pathfinding.c **** } Node;
 197:pathfinding.c **** 
 198:pathfinding.c **** typedef struct {
 199:pathfinding.c ****     int dx;
 200:pathfinding.c ****     int dy;
 201:pathfinding.c **** } Moves;
 202:pathfinding.c **** 
 203:pathfinding.c **** 
 204:pathfinding.c **** // checks if the x, y coordinates are within the map and does not go out of bounds
 205:pathfinding.c **** bool is_valid_Position(int x, int y) {
 1446              		.loc 1 205 0
 1447              		.cfi_startproc
 1448              		@ args = 0, pretend = 0, frame = 8
 1449              		@ frame_needed = 1, uses_anonymous_args = 0
 1450              		@ link register save eliminated.
 1451 0000 80B4     		push	{r7}
 1452              		.cfi_def_cfa_offset 4
 1453              		.cfi_offset 7, -4
 1454 0002 83B0     		sub	sp, sp, #12
 1455              		.cfi_def_cfa_offset 16
 1456 0004 00AF     		add	r7, sp, #0
 1457              		.cfi_def_cfa_register 7
 1458 0006 7860     		str	r0, [r7, #4]
 1459 0008 3960     		str	r1, [r7]
 206:pathfinding.c ****     return x >= 0 && x < MAX_COLS && y >= 0 && y < MAX_ROWS;
 1460              		.loc 1 206 0
 1461 000a 7B68     		ldr	r3, [r7, #4]
 1462 000c 002B     		cmp	r3, #0
 1463 000e 0ADB     		blt	.L39
 1464              		.loc 1 206 0 is_stmt 0 discriminator 1
 1465 0010 7B68     		ldr	r3, [r7, #4]
 1466 0012 122B     		cmp	r3, #18
 1467 0014 07DC     		bgt	.L39
 1468              		.loc 1 206 0 discriminator 3
 1469 0016 3B68     		ldr	r3, [r7]
 1470 0018 002B     		cmp	r3, #0
 1471 001a 04DB     		blt	.L39
 1472              		.loc 1 206 0 discriminator 5
 1473 001c 3B68     		ldr	r3, [r7]
 1474 001e 0E2B     		cmp	r3, #14
 1475 0020 01DC     		bgt	.L39
 1476              		.loc 1 206 0 discriminator 7
 1477 0022 0123     		movs	r3, #1
 1478 0024 00E0     		b	.L40
 1479              	.L39:
 1480              		.loc 1 206 0 discriminator 8
 1481 0026 0023     		movs	r3, #0
 1482              	.L40:
 1483              		.loc 1 206 0 discriminator 10
 1484 0028 03F00103 		and	r3, r3, #1
 1485 002c DBB2     		uxtb	r3, r3
 207:pathfinding.c **** }
 1486              		.loc 1 207 0 is_stmt 1 discriminator 10
ARM GAS  C:\Users\ikui753\AppData\Local\Temp\ccuCyN9r.s 			page 31


 1487 002e 1846     		mov	r0, r3
 1488 0030 0C37     		adds	r7, r7, #12
 1489              		.cfi_def_cfa_offset 4
 1490 0032 BD46     		mov	sp, r7
 1491              		.cfi_def_cfa_register 13
 1492              		@ sp needed
 1493 0034 80BC     		pop	{r7}
 1494              		.cfi_restore 7
 1495              		.cfi_def_cfa_offset 0
 1496 0036 7047     		bx	lr
 1497              		.cfi_endproc
 1498              	.LFE67:
 1499              		.size	is_valid_Position, .-is_valid_Position
 1500              		.section	.text.is_walkable,"ax",%progbits
 1501              		.align	2
 1502              		.global	is_walkable
 1503              		.thumb
 1504              		.thumb_func
 1505              		.type	is_walkable, %function
 1506              	is_walkable:
 1507              	.LFB68:
 208:pathfinding.c **** 
 209:pathfinding.c **** // checks if the current map coordinates are walkable (meaning at map[y][x] == 0)
 210:pathfinding.c **** bool is_walkable(int map[MAX_ROWS][MAX_COLS], int x, int y) {
 1508              		.loc 1 210 0
 1509              		.cfi_startproc
 1510              		@ args = 0, pretend = 0, frame = 16
 1511              		@ frame_needed = 1, uses_anonymous_args = 0
 1512 0000 80B5     		push	{r7, lr}
 1513              		.cfi_def_cfa_offset 8
 1514              		.cfi_offset 7, -8
 1515              		.cfi_offset 14, -4
 1516 0002 84B0     		sub	sp, sp, #16
 1517              		.cfi_def_cfa_offset 24
 1518 0004 00AF     		add	r7, sp, #0
 1519              		.cfi_def_cfa_register 7
 1520 0006 F860     		str	r0, [r7, #12]
 1521 0008 B960     		str	r1, [r7, #8]
 1522 000a 7A60     		str	r2, [r7, #4]
 211:pathfinding.c ****     // 0 = Path
 212:pathfinding.c ****     // 1 = Obstacle
 213:pathfinding.c ****     return is_valid_Position(x, y) && map[y][x] == 0;
 1523              		.loc 1 213 0
 1524 000c 7968     		ldr	r1, [r7, #4]
 1525 000e B868     		ldr	r0, [r7, #8]
 1526 0010 FFF7FEFF 		bl	is_valid_Position
 1527 0014 0346     		mov	r3, r0
 1528 0016 002B     		cmp	r3, #0
 1529 0018 0CD0     		beq	.L43
 1530              		.loc 1 213 0 is_stmt 0 discriminator 1
 1531 001a 7B68     		ldr	r3, [r7, #4]
 1532 001c 4C22     		movs	r2, #76
 1533 001e 02FB03F3 		mul	r3, r2, r3
 1534 0022 FA68     		ldr	r2, [r7, #12]
 1535 0024 1344     		add	r3, r3, r2
 1536 0026 BA68     		ldr	r2, [r7, #8]
 1537 0028 53F82230 		ldr	r3, [r3, r2, lsl #2]
ARM GAS  C:\Users\ikui753\AppData\Local\Temp\ccuCyN9r.s 			page 32


 1538 002c 002B     		cmp	r3, #0
 1539 002e 01D1     		bne	.L43
 1540              		.loc 1 213 0 discriminator 3
 1541 0030 0123     		movs	r3, #1
 1542 0032 00E0     		b	.L44
 1543              	.L43:
 1544              		.loc 1 213 0 discriminator 4
 1545 0034 0023     		movs	r3, #0
 1546              	.L44:
 1547              		.loc 1 213 0 discriminator 6
 1548 0036 03F00103 		and	r3, r3, #1
 1549 003a DBB2     		uxtb	r3, r3
 214:pathfinding.c **** }
 1550              		.loc 1 214 0 is_stmt 1 discriminator 6
 1551 003c 1846     		mov	r0, r3
 1552 003e 1037     		adds	r7, r7, #16
 1553              		.cfi_def_cfa_offset 8
 1554 0040 BD46     		mov	sp, r7
 1555              		.cfi_def_cfa_register 13
 1556              		@ sp needed
 1557 0042 80BD     		pop	{r7, pc}
 1558              		.cfi_endproc
 1559              	.LFE68:
 1560              		.size	is_walkable, .-is_walkable
 1561              		.section	.text.heuristic,"ax",%progbits
 1562              		.align	2
 1563              		.global	heuristic
 1564              		.thumb
 1565              		.thumb_func
 1566              		.type	heuristic, %function
 1567              	heuristic:
 1568              	.LFB69:
 215:pathfinding.c **** 
 216:pathfinding.c **** // manhatten distance between two points
 217:pathfinding.c **** int heuristic(Position a, Position b) {
 1569              		.loc 1 217 0
 1570              		.cfi_startproc
 1571              		@ args = 0, pretend = 0, frame = 16
 1572              		@ frame_needed = 1, uses_anonymous_args = 0
 1573              		@ link register save eliminated.
 1574 0000 90B4     		push	{r4, r7}
 1575              		.cfi_def_cfa_offset 8
 1576              		.cfi_offset 4, -8
 1577              		.cfi_offset 7, -4
 1578 0002 84B0     		sub	sp, sp, #16
 1579              		.cfi_def_cfa_offset 24
 1580 0004 00AF     		add	r7, sp, #0
 1581              		.cfi_def_cfa_register 7
 1582 0006 07F10804 		add	r4, r7, #8
 1583 000a 84E80300 		stmia	r4, {r0, r1}
 1584 000e 3946     		mov	r1, r7
 1585 0010 81E80C00 		stmia	r1, {r2, r3}
 218:pathfinding.c ****     return (abs(a.x - b.x) + abs(a.y - b.y)) * 10;
 1586              		.loc 1 218 0
 1587 0014 BA68     		ldr	r2, [r7, #8]
 1588 0016 3B68     		ldr	r3, [r7]
 1589 0018 D31A     		subs	r3, r2, r3
ARM GAS  C:\Users\ikui753\AppData\Local\Temp\ccuCyN9r.s 			page 33


 1590 001a 83EAE372 		eor	r2, r3, r3, asr #31
 1591 001e A2EBE372 		sub	r2, r2, r3, asr #31
 1592 0022 F968     		ldr	r1, [r7, #12]
 1593 0024 7B68     		ldr	r3, [r7, #4]
 1594 0026 CB1A     		subs	r3, r1, r3
 1595 0028 002B     		cmp	r3, #0
 1596 002a B8BF     		it	lt
 1597 002c 5B42     		rsblt	r3, r3, #0
 1598 002e 1A44     		add	r2, r2, r3
 1599 0030 1346     		mov	r3, r2
 1600 0032 9B00     		lsls	r3, r3, #2
 1601 0034 1344     		add	r3, r3, r2
 1602 0036 5B00     		lsls	r3, r3, #1
 219:pathfinding.c **** }
 1603              		.loc 1 219 0
 1604 0038 1846     		mov	r0, r3
 1605 003a 1037     		adds	r7, r7, #16
 1606              		.cfi_def_cfa_offset 8
 1607 003c BD46     		mov	sp, r7
 1608              		.cfi_def_cfa_register 13
 1609              		@ sp needed
 1610 003e 90BC     		pop	{r4, r7}
 1611              		.cfi_restore 7
 1612              		.cfi_restore 4
 1613              		.cfi_def_cfa_offset 0
 1614 0040 7047     		bx	lr
 1615              		.cfi_endproc
 1616              	.LFE69:
 1617              		.size	heuristic, .-heuristic
 1618 0042 00BF     		.section	.text.reconstruct_path,"ax",%progbits
 1619              		.align	2
 1620              		.global	reconstruct_path
 1621              		.thumb
 1622              		.thumb_func
 1623              		.type	reconstruct_path, %function
 1624              	reconstruct_path:
 1625              	.LFB70:
 220:pathfinding.c **** 
 221:pathfinding.c **** // Reconstructs the path from the target node back to the start node and modifies the map array to 
 222:pathfinding.c **** void reconstruct_path(int map[MAX_ROWS][MAX_COLS], Position came_from[MAX_ROWS][MAX_COLS], Position
 1626              		.loc 1 222 0
 1627              		.cfi_startproc
 1628              		@ args = 8, pretend = 0, frame = 24
 1629              		@ frame_needed = 1, uses_anonymous_args = 0
 1630              		@ link register save eliminated.
 1631 0000 80B4     		push	{r7}
 1632              		.cfi_def_cfa_offset 4
 1633              		.cfi_offset 7, -4
 1634 0002 87B0     		sub	sp, sp, #28
 1635              		.cfi_def_cfa_offset 32
 1636 0004 00AF     		add	r7, sp, #0
 1637              		.cfi_def_cfa_register 7
 1638 0006 F860     		str	r0, [r7, #12]
 1639 0008 B960     		str	r1, [r7, #8]
 1640 000a 3946     		mov	r1, r7
 1641 000c 81E80C00 		stmia	r1, {r2, r3}
 223:pathfinding.c ****     // printf("========\n");
ARM GAS  C:\Users\ikui753\AppData\Local\Temp\ccuCyN9r.s 			page 34


 224:pathfinding.c ****     // for (int y = 0; y < MAX_ROWS; y++) {
 225:pathfinding.c ****     //     for (int x = 0; x < MAX_COLS; x++) {
 226:pathfinding.c ****     //         printf("[%02d, %02d]", came_from[y][x].x, came_from[y][x].y);
 227:pathfinding.c ****     //     }
 228:pathfinding.c ****     //     printf("\n");
 229:pathfinding.c ****     // }
 230:pathfinding.c ****     // printf("========\n");
 231:pathfinding.c **** 
 232:pathfinding.c ****     int crashindicator = 0;
 1642              		.loc 1 232 0
 1643 0010 0023     		movs	r3, #0
 1644 0012 7B61     		str	r3, [r7, #20]
 233:pathfinding.c ****     // we should be at the end
 234:pathfinding.c ****     map[current.y][current.x] = 9; // 9 IS END OF APTH
 1645              		.loc 1 234 0
 1646 0014 7B68     		ldr	r3, [r7, #4]
 1647 0016 1A46     		mov	r2, r3
 1648 0018 4C23     		movs	r3, #76
 1649 001a 03FB02F3 		mul	r3, r3, r2
 1650 001e FA68     		ldr	r2, [r7, #12]
 1651 0020 1344     		add	r3, r3, r2
 1652 0022 3A68     		ldr	r2, [r7]
 1653 0024 0921     		movs	r1, #9
 1654 0026 43F82210 		str	r1, [r3, r2, lsl #2]
 235:pathfinding.c **** 
 236:pathfinding.c ****     while (current.x != -1 && current.y != -1) {
 1655              		.loc 1 236 0
 1656 002a 38E0     		b	.L49
 1657              	.L53:
 237:pathfinding.c ****         current = came_from[current.y][current.x];
 1658              		.loc 1 237 0
 1659 002c 7B68     		ldr	r3, [r7, #4]
 1660 002e 1A46     		mov	r2, r3
 1661 0030 9823     		movs	r3, #152
 1662 0032 03FB02F3 		mul	r3, r3, r2
 1663 0036 BA68     		ldr	r2, [r7, #8]
 1664 0038 D118     		adds	r1, r2, r3
 1665 003a 3B68     		ldr	r3, [r7]
 1666 003c 3A46     		mov	r2, r7
 1667 003e DB00     		lsls	r3, r3, #3
 1668 0040 0B44     		add	r3, r3, r1
 1669 0042 93E80300 		ldmia	r3, {r0, r1}
 1670 0046 82E80300 		stmia	r2, {r0, r1}
 238:pathfinding.c ****         map[current.y][current.x] = 8; // 8 IS MARK OF PATH
 1671              		.loc 1 238 0
 1672 004a 7B68     		ldr	r3, [r7, #4]
 1673 004c 1A46     		mov	r2, r3
 1674 004e 4C23     		movs	r3, #76
 1675 0050 03FB02F3 		mul	r3, r3, r2
 1676 0054 FA68     		ldr	r2, [r7, #12]
 1677 0056 1344     		add	r3, r3, r2
 1678 0058 3A68     		ldr	r2, [r7]
 1679 005a 0821     		movs	r1, #8
 1680 005c 43F82210 		str	r1, [r3, r2, lsl #2]
 239:pathfinding.c ****         if (current.x == 0 && current.y == 0) {
 1681              		.loc 1 239 0
 1682 0060 3B68     		ldr	r3, [r7]
ARM GAS  C:\Users\ikui753\AppData\Local\Temp\ccuCyN9r.s 			page 35


 1683 0062 002B     		cmp	r3, #0
 1684 0064 05D1     		bne	.L50
 1685              		.loc 1 239 0 is_stmt 0 discriminator 1
 1686 0066 7B68     		ldr	r3, [r7, #4]
 1687 0068 002B     		cmp	r3, #0
 1688 006a 02D1     		bne	.L50
 240:pathfinding.c ****             crashindicator++;
 1689              		.loc 1 240 0 is_stmt 1
 1690 006c 7B69     		ldr	r3, [r7, #20]
 1691 006e 0133     		adds	r3, r3, #1
 1692 0070 7B61     		str	r3, [r7, #20]
 1693              	.L50:
 241:pathfinding.c ****         }
 242:pathfinding.c ****         if (crashindicator > 3) {
 1694              		.loc 1 242 0
 1695 0072 7B69     		ldr	r3, [r7, #20]
 1696 0074 032B     		cmp	r3, #3
 1697 0076 1BDC     		bgt	.L55
 243:pathfinding.c ****             //printf("INFINTIE LOOP OCCURED: 0,0 EVERYWHERE - CRASH\n");
 244:pathfinding.c ****             break;
 245:pathfinding.c ****         }
 246:pathfinding.c ****         // we should be at the start
 247:pathfinding.c ****         if (current.x == start.x && current.y == start.y) {
 1698              		.loc 1 247 0
 1699 0078 3A68     		ldr	r2, [r7]
 1700 007a 3B6A     		ldr	r3, [r7, #32]
 1701 007c 9A42     		cmp	r2, r3
 1702 007e 0ED1     		bne	.L49
 1703              		.loc 1 247 0 is_stmt 0 discriminator 1
 1704 0080 7A68     		ldr	r2, [r7, #4]
 1705 0082 7B6A     		ldr	r3, [r7, #36]
 1706 0084 9A42     		cmp	r2, r3
 1707 0086 0AD1     		bne	.L49
 248:pathfinding.c ****             map[current.y][current.x] = 2; // 2 IS START OF PATH
 1708              		.loc 1 248 0 is_stmt 1
 1709 0088 7B68     		ldr	r3, [r7, #4]
 1710 008a 1A46     		mov	r2, r3
 1711 008c 4C23     		movs	r3, #76
 1712 008e 03FB02F3 		mul	r3, r3, r2
 1713 0092 FA68     		ldr	r2, [r7, #12]
 1714 0094 1344     		add	r3, r3, r2
 1715 0096 3A68     		ldr	r2, [r7]
 1716 0098 0221     		movs	r1, #2
 1717 009a 43F82210 		str	r1, [r3, r2, lsl #2]
 1718              	.L49:
 236:pathfinding.c ****         current = came_from[current.y][current.x];
 1719              		.loc 1 236 0
 1720 009e 3B68     		ldr	r3, [r7]
 1721 00a0 B3F1FF3F 		cmp	r3, #-1
 1722 00a4 05D0     		beq	.L56
 236:pathfinding.c ****         current = came_from[current.y][current.x];
 1723              		.loc 1 236 0 is_stmt 0 discriminator 1
 1724 00a6 7B68     		ldr	r3, [r7, #4]
 1725 00a8 B3F1FF3F 		cmp	r3, #-1
 1726 00ac BED1     		bne	.L53
 249:pathfinding.c ****         }
 250:pathfinding.c ****     }
ARM GAS  C:\Users\ikui753\AppData\Local\Temp\ccuCyN9r.s 			page 36


 251:pathfinding.c ****     // for (int i = 0; i < MAX_ROWS; i++) {
 252:pathfinding.c ****     //     for (int j = 0; j < MAX_COLS; j++) {
 253:pathfinding.c ****     //         printf("%c", map[i][j]);
 254:pathfinding.c ****     //     }
 255:pathfinding.c ****     //     printf("\n");
 256:pathfinding.c ****     // } 
 257:pathfinding.c **** }
 1727              		.loc 1 257 0 is_stmt 1
 1728 00ae 00E0     		b	.L56
 1729              	.L55:
 244:pathfinding.c ****         }
 1730              		.loc 1 244 0
 1731 00b0 00BF     		nop
 1732              	.L56:
 1733              		.loc 1 257 0
 1734 00b2 00BF     		nop
 1735 00b4 1C37     		adds	r7, r7, #28
 1736              		.cfi_def_cfa_offset 4
 1737 00b6 BD46     		mov	sp, r7
 1738              		.cfi_def_cfa_register 13
 1739              		@ sp needed
 1740 00b8 80BC     		pop	{r7}
 1741              		.cfi_restore 7
 1742              		.cfi_def_cfa_offset 0
 1743 00ba 7047     		bx	lr
 1744              		.cfi_endproc
 1745              	.LFE70:
 1746              		.size	reconstruct_path, .-reconstruct_path
 1747              		.section	.rodata
 1748              		.align	2
 1749              	.LC2:
 1750 0010 00000000 		.word	0
 1751 0014 FFFFFFFF 		.word	-1
 1752 0018 00000000 		.word	0
 1753 001c 01000000 		.word	1
 1754 0020 FFFFFFFF 		.word	-1
 1755 0024 00000000 		.word	0
 1756 0028 01000000 		.word	1
 1757 002c 00000000 		.word	0
 1758              		.align	2
 1759              	.LC3:
 1760 0030 FFFFFFFF 		.word	-1
 1761 0034 FFFFFFFF 		.word	-1
 1762              		.section	.text.astar,"ax",%progbits
 1763              		.align	2
 1764              		.global	astar
 1765              		.thumb
 1766              		.thumb_func
 1767              		.type	astar, %function
 1768              	astar:
 1769              	.LFB71:
 258:pathfinding.c **** 
 259:pathfinding.c **** // Astar algorithm. Uses two parameters, G and H, to determine the best path to the target node.
 260:pathfinding.c **** void astar(int map[MAX_ROWS][MAX_COLS], Position start, Position end) {
 1770              		.loc 1 260 0
 1771              		.cfi_startproc
 1772              		@ args = 12, pretend = 8, frame = 3904
ARM GAS  C:\Users\ikui753\AppData\Local\Temp\ccuCyN9r.s 			page 37


 1773              		@ frame_needed = 1, uses_anonymous_args = 0
 1774 0000 82B0     		sub	sp, sp, #8
 1775              		.cfi_def_cfa_offset 8
 1776 0002 B0B5     		push	{r4, r5, r7, lr}
 1777              		.cfi_def_cfa_offset 24
 1778              		.cfi_offset 4, -24
 1779              		.cfi_offset 5, -20
 1780              		.cfi_offset 7, -16
 1781              		.cfi_offset 14, -12
 1782 0004 ADF6487D 		subw	sp, sp, #3912
 1783              		.cfi_def_cfa_offset 3936
 1784 0008 02AF     		add	r7, sp, #8
 1785              		.cfi_def_cfa 7, 3928
 1786 000a 07F10C04 		add	r4, r7, #12
 1787 000e 2060     		str	r0, [r4]
 1788 0010 381D     		adds	r0, r7, #4
 1789 0012 80E80600 		stmia	r0, {r1, r2}
 1790 0016 C7F8543F 		str	r3, [r7, #3924]
 261:pathfinding.c ****     // OPEN - the set of nodes to be evalutated
 262:pathfinding.c ****     // CLOSED - the set of nodes already evaluated
 263:pathfinding.c ****     arraylist* open_list = arraylist_create();
 1791              		.loc 1 263 0
 1792 001a FFF7FEFF 		bl	arraylist_create
 1793 001e C7F8100F 		str	r0, [r7, #3856]
 264:pathfinding.c ****     bool closed_list[MAX_ROWS][MAX_COLS] = {false};
 1794              		.loc 1 264 0
 1795 0022 07F55D63 		add	r3, r7, #3536
 1796 0026 1846     		mov	r0, r3
 1797 0028 40F21D13 		movw	r3, #285
 1798 002c 1A46     		mov	r2, r3
 1799 002e 0021     		movs	r1, #0
 1800 0030 FFF7FEFF 		bl	memset
 265:pathfinding.c ****     Position came_from[MAX_ROWS][MAX_COLS] = {0,0};
 1801              		.loc 1 265 0
 1802 0034 07F59D63 		add	r3, r7, #1256
 1803 0038 1846     		mov	r0, r3
 1804 003a 40F6E803 		movw	r3, #2280
 1805 003e 1A46     		mov	r2, r3
 1806 0040 0021     		movs	r1, #0
 1807 0042 FFF7FEFF 		bl	memset
 266:pathfinding.c ****     Node *nodes[MAX_ROWS][MAX_COLS] = {0};
 1808              		.loc 1 266 0
 1809 0046 07F17403 		add	r3, r7, #116
 1810 004a 1846     		mov	r0, r3
 1811 004c 40F27443 		movw	r3, #1140
 1812 0050 1A46     		mov	r2, r3
 1813 0052 0021     		movs	r1, #0
 1814 0054 FFF7FEFF 		bl	memset
 1815              	.LBB14:
 267:pathfinding.c **** 
 268:pathfinding.c ****     for (int i = 0; i < MAX_ROWS; i++) {
 1816              		.loc 1 268 0
 1817 0058 0023     		movs	r3, #0
 1818 005a C7F83C3F 		str	r3, [r7, #3900]
 1819 005e 99E0     		b	.L58
 1820              	.L61:
 1821              	.LBB15:
ARM GAS  C:\Users\ikui753\AppData\Local\Temp\ccuCyN9r.s 			page 38


 269:pathfinding.c ****         for (int j = 0; j < MAX_COLS; j++) {
 1822              		.loc 1 269 0
 1823 0060 0023     		movs	r3, #0
 1824 0062 C7F8383F 		str	r3, [r7, #3896]
 1825 0066 8BE0     		b	.L59
 1826              	.L60:
 270:pathfinding.c ****             nodes[i][j] = (Node*)malloc(sizeof(Node));
 1827              		.loc 1 270 0 discriminator 3
 1828 0068 1C20     		movs	r0, #28
 1829 006a FFF7FEFF 		bl	malloc
 1830 006e 0346     		mov	r3, r0
 1831 0070 1846     		mov	r0, r3
 1832 0072 07F17401 		add	r1, r7, #116
 1833 0076 D7F83C2F 		ldr	r2, [r7, #3900]
 1834 007a 1346     		mov	r3, r2
 1835 007c DB00     		lsls	r3, r3, #3
 1836 007e 1344     		add	r3, r3, r2
 1837 0080 5B00     		lsls	r3, r3, #1
 1838 0082 1344     		add	r3, r3, r2
 1839 0084 D7F8382F 		ldr	r2, [r7, #3896]
 1840 0088 1344     		add	r3, r3, r2
 1841 008a 41F82300 		str	r0, [r1, r3, lsl #2]
 271:pathfinding.c ****             nodes[i][j]->f = 0;
 1842              		.loc 1 271 0 discriminator 3
 1843 008e 07F17401 		add	r1, r7, #116
 1844 0092 D7F83C2F 		ldr	r2, [r7, #3900]
 1845 0096 1346     		mov	r3, r2
 1846 0098 DB00     		lsls	r3, r3, #3
 1847 009a 1344     		add	r3, r3, r2
 1848 009c 5B00     		lsls	r3, r3, #1
 1849 009e 1344     		add	r3, r3, r2
 1850 00a0 D7F8382F 		ldr	r2, [r7, #3896]
 1851 00a4 1344     		add	r3, r3, r2
 1852 00a6 51F82330 		ldr	r3, [r1, r3, lsl #2]
 1853 00aa 0022     		movs	r2, #0
 1854 00ac 1A61     		str	r2, [r3, #16]
 272:pathfinding.c ****             nodes[i][j]->g = 0;
 1855              		.loc 1 272 0 discriminator 3
 1856 00ae 07F17401 		add	r1, r7, #116
 1857 00b2 D7F83C2F 		ldr	r2, [r7, #3900]
 1858 00b6 1346     		mov	r3, r2
 1859 00b8 DB00     		lsls	r3, r3, #3
 1860 00ba 1344     		add	r3, r3, r2
 1861 00bc 5B00     		lsls	r3, r3, #1
 1862 00be 1344     		add	r3, r3, r2
 1863 00c0 D7F8382F 		ldr	r2, [r7, #3896]
 1864 00c4 1344     		add	r3, r3, r2
 1865 00c6 51F82330 		ldr	r3, [r1, r3, lsl #2]
 1866 00ca 0022     		movs	r2, #0
 1867 00cc 5A61     		str	r2, [r3, #20]
 273:pathfinding.c ****             nodes[i][j]->h = 0;
 1868              		.loc 1 273 0 discriminator 3
 1869 00ce 07F17401 		add	r1, r7, #116
 1870 00d2 D7F83C2F 		ldr	r2, [r7, #3900]
 1871 00d6 1346     		mov	r3, r2
 1872 00d8 DB00     		lsls	r3, r3, #3
 1873 00da 1344     		add	r3, r3, r2
ARM GAS  C:\Users\ikui753\AppData\Local\Temp\ccuCyN9r.s 			page 39


 1874 00dc 5B00     		lsls	r3, r3, #1
 1875 00de 1344     		add	r3, r3, r2
 1876 00e0 D7F8382F 		ldr	r2, [r7, #3896]
 1877 00e4 1344     		add	r3, r3, r2
 1878 00e6 51F82330 		ldr	r3, [r1, r3, lsl #2]
 1879 00ea 0022     		movs	r2, #0
 1880 00ec 9A61     		str	r2, [r3, #24]
 274:pathfinding.c ****             nodes[i][j]->parent.x = -1;
 1881              		.loc 1 274 0 discriminator 3
 1882 00ee 07F17401 		add	r1, r7, #116
 1883 00f2 D7F83C2F 		ldr	r2, [r7, #3900]
 1884 00f6 1346     		mov	r3, r2
 1885 00f8 DB00     		lsls	r3, r3, #3
 1886 00fa 1344     		add	r3, r3, r2
 1887 00fc 5B00     		lsls	r3, r3, #1
 1888 00fe 1344     		add	r3, r3, r2
 1889 0100 D7F8382F 		ldr	r2, [r7, #3896]
 1890 0104 1344     		add	r3, r3, r2
 1891 0106 51F82330 		ldr	r3, [r1, r3, lsl #2]
 1892 010a 4FF0FF32 		mov	r2, #-1
 1893 010e 1A60     		str	r2, [r3]
 275:pathfinding.c ****             nodes[i][j]->parent.y = -1;
 1894              		.loc 1 275 0 discriminator 3
 1895 0110 07F17401 		add	r1, r7, #116
 1896 0114 D7F83C2F 		ldr	r2, [r7, #3900]
 1897 0118 1346     		mov	r3, r2
 1898 011a DB00     		lsls	r3, r3, #3
 1899 011c 1344     		add	r3, r3, r2
 1900 011e 5B00     		lsls	r3, r3, #1
 1901 0120 1344     		add	r3, r3, r2
 1902 0122 D7F8382F 		ldr	r2, [r7, #3896]
 1903 0126 1344     		add	r3, r3, r2
 1904 0128 51F82330 		ldr	r3, [r1, r3, lsl #2]
 1905 012c 4FF0FF32 		mov	r2, #-1
 1906 0130 5A60     		str	r2, [r3, #4]
 276:pathfinding.c ****             nodes[i][j]->position.x = -1;
 1907              		.loc 1 276 0 discriminator 3
 1908 0132 07F17401 		add	r1, r7, #116
 1909 0136 D7F83C2F 		ldr	r2, [r7, #3900]
 1910 013a 1346     		mov	r3, r2
 1911 013c DB00     		lsls	r3, r3, #3
 1912 013e 1344     		add	r3, r3, r2
 1913 0140 5B00     		lsls	r3, r3, #1
 1914 0142 1344     		add	r3, r3, r2
 1915 0144 D7F8382F 		ldr	r2, [r7, #3896]
 1916 0148 1344     		add	r3, r3, r2
 1917 014a 51F82330 		ldr	r3, [r1, r3, lsl #2]
 1918 014e 4FF0FF32 		mov	r2, #-1
 1919 0152 9A60     		str	r2, [r3, #8]
 277:pathfinding.c ****             nodes[i][j]->position.y = -1;
 1920              		.loc 1 277 0 discriminator 3
 1921 0154 07F17401 		add	r1, r7, #116
 1922 0158 D7F83C2F 		ldr	r2, [r7, #3900]
 1923 015c 1346     		mov	r3, r2
 1924 015e DB00     		lsls	r3, r3, #3
 1925 0160 1344     		add	r3, r3, r2
 1926 0162 5B00     		lsls	r3, r3, #1
ARM GAS  C:\Users\ikui753\AppData\Local\Temp\ccuCyN9r.s 			page 40


 1927 0164 1344     		add	r3, r3, r2
 1928 0166 D7F8382F 		ldr	r2, [r7, #3896]
 1929 016a 1344     		add	r3, r3, r2
 1930 016c 51F82330 		ldr	r3, [r1, r3, lsl #2]
 1931 0170 4FF0FF32 		mov	r2, #-1
 1932 0174 DA60     		str	r2, [r3, #12]
 269:pathfinding.c ****             nodes[i][j] = (Node*)malloc(sizeof(Node));
 1933              		.loc 1 269 0 discriminator 3
 1934 0176 D7F8383F 		ldr	r3, [r7, #3896]
 1935 017a 0133     		adds	r3, r3, #1
 1936 017c C7F8383F 		str	r3, [r7, #3896]
 1937              	.L59:
 269:pathfinding.c ****             nodes[i][j] = (Node*)malloc(sizeof(Node));
 1938              		.loc 1 269 0 is_stmt 0 discriminator 1
 1939 0180 D7F8383F 		ldr	r3, [r7, #3896]
 1940 0184 122B     		cmp	r3, #18
 1941 0186 7FF76FAF 		ble	.L60
 1942              	.LBE15:
 268:pathfinding.c ****         for (int j = 0; j < MAX_COLS; j++) {
 1943              		.loc 1 268 0 is_stmt 1 discriminator 2
 1944 018a D7F83C3F 		ldr	r3, [r7, #3900]
 1945 018e 0133     		adds	r3, r3, #1
 1946 0190 C7F83C3F 		str	r3, [r7, #3900]
 1947              	.L58:
 268:pathfinding.c ****         for (int j = 0; j < MAX_COLS; j++) {
 1948              		.loc 1 268 0 is_stmt 0 discriminator 1
 1949 0194 D7F83C3F 		ldr	r3, [r7, #3900]
 1950 0198 0E2B     		cmp	r3, #14
 1951 019a 7FF761AF 		ble	.L61
 1952              	.LBE14:
 278:pathfinding.c ****         }
 279:pathfinding.c ****     }
 280:pathfinding.c **** 
 281:pathfinding.c ****     // Create moves list
 282:pathfinding.c ****     Moves moves_list[4] = {
 1953              		.loc 1 282 0 is_stmt 1
 1954 019e 07F15403 		add	r3, r7, #84
 1955 01a2 C54A     		ldr	r2, .L86
 1956 01a4 1C46     		mov	r4, r3
 1957 01a6 1546     		mov	r5, r2
 1958 01a8 0FCD     		ldmia	r5!, {r0, r1, r2, r3}
 1959 01aa 0FC4     		stmia	r4!, {r0, r1, r2, r3}
 1960 01ac 95E80F00 		ldmia	r5, {r0, r1, r2, r3}
 1961 01b0 84E80F00 		stmia	r4, {r0, r1, r2, r3}
 283:pathfinding.c ****         {.dx = 0, .dy = -1}, // up
 284:pathfinding.c ****         {.dx = 0, .dy = 1}, // down
 285:pathfinding.c ****         {.dx = -1, .dy = 0}, // left
 286:pathfinding.c ****         {.dx = 1, .dy = 0}, // right
 287:pathfinding.c ****     };
 288:pathfinding.c **** 
 289:pathfinding.c ****     // add the start node to the open list
 290:pathfinding.c ****     // f = g + h
 291:pathfinding.c ****     // g = distance from current node to the start node
 292:pathfinding.c ****     // h = distance from current node to the target node.
 293:pathfinding.c ****     Node start_node = {
 1962              		.loc 1 293 0
 1963 01b4 07F13803 		add	r3, r7, #56
ARM GAS  C:\Users\ikui753\AppData\Local\Temp\ccuCyN9r.s 			page 41


 1964 01b8 4FF0FF32 		mov	r2, #-1
 1965 01bc 1A60     		str	r2, [r3]
 1966 01be 07F13803 		add	r3, r7, #56
 1967 01c2 4FF0FF32 		mov	r2, #-1
 1968 01c6 5A60     		str	r2, [r3, #4]
 294:pathfinding.c ****         .parent = {.x = -1, .y = -1},
 295:pathfinding.c ****         .position = {.x = start.x, .y = start.y},
 1969              		.loc 1 295 0
 1970 01c8 3B1D     		adds	r3, r7, #4
 1971 01ca 1A68     		ldr	r2, [r3]
 293:pathfinding.c ****         .parent = {.x = -1, .y = -1},
 1972              		.loc 1 293 0
 1973 01cc 07F13803 		add	r3, r7, #56
 1974 01d0 9A60     		str	r2, [r3, #8]
 1975              		.loc 1 295 0
 1976 01d2 3B1D     		adds	r3, r7, #4
 1977 01d4 5A68     		ldr	r2, [r3, #4]
 293:pathfinding.c ****         .parent = {.x = -1, .y = -1},
 1978              		.loc 1 293 0
 1979 01d6 07F13803 		add	r3, r7, #56
 1980 01da DA60     		str	r2, [r3, #12]
 1981 01dc 07F13803 		add	r3, r7, #56
 1982 01e0 0022     		movs	r2, #0
 1983 01e2 1A61     		str	r2, [r3, #16]
 1984 01e4 07F13803 		add	r3, r7, #56
 1985 01e8 0022     		movs	r2, #0
 1986 01ea 5A61     		str	r2, [r3, #20]
 296:pathfinding.c ****         .f = 0,
 297:pathfinding.c ****         .g = 0,
 298:pathfinding.c ****         .h = heuristic(start, end)
 1987              		.loc 1 298 0
 1988 01ec 391D     		adds	r1, r7, #4
 1989 01ee 07F65473 		addw	r3, r7, #3924
 1990 01f2 0CCB     		ldmia	r3, {r2, r3}
 1991 01f4 03C9     		ldmia	r1, {r0, r1}
 1992 01f6 FFF7FEFF 		bl	heuristic
 1993 01fa 0246     		mov	r2, r0
 293:pathfinding.c ****         .parent = {.x = -1, .y = -1},
 1994              		.loc 1 293 0
 1995 01fc 07F13803 		add	r3, r7, #56
 1996 0200 9A61     		str	r2, [r3, #24]
 299:pathfinding.c ****     };
 300:pathfinding.c **** 
 301:pathfinding.c ****     nodes[start.y][start.x] = &start_node;
 1997              		.loc 1 301 0
 1998 0202 3B1D     		adds	r3, r7, #4
 1999 0204 5A68     		ldr	r2, [r3, #4]
 2000 0206 3B1D     		adds	r3, r7, #4
 2001 0208 1868     		ldr	r0, [r3]
 2002 020a 07F17401 		add	r1, r7, #116
 2003 020e 1346     		mov	r3, r2
 2004 0210 DB00     		lsls	r3, r3, #3
 2005 0212 1344     		add	r3, r3, r2
 2006 0214 5B00     		lsls	r3, r3, #1
 2007 0216 1344     		add	r3, r3, r2
 2008 0218 0344     		add	r3, r3, r0
 2009 021a 07F13802 		add	r2, r7, #56
ARM GAS  C:\Users\ikui753\AppData\Local\Temp\ccuCyN9r.s 			page 42


 2010 021e 41F82320 		str	r2, [r1, r3, lsl #2]
 302:pathfinding.c ****     arraylist_add(open_list, nodes[start.y][start.x]);
 2011              		.loc 1 302 0
 2012 0222 3B1D     		adds	r3, r7, #4
 2013 0224 5A68     		ldr	r2, [r3, #4]
 2014 0226 3B1D     		adds	r3, r7, #4
 2015 0228 1868     		ldr	r0, [r3]
 2016 022a 07F17401 		add	r1, r7, #116
 2017 022e 1346     		mov	r3, r2
 2018 0230 DB00     		lsls	r3, r3, #3
 2019 0232 1344     		add	r3, r3, r2
 2020 0234 5B00     		lsls	r3, r3, #1
 2021 0236 1344     		add	r3, r3, r2
 2022 0238 0344     		add	r3, r3, r0
 2023 023a 51F82330 		ldr	r3, [r1, r3, lsl #2]
 2024 023e 1946     		mov	r1, r3
 2025 0240 D7F8100F 		ldr	r0, [r7, #3856]
 2026 0244 FFF7FEFF 		bl	arraylist_add
 303:pathfinding.c ****     came_from[start.y][start.x] = start_node.parent;
 2027              		.loc 1 303 0
 2028 0248 3B1D     		adds	r3, r7, #4
 2029 024a 5A68     		ldr	r2, [r3, #4]
 2030 024c 3B1D     		adds	r3, r7, #4
 2031 024e 1868     		ldr	r0, [r3]
 2032 0250 07F59D61 		add	r1, r7, #1256
 2033 0254 1346     		mov	r3, r2
 2034 0256 DB00     		lsls	r3, r3, #3
 2035 0258 1344     		add	r3, r3, r2
 2036 025a 5B00     		lsls	r3, r3, #1
 2037 025c 1344     		add	r3, r3, r2
 2038 025e 0344     		add	r3, r3, r0
 2039 0260 07F13802 		add	r2, r7, #56
 2040 0264 DB00     		lsls	r3, r3, #3
 2041 0266 0B44     		add	r3, r3, r1
 2042 0268 92E80300 		ldmia	r2, {r0, r1}
 2043 026c 83E80300 		stmia	r3, {r0, r1}
 2044              	.L82:
 2045              	.LBB16:
 304:pathfinding.c **** 
 305:pathfinding.c ****     // loop
 306:pathfinding.c ****     while (true) {
 307:pathfinding.c ****         Position current = {-1, -1};
 2046              		.loc 1 307 0
 2047 0270 07F13003 		add	r3, r7, #48
 2048 0274 914A     		ldr	r2, .L86+4
 2049 0276 92E80300 		ldmia	r2, {r0, r1}
 2050 027a 83E80300 		stmia	r3, {r0, r1}
 308:pathfinding.c ****         Node* currentNode;
 309:pathfinding.c ****         int nodeIndex = 0;
 2051              		.loc 1 309 0
 2052 027e 0023     		movs	r3, #0
 2053 0280 C7F8303F 		str	r3, [r7, #3888]
 310:pathfinding.c ****         int min_f = -1;
 2054              		.loc 1 310 0
 2055 0284 4FF0FF33 		mov	r3, #-1
 2056 0288 C7F82C3F 		str	r3, [r7, #3884]
 311:pathfinding.c ****         // current node = node in open list with lowest f value
ARM GAS  C:\Users\ikui753\AppData\Local\Temp\ccuCyN9r.s 			page 43


 312:pathfinding.c ****         // Find the node with the lowest f value in the open list
 313:pathfinding.c ****         int openlistlength = arraylist_size(open_list);
 2057              		.loc 1 313 0
 2058 028c D7F8100F 		ldr	r0, [r7, #3856]
 2059 0290 FFF7FEFF 		bl	arraylist_size
 2060 0294 0346     		mov	r3, r0
 2061 0296 C7F8283F 		str	r3, [r7, #3880]
 2062              	.LBB17:
 314:pathfinding.c ****         for (int i = 0; i < openlistlength; i++) {
 2063              		.loc 1 314 0
 2064 029a 0023     		movs	r3, #0
 2065 029c C7F8243F 		str	r3, [r7, #3876]
 2066 02a0 48E0     		b	.L62
 2067              	.L65:
 315:pathfinding.c ****             currentNode = (Node*)arraylist_get(open_list, i);
 2068              		.loc 1 315 0
 2069 02a2 D7F8243F 		ldr	r3, [r7, #3876]
 2070 02a6 1946     		mov	r1, r3
 2071 02a8 D7F8100F 		ldr	r0, [r7, #3856]
 2072 02ac FFF7FEFF 		bl	arraylist_get
 2073 02b0 C7F8340F 		str	r0, [r7, #3892]
 316:pathfinding.c ****             if (currentNode->f >= 0 && (!closed_list[currentNode->position.y][currentNode->position
 2074              		.loc 1 316 0
 2075 02b4 D7F8343F 		ldr	r3, [r7, #3892]
 2076 02b8 1B69     		ldr	r3, [r3, #16]
 2077 02ba 002B     		cmp	r3, #0
 2078 02bc 35DB     		blt	.L63
 2079              		.loc 1 316 0 is_stmt 0 discriminator 1
 2080 02be D7F8343F 		ldr	r3, [r7, #3892]
 2081 02c2 DA68     		ldr	r2, [r3, #12]
 2082 02c4 D7F8343F 		ldr	r3, [r7, #3892]
 2083 02c8 9968     		ldr	r1, [r3, #8]
 2084 02ca 07F55D60 		add	r0, r7, #3536
 2085 02ce 1346     		mov	r3, r2
 2086 02d0 DB00     		lsls	r3, r3, #3
 2087 02d2 1344     		add	r3, r3, r2
 2088 02d4 5B00     		lsls	r3, r3, #1
 2089 02d6 1344     		add	r3, r3, r2
 2090 02d8 0344     		add	r3, r3, r0
 2091 02da 0B44     		add	r3, r3, r1
 2092 02dc 1B78     		ldrb	r3, [r3]	@ zero_extendqisi2
 2093 02de 83F00103 		eor	r3, r3, #1
 2094 02e2 DBB2     		uxtb	r3, r3
 2095 02e4 002B     		cmp	r3, #0
 2096 02e6 20D0     		beq	.L63
 2097              		.loc 1 316 0 discriminator 2
 2098 02e8 D7F82C3F 		ldr	r3, [r7, #3884]
 2099 02ec B3F1FF3F 		cmp	r3, #-1
 2100 02f0 06D0     		beq	.L64
 317:pathfinding.c ****                 (min_f == -1 || currentNode->f < min_f)) {
 2101              		.loc 1 317 0 is_stmt 1
 2102 02f2 D7F8343F 		ldr	r3, [r7, #3892]
 2103 02f6 1A69     		ldr	r2, [r3, #16]
 2104 02f8 D7F82C3F 		ldr	r3, [r7, #3884]
 2105 02fc 9A42     		cmp	r2, r3
 2106 02fe 14DA     		bge	.L63
 2107              	.L64:
ARM GAS  C:\Users\ikui753\AppData\Local\Temp\ccuCyN9r.s 			page 44


 318:pathfinding.c ****                 min_f = currentNode->f;
 2108              		.loc 1 318 0
 2109 0300 D7F8343F 		ldr	r3, [r7, #3892]
 2110 0304 1B69     		ldr	r3, [r3, #16]
 2111 0306 C7F82C3F 		str	r3, [r7, #3884]
 319:pathfinding.c ****                 current.x = currentNode->position.x;
 2112              		.loc 1 319 0
 2113 030a D7F8343F 		ldr	r3, [r7, #3892]
 2114 030e 9A68     		ldr	r2, [r3, #8]
 2115 0310 07F13003 		add	r3, r7, #48
 2116 0314 1A60     		str	r2, [r3]
 320:pathfinding.c ****                 current.y = currentNode->position.y;
 2117              		.loc 1 320 0
 2118 0316 D7F8343F 		ldr	r3, [r7, #3892]
 2119 031a DA68     		ldr	r2, [r3, #12]
 2120 031c 07F13003 		add	r3, r7, #48
 2121 0320 5A60     		str	r2, [r3, #4]
 321:pathfinding.c ****                 nodeIndex = i;
 2122              		.loc 1 321 0
 2123 0322 D7F8243F 		ldr	r3, [r7, #3876]
 2124 0326 C7F8303F 		str	r3, [r7, #3888]
 2125              	.L63:
 314:pathfinding.c ****             currentNode = (Node*)arraylist_get(open_list, i);
 2126              		.loc 1 314 0 discriminator 2
 2127 032a D7F8243F 		ldr	r3, [r7, #3876]
 2128 032e 0133     		adds	r3, r3, #1
 2129 0330 C7F8243F 		str	r3, [r7, #3876]
 2130              	.L62:
 314:pathfinding.c ****             currentNode = (Node*)arraylist_get(open_list, i);
 2131              		.loc 1 314 0 is_stmt 0 discriminator 1
 2132 0334 D7F8242F 		ldr	r2, [r7, #3876]
 2133 0338 D7F8283F 		ldr	r3, [r7, #3880]
 2134 033c 9A42     		cmp	r2, r3
 2135 033e B0DB     		blt	.L65
 2136              	.LBE17:
 322:pathfinding.c ****             }
 323:pathfinding.c ****         }
 324:pathfinding.c **** 
 325:pathfinding.c ****         if (current.x <= -1 || current.y <= -1) {
 2137              		.loc 1 325 0 is_stmt 1
 2138 0340 07F13003 		add	r3, r7, #48
 2139 0344 1B68     		ldr	r3, [r3]
 2140 0346 002B     		cmp	r3, #0
 2141 0348 C0F2C081 		blt	.L66
 2142              		.loc 1 325 0 is_stmt 0 discriminator 1
 2143 034c 07F13003 		add	r3, r7, #48
 2144 0350 5B68     		ldr	r3, [r3, #4]
 2145 0352 002B     		cmp	r3, #0
 2146 0354 C0F2BA81 		blt	.L66
 326:pathfinding.c ****             //printf("NO PATH POSSIBLE!!!!!!\n");
 327:pathfinding.c ****             // No path possible
 328:pathfinding.c ****             break;
 329:pathfinding.c ****         }
 330:pathfinding.c ****         // if current is the target node // path has been found 
 331:pathfinding.c ****         if (current.x == end.x && current.y == end.y) {
 2147              		.loc 1 331 0 is_stmt 1
 2148 0358 07F13003 		add	r3, r7, #48
ARM GAS  C:\Users\ikui753\AppData\Local\Temp\ccuCyN9r.s 			page 45


 2149 035c 1A68     		ldr	r2, [r3]
 2150 035e D7F8543F 		ldr	r3, [r7, #3924]
 2151 0362 9A42     		cmp	r2, r3
 2152 0364 07D1     		bne	.L67
 2153              		.loc 1 331 0 is_stmt 0 discriminator 1
 2154 0366 07F13003 		add	r3, r7, #48
 2155 036a 5A68     		ldr	r2, [r3, #4]
 2156 036c D7F8583F 		ldr	r3, [r7, #3928]
 2157 0370 9A42     		cmp	r2, r3
 2158 0372 00F0AA81 		beq	.L83
 2159              	.L67:
 332:pathfinding.c ****             //printf("PATH FOUND!!!!!!!!!\n");
 333:pathfinding.c ****             // Path found
 334:pathfinding.c ****             break;
 335:pathfinding.c ****         }
 336:pathfinding.c **** 
 337:pathfinding.c ****         // remove current node from open list
 338:pathfinding.c ****         if (!(openlistlength == 0)) {
 2160              		.loc 1 338 0 is_stmt 1
 2161 0376 D7F8283F 		ldr	r3, [r7, #3880]
 2162 037a 002B     		cmp	r3, #0
 2163 037c 06D0     		beq	.L68
 339:pathfinding.c ****             arraylist_remove(open_list, nodeIndex);
 2164              		.loc 1 339 0
 2165 037e D7F8303F 		ldr	r3, [r7, #3888]
 2166 0382 1946     		mov	r1, r3
 2167 0384 D7F8100F 		ldr	r0, [r7, #3856]
 2168 0388 FFF7FEFF 		bl	arraylist_remove
 2169              	.L68:
 340:pathfinding.c ****         }
 341:pathfinding.c ****         openlistlength = arraylist_size(open_list);
 2170              		.loc 1 341 0
 2171 038c D7F8100F 		ldr	r0, [r7, #3856]
 2172 0390 FFF7FEFF 		bl	arraylist_size
 2173 0394 0346     		mov	r3, r0
 2174 0396 C7F8283F 		str	r3, [r7, #3880]
 342:pathfinding.c **** 
 343:pathfinding.c ****         // add current to closed list
 344:pathfinding.c ****         closed_list[current.y][current.x] = true;
 2175              		.loc 1 344 0
 2176 039a 07F13003 		add	r3, r7, #48
 2177 039e 5A68     		ldr	r2, [r3, #4]
 2178 03a0 07F13003 		add	r3, r7, #48
 2179 03a4 1968     		ldr	r1, [r3]
 2180 03a6 07F55D60 		add	r0, r7, #3536
 2181 03aa 1346     		mov	r3, r2
 2182 03ac DB00     		lsls	r3, r3, #3
 2183 03ae 1344     		add	r3, r3, r2
 2184 03b0 5B00     		lsls	r3, r3, #1
 2185 03b2 1344     		add	r3, r3, r2
 2186 03b4 0344     		add	r3, r3, r0
 2187 03b6 0B44     		add	r3, r3, r1
 2188 03b8 0122     		movs	r2, #1
 2189 03ba 1A70     		strb	r2, [r3]
 2190              	.LBB18:
 345:pathfinding.c **** 
 346:pathfinding.c ****         // foreach neighbour of the current node
ARM GAS  C:\Users\ikui753\AppData\Local\Temp\ccuCyN9r.s 			page 46


 347:pathfinding.c ****             // if new path to neighbour is shorter OR neighbour is not in OPEN
 348:pathfinding.c ****                 // set f cost of neighbour
 349:pathfinding.c ****                 // set parent of neighbour t ocurrent
 350:pathfinding.c ****                 // if neighbour is not in OPEN
 351:pathfinding.c ****                     // add neighbour to OPEN
 352:pathfinding.c ****     
 353:pathfinding.c ****         // foreach neighbour of the current node
 354:pathfinding.c ****         for (int i = 0; i < 4; i++) {
 2191              		.loc 1 354 0
 2192 03bc 0023     		movs	r3, #0
 2193 03be C7F8203F 		str	r3, [r7, #3872]
 2194 03c2 7CE1     		b	.L69
 2195              	.L81:
 2196              	.LBB19:
 355:pathfinding.c ****             int dx = moves_list[i].dx;
 2197              		.loc 1 355 0
 2198 03c4 07F15403 		add	r3, r7, #84
 2199 03c8 D7F8202F 		ldr	r2, [r7, #3872]
 2200 03cc 53F83230 		ldr	r3, [r3, r2, lsl #3]
 2201 03d0 C7F80C3F 		str	r3, [r7, #3852]
 356:pathfinding.c ****             int dy = moves_list[i].dy;
 2202              		.loc 1 356 0
 2203 03d4 07F15402 		add	r2, r7, #84
 2204 03d8 D7F8203F 		ldr	r3, [r7, #3872]
 2205 03dc DB00     		lsls	r3, r3, #3
 2206 03de 1344     		add	r3, r3, r2
 2207 03e0 5B68     		ldr	r3, [r3, #4]
 2208 03e2 C7F8083F 		str	r3, [r7, #3848]
 357:pathfinding.c **** 
 358:pathfinding.c ****             int neighbor_x = current.x + dx;
 2209              		.loc 1 358 0
 2210 03e6 07F13003 		add	r3, r7, #48
 2211 03ea 1A68     		ldr	r2, [r3]
 2212 03ec D7F80C3F 		ldr	r3, [r7, #3852]
 2213 03f0 1344     		add	r3, r3, r2
 2214 03f2 C7F8043F 		str	r3, [r7, #3844]
 359:pathfinding.c ****             int neighbor_y = current.y + dy;
 2215              		.loc 1 359 0
 2216 03f6 07F13003 		add	r3, r7, #48
 2217 03fa 5A68     		ldr	r2, [r3, #4]
 2218 03fc D7F8083F 		ldr	r3, [r7, #3848]
 2219 0400 1344     		add	r3, r3, r2
 2220 0402 C7F8003F 		str	r3, [r7, #3840]
 360:pathfinding.c ****             int tentative_g = currentNode->g + 1;
 2221              		.loc 1 360 0
 2222 0406 D7F8343F 		ldr	r3, [r7, #3892]
 2223 040a 5B69     		ldr	r3, [r3, #20]
 2224 040c 0133     		adds	r3, r3, #1
 2225 040e C7F8FC3E 		str	r3, [r7, #3836]
 361:pathfinding.c **** 
 362:pathfinding.c ****             Node neighborNode = {
 363:pathfinding.c ****                 .parent = {.x = current.x, .y = current.y},
 2226              		.loc 1 363 0
 2227 0412 07F13003 		add	r3, r7, #48
 2228 0416 1A68     		ldr	r2, [r3]
 362:pathfinding.c ****                 .parent = {.x = current.x, .y = current.y},
 2229              		.loc 1 362 0
ARM GAS  C:\Users\ikui753\AppData\Local\Temp\ccuCyN9r.s 			page 47


 2230 0418 07F11403 		add	r3, r7, #20
 2231 041c 1A60     		str	r2, [r3]
 2232              		.loc 1 363 0
 2233 041e 07F13003 		add	r3, r7, #48
 2234 0422 5A68     		ldr	r2, [r3, #4]
 362:pathfinding.c ****                 .parent = {.x = current.x, .y = current.y},
 2235              		.loc 1 362 0
 2236 0424 07F11403 		add	r3, r7, #20
 2237 0428 5A60     		str	r2, [r3, #4]
 2238 042a 07F11403 		add	r3, r7, #20
 2239 042e D7F8042F 		ldr	r2, [r7, #3844]
 2240 0432 9A60     		str	r2, [r3, #8]
 2241 0434 07F11403 		add	r3, r7, #20
 2242 0438 D7F8002F 		ldr	r2, [r7, #3840]
 2243 043c DA60     		str	r2, [r3, #12]
 2244 043e 07F11403 		add	r3, r7, #20
 2245 0442 0022     		movs	r2, #0
 2246 0444 1A61     		str	r2, [r3, #16]
 2247 0446 07F11403 		add	r3, r7, #20
 2248 044a D7F8FC2E 		ldr	r2, [r7, #3836]
 2249 044e 5A61     		str	r2, [r3, #20]
 2250 0450 07F11403 		add	r3, r7, #20
 2251 0454 0022     		movs	r2, #0
 2252 0456 9A61     		str	r2, [r3, #24]
 364:pathfinding.c ****                 .position = {.x = neighbor_x, .y = neighbor_y},
 365:pathfinding.c ****                 .f = 0,
 366:pathfinding.c ****                 .g = tentative_g,
 367:pathfinding.c ****                 .h = 0
 368:pathfinding.c ****             };
 369:pathfinding.c **** 
 370:pathfinding.c ****             // if neighbour is not travesrable or neighbour is in closed list
 371:pathfinding.c ****             // skip to the next neighbour
 372:pathfinding.c ****             if (!is_walkable(map, neighbor_x, neighbor_y)) {
 2253              		.loc 1 372 0
 2254 0458 07F10C03 		add	r3, r7, #12
 2255 045c D7F8002F 		ldr	r2, [r7, #3840]
 2256 0460 D7F8041F 		ldr	r1, [r7, #3844]
 2257 0464 1868     		ldr	r0, [r3]
 2258 0466 FFF7FEFF 		bl	is_walkable
 2259 046a 0346     		mov	r3, r0
 2260 046c 83F00103 		eor	r3, r3, #1
 2261 0470 DBB2     		uxtb	r3, r3
 2262 0472 002B     		cmp	r3, #0
 2263 0474 40F01B81 		bne	.L84
 373:pathfinding.c ****                 //printf("UNWALKABLE! NEIGHBOUR COORDS = %d, %d\n", neighbor_x, neighbor_y);
 374:pathfinding.c ****                 continue;
 375:pathfinding.c ****             }
 376:pathfinding.c ****             if (closed_list[neighbor_y][neighbor_x]) {
 2264              		.loc 1 376 0
 2265 0478 07F55D61 		add	r1, r7, #3536
 2266 047c D7F8002F 		ldr	r2, [r7, #3840]
 2267 0480 1346     		mov	r3, r2
 2268 0482 DB00     		lsls	r3, r3, #3
 2269 0484 1344     		add	r3, r3, r2
 2270 0486 5B00     		lsls	r3, r3, #1
 2271 0488 1344     		add	r3, r3, r2
 2272 048a CA18     		adds	r2, r1, r3
ARM GAS  C:\Users\ikui753\AppData\Local\Temp\ccuCyN9r.s 			page 48


 2273 048c D7F8043F 		ldr	r3, [r7, #3844]
 2274 0490 1344     		add	r3, r3, r2
 2275 0492 1B78     		ldrb	r3, [r3]	@ zero_extendqisi2
 2276 0494 002B     		cmp	r3, #0
 2277 0496 40F00C81 		bne	.L85
 377:pathfinding.c ****                 //printf("CLOSED LIST! NEIGHBOUR COORDS = %d, %d\n", neighbor_x, neighbor_y);
 378:pathfinding.c ****                 continue;
 379:pathfinding.c ****             }
 380:pathfinding.c **** 
 381:pathfinding.c ****             // if new path to neighbour is shorter OR 
 382:pathfinding.c ****             // neighbour is not in OPEN
 383:pathfinding.c ****             bool isNeighbourInOpen = false;
 2278              		.loc 1 383 0
 2279 049a 0023     		movs	r3, #0
 2280 049c 87F81F3F 		strb	r3, [r7, #3871]
 384:pathfinding.c **** 
 385:pathfinding.c ****             if (openlistlength == 0) {
 2281              		.loc 1 385 0
 2282 04a0 D7F8283F 		ldr	r3, [r7, #3880]
 2283 04a4 002B     		cmp	r3, #0
 2284 04a6 02D1     		bne	.L73
 386:pathfinding.c ****                 isNeighbourInOpen = false;
 2285              		.loc 1 386 0
 2286 04a8 0023     		movs	r3, #0
 2287 04aa 87F81F3F 		strb	r3, [r7, #3871]
 2288              	.L73:
 2289              	.LBB20:
 387:pathfinding.c ****             }
 388:pathfinding.c ****             // check if neighbour is in open list
 389:pathfinding.c ****             for (int i = 0; i < openlistlength; i++) {
 2290              		.loc 1 389 0
 2291 04ae 0023     		movs	r3, #0
 2292 04b0 C7F8183F 		str	r3, [r7, #3864]
 2293 04b4 27E0     		b	.L74
 2294              	.L87:
 2295 04b6 00BF     		.align	2
 2296              	.L86:
 2297 04b8 10000000 		.word	.LC2
 2298 04bc 30000000 		.word	.LC3
 2299              	.L76:
 2300              	.LBB21:
 390:pathfinding.c ****                 void* result = arraylist_get(open_list, i);
 2301              		.loc 1 390 0
 2302 04c0 D7F8183F 		ldr	r3, [r7, #3864]
 2303 04c4 1946     		mov	r1, r3
 2304 04c6 D7F8100F 		ldr	r0, [r7, #3856]
 2305 04ca FFF7FEFF 		bl	arraylist_get
 2306 04ce C7F8F80E 		str	r0, [r7, #3832]
 391:pathfinding.c ****                 Node* currentNode = (Node*)result;
 2307              		.loc 1 391 0
 2308 04d2 D7F8F83E 		ldr	r3, [r7, #3832]
 2309 04d6 C7F8F43E 		str	r3, [r7, #3828]
 392:pathfinding.c **** 
 393:pathfinding.c ****                 if (currentNode->position.x == neighbor_x && currentNode->position.y == neighbor_y)
 2310              		.loc 1 393 0
 2311 04da D7F8F43E 		ldr	r3, [r7, #3828]
 2312 04de 9A68     		ldr	r2, [r3, #8]
ARM GAS  C:\Users\ikui753\AppData\Local\Temp\ccuCyN9r.s 			page 49


 2313 04e0 D7F8043F 		ldr	r3, [r7, #3844]
 2314 04e4 9A42     		cmp	r2, r3
 2315 04e6 09D1     		bne	.L75
 2316              		.loc 1 393 0 is_stmt 0 discriminator 1
 2317 04e8 D7F8F43E 		ldr	r3, [r7, #3828]
 2318 04ec DA68     		ldr	r2, [r3, #12]
 2319 04ee D7F8003F 		ldr	r3, [r7, #3840]
 2320 04f2 9A42     		cmp	r2, r3
 2321 04f4 02D1     		bne	.L75
 394:pathfinding.c ****                     isNeighbourInOpen = true;
 2322              		.loc 1 394 0 is_stmt 1
 2323 04f6 0123     		movs	r3, #1
 2324 04f8 87F81F3F 		strb	r3, [r7, #3871]
 2325              	.L75:
 2326              	.LBE21:
 389:pathfinding.c ****                 void* result = arraylist_get(open_list, i);
 2327              		.loc 1 389 0 discriminator 2
 2328 04fc D7F8183F 		ldr	r3, [r7, #3864]
 2329 0500 0133     		adds	r3, r3, #1
 2330 0502 C7F8183F 		str	r3, [r7, #3864]
 2331              	.L74:
 389:pathfinding.c ****                 void* result = arraylist_get(open_list, i);
 2332              		.loc 1 389 0 is_stmt 0 discriminator 1
 2333 0506 D7F8182F 		ldr	r2, [r7, #3864]
 2334 050a D7F8283F 		ldr	r3, [r7, #3880]
 2335 050e 9A42     		cmp	r2, r3
 2336 0510 D6DB     		blt	.L76
 2337              	.LBE20:
 395:pathfinding.c ****                 }
 396:pathfinding.c ****             }
 397:pathfinding.c **** 
 398:pathfinding.c ****             // if neighbour is not in OPEN
 399:pathfinding.c ****             if (!isNeighbourInOpen){
 2338              		.loc 1 399 0 is_stmt 1
 2339 0512 97F81F3F 		ldrb	r3, [r7, #3871]
 2340 0516 83F00103 		eor	r3, r3, #1
 2341 051a DBB2     		uxtb	r3, r3
 2342 051c 002B     		cmp	r3, #0
 2343 051e 00F0C980 		beq	.L80
 400:pathfinding.c ****                 neighborNode.h = heuristic(neighborNode.position, end);
 2344              		.loc 1 400 0
 2345 0522 07F11401 		add	r1, r7, #20
 2346 0526 07F65473 		addw	r3, r7, #3924
 2347 052a 0CCB     		ldmia	r3, {r2, r3}
 2348 052c 0831     		adds	r1, r1, #8
 2349 052e 03C9     		ldmia	r1, {r0, r1}
 2350 0530 FFF7FEFF 		bl	heuristic
 2351 0534 0246     		mov	r2, r0
 2352 0536 07F11403 		add	r3, r7, #20
 2353 053a 9A61     		str	r2, [r3, #24]
 401:pathfinding.c ****                 // set f cost of neighbour
 402:pathfinding.c ****                 neighborNode.f = neighborNode.g + neighborNode.h;
 2354              		.loc 1 402 0
 2355 053c 07F11403 		add	r3, r7, #20
 2356 0540 5A69     		ldr	r2, [r3, #20]
 2357 0542 07F11403 		add	r3, r7, #20
 2358 0546 9B69     		ldr	r3, [r3, #24]
ARM GAS  C:\Users\ikui753\AppData\Local\Temp\ccuCyN9r.s 			page 50


 2359 0548 1A44     		add	r2, r2, r3
 2360 054a 07F11403 		add	r3, r7, #20
 2361 054e 1A61     		str	r2, [r3, #16]
 403:pathfinding.c ****                 // set parent of neighbour to current
 404:pathfinding.c ****                 neighborNode.parent = current;
 2362              		.loc 1 404 0
 2363 0550 07F11403 		add	r3, r7, #20
 2364 0554 07F13002 		add	r2, r7, #48
 2365 0558 92E80300 		ldmia	r2, {r0, r1}
 2366 055c 83E80300 		stmia	r3, {r0, r1}
 405:pathfinding.c ****                 came_from[neighbor_y][neighbor_x] = current;
 2367              		.loc 1 405 0
 2368 0560 07F59D61 		add	r1, r7, #1256
 2369 0564 D7F8002F 		ldr	r2, [r7, #3840]
 2370 0568 1346     		mov	r3, r2
 2371 056a DB00     		lsls	r3, r3, #3
 2372 056c 1344     		add	r3, r3, r2
 2373 056e 5B00     		lsls	r3, r3, #1
 2374 0570 1344     		add	r3, r3, r2
 2375 0572 D7F8042F 		ldr	r2, [r7, #3844]
 2376 0576 1344     		add	r3, r3, r2
 2377 0578 07F13002 		add	r2, r7, #48
 2378 057c DB00     		lsls	r3, r3, #3
 2379 057e 0B44     		add	r3, r3, r1
 2380 0580 92E80300 		ldmia	r2, {r0, r1}
 2381 0584 83E80300 		stmia	r3, {r0, r1}
 406:pathfinding.c ****                 // if neighbour is not in OPEN
 407:pathfinding.c ****                 // add neighbour to OPEN
 408:pathfinding.c **** 
 409:pathfinding.c ****                 nodes[neighbor_y][neighbor_x]->f = neighborNode.f;
 2382              		.loc 1 409 0
 2383 0588 07F17401 		add	r1, r7, #116
 2384 058c D7F8002F 		ldr	r2, [r7, #3840]
 2385 0590 1346     		mov	r3, r2
 2386 0592 DB00     		lsls	r3, r3, #3
 2387 0594 1344     		add	r3, r3, r2
 2388 0596 5B00     		lsls	r3, r3, #1
 2389 0598 1344     		add	r3, r3, r2
 2390 059a D7F8042F 		ldr	r2, [r7, #3844]
 2391 059e 1344     		add	r3, r3, r2
 2392 05a0 51F82330 		ldr	r3, [r1, r3, lsl #2]
 2393 05a4 07F11402 		add	r2, r7, #20
 2394 05a8 1269     		ldr	r2, [r2, #16]
 2395 05aa 1A61     		str	r2, [r3, #16]
 410:pathfinding.c ****                 nodes[neighbor_y][neighbor_x]->g = neighborNode.g;
 2396              		.loc 1 410 0
 2397 05ac 07F17401 		add	r1, r7, #116
 2398 05b0 D7F8002F 		ldr	r2, [r7, #3840]
 2399 05b4 1346     		mov	r3, r2
 2400 05b6 DB00     		lsls	r3, r3, #3
 2401 05b8 1344     		add	r3, r3, r2
 2402 05ba 5B00     		lsls	r3, r3, #1
 2403 05bc 1344     		add	r3, r3, r2
 2404 05be D7F8042F 		ldr	r2, [r7, #3844]
 2405 05c2 1344     		add	r3, r3, r2
 2406 05c4 51F82330 		ldr	r3, [r1, r3, lsl #2]
 2407 05c8 07F11402 		add	r2, r7, #20
ARM GAS  C:\Users\ikui753\AppData\Local\Temp\ccuCyN9r.s 			page 51


 2408 05cc 5269     		ldr	r2, [r2, #20]
 2409 05ce 5A61     		str	r2, [r3, #20]
 411:pathfinding.c ****                 nodes[neighbor_y][neighbor_x]->h = neighborNode.h;
 2410              		.loc 1 411 0
 2411 05d0 07F17401 		add	r1, r7, #116
 2412 05d4 D7F8002F 		ldr	r2, [r7, #3840]
 2413 05d8 1346     		mov	r3, r2
 2414 05da DB00     		lsls	r3, r3, #3
 2415 05dc 1344     		add	r3, r3, r2
 2416 05de 5B00     		lsls	r3, r3, #1
 2417 05e0 1344     		add	r3, r3, r2
 2418 05e2 D7F8042F 		ldr	r2, [r7, #3844]
 2419 05e6 1344     		add	r3, r3, r2
 2420 05e8 51F82330 		ldr	r3, [r1, r3, lsl #2]
 2421 05ec 07F11402 		add	r2, r7, #20
 2422 05f0 9269     		ldr	r2, [r2, #24]
 2423 05f2 9A61     		str	r2, [r3, #24]
 412:pathfinding.c ****                 nodes[neighbor_y][neighbor_x]->parent = neighborNode.parent;
 2424              		.loc 1 412 0
 2425 05f4 07F17401 		add	r1, r7, #116
 2426 05f8 D7F8002F 		ldr	r2, [r7, #3840]
 2427 05fc 1346     		mov	r3, r2
 2428 05fe DB00     		lsls	r3, r3, #3
 2429 0600 1344     		add	r3, r3, r2
 2430 0602 5B00     		lsls	r3, r3, #1
 2431 0604 1344     		add	r3, r3, r2
 2432 0606 D7F8042F 		ldr	r2, [r7, #3844]
 2433 060a 1344     		add	r3, r3, r2
 2434 060c 51F82330 		ldr	r3, [r1, r3, lsl #2]
 2435 0610 07F11402 		add	r2, r7, #20
 2436 0614 92E80300 		ldmia	r2, {r0, r1}
 2437 0618 83E80300 		stmia	r3, {r0, r1}
 413:pathfinding.c ****                 nodes[neighbor_y][neighbor_x]->position = neighborNode.position;
 2438              		.loc 1 413 0
 2439 061c 07F17401 		add	r1, r7, #116
 2440 0620 D7F8002F 		ldr	r2, [r7, #3840]
 2441 0624 1346     		mov	r3, r2
 2442 0626 DB00     		lsls	r3, r3, #3
 2443 0628 1344     		add	r3, r3, r2
 2444 062a 5B00     		lsls	r3, r3, #1
 2445 062c 1344     		add	r3, r3, r2
 2446 062e D7F8042F 		ldr	r2, [r7, #3844]
 2447 0632 1344     		add	r3, r3, r2
 2448 0634 51F82330 		ldr	r3, [r1, r3, lsl #2]
 2449 0638 07F11402 		add	r2, r7, #20
 2450 063c 0833     		adds	r3, r3, #8
 2451 063e 0832     		adds	r2, r2, #8
 2452 0640 92E80300 		ldmia	r2, {r0, r1}
 2453 0644 83E80300 		stmia	r3, {r0, r1}
 414:pathfinding.c **** 
 415:pathfinding.c ****                 arraylist_add(open_list, nodes[neighbor_y][neighbor_x]);
 2454              		.loc 1 415 0
 2455 0648 07F17401 		add	r1, r7, #116
 2456 064c D7F8002F 		ldr	r2, [r7, #3840]
 2457 0650 1346     		mov	r3, r2
 2458 0652 DB00     		lsls	r3, r3, #3
 2459 0654 1344     		add	r3, r3, r2
ARM GAS  C:\Users\ikui753\AppData\Local\Temp\ccuCyN9r.s 			page 52


 2460 0656 5B00     		lsls	r3, r3, #1
 2461 0658 1344     		add	r3, r3, r2
 2462 065a D7F8042F 		ldr	r2, [r7, #3844]
 2463 065e 1344     		add	r3, r3, r2
 2464 0660 51F82330 		ldr	r3, [r1, r3, lsl #2]
 2465 0664 1946     		mov	r1, r3
 2466 0666 D7F8100F 		ldr	r0, [r7, #3856]
 2467 066a FFF7FEFF 		bl	arraylist_add
 416:pathfinding.c ****                 openlistlength = arraylist_size(open_list);
 2468              		.loc 1 416 0
 2469 066e D7F8100F 		ldr	r0, [r7, #3856]
 2470 0672 FFF7FEFF 		bl	arraylist_size
 2471 0676 0346     		mov	r3, r0
 2472 0678 C7F8283F 		str	r3, [r7, #3880]
 2473              	.LBB22:
 417:pathfinding.c **** 
 418:pathfinding.c ****                 for (int i = 0; i < openlistlength; i++) {
 2474              		.loc 1 418 0
 2475 067c 0023     		movs	r3, #0
 2476 067e C7F8143F 		str	r3, [r7, #3860]
 2477 0682 0DE0     		b	.L78
 2478              	.L79:
 2479              	.LBB23:
 419:pathfinding.c ****                     Node* currentNode = (Node*)arraylist_get(open_list, i);
 2480              		.loc 1 419 0 discriminator 3
 2481 0684 D7F8143F 		ldr	r3, [r7, #3860]
 2482 0688 1946     		mov	r1, r3
 2483 068a D7F8100F 		ldr	r0, [r7, #3856]
 2484 068e FFF7FEFF 		bl	arraylist_get
 2485 0692 C7F8F00E 		str	r0, [r7, #3824]
 2486              	.LBE23:
 418:pathfinding.c ****                     Node* currentNode = (Node*)arraylist_get(open_list, i);
 2487              		.loc 1 418 0 discriminator 3
 2488 0696 D7F8143F 		ldr	r3, [r7, #3860]
 2489 069a 0133     		adds	r3, r3, #1
 2490 069c C7F8143F 		str	r3, [r7, #3860]
 2491              	.L78:
 418:pathfinding.c ****                     Node* currentNode = (Node*)arraylist_get(open_list, i);
 2492              		.loc 1 418 0 is_stmt 0 discriminator 1
 2493 06a0 D7F8142F 		ldr	r2, [r7, #3860]
 2494 06a4 D7F8283F 		ldr	r3, [r7, #3880]
 2495 06a8 9A42     		cmp	r2, r3
 2496 06aa EBDB     		blt	.L79
 2497 06ac 02E0     		b	.L80
 2498              	.L84:
 2499              	.LBE22:
 374:pathfinding.c ****             }
 2500              		.loc 1 374 0 is_stmt 1
 2501 06ae 00BF     		nop
 2502 06b0 00E0     		b	.L80
 2503              	.L85:
 378:pathfinding.c ****             }
 2504              		.loc 1 378 0
 2505 06b2 00BF     		nop
 2506              	.L80:
 2507              	.LBE19:
 354:pathfinding.c ****             int dx = moves_list[i].dx;
ARM GAS  C:\Users\ikui753\AppData\Local\Temp\ccuCyN9r.s 			page 53


 2508              		.loc 1 354 0 discriminator 2
 2509 06b4 D7F8203F 		ldr	r3, [r7, #3872]
 2510 06b8 0133     		adds	r3, r3, #1
 2511 06ba C7F8203F 		str	r3, [r7, #3872]
 2512              	.L69:
 354:pathfinding.c ****             int dx = moves_list[i].dx;
 2513              		.loc 1 354 0 is_stmt 0 discriminator 1
 2514 06be D7F8203F 		ldr	r3, [r7, #3872]
 2515 06c2 032B     		cmp	r3, #3
 2516 06c4 7FF77EAE 		ble	.L81
 2517              	.LBE18:
 2518              	.LBE16:
 420:pathfinding.c ****                 }
 421:pathfinding.c ****             }
 422:pathfinding.c ****         }
 423:pathfinding.c ****     }
 2519              		.loc 1 423 0 is_stmt 1
 2520 06c8 D2E5     		b	.L82
 2521              	.L83:
 2522              	.LBB24:
 334:pathfinding.c ****         }
 2523              		.loc 1 334 0
 2524 06ca 00BF     		nop
 2525              	.L66:
 2526              	.LBE24:
 424:pathfinding.c ****     reconstruct_path(map, came_from, end, start);
 2527              		.loc 1 424 0 discriminator 1
 2528 06cc 07F59D65 		add	r5, r7, #1256
 2529 06d0 07F10C04 		add	r4, r7, #12
 2530 06d4 3A1D     		adds	r2, r7, #4
 2531 06d6 6B46     		mov	r3, sp
 2532 06d8 92E80300 		ldmia	r2, {r0, r1}
 2533 06dc 83E80300 		stmia	r3, {r0, r1}
 2534 06e0 07F65473 		addw	r3, r7, #3924
 2535 06e4 0CCB     		ldmia	r3, {r2, r3}
 2536 06e6 2946     		mov	r1, r5
 2537 06e8 2068     		ldr	r0, [r4]
 2538 06ea FFF7FEFF 		bl	reconstruct_path
 425:pathfinding.c ****     //printMap(map);
 426:pathfinding.c **** }
 2539              		.loc 1 426 0 discriminator 1
 2540 06ee 00BF     		nop
 2541 06f0 07F57467 		add	r7, r7, #3904
 2542              		.cfi_def_cfa_offset 24
 2543 06f4 BD46     		mov	sp, r7
 2544              		.cfi_def_cfa_register 13
 2545              		@ sp needed
 2546 06f6 BDE8B040 		pop	{r4, r5, r7, lr}
 2547              		.cfi_restore 14
 2548              		.cfi_restore 7
 2549              		.cfi_restore 5
 2550              		.cfi_restore 4
 2551              		.cfi_def_cfa_offset 8
 2552 06fa 02B0     		add	sp, sp, #8
 2553              		.cfi_def_cfa_offset 0
 2554 06fc 7047     		bx	lr
 2555              		.cfi_endproc
ARM GAS  C:\Users\ikui753\AppData\Local\Temp\ccuCyN9r.s 			page 54


 2556              	.LFE71:
 2557              		.size	astar, .-astar
 2558 06fe 00BF     		.text
 2559              	.Letext0:
 2560              		.file 2 "c:\\program files (x86)\\cypress\\psoc creator\\4.2\\psoc creator\\import\\gnu\\arm\\5.4.
 2561              		.file 3 "c:\\program files (x86)\\cypress\\psoc creator\\4.2\\psoc creator\\import\\gnu\\arm\\5.4.
 2562              		.file 4 "arraylist.h"
 2563              		.file 5 "map.h"
 2564              		.file 6 "Generated_Source\\PSoC5/core_cm3.h"
 2565              		.section	.debug_info,"",%progbits
 2566              	.Ldebug_info0:
 2567 0000 DE080000 		.4byte	0x8de
 2568 0004 0400     		.2byte	0x4
 2569 0006 00000000 		.4byte	.Ldebug_abbrev0
 2570 000a 04       		.byte	0x4
 2571 000b 01       		.uleb128 0x1
 2572 000c 7C000000 		.4byte	.LASF75
 2573 0010 0C       		.byte	0xc
 2574 0011 2E010000 		.4byte	.LASF76
 2575 0015 F4020000 		.4byte	.LASF77
 2576 0019 30000000 		.4byte	.Ldebug_ranges0+0x30
 2577 001d 00000000 		.4byte	0
 2578 0021 00000000 		.4byte	.Ldebug_line0
 2579 0025 02       		.uleb128 0x2
 2580 0026 01       		.byte	0x1
 2581 0027 06       		.byte	0x6
 2582 0028 51020000 		.4byte	.LASF0
 2583 002c 02       		.uleb128 0x2
 2584 002d 01       		.byte	0x1
 2585 002e 08       		.byte	0x8
 2586 002f 2D020000 		.4byte	.LASF1
 2587 0033 02       		.uleb128 0x2
 2588 0034 02       		.byte	0x2
 2589 0035 05       		.byte	0x5
 2590 0036 46000000 		.4byte	.LASF2
 2591 003a 02       		.uleb128 0x2
 2592 003b 02       		.byte	0x2
 2593 003c 07       		.byte	0x7
 2594 003d C7020000 		.4byte	.LASF3
 2595 0041 03       		.uleb128 0x3
 2596 0042 C7030000 		.4byte	.LASF11
 2597 0046 02       		.byte	0x2
 2598 0047 3F       		.byte	0x3f
 2599 0048 4C000000 		.4byte	0x4c
 2600 004c 02       		.uleb128 0x2
 2601 004d 04       		.byte	0x4
 2602 004e 05       		.byte	0x5
 2603 004f 90010000 		.4byte	.LASF4
 2604 0053 02       		.uleb128 0x2
 2605 0054 04       		.byte	0x4
 2606 0055 07       		.byte	0x7
 2607 0056 8C030000 		.4byte	.LASF5
 2608 005a 02       		.uleb128 0x2
 2609 005b 08       		.byte	0x8
 2610 005c 05       		.byte	0x5
 2611 005d 74010000 		.4byte	.LASF6
 2612 0061 02       		.uleb128 0x2
ARM GAS  C:\Users\ikui753\AppData\Local\Temp\ccuCyN9r.s 			page 55


 2613 0062 08       		.byte	0x8
 2614 0063 07       		.byte	0x7
 2615 0064 66020000 		.4byte	.LASF7
 2616 0068 04       		.uleb128 0x4
 2617 0069 04       		.byte	0x4
 2618 006a 05       		.byte	0x5
 2619 006b 696E7400 		.ascii	"int\000"
 2620 006f 02       		.uleb128 0x2
 2621 0070 04       		.byte	0x4
 2622 0071 07       		.byte	0x7
 2623 0072 96020000 		.4byte	.LASF8
 2624 0076 05       		.uleb128 0x5
 2625 0077 04       		.byte	0x4
 2626 0078 02       		.uleb128 0x2
 2627 0079 04       		.byte	0x4
 2628 007a 07       		.byte	0x7
 2629 007b 67000000 		.4byte	.LASF9
 2630 007f 02       		.uleb128 0x2
 2631 0080 01       		.byte	0x1
 2632 0081 08       		.byte	0x8
 2633 0082 DA020000 		.4byte	.LASF10
 2634 0086 03       		.uleb128 0x3
 2635 0087 45030000 		.4byte	.LASF12
 2636 008b 03       		.byte	0x3
 2637 008c 2C       		.byte	0x2c
 2638 008d 41000000 		.4byte	0x41
 2639 0091 02       		.uleb128 0x2
 2640 0092 04       		.byte	0x4
 2641 0093 04       		.byte	0x4
 2642 0094 62010000 		.4byte	.LASF13
 2643 0098 02       		.uleb128 0x2
 2644 0099 08       		.byte	0x8
 2645 009a 04       		.byte	0x4
 2646 009b 9E030000 		.4byte	.LASF14
 2647 009f 03       		.uleb128 0x3
 2648 00a0 4D030000 		.4byte	.LASF15
 2649 00a4 04       		.byte	0x4
 2650 00a5 02       		.byte	0x2
 2651 00a6 AA000000 		.4byte	0xaa
 2652 00aa 06       		.uleb128 0x6
 2653 00ab 4D030000 		.4byte	.LASF15
 2654 00af 0C       		.byte	0xc
 2655 00b0 04       		.byte	0x4
 2656 00b1 15       		.byte	0x15
 2657 00b2 DB000000 		.4byte	0xdb
 2658 00b6 07       		.uleb128 0x7
 2659 00b7 75030000 		.4byte	.LASF16
 2660 00bb 04       		.byte	0x4
 2661 00bc 16       		.byte	0x16
 2662 00bd 6F000000 		.4byte	0x6f
 2663 00c1 00       		.byte	0
 2664 00c2 07       		.uleb128 0x7
 2665 00c3 5D020000 		.4byte	.LASF17
 2666 00c7 04       		.byte	0x4
 2667 00c8 17       		.byte	0x17
 2668 00c9 6F000000 		.4byte	0x6f
 2669 00cd 04       		.byte	0x4
ARM GAS  C:\Users\ikui753\AppData\Local\Temp\ccuCyN9r.s 			page 56


 2670 00ce 07       		.uleb128 0x7
 2671 00cf 4D010000 		.4byte	.LASF18
 2672 00d3 04       		.byte	0x4
 2673 00d4 18       		.byte	0x18
 2674 00d5 DB000000 		.4byte	0xdb
 2675 00d9 08       		.byte	0x8
 2676 00da 00       		.byte	0
 2677 00db 08       		.uleb128 0x8
 2678 00dc 04       		.byte	0x4
 2679 00dd 76000000 		.4byte	0x76
 2680 00e1 06       		.uleb128 0x6
 2681 00e2 02020000 		.4byte	.LASF19
 2682 00e6 08       		.byte	0x8
 2683 00e7 01       		.byte	0x1
 2684 00e8 34       		.byte	0x34
 2685 00e9 06010000 		.4byte	0x106
 2686 00ed 09       		.uleb128 0x9
 2687 00ee 726F7700 		.ascii	"row\000"
 2688 00f2 01       		.byte	0x1
 2689 00f3 35       		.byte	0x35
 2690 00f4 68000000 		.4byte	0x68
 2691 00f8 00       		.byte	0
 2692 00f9 09       		.uleb128 0x9
 2693 00fa 636F6C00 		.ascii	"col\000"
 2694 00fe 01       		.byte	0x1
 2695 00ff 36       		.byte	0x36
 2696 0100 68000000 		.4byte	0x68
 2697 0104 04       		.byte	0x4
 2698 0105 00       		.byte	0
 2699 0106 0A       		.uleb128 0xa
 2700 0107 08       		.byte	0x8
 2701 0108 01       		.byte	0x1
 2702 0109 BC       		.byte	0xbc
 2703 010a 23010000 		.4byte	0x123
 2704 010e 09       		.uleb128 0x9
 2705 010f 7800     		.ascii	"x\000"
 2706 0111 01       		.byte	0x1
 2707 0112 BD       		.byte	0xbd
 2708 0113 68000000 		.4byte	0x68
 2709 0117 00       		.byte	0
 2710 0118 09       		.uleb128 0x9
 2711 0119 7900     		.ascii	"y\000"
 2712 011b 01       		.byte	0x1
 2713 011c BE       		.byte	0xbe
 2714 011d 68000000 		.4byte	0x68
 2715 0121 04       		.byte	0x4
 2716 0122 00       		.byte	0
 2717 0123 03       		.uleb128 0x3
 2718 0124 EB030000 		.4byte	.LASF20
 2719 0128 01       		.byte	0x1
 2720 0129 BF       		.byte	0xbf
 2721 012a 06010000 		.4byte	0x106
 2722 012e 0A       		.uleb128 0xa
 2723 012f 1C       		.byte	0x1c
 2724 0130 01       		.byte	0x1
 2725 0131 C1       		.byte	0xc1
 2726 0132 6D010000 		.4byte	0x16d
ARM GAS  C:\Users\ikui753\AppData\Local\Temp\ccuCyN9r.s 			page 57


 2727 0136 07       		.uleb128 0x7
 2728 0137 3C010000 		.4byte	.LASF21
 2729 013b 01       		.byte	0x1
 2730 013c C2       		.byte	0xc2
 2731 013d 23010000 		.4byte	0x123
 2732 0141 00       		.byte	0
 2733 0142 07       		.uleb128 0x7
 2734 0143 F4030000 		.4byte	.LASF22
 2735 0147 01       		.byte	0x1
 2736 0148 C2       		.byte	0xc2
 2737 0149 23010000 		.4byte	0x123
 2738 014d 08       		.byte	0x8
 2739 014e 09       		.uleb128 0x9
 2740 014f 6600     		.ascii	"f\000"
 2741 0151 01       		.byte	0x1
 2742 0152 C3       		.byte	0xc3
 2743 0153 68000000 		.4byte	0x68
 2744 0157 10       		.byte	0x10
 2745 0158 09       		.uleb128 0x9
 2746 0159 6700     		.ascii	"g\000"
 2747 015b 01       		.byte	0x1
 2748 015c C3       		.byte	0xc3
 2749 015d 68000000 		.4byte	0x68
 2750 0161 14       		.byte	0x14
 2751 0162 09       		.uleb128 0x9
 2752 0163 6800     		.ascii	"h\000"
 2753 0165 01       		.byte	0x1
 2754 0166 C3       		.byte	0xc3
 2755 0167 68000000 		.4byte	0x68
 2756 016b 18       		.byte	0x18
 2757 016c 00       		.byte	0
 2758 016d 03       		.uleb128 0x3
 2759 016e 77000000 		.4byte	.LASF23
 2760 0172 01       		.byte	0x1
 2761 0173 C4       		.byte	0xc4
 2762 0174 2E010000 		.4byte	0x12e
 2763 0178 0A       		.uleb128 0xa
 2764 0179 08       		.byte	0x8
 2765 017a 01       		.byte	0x1
 2766 017b C6       		.byte	0xc6
 2767 017c 97010000 		.4byte	0x197
 2768 0180 09       		.uleb128 0x9
 2769 0181 647800   		.ascii	"dx\000"
 2770 0184 01       		.byte	0x1
 2771 0185 C7       		.byte	0xc7
 2772 0186 68000000 		.4byte	0x68
 2773 018a 00       		.byte	0
 2774 018b 09       		.uleb128 0x9
 2775 018c 647900   		.ascii	"dy\000"
 2776 018f 01       		.byte	0x1
 2777 0190 C8       		.byte	0xc8
 2778 0191 68000000 		.4byte	0x68
 2779 0195 04       		.byte	0x4
 2780 0196 00       		.byte	0
 2781 0197 03       		.uleb128 0x3
 2782 0198 5C010000 		.4byte	.LASF24
 2783 019c 01       		.byte	0x1
ARM GAS  C:\Users\ikui753\AppData\Local\Temp\ccuCyN9r.s 			page 58


 2784 019d C9       		.byte	0xc9
 2785 019e 78010000 		.4byte	0x178
 2786 01a2 0B       		.uleb128 0xb
 2787 01a3 1F000000 		.4byte	.LASF47
 2788 01a7 01       		.byte	0x1
 2789 01a8 3B       		.byte	0x3b
 2790 01a9 FE010000 		.4byte	0x1fe
 2791 01ad 00000000 		.4byte	.LFB64
 2792 01b1 56000000 		.4byte	.LFE64-.LFB64
 2793 01b5 01       		.uleb128 0x1
 2794 01b6 9C       		.byte	0x9c
 2795 01b7 FE010000 		.4byte	0x1fe
 2796 01bb 0C       		.uleb128 0xc
 2797 01bc 7200     		.ascii	"r\000"
 2798 01be 01       		.byte	0x1
 2799 01bf 3B       		.byte	0x3b
 2800 01c0 68000000 		.4byte	0x68
 2801 01c4 02       		.uleb128 0x2
 2802 01c5 91       		.byte	0x91
 2803 01c6 74       		.sleb128 -12
 2804 01c7 0C       		.uleb128 0xc
 2805 01c8 6300     		.ascii	"c\000"
 2806 01ca 01       		.byte	0x1
 2807 01cb 3B       		.byte	0x3b
 2808 01cc 68000000 		.4byte	0x68
 2809 01d0 02       		.uleb128 0x2
 2810 01d1 91       		.byte	0x91
 2811 01d2 70       		.sleb128 -16
 2812 01d3 0D       		.uleb128 0xd
 2813 01d4 50000000 		.4byte	.LASF25
 2814 01d8 01       		.byte	0x1
 2815 01d9 3B       		.byte	0x3b
 2816 01da 68000000 		.4byte	0x68
 2817 01de 02       		.uleb128 0x2
 2818 01df 91       		.byte	0x91
 2819 01e0 6C       		.sleb128 -20
 2820 01e1 0D       		.uleb128 0xd
 2821 01e2 A5030000 		.4byte	.LASF26
 2822 01e6 01       		.byte	0x1
 2823 01e7 3B       		.byte	0x3b
 2824 01e8 68000000 		.4byte	0x68
 2825 01ec 02       		.uleb128 0x2
 2826 01ed 91       		.byte	0x91
 2827 01ee 68       		.sleb128 -24
 2828 01ef 0C       		.uleb128 0xc
 2829 01f0 6D617000 		.ascii	"map\000"
 2830 01f4 01       		.byte	0x1
 2831 01f5 3B       		.byte	0x3b
 2832 01f6 15020000 		.4byte	0x215
 2833 01fa 02       		.uleb128 0x2
 2834 01fb 91       		.byte	0x91
 2835 01fc 00       		.sleb128 0
 2836 01fd 00       		.byte	0
 2837 01fe 02       		.uleb128 0x2
 2838 01ff 01       		.byte	0x1
 2839 0200 02       		.byte	0x2
 2840 0201 57030000 		.4byte	.LASF27
ARM GAS  C:\Users\ikui753\AppData\Local\Temp\ccuCyN9r.s 			page 59


 2841 0205 0E       		.uleb128 0xe
 2842 0206 68000000 		.4byte	0x68
 2843 020a 15020000 		.4byte	0x215
 2844 020e 0F       		.uleb128 0xf
 2845 020f 78000000 		.4byte	0x78
 2846 0213 12       		.byte	0x12
 2847 0214 00       		.byte	0
 2848 0215 08       		.uleb128 0x8
 2849 0216 04       		.byte	0x4
 2850 0217 05020000 		.4byte	0x205
 2851 021b 10       		.uleb128 0x10
 2852 021c 3B020000 		.4byte	.LASF51
 2853 0220 01       		.byte	0x1
 2854 0221 3E       		.byte	0x3e
 2855 0222 00000000 		.4byte	.LFB65
 2856 0226 F8080000 		.4byte	.LFE65-.LFB65
 2857 022a 01       		.uleb128 0x1
 2858 022b 9C       		.byte	0x9c
 2859 022c 5A040000 		.4byte	0x45a
 2860 0230 0C       		.uleb128 0xc
 2861 0231 6D617000 		.ascii	"map\000"
 2862 0235 01       		.byte	0x1
 2863 0236 3E       		.byte	0x3e
 2864 0237 15020000 		.4byte	0x215
 2865 023b 03       		.uleb128 0x3
 2866 023c 91       		.byte	0x91
 2867 023d BC52     		.sleb128 -5828
 2868 023f 0D       		.uleb128 0xd
 2869 0240 FD030000 		.4byte	.LASF28
 2870 0244 01       		.byte	0x1
 2871 0245 3E       		.byte	0x3e
 2872 0246 E1000000 		.4byte	0xe1
 2873 024a 03       		.uleb128 0x3
 2874 024b 91       		.byte	0x91
 2875 024c B452     		.sleb128 -5836
 2876 024e 0D       		.uleb128 0xd
 2877 024f EC010000 		.4byte	.LASF29
 2878 0253 01       		.byte	0x1
 2879 0254 3E       		.byte	0x3e
 2880 0255 E1000000 		.4byte	0xe1
 2881 0259 02       		.uleb128 0x2
 2882 025a 91       		.byte	0x91
 2883 025b 7C       		.sleb128 -4
 2884 025c 11       		.uleb128 0x11
 2885 025d E0030000 		.4byte	.LASF33
 2886 0261 01       		.byte	0x1
 2887 0262 40       		.byte	0x40
 2888 0263 5A040000 		.4byte	0x45a
 2889 0267 03       		.uleb128 0x3
 2890 0268 91       		.byte	0x91
 2891 0269 A076     		.sleb128 -1248
 2892 026b 06       		.uleb128 0x6
 2893 026c 07000000 		.4byte	.LASF30
 2894 0270 0C       		.byte	0xc
 2895 0271 01       		.byte	0x1
 2896 0272 47       		.byte	0x47
 2897 0273 90020000 		.4byte	0x290
ARM GAS  C:\Users\ikui753\AppData\Local\Temp\ccuCyN9r.s 			page 60


 2898 0277 07       		.uleb128 0x7
 2899 0278 D1030000 		.4byte	.LASF31
 2900 027c 01       		.byte	0x1
 2901 027d 48       		.byte	0x48
 2902 027e E1000000 		.4byte	0xe1
 2903 0282 00       		.byte	0
 2904 0283 07       		.uleb128 0x7
 2905 0284 DF020000 		.4byte	.LASF32
 2906 0288 01       		.byte	0x1
 2907 0289 49       		.byte	0x49
 2908 028a 68000000 		.4byte	0x68
 2909 028e 08       		.byte	0x8
 2910 028f 00       		.byte	0
 2911 0290 12       		.uleb128 0x12
 2912 0291 707100   		.ascii	"pq\000"
 2913 0294 01       		.byte	0x1
 2914 0295 4C       		.byte	0x4c
 2915 0296 70040000 		.4byte	0x470
 2916 029a 03       		.uleb128 0x3
 2917 029b 91       		.byte	0x91
 2918 029c C45B     		.sleb128 -4668
 2919 029e 11       		.uleb128 0x11
 2920 029f 44020000 		.4byte	.LASF34
 2921 02a3 01       		.byte	0x1
 2922 02a4 4D       		.byte	0x4d
 2923 02a5 68000000 		.4byte	0x68
 2924 02a9 02       		.uleb128 0x2
 2925 02aa 91       		.byte	0x91
 2926 02ab 5C       		.sleb128 -36
 2927 02ac 11       		.uleb128 0x11
 2928 02ad A4010000 		.4byte	.LASF35
 2929 02b1 01       		.byte	0x1
 2930 02b2 50       		.byte	0x50
 2931 02b3 5A040000 		.4byte	0x45a
 2932 02b7 03       		.uleb128 0x3
 2933 02b8 91       		.byte	0x91
 2934 02b9 D052     		.sleb128 -5808
 2935 02bb 11       		.uleb128 0x11
 2936 02bc 13010000 		.4byte	.LASF36
 2937 02c0 01       		.byte	0x1
 2938 02c1 59       		.byte	0x59
 2939 02c2 68000000 		.4byte	0x68
 2940 02c6 02       		.uleb128 0x2
 2941 02c7 91       		.byte	0x91
 2942 02c8 50       		.sleb128 -48
 2943 02c9 11       		.uleb128 0x11
 2944 02ca 7D020000 		.4byte	.LASF37
 2945 02ce 01       		.byte	0x1
 2946 02cf 90       		.byte	0x90
 2947 02d0 68000000 		.4byte	0x68
 2948 02d4 02       		.uleb128 0x2
 2949 02d5 91       		.byte	0x91
 2950 02d6 40       		.sleb128 -64
 2951 02d7 11       		.uleb128 0x11
 2952 02d8 6C030000 		.4byte	.LASF38
 2953 02dc 01       		.byte	0x1
 2954 02dd 92       		.byte	0x92
ARM GAS  C:\Users\ikui753\AppData\Local\Temp\ccuCyN9r.s 			page 61


 2955 02de 81040000 		.4byte	0x481
 2956 02e2 03       		.uleb128 0x3
 2957 02e3 91       		.byte	0x91
 2958 02e4 9C7F     		.sleb128 -100
 2959 02e6 11       		.uleb128 0x11
 2960 02e7 17020000 		.4byte	.LASF39
 2961 02eb 01       		.byte	0x1
 2962 02ec 93       		.byte	0x93
 2963 02ed 68000000 		.4byte	0x68
 2964 02f1 03       		.uleb128 0x3
 2965 02f2 91       		.byte	0x91
 2966 02f3 BC7F     		.sleb128 -68
 2967 02f5 11       		.uleb128 0x11
 2968 02f6 22020000 		.4byte	.LASF40
 2969 02fa 01       		.byte	0x1
 2970 02fb 94       		.byte	0x94
 2971 02fc 68000000 		.4byte	0x68
 2972 0300 03       		.uleb128 0x3
 2973 0301 91       		.byte	0x91
 2974 0302 B87F     		.sleb128 -72
 2975 0304 13       		.uleb128 0x13
 2976 0305 28000000 		.4byte	.LBB2
 2977 0309 92000000 		.4byte	.LBE2-.LBB2
 2978 030d 34030000 		.4byte	0x334
 2979 0311 12       		.uleb128 0x12
 2980 0312 6900     		.ascii	"i\000"
 2981 0314 01       		.byte	0x1
 2982 0315 41       		.byte	0x41
 2983 0316 68000000 		.4byte	0x68
 2984 031a 02       		.uleb128 0x2
 2985 031b 91       		.byte	0x91
 2986 031c 64       		.sleb128 -28
 2987 031d 14       		.uleb128 0x14
 2988 031e 36000000 		.4byte	.LBB3
 2989 0322 60000000 		.4byte	.LBE3-.LBB3
 2990 0326 12       		.uleb128 0x12
 2991 0327 6A00     		.ascii	"j\000"
 2992 0329 01       		.byte	0x1
 2993 032a 42       		.byte	0x42
 2994 032b 68000000 		.4byte	0x68
 2995 032f 02       		.uleb128 0x2
 2996 0330 91       		.byte	0x91
 2997 0331 60       		.sleb128 -32
 2998 0332 00       		.byte	0
 2999 0333 00       		.byte	0
 3000 0334 13       		.uleb128 0x13
 3001 0335 C6000000 		.4byte	.LBB4
 3002 0339 92000000 		.4byte	.LBE4-.LBB4
 3003 033d 64030000 		.4byte	0x364
 3004 0341 12       		.uleb128 0x12
 3005 0342 6900     		.ascii	"i\000"
 3006 0344 01       		.byte	0x1
 3007 0345 53       		.byte	0x53
 3008 0346 68000000 		.4byte	0x68
 3009 034a 02       		.uleb128 0x2
 3010 034b 91       		.byte	0x91
 3011 034c 58       		.sleb128 -40
ARM GAS  C:\Users\ikui753\AppData\Local\Temp\ccuCyN9r.s 			page 62


 3012 034d 14       		.uleb128 0x14
 3013 034e D4000000 		.4byte	.LBB5
 3014 0352 60000000 		.4byte	.LBE5-.LBB5
 3015 0356 12       		.uleb128 0x12
 3016 0357 6A00     		.ascii	"j\000"
 3017 0359 01       		.byte	0x1
 3018 035a 54       		.byte	0x54
 3019 035b 68000000 		.4byte	0x68
 3020 035f 02       		.uleb128 0x2
 3021 0360 91       		.byte	0x91
 3022 0361 54       		.sleb128 -44
 3023 0362 00       		.byte	0
 3024 0363 00       		.byte	0
 3025 0364 15       		.uleb128 0x15
 3026 0365 00000000 		.4byte	.Ldebug_ranges0+0
 3027 0369 1A040000 		.4byte	0x41a
 3028 036d 12       		.uleb128 0x12
 3029 036e 69647800 		.ascii	"idx\000"
 3030 0372 01       		.byte	0x1
 3031 0373 63       		.byte	0x63
 3032 0374 68000000 		.4byte	0x68
 3033 0378 02       		.uleb128 0x2
 3034 0379 91       		.byte	0x91
 3035 037a 4C       		.sleb128 -52
 3036 037b 11       		.uleb128 0x11
 3037 037c B9020000 		.4byte	.LASF41
 3038 0380 01       		.byte	0x1
 3039 0381 69       		.byte	0x69
 3040 0382 6B020000 		.4byte	0x26b
 3041 0386 03       		.uleb128 0x3
 3042 0387 91       		.byte	0x91
 3043 0388 C452     		.sleb128 -5820
 3044 038a 12       		.uleb128 0x12
 3045 038b 726F7700 		.ascii	"row\000"
 3046 038f 01       		.byte	0x1
 3047 0390 6D       		.byte	0x6d
 3048 0391 68000000 		.4byte	0x68
 3049 0395 03       		.uleb128 0x3
 3050 0396 91       		.byte	0x91
 3051 0397 B07F     		.sleb128 -80
 3052 0399 12       		.uleb128 0x12
 3053 039a 636F6C00 		.ascii	"col\000"
 3054 039e 01       		.byte	0x1
 3055 039f 6E       		.byte	0x6e
 3056 03a0 68000000 		.4byte	0x68
 3057 03a4 03       		.uleb128 0x3
 3058 03a5 91       		.byte	0x91
 3059 03a6 AC7F     		.sleb128 -84
 3060 03a8 13       		.uleb128 0x13
 3061 03a9 02020000 		.4byte	.LBB7
 3062 03ad 90000000 		.4byte	.LBE7-.LBB7
 3063 03b1 C2030000 		.4byte	0x3c2
 3064 03b5 12       		.uleb128 0x12
 3065 03b6 6900     		.ascii	"i\000"
 3066 03b8 01       		.byte	0x1
 3067 03b9 64       		.byte	0x64
 3068 03ba 68000000 		.4byte	0x68
ARM GAS  C:\Users\ikui753\AppData\Local\Temp\ccuCyN9r.s 			page 63


 3069 03be 02       		.uleb128 0x2
 3070 03bf 91       		.byte	0x91
 3071 03c0 48       		.sleb128 -56
 3072 03c1 00       		.byte	0
 3073 03c2 14       		.uleb128 0x14
 3074 03c3 B4030000 		.4byte	.LBB8
 3075 03c7 16020000 		.4byte	.LBE8-.LBB8
 3076 03cb 12       		.uleb128 0x12
 3077 03cc 6900     		.ascii	"i\000"
 3078 03ce 01       		.byte	0x1
 3079 03cf 77       		.byte	0x77
 3080 03d0 68000000 		.4byte	0x68
 3081 03d4 02       		.uleb128 0x2
 3082 03d5 91       		.byte	0x91
 3083 03d6 44       		.sleb128 -60
 3084 03d7 14       		.uleb128 0x14
 3085 03d8 C2030000 		.4byte	.LBB9
 3086 03dc E2010000 		.4byte	.LBE9-.LBB9
 3087 03e0 11       		.uleb128 0x11
 3088 03e1 FB010000 		.4byte	.LASF42
 3089 03e5 01       		.byte	0x1
 3090 03e6 78       		.byte	0x78
 3091 03e7 68000000 		.4byte	0x68
 3092 03eb 03       		.uleb128 0x3
 3093 03ec 91       		.byte	0x91
 3094 03ed A87F     		.sleb128 -88
 3095 03ef 11       		.uleb128 0x11
 3096 03f0 70000000 		.4byte	.LASF43
 3097 03f4 01       		.byte	0x1
 3098 03f5 79       		.byte	0x79
 3099 03f6 68000000 		.4byte	0x68
 3100 03fa 03       		.uleb128 0x3
 3101 03fb 91       		.byte	0x91
 3102 03fc A47F     		.sleb128 -92
 3103 03fe 14       		.uleb128 0x14
 3104 03ff 6C040000 		.4byte	.LBB10
 3105 0403 38010000 		.4byte	.LBE10-.LBB10
 3106 0407 11       		.uleb128 0x11
 3107 0408 68010000 		.4byte	.LASF44
 3108 040c 01       		.byte	0x1
 3109 040d 7C       		.byte	0x7c
 3110 040e 68000000 		.4byte	0x68
 3111 0412 03       		.uleb128 0x3
 3112 0413 91       		.byte	0x91
 3113 0414 A07F     		.sleb128 -96
 3114 0416 00       		.byte	0
 3115 0417 00       		.byte	0
 3116 0418 00       		.byte	0
 3117 0419 00       		.byte	0
 3118 041a 14       		.uleb128 0x14
 3119 041b D8060000 		.4byte	.LBB12
 3120 041f FA010000 		.4byte	.LBE12-.LBB12
 3121 0423 12       		.uleb128 0x12
 3122 0424 6900     		.ascii	"i\000"
 3123 0426 01       		.byte	0x1
 3124 0427 9D       		.byte	0x9d
 3125 0428 68000000 		.4byte	0x68
ARM GAS  C:\Users\ikui753\AppData\Local\Temp\ccuCyN9r.s 			page 64


 3126 042c 03       		.uleb128 0x3
 3127 042d 91       		.byte	0x91
 3128 042e B47F     		.sleb128 -76
 3129 0430 14       		.uleb128 0x14
 3130 0431 EC060000 		.4byte	.LBB13
 3131 0435 C0010000 		.4byte	.LBE13-.LBB13
 3132 0439 11       		.uleb128 0x11
 3133 043a FB010000 		.4byte	.LASF42
 3134 043e 01       		.byte	0x1
 3135 043f 9E       		.byte	0x9e
 3136 0440 68000000 		.4byte	0x68
 3137 0444 03       		.uleb128 0x3
 3138 0445 91       		.byte	0x91
 3139 0446 987F     		.sleb128 -104
 3140 0448 11       		.uleb128 0x11
 3141 0449 70000000 		.4byte	.LASF43
 3142 044d 01       		.byte	0x1
 3143 044e 9F       		.byte	0x9f
 3144 044f 68000000 		.4byte	0x68
 3145 0453 03       		.uleb128 0x3
 3146 0454 91       		.byte	0x91
 3147 0455 947F     		.sleb128 -108
 3148 0457 00       		.byte	0
 3149 0458 00       		.byte	0
 3150 0459 00       		.byte	0
 3151 045a 0E       		.uleb128 0xe
 3152 045b 68000000 		.4byte	0x68
 3153 045f 70040000 		.4byte	0x470
 3154 0463 0F       		.uleb128 0xf
 3155 0464 78000000 		.4byte	0x78
 3156 0468 0E       		.byte	0xe
 3157 0469 0F       		.uleb128 0xf
 3158 046a 78000000 		.4byte	0x78
 3159 046e 12       		.byte	0x12
 3160 046f 00       		.byte	0
 3161 0470 0E       		.uleb128 0xe
 3162 0471 6B020000 		.4byte	0x26b
 3163 0475 81040000 		.4byte	0x481
 3164 0479 16       		.uleb128 0x16
 3165 047a 78000000 		.4byte	0x78
 3166 047e 1C01     		.2byte	0x11c
 3167 0480 00       		.byte	0
 3168 0481 08       		.uleb128 0x8
 3169 0482 04       		.byte	0x4
 3170 0483 E1000000 		.4byte	0xe1
 3171 0487 17       		.uleb128 0x17
 3172 0488 D4010000 		.4byte	.LASF78
 3173 048c 01       		.byte	0x1
 3174 048d B2       		.byte	0xb2
 3175 048e 00000000 		.4byte	.LFB66
 3176 0492 48000000 		.4byte	.LFE66-.LFB66
 3177 0496 01       		.uleb128 0x1
 3178 0497 9C       		.byte	0x9c
 3179 0498 B9040000 		.4byte	0x4b9
 3180 049c 11       		.uleb128 0x11
 3181 049d 82010000 		.4byte	.LASF45
 3182 04a1 01       		.byte	0x1
ARM GAS  C:\Users\ikui753\AppData\Local\Temp\ccuCyN9r.s 			page 65


 3183 04a2 B3       		.byte	0xb3
 3184 04a3 E1000000 		.4byte	0xe1
 3185 04a7 02       		.uleb128 0x2
 3186 04a8 91       		.byte	0x91
 3187 04a9 70       		.sleb128 -16
 3188 04aa 11       		.uleb128 0x11
 3189 04ab DD010000 		.4byte	.LASF46
 3190 04af 01       		.byte	0x1
 3191 04b0 B4       		.byte	0xb4
 3192 04b1 E1000000 		.4byte	0xe1
 3193 04b5 02       		.uleb128 0x2
 3194 04b6 91       		.byte	0x91
 3195 04b7 68       		.sleb128 -24
 3196 04b8 00       		.byte	0
 3197 04b9 0B       		.uleb128 0xb
 3198 04ba 7A030000 		.4byte	.LASF48
 3199 04be 01       		.byte	0x1
 3200 04bf CD       		.byte	0xcd
 3201 04c0 FE010000 		.4byte	0x1fe
 3202 04c4 00000000 		.4byte	.LFB67
 3203 04c8 38000000 		.4byte	.LFE67-.LFB67
 3204 04cc 01       		.uleb128 0x1
 3205 04cd 9C       		.byte	0x9c
 3206 04ce EB040000 		.4byte	0x4eb
 3207 04d2 0C       		.uleb128 0xc
 3208 04d3 7800     		.ascii	"x\000"
 3209 04d5 01       		.byte	0x1
 3210 04d6 CD       		.byte	0xcd
 3211 04d7 68000000 		.4byte	0x68
 3212 04db 02       		.uleb128 0x2
 3213 04dc 91       		.byte	0x91
 3214 04dd 74       		.sleb128 -12
 3215 04de 0C       		.uleb128 0xc
 3216 04df 7900     		.ascii	"y\000"
 3217 04e1 01       		.byte	0x1
 3218 04e2 CD       		.byte	0xcd
 3219 04e3 68000000 		.4byte	0x68
 3220 04e7 02       		.uleb128 0x2
 3221 04e8 91       		.byte	0x91
 3222 04e9 70       		.sleb128 -16
 3223 04ea 00       		.byte	0
 3224 04eb 18       		.uleb128 0x18
 3225 04ec 0B020000 		.4byte	.LASF49
 3226 04f0 01       		.byte	0x1
 3227 04f1 D2       		.byte	0xd2
 3228 04f2 FE010000 		.4byte	0x1fe
 3229 04f6 00000000 		.4byte	.LFB68
 3230 04fa 44000000 		.4byte	.LFE68-.LFB68
 3231 04fe 01       		.uleb128 0x1
 3232 04ff 9C       		.byte	0x9c
 3233 0500 2B050000 		.4byte	0x52b
 3234 0504 0C       		.uleb128 0xc
 3235 0505 6D617000 		.ascii	"map\000"
 3236 0509 01       		.byte	0x1
 3237 050a D2       		.byte	0xd2
 3238 050b 15020000 		.4byte	0x215
 3239 050f 02       		.uleb128 0x2
ARM GAS  C:\Users\ikui753\AppData\Local\Temp\ccuCyN9r.s 			page 66


 3240 0510 91       		.byte	0x91
 3241 0511 74       		.sleb128 -12
 3242 0512 0C       		.uleb128 0xc
 3243 0513 7800     		.ascii	"x\000"
 3244 0515 01       		.byte	0x1
 3245 0516 D2       		.byte	0xd2
 3246 0517 68000000 		.4byte	0x68
 3247 051b 02       		.uleb128 0x2
 3248 051c 91       		.byte	0x91
 3249 051d 70       		.sleb128 -16
 3250 051e 0C       		.uleb128 0xc
 3251 051f 7900     		.ascii	"y\000"
 3252 0521 01       		.byte	0x1
 3253 0522 D2       		.byte	0xd2
 3254 0523 68000000 		.4byte	0x68
 3255 0527 02       		.uleb128 0x2
 3256 0528 91       		.byte	0x91
 3257 0529 6C       		.sleb128 -20
 3258 052a 00       		.byte	0
 3259 052b 0B       		.uleb128 0xb
 3260 052c 52010000 		.4byte	.LASF50
 3261 0530 01       		.byte	0x1
 3262 0531 D9       		.byte	0xd9
 3263 0532 68000000 		.4byte	0x68
 3264 0536 00000000 		.4byte	.LFB69
 3265 053a 42000000 		.4byte	.LFE69-.LFB69
 3266 053e 01       		.uleb128 0x1
 3267 053f 9C       		.byte	0x9c
 3268 0540 5D050000 		.4byte	0x55d
 3269 0544 0C       		.uleb128 0xc
 3270 0545 6100     		.ascii	"a\000"
 3271 0547 01       		.byte	0x1
 3272 0548 D9       		.byte	0xd9
 3273 0549 23010000 		.4byte	0x123
 3274 054d 02       		.uleb128 0x2
 3275 054e 91       		.byte	0x91
 3276 054f 70       		.sleb128 -16
 3277 0550 0C       		.uleb128 0xc
 3278 0551 6200     		.ascii	"b\000"
 3279 0553 01       		.byte	0x1
 3280 0554 D9       		.byte	0xd9
 3281 0555 23010000 		.4byte	0x123
 3282 0559 02       		.uleb128 0x2
 3283 055a 91       		.byte	0x91
 3284 055b 68       		.sleb128 -24
 3285 055c 00       		.byte	0
 3286 055d 19       		.uleb128 0x19
 3287 055e 35000000 		.4byte	.LASF52
 3288 0562 01       		.byte	0x1
 3289 0563 DE       		.byte	0xde
 3290 0564 00000000 		.4byte	.LFB70
 3291 0568 BC000000 		.4byte	.LFE70-.LFB70
 3292 056c 01       		.uleb128 0x1
 3293 056d 9C       		.byte	0x9c
 3294 056e B9050000 		.4byte	0x5b9
 3295 0572 0C       		.uleb128 0xc
 3296 0573 6D617000 		.ascii	"map\000"
ARM GAS  C:\Users\ikui753\AppData\Local\Temp\ccuCyN9r.s 			page 67


 3297 0577 01       		.byte	0x1
 3298 0578 DE       		.byte	0xde
 3299 0579 15020000 		.4byte	0x215
 3300 057d 02       		.uleb128 0x2
 3301 057e 91       		.byte	0x91
 3302 057f 6C       		.sleb128 -20
 3303 0580 0D       		.uleb128 0xd
 3304 0581 2B000000 		.4byte	.LASF53
 3305 0585 01       		.byte	0x1
 3306 0586 DE       		.byte	0xde
 3307 0587 C9050000 		.4byte	0x5c9
 3308 058b 02       		.uleb128 0x2
 3309 058c 91       		.byte	0x91
 3310 058d 68       		.sleb128 -24
 3311 058e 0D       		.uleb128 0xd
 3312 058f B9020000 		.4byte	.LASF41
 3313 0593 01       		.byte	0x1
 3314 0594 DE       		.byte	0xde
 3315 0595 23010000 		.4byte	0x123
 3316 0599 02       		.uleb128 0x2
 3317 059a 91       		.byte	0x91
 3318 059b 60       		.sleb128 -32
 3319 059c 0D       		.uleb128 0xd
 3320 059d C1020000 		.4byte	.LASF54
 3321 05a1 01       		.byte	0x1
 3322 05a2 DE       		.byte	0xde
 3323 05a3 23010000 		.4byte	0x123
 3324 05a7 02       		.uleb128 0x2
 3325 05a8 91       		.byte	0x91
 3326 05a9 00       		.sleb128 0
 3327 05aa 11       		.uleb128 0x11
 3328 05ab 5D030000 		.4byte	.LASF55
 3329 05af 01       		.byte	0x1
 3330 05b0 E8       		.byte	0xe8
 3331 05b1 68000000 		.4byte	0x68
 3332 05b5 02       		.uleb128 0x2
 3333 05b6 91       		.byte	0x91
 3334 05b7 74       		.sleb128 -12
 3335 05b8 00       		.byte	0
 3336 05b9 0E       		.uleb128 0xe
 3337 05ba 23010000 		.4byte	0x123
 3338 05be C9050000 		.4byte	0x5c9
 3339 05c2 0F       		.uleb128 0xf
 3340 05c3 78000000 		.4byte	0x78
 3341 05c7 12       		.byte	0x12
 3342 05c8 00       		.byte	0
 3343 05c9 08       		.uleb128 0x8
 3344 05ca 04       		.byte	0x4
 3345 05cb B9050000 		.4byte	0x5b9
 3346 05cf 1A       		.uleb128 0x1a
 3347 05d0 DA030000 		.4byte	.LASF56
 3348 05d4 01       		.byte	0x1
 3349 05d5 0401     		.2byte	0x104
 3350 05d7 00000000 		.4byte	.LFB71
 3351 05db FE060000 		.4byte	.LFE71-.LFB71
 3352 05df 01       		.uleb128 0x1
 3353 05e0 9C       		.byte	0x9c
ARM GAS  C:\Users\ikui753\AppData\Local\Temp\ccuCyN9r.s 			page 68


 3354 05e1 19080000 		.4byte	0x819
 3355 05e5 1B       		.uleb128 0x1b
 3356 05e6 6D617000 		.ascii	"map\000"
 3357 05ea 01       		.byte	0x1
 3358 05eb 0401     		.2byte	0x104
 3359 05ed 15020000 		.4byte	0x215
 3360 05f1 03       		.uleb128 0x3
 3361 05f2 91       		.byte	0x91
 3362 05f3 B461     		.sleb128 -3916
 3363 05f5 1C       		.uleb128 0x1c
 3364 05f6 C1020000 		.4byte	.LASF54
 3365 05fa 01       		.byte	0x1
 3366 05fb 0401     		.2byte	0x104
 3367 05fd 23010000 		.4byte	0x123
 3368 0601 03       		.uleb128 0x3
 3369 0602 91       		.byte	0x91
 3370 0603 AC61     		.sleb128 -3924
 3371 0605 1B       		.uleb128 0x1b
 3372 0606 656E6400 		.ascii	"end\000"
 3373 060a 01       		.byte	0x1
 3374 060b 0401     		.2byte	0x104
 3375 060d 23010000 		.4byte	0x123
 3376 0611 02       		.uleb128 0x2
 3377 0612 91       		.byte	0x91
 3378 0613 7C       		.sleb128 -4
 3379 0614 1D       		.uleb128 0x1d
 3380 0615 15000000 		.4byte	.LASF57
 3381 0619 01       		.byte	0x1
 3382 061a 0701     		.2byte	0x107
 3383 061c 19080000 		.4byte	0x819
 3384 0620 03       		.uleb128 0x3
 3385 0621 91       		.byte	0x91
 3386 0622 B87F     		.sleb128 -72
 3387 0624 1D       		.uleb128 0x1d
 3388 0625 C8010000 		.4byte	.LASF58
 3389 0629 01       		.byte	0x1
 3390 062a 0801     		.2byte	0x108
 3391 062c 1F080000 		.4byte	0x81f
 3392 0630 03       		.uleb128 0x3
 3393 0631 91       		.byte	0x91
 3394 0632 F87C     		.sleb128 -392
 3395 0634 1D       		.uleb128 0x1d
 3396 0635 2B000000 		.4byte	.LASF53
 3397 0639 01       		.byte	0x1
 3398 063a 0901     		.2byte	0x109
 3399 063c 35080000 		.4byte	0x835
 3400 0640 03       		.uleb128 0x3
 3401 0641 91       		.byte	0x91
 3402 0642 906B     		.sleb128 -2672
 3403 0644 1D       		.uleb128 0x1d
 3404 0645 28010000 		.4byte	.LASF59
 3405 0649 01       		.byte	0x1
 3406 064a 0A01     		.2byte	0x10a
 3407 064c 4B080000 		.4byte	0x84b
 3408 0650 03       		.uleb128 0x3
 3409 0651 91       		.byte	0x91
 3410 0652 9C62     		.sleb128 -3812
ARM GAS  C:\Users\ikui753\AppData\Local\Temp\ccuCyN9r.s 			page 69


 3411 0654 1D       		.uleb128 0x1d
 3412 0655 99010000 		.4byte	.LASF60
 3413 0659 01       		.byte	0x1
 3414 065a 1A01     		.2byte	0x11a
 3415 065c 67080000 		.4byte	0x867
 3416 0660 03       		.uleb128 0x3
 3417 0661 91       		.byte	0x91
 3418 0662 FC61     		.sleb128 -3844
 3419 0664 1D       		.uleb128 0x1d
 3420 0665 BD010000 		.4byte	.LASF61
 3421 0669 01       		.byte	0x1
 3422 066a 2501     		.2byte	0x125
 3423 066c 6D010000 		.4byte	0x16d
 3424 0670 03       		.uleb128 0x3
 3425 0671 91       		.byte	0x91
 3426 0672 E061     		.sleb128 -3872
 3427 0674 13       		.uleb128 0x13
 3428 0675 58000000 		.4byte	.LBB14
 3429 0679 46010000 		.4byte	.LBE14-.LBB14
 3430 067d A6060000 		.4byte	0x6a6
 3431 0681 1E       		.uleb128 0x1e
 3432 0682 6900     		.ascii	"i\000"
 3433 0684 01       		.byte	0x1
 3434 0685 0C01     		.2byte	0x10c
 3435 0687 68000000 		.4byte	0x68
 3436 068b 02       		.uleb128 0x2
 3437 068c 91       		.byte	0x91
 3438 068d 64       		.sleb128 -28
 3439 068e 14       		.uleb128 0x14
 3440 068f 60000000 		.4byte	.LBB15
 3441 0693 2A010000 		.4byte	.LBE15-.LBB15
 3442 0697 1E       		.uleb128 0x1e
 3443 0698 6A00     		.ascii	"j\000"
 3444 069a 01       		.byte	0x1
 3445 069b 0D01     		.2byte	0x10d
 3446 069d 68000000 		.4byte	0x68
 3447 06a1 02       		.uleb128 0x2
 3448 06a2 91       		.byte	0x91
 3449 06a3 60       		.sleb128 -32
 3450 06a4 00       		.byte	0
 3451 06a5 00       		.byte	0
 3452 06a6 1F       		.uleb128 0x1f
 3453 06a7 18000000 		.4byte	.Ldebug_ranges0+0x18
 3454 06ab 1D       		.uleb128 0x1d
 3455 06ac B9020000 		.4byte	.LASF41
 3456 06b0 01       		.byte	0x1
 3457 06b1 3301     		.2byte	0x133
 3458 06b3 23010000 		.4byte	0x123
 3459 06b7 03       		.uleb128 0x3
 3460 06b8 91       		.byte	0x91
 3461 06b9 D861     		.sleb128 -3880
 3462 06bb 1D       		.uleb128 0x1d
 3463 06bc 8A020000 		.4byte	.LASF62
 3464 06c0 01       		.byte	0x1
 3465 06c1 3401     		.2byte	0x134
 3466 06c3 61080000 		.4byte	0x861
 3467 06c7 02       		.uleb128 0x2
ARM GAS  C:\Users\ikui753\AppData\Local\Temp\ccuCyN9r.s 			page 70


 3468 06c8 91       		.byte	0x91
 3469 06c9 5C       		.sleb128 -36
 3470 06ca 1D       		.uleb128 0x1d
 3471 06cb 43010000 		.4byte	.LASF63
 3472 06cf 01       		.byte	0x1
 3473 06d0 3501     		.2byte	0x135
 3474 06d2 68000000 		.4byte	0x68
 3475 06d6 02       		.uleb128 0x2
 3476 06d7 91       		.byte	0x91
 3477 06d8 58       		.sleb128 -40
 3478 06d9 1D       		.uleb128 0x1d
 3479 06da 4B020000 		.4byte	.LASF64
 3480 06de 01       		.byte	0x1
 3481 06df 3601     		.2byte	0x136
 3482 06e1 68000000 		.4byte	0x68
 3483 06e5 02       		.uleb128 0x2
 3484 06e6 91       		.byte	0x91
 3485 06e7 54       		.sleb128 -44
 3486 06e8 1D       		.uleb128 0x1d
 3487 06e9 AE010000 		.4byte	.LASF65
 3488 06ed 01       		.byte	0x1
 3489 06ee 3901     		.2byte	0x139
 3490 06f0 68000000 		.4byte	0x68
 3491 06f4 02       		.uleb128 0x2
 3492 06f5 91       		.byte	0x91
 3493 06f6 50       		.sleb128 -48
 3494 06f7 13       		.uleb128 0x13
 3495 06f8 9A020000 		.4byte	.LBB17
 3496 06fc A6000000 		.4byte	.LBE17-.LBB17
 3497 0700 12070000 		.4byte	0x712
 3498 0704 1E       		.uleb128 0x1e
 3499 0705 6900     		.ascii	"i\000"
 3500 0707 01       		.byte	0x1
 3501 0708 3A01     		.2byte	0x13a
 3502 070a 68000000 		.4byte	0x68
 3503 070e 02       		.uleb128 0x2
 3504 070f 91       		.byte	0x91
 3505 0710 4C       		.sleb128 -52
 3506 0711 00       		.byte	0
 3507 0712 14       		.uleb128 0x14
 3508 0713 BC030000 		.4byte	.LBB18
 3509 0717 0C030000 		.4byte	.LBE18-.LBB18
 3510 071b 1E       		.uleb128 0x1e
 3511 071c 6900     		.ascii	"i\000"
 3512 071e 01       		.byte	0x1
 3513 071f 6201     		.2byte	0x162
 3514 0721 68000000 		.4byte	0x68
 3515 0725 02       		.uleb128 0x2
 3516 0726 91       		.byte	0x91
 3517 0727 48       		.sleb128 -56
 3518 0728 14       		.uleb128 0x14
 3519 0729 C4030000 		.4byte	.LBB19
 3520 072d F0020000 		.4byte	.LBE19-.LBB19
 3521 0731 1E       		.uleb128 0x1e
 3522 0732 647800   		.ascii	"dx\000"
 3523 0735 01       		.byte	0x1
 3524 0736 6301     		.2byte	0x163
ARM GAS  C:\Users\ikui753\AppData\Local\Temp\ccuCyN9r.s 			page 71


 3525 0738 68000000 		.4byte	0x68
 3526 073c 03       		.uleb128 0x3
 3527 073d 91       		.byte	0x91
 3528 073e B47F     		.sleb128 -76
 3529 0740 1E       		.uleb128 0x1e
 3530 0741 647900   		.ascii	"dy\000"
 3531 0744 01       		.byte	0x1
 3532 0745 6401     		.2byte	0x164
 3533 0747 68000000 		.4byte	0x68
 3534 074b 03       		.uleb128 0x3
 3535 074c 91       		.byte	0x91
 3536 074d B07F     		.sleb128 -80
 3537 074f 1D       		.uleb128 0x1d
 3538 0750 A3020000 		.4byte	.LASF66
 3539 0754 01       		.byte	0x1
 3540 0755 6601     		.2byte	0x166
 3541 0757 68000000 		.4byte	0x68
 3542 075b 03       		.uleb128 0x3
 3543 075c 91       		.byte	0x91
 3544 075d AC7F     		.sleb128 -84
 3545 075f 1D       		.uleb128 0x1d
 3546 0760 AE020000 		.4byte	.LASF67
 3547 0764 01       		.byte	0x1
 3548 0765 6701     		.2byte	0x167
 3549 0767 68000000 		.4byte	0x68
 3550 076b 03       		.uleb128 0x3
 3551 076c 91       		.byte	0x91
 3552 076d A87F     		.sleb128 -88
 3553 076f 1D       		.uleb128 0x1d
 3554 0770 E8020000 		.4byte	.LASF68
 3555 0774 01       		.byte	0x1
 3556 0775 6801     		.2byte	0x168
 3557 0777 68000000 		.4byte	0x68
 3558 077b 03       		.uleb128 0x3
 3559 077c 91       		.byte	0x91
 3560 077d A47F     		.sleb128 -92
 3561 077f 1D       		.uleb128 0x1d
 3562 0780 1B010000 		.4byte	.LASF69
 3563 0784 01       		.byte	0x1
 3564 0785 6A01     		.2byte	0x16a
 3565 0787 6D010000 		.4byte	0x16d
 3566 078b 03       		.uleb128 0x3
 3567 078c 91       		.byte	0x91
 3568 078d BC61     		.sleb128 -3908
 3569 078f 1D       		.uleb128 0x1d
 3570 0790 55000000 		.4byte	.LASF70
 3571 0794 01       		.byte	0x1
 3572 0795 7F01     		.2byte	0x17f
 3573 0797 FE010000 		.4byte	0x1fe
 3574 079b 02       		.uleb128 0x2
 3575 079c 91       		.byte	0x91
 3576 079d 47       		.sleb128 -57
 3577 079e 13       		.uleb128 0x13
 3578 079f AE040000 		.4byte	.LBB20
 3579 07a3 64000000 		.4byte	.LBE20-.LBB20
 3580 07a7 E3070000 		.4byte	0x7e3
 3581 07ab 1E       		.uleb128 0x1e
ARM GAS  C:\Users\ikui753\AppData\Local\Temp\ccuCyN9r.s 			page 72


 3582 07ac 6900     		.ascii	"i\000"
 3583 07ae 01       		.byte	0x1
 3584 07af 8501     		.2byte	0x185
 3585 07b1 68000000 		.4byte	0x68
 3586 07b5 02       		.uleb128 0x2
 3587 07b6 91       		.byte	0x91
 3588 07b7 40       		.sleb128 -64
 3589 07b8 14       		.uleb128 0x14
 3590 07b9 C0040000 		.4byte	.LBB21
 3591 07bd 3C000000 		.4byte	.LBE21-.LBB21
 3592 07c1 1D       		.uleb128 0x1d
 3593 07c2 00000000 		.4byte	.LASF71
 3594 07c6 01       		.byte	0x1
 3595 07c7 8601     		.2byte	0x186
 3596 07c9 76000000 		.4byte	0x76
 3597 07cd 03       		.uleb128 0x3
 3598 07ce 91       		.byte	0x91
 3599 07cf A07F     		.sleb128 -96
 3600 07d1 1D       		.uleb128 0x1d
 3601 07d2 8A020000 		.4byte	.LASF62
 3602 07d6 01       		.byte	0x1
 3603 07d7 8701     		.2byte	0x187
 3604 07d9 61080000 		.4byte	0x861
 3605 07dd 03       		.uleb128 0x3
 3606 07de 91       		.byte	0x91
 3607 07df 9C7F     		.sleb128 -100
 3608 07e1 00       		.byte	0
 3609 07e2 00       		.byte	0
 3610 07e3 14       		.uleb128 0x14
 3611 07e4 7C060000 		.4byte	.LBB22
 3612 07e8 32000000 		.4byte	.LBE22-.LBB22
 3613 07ec 1E       		.uleb128 0x1e
 3614 07ed 6900     		.ascii	"i\000"
 3615 07ef 01       		.byte	0x1
 3616 07f0 A201     		.2byte	0x1a2
 3617 07f2 68000000 		.4byte	0x68
 3618 07f6 03       		.uleb128 0x3
 3619 07f7 91       		.byte	0x91
 3620 07f8 BC7F     		.sleb128 -68
 3621 07fa 14       		.uleb128 0x14
 3622 07fb 84060000 		.4byte	.LBB23
 3623 07ff 12000000 		.4byte	.LBE23-.LBB23
 3624 0803 1D       		.uleb128 0x1d
 3625 0804 8A020000 		.4byte	.LASF62
 3626 0808 01       		.byte	0x1
 3627 0809 A301     		.2byte	0x1a3
 3628 080b 61080000 		.4byte	0x861
 3629 080f 03       		.uleb128 0x3
 3630 0810 91       		.byte	0x91
 3631 0811 987F     		.sleb128 -104
 3632 0813 00       		.byte	0
 3633 0814 00       		.byte	0
 3634 0815 00       		.byte	0
 3635 0816 00       		.byte	0
 3636 0817 00       		.byte	0
 3637 0818 00       		.byte	0
 3638 0819 08       		.uleb128 0x8
ARM GAS  C:\Users\ikui753\AppData\Local\Temp\ccuCyN9r.s 			page 73


 3639 081a 04       		.byte	0x4
 3640 081b 9F000000 		.4byte	0x9f
 3641 081f 0E       		.uleb128 0xe
 3642 0820 FE010000 		.4byte	0x1fe
 3643 0824 35080000 		.4byte	0x835
 3644 0828 0F       		.uleb128 0xf
 3645 0829 78000000 		.4byte	0x78
 3646 082d 0E       		.byte	0xe
 3647 082e 0F       		.uleb128 0xf
 3648 082f 78000000 		.4byte	0x78
 3649 0833 12       		.byte	0x12
 3650 0834 00       		.byte	0
 3651 0835 0E       		.uleb128 0xe
 3652 0836 23010000 		.4byte	0x123
 3653 083a 4B080000 		.4byte	0x84b
 3654 083e 0F       		.uleb128 0xf
 3655 083f 78000000 		.4byte	0x78
 3656 0843 0E       		.byte	0xe
 3657 0844 0F       		.uleb128 0xf
 3658 0845 78000000 		.4byte	0x78
 3659 0849 12       		.byte	0x12
 3660 084a 00       		.byte	0
 3661 084b 0E       		.uleb128 0xe
 3662 084c 61080000 		.4byte	0x861
 3663 0850 61080000 		.4byte	0x861
 3664 0854 0F       		.uleb128 0xf
 3665 0855 78000000 		.4byte	0x78
 3666 0859 0E       		.byte	0xe
 3667 085a 0F       		.uleb128 0xf
 3668 085b 78000000 		.4byte	0x78
 3669 085f 12       		.byte	0x12
 3670 0860 00       		.byte	0
 3671 0861 08       		.uleb128 0x8
 3672 0862 04       		.byte	0x4
 3673 0863 6D010000 		.4byte	0x16d
 3674 0867 0E       		.uleb128 0xe
 3675 0868 97010000 		.4byte	0x197
 3676 086c 77080000 		.4byte	0x877
 3677 0870 0F       		.uleb128 0xf
 3678 0871 78000000 		.4byte	0x78
 3679 0875 03       		.byte	0x3
 3680 0876 00       		.byte	0
 3681 0877 12       		.uleb128 0x12
 3682 0878 6D617000 		.ascii	"map\000"
 3683 087c 05       		.byte	0x5
 3684 087d 14       		.byte	0x14
 3685 087e 5A040000 		.4byte	0x45a
 3686 0882 05       		.uleb128 0x5
 3687 0883 03       		.byte	0x3
 3688 0884 00000000 		.4byte	map
 3689 0888 0E       		.uleb128 0xe
 3690 0889 68000000 		.4byte	0x68
 3691 088d 9E080000 		.4byte	0x89e
 3692 0891 0F       		.uleb128 0xf
 3693 0892 78000000 		.4byte	0x78
 3694 0896 04       		.byte	0x4
 3695 0897 0F       		.uleb128 0xf
ARM GAS  C:\Users\ikui753\AppData\Local\Temp\ccuCyN9r.s 			page 74


 3696 0898 78000000 		.4byte	0x78
 3697 089c 01       		.byte	0x1
 3698 089d 00       		.byte	0
 3699 089e 11       		.uleb128 0x11
 3700 089f AA030000 		.4byte	.LASF72
 3701 08a3 05       		.byte	0x5
 3702 08a4 26       		.byte	0x26
 3703 08a5 88080000 		.4byte	0x888
 3704 08a9 05       		.uleb128 0x5
 3705 08aa 03       		.byte	0x3
 3706 08ab 74040000 		.4byte	food_list
 3707 08af 20       		.uleb128 0x20
 3708 08b0 B4030000 		.4byte	.LASF73
 3709 08b4 06       		.byte	0x6
 3710 08b5 1207     		.2byte	0x712
 3711 08b7 BB080000 		.4byte	0x8bb
 3712 08bb 21       		.uleb128 0x21
 3713 08bc 86000000 		.4byte	0x86
 3714 08c0 0E       		.uleb128 0xe
 3715 08c1 E1000000 		.4byte	0xe1
 3716 08c5 D0080000 		.4byte	0x8d0
 3717 08c9 0F       		.uleb128 0xf
 3718 08ca 78000000 		.4byte	0x78
 3719 08ce 03       		.byte	0x3
 3720 08cf 00       		.byte	0
 3721 08d0 22       		.uleb128 0x22
 3722 08d1 C1030000 		.4byte	.LASF74
 3723 08d5 01       		.byte	0x1
 3724 08d6 39       		.byte	0x39
 3725 08d7 C0080000 		.4byte	0x8c0
 3726 08db 05       		.uleb128 0x5
 3727 08dc 03       		.byte	0x3
 3728 08dd 00000000 		.4byte	moves
 3729 08e1 00       		.byte	0
 3730              		.section	.debug_abbrev,"",%progbits
 3731              	.Ldebug_abbrev0:
 3732 0000 01       		.uleb128 0x1
 3733 0001 11       		.uleb128 0x11
 3734 0002 01       		.byte	0x1
 3735 0003 25       		.uleb128 0x25
 3736 0004 0E       		.uleb128 0xe
 3737 0005 13       		.uleb128 0x13
 3738 0006 0B       		.uleb128 0xb
 3739 0007 03       		.uleb128 0x3
 3740 0008 0E       		.uleb128 0xe
 3741 0009 1B       		.uleb128 0x1b
 3742 000a 0E       		.uleb128 0xe
 3743 000b 55       		.uleb128 0x55
 3744 000c 17       		.uleb128 0x17
 3745 000d 11       		.uleb128 0x11
 3746 000e 01       		.uleb128 0x1
 3747 000f 10       		.uleb128 0x10
 3748 0010 17       		.uleb128 0x17
 3749 0011 00       		.byte	0
 3750 0012 00       		.byte	0
 3751 0013 02       		.uleb128 0x2
 3752 0014 24       		.uleb128 0x24
ARM GAS  C:\Users\ikui753\AppData\Local\Temp\ccuCyN9r.s 			page 75


 3753 0015 00       		.byte	0
 3754 0016 0B       		.uleb128 0xb
 3755 0017 0B       		.uleb128 0xb
 3756 0018 3E       		.uleb128 0x3e
 3757 0019 0B       		.uleb128 0xb
 3758 001a 03       		.uleb128 0x3
 3759 001b 0E       		.uleb128 0xe
 3760 001c 00       		.byte	0
 3761 001d 00       		.byte	0
 3762 001e 03       		.uleb128 0x3
 3763 001f 16       		.uleb128 0x16
 3764 0020 00       		.byte	0
 3765 0021 03       		.uleb128 0x3
 3766 0022 0E       		.uleb128 0xe
 3767 0023 3A       		.uleb128 0x3a
 3768 0024 0B       		.uleb128 0xb
 3769 0025 3B       		.uleb128 0x3b
 3770 0026 0B       		.uleb128 0xb
 3771 0027 49       		.uleb128 0x49
 3772 0028 13       		.uleb128 0x13
 3773 0029 00       		.byte	0
 3774 002a 00       		.byte	0
 3775 002b 04       		.uleb128 0x4
 3776 002c 24       		.uleb128 0x24
 3777 002d 00       		.byte	0
 3778 002e 0B       		.uleb128 0xb
 3779 002f 0B       		.uleb128 0xb
 3780 0030 3E       		.uleb128 0x3e
 3781 0031 0B       		.uleb128 0xb
 3782 0032 03       		.uleb128 0x3
 3783 0033 08       		.uleb128 0x8
 3784 0034 00       		.byte	0
 3785 0035 00       		.byte	0
 3786 0036 05       		.uleb128 0x5
 3787 0037 0F       		.uleb128 0xf
 3788 0038 00       		.byte	0
 3789 0039 0B       		.uleb128 0xb
 3790 003a 0B       		.uleb128 0xb
 3791 003b 00       		.byte	0
 3792 003c 00       		.byte	0
 3793 003d 06       		.uleb128 0x6
 3794 003e 13       		.uleb128 0x13
 3795 003f 01       		.byte	0x1
 3796 0040 03       		.uleb128 0x3
 3797 0041 0E       		.uleb128 0xe
 3798 0042 0B       		.uleb128 0xb
 3799 0043 0B       		.uleb128 0xb
 3800 0044 3A       		.uleb128 0x3a
 3801 0045 0B       		.uleb128 0xb
 3802 0046 3B       		.uleb128 0x3b
 3803 0047 0B       		.uleb128 0xb
 3804 0048 01       		.uleb128 0x1
 3805 0049 13       		.uleb128 0x13
 3806 004a 00       		.byte	0
 3807 004b 00       		.byte	0
 3808 004c 07       		.uleb128 0x7
 3809 004d 0D       		.uleb128 0xd
ARM GAS  C:\Users\ikui753\AppData\Local\Temp\ccuCyN9r.s 			page 76


 3810 004e 00       		.byte	0
 3811 004f 03       		.uleb128 0x3
 3812 0050 0E       		.uleb128 0xe
 3813 0051 3A       		.uleb128 0x3a
 3814 0052 0B       		.uleb128 0xb
 3815 0053 3B       		.uleb128 0x3b
 3816 0054 0B       		.uleb128 0xb
 3817 0055 49       		.uleb128 0x49
 3818 0056 13       		.uleb128 0x13
 3819 0057 38       		.uleb128 0x38
 3820 0058 0B       		.uleb128 0xb
 3821 0059 00       		.byte	0
 3822 005a 00       		.byte	0
 3823 005b 08       		.uleb128 0x8
 3824 005c 0F       		.uleb128 0xf
 3825 005d 00       		.byte	0
 3826 005e 0B       		.uleb128 0xb
 3827 005f 0B       		.uleb128 0xb
 3828 0060 49       		.uleb128 0x49
 3829 0061 13       		.uleb128 0x13
 3830 0062 00       		.byte	0
 3831 0063 00       		.byte	0
 3832 0064 09       		.uleb128 0x9
 3833 0065 0D       		.uleb128 0xd
 3834 0066 00       		.byte	0
 3835 0067 03       		.uleb128 0x3
 3836 0068 08       		.uleb128 0x8
 3837 0069 3A       		.uleb128 0x3a
 3838 006a 0B       		.uleb128 0xb
 3839 006b 3B       		.uleb128 0x3b
 3840 006c 0B       		.uleb128 0xb
 3841 006d 49       		.uleb128 0x49
 3842 006e 13       		.uleb128 0x13
 3843 006f 38       		.uleb128 0x38
 3844 0070 0B       		.uleb128 0xb
 3845 0071 00       		.byte	0
 3846 0072 00       		.byte	0
 3847 0073 0A       		.uleb128 0xa
 3848 0074 13       		.uleb128 0x13
 3849 0075 01       		.byte	0x1
 3850 0076 0B       		.uleb128 0xb
 3851 0077 0B       		.uleb128 0xb
 3852 0078 3A       		.uleb128 0x3a
 3853 0079 0B       		.uleb128 0xb
 3854 007a 3B       		.uleb128 0x3b
 3855 007b 0B       		.uleb128 0xb
 3856 007c 01       		.uleb128 0x1
 3857 007d 13       		.uleb128 0x13
 3858 007e 00       		.byte	0
 3859 007f 00       		.byte	0
 3860 0080 0B       		.uleb128 0xb
 3861 0081 2E       		.uleb128 0x2e
 3862 0082 01       		.byte	0x1
 3863 0083 3F       		.uleb128 0x3f
 3864 0084 19       		.uleb128 0x19
 3865 0085 03       		.uleb128 0x3
 3866 0086 0E       		.uleb128 0xe
ARM GAS  C:\Users\ikui753\AppData\Local\Temp\ccuCyN9r.s 			page 77


 3867 0087 3A       		.uleb128 0x3a
 3868 0088 0B       		.uleb128 0xb
 3869 0089 3B       		.uleb128 0x3b
 3870 008a 0B       		.uleb128 0xb
 3871 008b 27       		.uleb128 0x27
 3872 008c 19       		.uleb128 0x19
 3873 008d 49       		.uleb128 0x49
 3874 008e 13       		.uleb128 0x13
 3875 008f 11       		.uleb128 0x11
 3876 0090 01       		.uleb128 0x1
 3877 0091 12       		.uleb128 0x12
 3878 0092 06       		.uleb128 0x6
 3879 0093 40       		.uleb128 0x40
 3880 0094 18       		.uleb128 0x18
 3881 0095 9742     		.uleb128 0x2117
 3882 0097 19       		.uleb128 0x19
 3883 0098 01       		.uleb128 0x1
 3884 0099 13       		.uleb128 0x13
 3885 009a 00       		.byte	0
 3886 009b 00       		.byte	0
 3887 009c 0C       		.uleb128 0xc
 3888 009d 05       		.uleb128 0x5
 3889 009e 00       		.byte	0
 3890 009f 03       		.uleb128 0x3
 3891 00a0 08       		.uleb128 0x8
 3892 00a1 3A       		.uleb128 0x3a
 3893 00a2 0B       		.uleb128 0xb
 3894 00a3 3B       		.uleb128 0x3b
 3895 00a4 0B       		.uleb128 0xb
 3896 00a5 49       		.uleb128 0x49
 3897 00a6 13       		.uleb128 0x13
 3898 00a7 02       		.uleb128 0x2
 3899 00a8 18       		.uleb128 0x18
 3900 00a9 00       		.byte	0
 3901 00aa 00       		.byte	0
 3902 00ab 0D       		.uleb128 0xd
 3903 00ac 05       		.uleb128 0x5
 3904 00ad 00       		.byte	0
 3905 00ae 03       		.uleb128 0x3
 3906 00af 0E       		.uleb128 0xe
 3907 00b0 3A       		.uleb128 0x3a
 3908 00b1 0B       		.uleb128 0xb
 3909 00b2 3B       		.uleb128 0x3b
 3910 00b3 0B       		.uleb128 0xb
 3911 00b4 49       		.uleb128 0x49
 3912 00b5 13       		.uleb128 0x13
 3913 00b6 02       		.uleb128 0x2
 3914 00b7 18       		.uleb128 0x18
 3915 00b8 00       		.byte	0
 3916 00b9 00       		.byte	0
 3917 00ba 0E       		.uleb128 0xe
 3918 00bb 01       		.uleb128 0x1
 3919 00bc 01       		.byte	0x1
 3920 00bd 49       		.uleb128 0x49
 3921 00be 13       		.uleb128 0x13
 3922 00bf 01       		.uleb128 0x1
 3923 00c0 13       		.uleb128 0x13
ARM GAS  C:\Users\ikui753\AppData\Local\Temp\ccuCyN9r.s 			page 78


 3924 00c1 00       		.byte	0
 3925 00c2 00       		.byte	0
 3926 00c3 0F       		.uleb128 0xf
 3927 00c4 21       		.uleb128 0x21
 3928 00c5 00       		.byte	0
 3929 00c6 49       		.uleb128 0x49
 3930 00c7 13       		.uleb128 0x13
 3931 00c8 2F       		.uleb128 0x2f
 3932 00c9 0B       		.uleb128 0xb
 3933 00ca 00       		.byte	0
 3934 00cb 00       		.byte	0
 3935 00cc 10       		.uleb128 0x10
 3936 00cd 2E       		.uleb128 0x2e
 3937 00ce 01       		.byte	0x1
 3938 00cf 3F       		.uleb128 0x3f
 3939 00d0 19       		.uleb128 0x19
 3940 00d1 03       		.uleb128 0x3
 3941 00d2 0E       		.uleb128 0xe
 3942 00d3 3A       		.uleb128 0x3a
 3943 00d4 0B       		.uleb128 0xb
 3944 00d5 3B       		.uleb128 0x3b
 3945 00d6 0B       		.uleb128 0xb
 3946 00d7 27       		.uleb128 0x27
 3947 00d8 19       		.uleb128 0x19
 3948 00d9 11       		.uleb128 0x11
 3949 00da 01       		.uleb128 0x1
 3950 00db 12       		.uleb128 0x12
 3951 00dc 06       		.uleb128 0x6
 3952 00dd 40       		.uleb128 0x40
 3953 00de 18       		.uleb128 0x18
 3954 00df 9642     		.uleb128 0x2116
 3955 00e1 19       		.uleb128 0x19
 3956 00e2 01       		.uleb128 0x1
 3957 00e3 13       		.uleb128 0x13
 3958 00e4 00       		.byte	0
 3959 00e5 00       		.byte	0
 3960 00e6 11       		.uleb128 0x11
 3961 00e7 34       		.uleb128 0x34
 3962 00e8 00       		.byte	0
 3963 00e9 03       		.uleb128 0x3
 3964 00ea 0E       		.uleb128 0xe
 3965 00eb 3A       		.uleb128 0x3a
 3966 00ec 0B       		.uleb128 0xb
 3967 00ed 3B       		.uleb128 0x3b
 3968 00ee 0B       		.uleb128 0xb
 3969 00ef 49       		.uleb128 0x49
 3970 00f0 13       		.uleb128 0x13
 3971 00f1 02       		.uleb128 0x2
 3972 00f2 18       		.uleb128 0x18
 3973 00f3 00       		.byte	0
 3974 00f4 00       		.byte	0
 3975 00f5 12       		.uleb128 0x12
 3976 00f6 34       		.uleb128 0x34
 3977 00f7 00       		.byte	0
 3978 00f8 03       		.uleb128 0x3
 3979 00f9 08       		.uleb128 0x8
 3980 00fa 3A       		.uleb128 0x3a
ARM GAS  C:\Users\ikui753\AppData\Local\Temp\ccuCyN9r.s 			page 79


 3981 00fb 0B       		.uleb128 0xb
 3982 00fc 3B       		.uleb128 0x3b
 3983 00fd 0B       		.uleb128 0xb
 3984 00fe 49       		.uleb128 0x49
 3985 00ff 13       		.uleb128 0x13
 3986 0100 02       		.uleb128 0x2
 3987 0101 18       		.uleb128 0x18
 3988 0102 00       		.byte	0
 3989 0103 00       		.byte	0
 3990 0104 13       		.uleb128 0x13
 3991 0105 0B       		.uleb128 0xb
 3992 0106 01       		.byte	0x1
 3993 0107 11       		.uleb128 0x11
 3994 0108 01       		.uleb128 0x1
 3995 0109 12       		.uleb128 0x12
 3996 010a 06       		.uleb128 0x6
 3997 010b 01       		.uleb128 0x1
 3998 010c 13       		.uleb128 0x13
 3999 010d 00       		.byte	0
 4000 010e 00       		.byte	0
 4001 010f 14       		.uleb128 0x14
 4002 0110 0B       		.uleb128 0xb
 4003 0111 01       		.byte	0x1
 4004 0112 11       		.uleb128 0x11
 4005 0113 01       		.uleb128 0x1
 4006 0114 12       		.uleb128 0x12
 4007 0115 06       		.uleb128 0x6
 4008 0116 00       		.byte	0
 4009 0117 00       		.byte	0
 4010 0118 15       		.uleb128 0x15
 4011 0119 0B       		.uleb128 0xb
 4012 011a 01       		.byte	0x1
 4013 011b 55       		.uleb128 0x55
 4014 011c 17       		.uleb128 0x17
 4015 011d 01       		.uleb128 0x1
 4016 011e 13       		.uleb128 0x13
 4017 011f 00       		.byte	0
 4018 0120 00       		.byte	0
 4019 0121 16       		.uleb128 0x16
 4020 0122 21       		.uleb128 0x21
 4021 0123 00       		.byte	0
 4022 0124 49       		.uleb128 0x49
 4023 0125 13       		.uleb128 0x13
 4024 0126 2F       		.uleb128 0x2f
 4025 0127 05       		.uleb128 0x5
 4026 0128 00       		.byte	0
 4027 0129 00       		.byte	0
 4028 012a 17       		.uleb128 0x17
 4029 012b 2E       		.uleb128 0x2e
 4030 012c 01       		.byte	0x1
 4031 012d 3F       		.uleb128 0x3f
 4032 012e 19       		.uleb128 0x19
 4033 012f 03       		.uleb128 0x3
 4034 0130 0E       		.uleb128 0xe
 4035 0131 3A       		.uleb128 0x3a
 4036 0132 0B       		.uleb128 0xb
 4037 0133 3B       		.uleb128 0x3b
ARM GAS  C:\Users\ikui753\AppData\Local\Temp\ccuCyN9r.s 			page 80


 4038 0134 0B       		.uleb128 0xb
 4039 0135 11       		.uleb128 0x11
 4040 0136 01       		.uleb128 0x1
 4041 0137 12       		.uleb128 0x12
 4042 0138 06       		.uleb128 0x6
 4043 0139 40       		.uleb128 0x40
 4044 013a 18       		.uleb128 0x18
 4045 013b 9642     		.uleb128 0x2116
 4046 013d 19       		.uleb128 0x19
 4047 013e 01       		.uleb128 0x1
 4048 013f 13       		.uleb128 0x13
 4049 0140 00       		.byte	0
 4050 0141 00       		.byte	0
 4051 0142 18       		.uleb128 0x18
 4052 0143 2E       		.uleb128 0x2e
 4053 0144 01       		.byte	0x1
 4054 0145 3F       		.uleb128 0x3f
 4055 0146 19       		.uleb128 0x19
 4056 0147 03       		.uleb128 0x3
 4057 0148 0E       		.uleb128 0xe
 4058 0149 3A       		.uleb128 0x3a
 4059 014a 0B       		.uleb128 0xb
 4060 014b 3B       		.uleb128 0x3b
 4061 014c 0B       		.uleb128 0xb
 4062 014d 27       		.uleb128 0x27
 4063 014e 19       		.uleb128 0x19
 4064 014f 49       		.uleb128 0x49
 4065 0150 13       		.uleb128 0x13
 4066 0151 11       		.uleb128 0x11
 4067 0152 01       		.uleb128 0x1
 4068 0153 12       		.uleb128 0x12
 4069 0154 06       		.uleb128 0x6
 4070 0155 40       		.uleb128 0x40
 4071 0156 18       		.uleb128 0x18
 4072 0157 9642     		.uleb128 0x2116
 4073 0159 19       		.uleb128 0x19
 4074 015a 01       		.uleb128 0x1
 4075 015b 13       		.uleb128 0x13
 4076 015c 00       		.byte	0
 4077 015d 00       		.byte	0
 4078 015e 19       		.uleb128 0x19
 4079 015f 2E       		.uleb128 0x2e
 4080 0160 01       		.byte	0x1
 4081 0161 3F       		.uleb128 0x3f
 4082 0162 19       		.uleb128 0x19
 4083 0163 03       		.uleb128 0x3
 4084 0164 0E       		.uleb128 0xe
 4085 0165 3A       		.uleb128 0x3a
 4086 0166 0B       		.uleb128 0xb
 4087 0167 3B       		.uleb128 0x3b
 4088 0168 0B       		.uleb128 0xb
 4089 0169 27       		.uleb128 0x27
 4090 016a 19       		.uleb128 0x19
 4091 016b 11       		.uleb128 0x11
 4092 016c 01       		.uleb128 0x1
 4093 016d 12       		.uleb128 0x12
 4094 016e 06       		.uleb128 0x6
ARM GAS  C:\Users\ikui753\AppData\Local\Temp\ccuCyN9r.s 			page 81


 4095 016f 40       		.uleb128 0x40
 4096 0170 18       		.uleb128 0x18
 4097 0171 9742     		.uleb128 0x2117
 4098 0173 19       		.uleb128 0x19
 4099 0174 01       		.uleb128 0x1
 4100 0175 13       		.uleb128 0x13
 4101 0176 00       		.byte	0
 4102 0177 00       		.byte	0
 4103 0178 1A       		.uleb128 0x1a
 4104 0179 2E       		.uleb128 0x2e
 4105 017a 01       		.byte	0x1
 4106 017b 3F       		.uleb128 0x3f
 4107 017c 19       		.uleb128 0x19
 4108 017d 03       		.uleb128 0x3
 4109 017e 0E       		.uleb128 0xe
 4110 017f 3A       		.uleb128 0x3a
 4111 0180 0B       		.uleb128 0xb
 4112 0181 3B       		.uleb128 0x3b
 4113 0182 05       		.uleb128 0x5
 4114 0183 27       		.uleb128 0x27
 4115 0184 19       		.uleb128 0x19
 4116 0185 11       		.uleb128 0x11
 4117 0186 01       		.uleb128 0x1
 4118 0187 12       		.uleb128 0x12
 4119 0188 06       		.uleb128 0x6
 4120 0189 40       		.uleb128 0x40
 4121 018a 18       		.uleb128 0x18
 4122 018b 9642     		.uleb128 0x2116
 4123 018d 19       		.uleb128 0x19
 4124 018e 01       		.uleb128 0x1
 4125 018f 13       		.uleb128 0x13
 4126 0190 00       		.byte	0
 4127 0191 00       		.byte	0
 4128 0192 1B       		.uleb128 0x1b
 4129 0193 05       		.uleb128 0x5
 4130 0194 00       		.byte	0
 4131 0195 03       		.uleb128 0x3
 4132 0196 08       		.uleb128 0x8
 4133 0197 3A       		.uleb128 0x3a
 4134 0198 0B       		.uleb128 0xb
 4135 0199 3B       		.uleb128 0x3b
 4136 019a 05       		.uleb128 0x5
 4137 019b 49       		.uleb128 0x49
 4138 019c 13       		.uleb128 0x13
 4139 019d 02       		.uleb128 0x2
 4140 019e 18       		.uleb128 0x18
 4141 019f 00       		.byte	0
 4142 01a0 00       		.byte	0
 4143 01a1 1C       		.uleb128 0x1c
 4144 01a2 05       		.uleb128 0x5
 4145 01a3 00       		.byte	0
 4146 01a4 03       		.uleb128 0x3
 4147 01a5 0E       		.uleb128 0xe
 4148 01a6 3A       		.uleb128 0x3a
 4149 01a7 0B       		.uleb128 0xb
 4150 01a8 3B       		.uleb128 0x3b
 4151 01a9 05       		.uleb128 0x5
ARM GAS  C:\Users\ikui753\AppData\Local\Temp\ccuCyN9r.s 			page 82


 4152 01aa 49       		.uleb128 0x49
 4153 01ab 13       		.uleb128 0x13
 4154 01ac 02       		.uleb128 0x2
 4155 01ad 18       		.uleb128 0x18
 4156 01ae 00       		.byte	0
 4157 01af 00       		.byte	0
 4158 01b0 1D       		.uleb128 0x1d
 4159 01b1 34       		.uleb128 0x34
 4160 01b2 00       		.byte	0
 4161 01b3 03       		.uleb128 0x3
 4162 01b4 0E       		.uleb128 0xe
 4163 01b5 3A       		.uleb128 0x3a
 4164 01b6 0B       		.uleb128 0xb
 4165 01b7 3B       		.uleb128 0x3b
 4166 01b8 05       		.uleb128 0x5
 4167 01b9 49       		.uleb128 0x49
 4168 01ba 13       		.uleb128 0x13
 4169 01bb 02       		.uleb128 0x2
 4170 01bc 18       		.uleb128 0x18
 4171 01bd 00       		.byte	0
 4172 01be 00       		.byte	0
 4173 01bf 1E       		.uleb128 0x1e
 4174 01c0 34       		.uleb128 0x34
 4175 01c1 00       		.byte	0
 4176 01c2 03       		.uleb128 0x3
 4177 01c3 08       		.uleb128 0x8
 4178 01c4 3A       		.uleb128 0x3a
 4179 01c5 0B       		.uleb128 0xb
 4180 01c6 3B       		.uleb128 0x3b
 4181 01c7 05       		.uleb128 0x5
 4182 01c8 49       		.uleb128 0x49
 4183 01c9 13       		.uleb128 0x13
 4184 01ca 02       		.uleb128 0x2
 4185 01cb 18       		.uleb128 0x18
 4186 01cc 00       		.byte	0
 4187 01cd 00       		.byte	0
 4188 01ce 1F       		.uleb128 0x1f
 4189 01cf 0B       		.uleb128 0xb
 4190 01d0 01       		.byte	0x1
 4191 01d1 55       		.uleb128 0x55
 4192 01d2 17       		.uleb128 0x17
 4193 01d3 00       		.byte	0
 4194 01d4 00       		.byte	0
 4195 01d5 20       		.uleb128 0x20
 4196 01d6 34       		.uleb128 0x34
 4197 01d7 00       		.byte	0
 4198 01d8 03       		.uleb128 0x3
 4199 01d9 0E       		.uleb128 0xe
 4200 01da 3A       		.uleb128 0x3a
 4201 01db 0B       		.uleb128 0xb
 4202 01dc 3B       		.uleb128 0x3b
 4203 01dd 05       		.uleb128 0x5
 4204 01de 49       		.uleb128 0x49
 4205 01df 13       		.uleb128 0x13
 4206 01e0 3F       		.uleb128 0x3f
 4207 01e1 19       		.uleb128 0x19
 4208 01e2 3C       		.uleb128 0x3c
ARM GAS  C:\Users\ikui753\AppData\Local\Temp\ccuCyN9r.s 			page 83


 4209 01e3 19       		.uleb128 0x19
 4210 01e4 00       		.byte	0
 4211 01e5 00       		.byte	0
 4212 01e6 21       		.uleb128 0x21
 4213 01e7 35       		.uleb128 0x35
 4214 01e8 00       		.byte	0
 4215 01e9 49       		.uleb128 0x49
 4216 01ea 13       		.uleb128 0x13
 4217 01eb 00       		.byte	0
 4218 01ec 00       		.byte	0
 4219 01ed 22       		.uleb128 0x22
 4220 01ee 34       		.uleb128 0x34
 4221 01ef 00       		.byte	0
 4222 01f0 03       		.uleb128 0x3
 4223 01f1 0E       		.uleb128 0xe
 4224 01f2 3A       		.uleb128 0x3a
 4225 01f3 0B       		.uleb128 0xb
 4226 01f4 3B       		.uleb128 0x3b
 4227 01f5 0B       		.uleb128 0xb
 4228 01f6 49       		.uleb128 0x49
 4229 01f7 13       		.uleb128 0x13
 4230 01f8 3F       		.uleb128 0x3f
 4231 01f9 19       		.uleb128 0x19
 4232 01fa 02       		.uleb128 0x2
 4233 01fb 18       		.uleb128 0x18
 4234 01fc 00       		.byte	0
 4235 01fd 00       		.byte	0
 4236 01fe 00       		.byte	0
 4237              		.section	.debug_aranges,"",%progbits
 4238 0000 54000000 		.4byte	0x54
 4239 0004 0200     		.2byte	0x2
 4240 0006 00000000 		.4byte	.Ldebug_info0
 4241 000a 04       		.byte	0x4
 4242 000b 00       		.byte	0
 4243 000c 0000     		.2byte	0
 4244 000e 0000     		.2byte	0
 4245 0010 00000000 		.4byte	.LFB64
 4246 0014 56000000 		.4byte	.LFE64-.LFB64
 4247 0018 00000000 		.4byte	.LFB65
 4248 001c F8080000 		.4byte	.LFE65-.LFB65
 4249 0020 00000000 		.4byte	.LFB66
 4250 0024 48000000 		.4byte	.LFE66-.LFB66
 4251 0028 00000000 		.4byte	.LFB67
 4252 002c 38000000 		.4byte	.LFE67-.LFB67
 4253 0030 00000000 		.4byte	.LFB68
 4254 0034 44000000 		.4byte	.LFE68-.LFB68
 4255 0038 00000000 		.4byte	.LFB69
 4256 003c 42000000 		.4byte	.LFE69-.LFB69
 4257 0040 00000000 		.4byte	.LFB70
 4258 0044 BC000000 		.4byte	.LFE70-.LFB70
 4259 0048 00000000 		.4byte	.LFB71
 4260 004c FE060000 		.4byte	.LFE71-.LFB71
 4261 0050 00000000 		.4byte	0
 4262 0054 00000000 		.4byte	0
 4263              		.section	.debug_ranges,"",%progbits
 4264              	.Ldebug_ranges0:
 4265 0000 F6010000 		.4byte	.LBB6
ARM GAS  C:\Users\ikui753\AppData\Local\Temp\ccuCyN9r.s 			page 84


 4266 0004 CA050000 		.4byte	.LBE6
 4267 0008 DC050000 		.4byte	.LBB11
 4268 000c DE050000 		.4byte	.LBE11
 4269 0010 00000000 		.4byte	0
 4270 0014 00000000 		.4byte	0
 4271 0018 70020000 		.4byte	.LBB16
 4272 001c C8060000 		.4byte	.LBE16
 4273 0020 CA060000 		.4byte	.LBB24
 4274 0024 CC060000 		.4byte	.LBE24
 4275 0028 00000000 		.4byte	0
 4276 002c 00000000 		.4byte	0
 4277 0030 00000000 		.4byte	.LFB64
 4278 0034 56000000 		.4byte	.LFE64
 4279 0038 00000000 		.4byte	.LFB65
 4280 003c F8080000 		.4byte	.LFE65
 4281 0040 00000000 		.4byte	.LFB66
 4282 0044 48000000 		.4byte	.LFE66
 4283 0048 00000000 		.4byte	.LFB67
 4284 004c 38000000 		.4byte	.LFE67
 4285 0050 00000000 		.4byte	.LFB68
 4286 0054 44000000 		.4byte	.LFE68
 4287 0058 00000000 		.4byte	.LFB69
 4288 005c 42000000 		.4byte	.LFE69
 4289 0060 00000000 		.4byte	.LFB70
 4290 0064 BC000000 		.4byte	.LFE70
 4291 0068 00000000 		.4byte	.LFB71
 4292 006c FE060000 		.4byte	.LFE71
 4293 0070 00000000 		.4byte	0
 4294 0074 00000000 		.4byte	0
 4295              		.section	.debug_line,"",%progbits
 4296              	.Ldebug_line0:
 4297 0000 80040000 		.section	.debug_str,"MS",%progbits,1
 4297      02005E01 
 4297      00000201 
 4297      FB0E0D00 
 4297      01010101 
 4298              	.LASF71:
 4299 0000 72657375 		.ascii	"result\000"
 4299      6C7400
 4300              	.LASF30:
 4301 0007 5072696F 		.ascii	"PriorityQueue\000"
 4301      72697479 
 4301      51756575 
 4301      6500
 4302              	.LASF57:
 4303 0015 6F70656E 		.ascii	"open_list\000"
 4303      5F6C6973 
 4303      7400
 4304              	.LASF47:
 4305 001f 69735661 		.ascii	"isValidMove\000"
 4305      6C69644D 
 4305      6F766500 
 4306              	.LASF53:
 4307 002b 63616D65 		.ascii	"came_from\000"
 4307      5F66726F 
 4307      6D00
 4308              	.LASF52:
ARM GAS  C:\Users\ikui753\AppData\Local\Temp\ccuCyN9r.s 			page 85


 4309 0035 7265636F 		.ascii	"reconstruct_path\000"
 4309      6E737472 
 4309      7563745F 
 4309      70617468 
 4309      00
 4310              	.LASF2:
 4311 0046 73686F72 		.ascii	"short int\000"
 4311      7420696E 
 4311      7400
 4312              	.LASF25:
 4313 0050 726F7773 		.ascii	"rows\000"
 4313      00
 4314              	.LASF70:
 4315 0055 69734E65 		.ascii	"isNeighbourInOpen\000"
 4315      69676862 
 4315      6F757249 
 4315      6E4F7065 
 4315      6E00
 4316              	.LASF9:
 4317 0067 73697A65 		.ascii	"sizetype\000"
 4317      74797065 
 4317      00
 4318              	.LASF43:
 4319 0070 6E657743 		.ascii	"newCol\000"
 4319      6F6C00
 4320              	.LASF23:
 4321 0077 4E6F6465 		.ascii	"Node\000"
 4321      00
 4322              	.LASF75:
 4323 007c 474E5520 		.ascii	"GNU C99 5.4.1 20160609 (release) [ARM/embedded-5-br"
 4323      43393920 
 4323      352E342E 
 4323      31203230 
 4323      31363036 
 4324 00af 616E6368 		.ascii	"anch revision 237715] -mcpu=cortex-m3 -mthumb -g -O"
 4324      20726576 
 4324      6973696F 
 4324      6E203233 
 4324      37373135 
 4325 00e2 30202D73 		.ascii	"0 -std=c99 -ffunction-sections -ffat-lto-objects\000"
 4325      74643D63 
 4325      3939202D 
 4325      6666756E 
 4325      6374696F 
 4326              	.LASF36:
 4327 0113 73746570 		.ascii	"stepNum\000"
 4327      4E756D00 
 4328              	.LASF69:
 4329 011b 6E656967 		.ascii	"neighborNode\000"
 4329      68626F72 
 4329      4E6F6465 
 4329      00
 4330              	.LASF59:
 4331 0128 6E6F6465 		.ascii	"nodes\000"
 4331      7300
 4332              	.LASF76:
 4333 012e 70617468 		.ascii	"pathfinding.c\000"
ARM GAS  C:\Users\ikui753\AppData\Local\Temp\ccuCyN9r.s 			page 86


 4333      66696E64 
 4333      696E672E 
 4333      6300
 4334              	.LASF21:
 4335 013c 70617265 		.ascii	"parent\000"
 4335      6E7400
 4336              	.LASF63:
 4337 0143 6E6F6465 		.ascii	"nodeIndex\000"
 4337      496E6465 
 4337      7800
 4338              	.LASF18:
 4339 014d 626F6479 		.ascii	"body\000"
 4339      00
 4340              	.LASF50:
 4341 0152 68657572 		.ascii	"heuristic\000"
 4341      69737469 
 4341      6300
 4342              	.LASF24:
 4343 015c 4D6F7665 		.ascii	"Moves\000"
 4343      7300
 4344              	.LASF13:
 4345 0162 666C6F61 		.ascii	"float\000"
 4345      7400
 4346              	.LASF44:
 4347 0168 6E657744 		.ascii	"newDistance\000"
 4347      69737461 
 4347      6E636500 
 4348              	.LASF6:
 4349 0174 6C6F6E67 		.ascii	"long long int\000"
 4349      206C6F6E 
 4349      6720696E 
 4349      7400
 4350              	.LASF45:
 4351 0182 73746172 		.ascii	"startLocation\000"
 4351      744C6F63 
 4351      6174696F 
 4351      6E00
 4352              	.LASF4:
 4353 0190 6C6F6E67 		.ascii	"long int\000"
 4353      20696E74 
 4353      00
 4354              	.LASF60:
 4355 0199 6D6F7665 		.ascii	"moves_list\000"
 4355      735F6C69 
 4355      737400
 4356              	.LASF35:
 4357 01a4 64697374 		.ascii	"distances\000"
 4357      616E6365 
 4357      7300
 4358              	.LASF65:
 4359 01ae 6F70656E 		.ascii	"openlistlength\000"
 4359      6C697374 
 4359      6C656E67 
 4359      746800
 4360              	.LASF61:
 4361 01bd 73746172 		.ascii	"start_node\000"
 4361      745F6E6F 
ARM GAS  C:\Users\ikui753\AppData\Local\Temp\ccuCyN9r.s 			page 87


 4361      646500
 4362              	.LASF58:
 4363 01c8 636C6F73 		.ascii	"closed_list\000"
 4363      65645F6C 
 4363      69737400 
 4364              	.LASF78:
 4365 01d4 66696E64 		.ascii	"findPath\000"
 4365      50617468 
 4365      00
 4366              	.LASF46:
 4367 01dd 74617267 		.ascii	"targetLocation\000"
 4367      65744C6F 
 4367      63617469 
 4367      6F6E00
 4368              	.LASF29:
 4369 01ec 74617267 		.ascii	"targetlocation\000"
 4369      65746C6F 
 4369      63617469 
 4369      6F6E00
 4370              	.LASF42:
 4371 01fb 6E657752 		.ascii	"newRow\000"
 4371      6F7700
 4372              	.LASF19:
 4373 0202 4C6F6361 		.ascii	"Location\000"
 4373      74696F6E 
 4373      00
 4374              	.LASF49:
 4375 020b 69735F77 		.ascii	"is_walkable\000"
 4375      616C6B61 
 4375      626C6500 
 4376              	.LASF39:
 4377 0217 63757272 		.ascii	"currentRow\000"
 4377      656E7452 
 4377      6F7700
 4378              	.LASF40:
 4379 0222 63757272 		.ascii	"currentCol\000"
 4379      656E7443 
 4379      6F6C00
 4380              	.LASF1:
 4381 022d 756E7369 		.ascii	"unsigned char\000"
 4381      676E6564 
 4381      20636861 
 4381      7200
 4382              	.LASF51:
 4383 023b 64696A6B 		.ascii	"dijkstra\000"
 4383      73747261 
 4383      00
 4384              	.LASF34:
 4385 0244 70715369 		.ascii	"pqSize\000"
 4385      7A6500
 4386              	.LASF64:
 4387 024b 6D696E5F 		.ascii	"min_f\000"
 4387      6600
 4388              	.LASF0:
 4389 0251 7369676E 		.ascii	"signed char\000"
 4389      65642063 
 4389      68617200 
ARM GAS  C:\Users\ikui753\AppData\Local\Temp\ccuCyN9r.s 			page 88


 4390              	.LASF17:
 4391 025d 63617061 		.ascii	"capacity\000"
 4391      63697479 
 4391      00
 4392              	.LASF7:
 4393 0266 6C6F6E67 		.ascii	"long long unsigned int\000"
 4393      206C6F6E 
 4393      6720756E 
 4393      7369676E 
 4393      65642069 
 4394              	.LASF37:
 4395 027d 73686F72 		.ascii	"shortestDist\000"
 4395      74657374 
 4395      44697374 
 4395      00
 4396              	.LASF62:
 4397 028a 63757272 		.ascii	"currentNode\000"
 4397      656E744E 
 4397      6F646500 
 4398              	.LASF8:
 4399 0296 756E7369 		.ascii	"unsigned int\000"
 4399      676E6564 
 4399      20696E74 
 4399      00
 4400              	.LASF66:
 4401 02a3 6E656967 		.ascii	"neighbor_x\000"
 4401      68626F72 
 4401      5F7800
 4402              	.LASF67:
 4403 02ae 6E656967 		.ascii	"neighbor_y\000"
 4403      68626F72 
 4403      5F7900
 4404              	.LASF41:
 4405 02b9 63757272 		.ascii	"current\000"
 4405      656E7400 
 4406              	.LASF54:
 4407 02c1 73746172 		.ascii	"start\000"
 4407      7400
 4408              	.LASF3:
 4409 02c7 73686F72 		.ascii	"short unsigned int\000"
 4409      7420756E 
 4409      7369676E 
 4409      65642069 
 4409      6E7400
 4410              	.LASF10:
 4411 02da 63686172 		.ascii	"char\000"
 4411      00
 4412              	.LASF32:
 4413 02df 64697374 		.ascii	"distance\000"
 4413      616E6365 
 4413      00
 4414              	.LASF68:
 4415 02e8 74656E74 		.ascii	"tentative_g\000"
 4415      61746976 
 4415      655F6700 
 4416              	.LASF77:
 4417 02f4 483A5C44 		.ascii	"H:\\Documents\\GitHub\\301-Robot\\psoc student pack"
ARM GAS  C:\Users\ikui753\AppData\Local\Temp\ccuCyN9r.s 			page 89


 4417      6F63756D 
 4417      656E7473 
 4417      5C476974 
 4417      4875625C 
 4418 0323 5C70736F 		.ascii	"\\psoc_code_base\\CS301_Class.cydsn\000"
 4418      635F636F 
 4418      64655F62 
 4418      6173655C 
 4418      43533330 
 4419              	.LASF12:
 4420 0345 696E7433 		.ascii	"int32_t\000"
 4420      325F7400 
 4421              	.LASF15:
 4422 034d 61727261 		.ascii	"arraylist\000"
 4422      796C6973 
 4422      7400
 4423              	.LASF27:
 4424 0357 5F426F6F 		.ascii	"_Bool\000"
 4424      6C00
 4425              	.LASF55:
 4426 035d 63726173 		.ascii	"crashindicator\000"
 4426      68696E64 
 4426      69636174 
 4426      6F7200
 4427              	.LASF38:
 4428 036c 72657453 		.ascii	"retSteps\000"
 4428      74657073 
 4428      00
 4429              	.LASF16:
 4430 0375 73697A65 		.ascii	"size\000"
 4430      00
 4431              	.LASF48:
 4432 037a 69735F76 		.ascii	"is_valid_Position\000"
 4432      616C6964 
 4432      5F506F73 
 4432      6974696F 
 4432      6E00
 4433              	.LASF5:
 4434 038c 6C6F6E67 		.ascii	"long unsigned int\000"
 4434      20756E73 
 4434      69676E65 
 4434      6420696E 
 4434      7400
 4435              	.LASF14:
 4436 039e 646F7562 		.ascii	"double\000"
 4436      6C6500
 4437              	.LASF26:
 4438 03a5 636F6C73 		.ascii	"cols\000"
 4438      00
 4439              	.LASF72:
 4440 03aa 666F6F64 		.ascii	"food_list\000"
 4440      5F6C6973 
 4440      7400
 4441              	.LASF73:
 4442 03b4 49544D5F 		.ascii	"ITM_RxBuffer\000"
 4442      52784275 
 4442      66666572 
ARM GAS  C:\Users\ikui753\AppData\Local\Temp\ccuCyN9r.s 			page 90


 4442      00
 4443              	.LASF74:
 4444 03c1 6D6F7665 		.ascii	"moves\000"
 4444      7300
 4445              	.LASF11:
 4446 03c7 5F5F696E 		.ascii	"__int32_t\000"
 4446      7433325F 
 4446      7400
 4447              	.LASF31:
 4448 03d1 6C6F6361 		.ascii	"location\000"
 4448      74696F6E 
 4448      00
 4449              	.LASF56:
 4450 03da 61737461 		.ascii	"astar\000"
 4450      7200
 4451              	.LASF33:
 4452 03e0 76697369 		.ascii	"visitedMap\000"
 4452      7465644D 
 4452      617000
 4453              	.LASF20:
 4454 03eb 506F7369 		.ascii	"Position\000"
 4454      74696F6E 
 4454      00
 4455              	.LASF22:
 4456 03f4 706F7369 		.ascii	"position\000"
 4456      74696F6E 
 4456      00
 4457              	.LASF28:
 4458 03fd 73746172 		.ascii	"startlocation\000"
 4458      746C6F63 
 4458      6174696F 
 4458      6E00
 4459              		.ident	"GCC: (GNU Tools for ARM Embedded Processors) 5.4.1 20160609 (release) [ARM/embedded-5-bran
