ARM GAS  C:\Users\ikui753\AppData\Local\Temp\ccqmrS2t.s 			page 1


   1              		.syntax unified
   2              		.cpu cortex-m3
   3              		.fpu softvfp
   4              		.eabi_attribute 20, 1
   5              		.eabi_attribute 21, 1
   6              		.eabi_attribute 23, 3
   7              		.eabi_attribute 24, 1
   8              		.eabi_attribute 25, 1
   9              		.eabi_attribute 26, 1
  10              		.eabi_attribute 30, 6
  11              		.eabi_attribute 34, 1
  12              		.eabi_attribute 18, 4
  13              		.thumb
  14              		.syntax unified
  15              		.file	"pathfinding.c"
  16              		.text
  17              	.Ltext0:
  18              		.cfi_sections	.debug_frame
  19              		.comm	previousRobotOrientation,1,1
  20              		.global	currentRobotOrientation
  21              		.data
  22              		.type	currentRobotOrientation, %object
  23              		.size	currentRobotOrientation, 1
  24              	currentRobotOrientation:
  25 0000 01       		.byte	1
  26              		.bss
  27              		.align	2
  28              	instructionsList:
  29 0000 00000000 		.space	5700
  29      00000000 
  29      00000000 
  29      00000000 
  29      00000000 
  30              		.align	2
  31              	finalInstructionList:
  32 1644 00000000 		.space	5700
  32      00000000 
  32      00000000 
  32      00000000 
  32      00000000 
  33              		.align	2
  34              	numSteps:
  35 2c88 00000000 		.space	4
  36              		.global	map
  37              		.data
  38 0001 000000   		.align	2
  39              		.type	map, %object
  40              		.size	map, 1140
  41              	map:
  42 0004 01000000 		.word	1
  43 0008 01000000 		.word	1
  44 000c 01000000 		.word	1
  45 0010 01000000 		.word	1
  46 0014 01000000 		.word	1
  47 0018 01000000 		.word	1
  48 001c 01000000 		.word	1
  49 0020 01000000 		.word	1
ARM GAS  C:\Users\ikui753\AppData\Local\Temp\ccqmrS2t.s 			page 2


  50 0024 01000000 		.word	1
  51 0028 01000000 		.word	1
  52 002c 01000000 		.word	1
  53 0030 01000000 		.word	1
  54 0034 01000000 		.word	1
  55 0038 01000000 		.word	1
  56 003c 01000000 		.word	1
  57 0040 01000000 		.word	1
  58 0044 01000000 		.word	1
  59 0048 01000000 		.word	1
  60 004c 01000000 		.word	1
  61 0050 01000000 		.word	1
  62 0054 00000000 		.word	0
  63 0058 01000000 		.word	1
  64 005c 00000000 		.word	0
  65 0060 00000000 		.word	0
  66 0064 00000000 		.word	0
  67 0068 00000000 		.word	0
  68 006c 00000000 		.word	0
  69 0070 00000000 		.word	0
  70 0074 00000000 		.word	0
  71 0078 00000000 		.word	0
  72 007c 00000000 		.word	0
  73 0080 00000000 		.word	0
  74 0084 00000000 		.word	0
  75 0088 00000000 		.word	0
  76 008c 00000000 		.word	0
  77 0090 00000000 		.word	0
  78 0094 00000000 		.word	0
  79 0098 01000000 		.word	1
  80 009c 01000000 		.word	1
  81 00a0 00000000 		.word	0
  82 00a4 01000000 		.word	1
  83 00a8 00000000 		.word	0
  84 00ac 01000000 		.word	1
  85 00b0 01000000 		.word	1
  86 00b4 01000000 		.word	1
  87 00b8 01000000 		.word	1
  88 00bc 01000000 		.word	1
  89 00c0 00000000 		.word	0
  90 00c4 01000000 		.word	1
  91 00c8 01000000 		.word	1
  92 00cc 01000000 		.word	1
  93 00d0 00000000 		.word	0
  94 00d4 01000000 		.word	1
  95 00d8 01000000 		.word	1
  96 00dc 01000000 		.word	1
  97 00e0 00000000 		.word	0
  98 00e4 01000000 		.word	1
  99 00e8 01000000 		.word	1
 100 00ec 00000000 		.word	0
 101 00f0 00000000 		.word	0
 102 00f4 00000000 		.word	0
 103 00f8 01000000 		.word	1
 104 00fc 00000000 		.word	0
 105 0100 00000000 		.word	0
 106 0104 00000000 		.word	0
ARM GAS  C:\Users\ikui753\AppData\Local\Temp\ccqmrS2t.s 			page 3


 107 0108 01000000 		.word	1
 108 010c 00000000 		.word	0
 109 0110 00000000 		.word	0
 110 0114 00000000 		.word	0
 111 0118 00000000 		.word	0
 112 011c 00000000 		.word	0
 113 0120 00000000 		.word	0
 114 0124 00000000 		.word	0
 115 0128 01000000 		.word	1
 116 012c 00000000 		.word	0
 117 0130 01000000 		.word	1
 118 0134 01000000 		.word	1
 119 0138 01000000 		.word	1
 120 013c 01000000 		.word	1
 121 0140 00000000 		.word	0
 122 0144 01000000 		.word	1
 123 0148 00000000 		.word	0
 124 014c 01000000 		.word	1
 125 0150 00000000 		.word	0
 126 0154 01000000 		.word	1
 127 0158 01000000 		.word	1
 128 015c 01000000 		.word	1
 129 0160 00000000 		.word	0
 130 0164 01000000 		.word	1
 131 0168 00000000 		.word	0
 132 016c 01000000 		.word	1
 133 0170 01000000 		.word	1
 134 0174 01000000 		.word	1
 135 0178 00000000 		.word	0
 136 017c 01000000 		.word	1
 137 0180 01000000 		.word	1
 138 0184 00000000 		.word	0
 139 0188 00000000 		.word	0
 140 018c 00000000 		.word	0
 141 0190 01000000 		.word	1
 142 0194 00000000 		.word	0
 143 0198 01000000 		.word	1
 144 019c 00000000 		.word	0
 145 01a0 00000000 		.word	0
 146 01a4 00000000 		.word	0
 147 01a8 01000000 		.word	1
 148 01ac 00000000 		.word	0
 149 01b0 01000000 		.word	1
 150 01b4 00000000 		.word	0
 151 01b8 00000000 		.word	0
 152 01bc 00000000 		.word	0
 153 01c0 00000000 		.word	0
 154 01c4 00000000 		.word	0
 155 01c8 01000000 		.word	1
 156 01cc 01000000 		.word	1
 157 01d0 00000000 		.word	0
 158 01d4 01000000 		.word	1
 159 01d8 01000000 		.word	1
 160 01dc 01000000 		.word	1
 161 01e0 00000000 		.word	0
 162 01e4 01000000 		.word	1
 163 01e8 00000000 		.word	0
ARM GAS  C:\Users\ikui753\AppData\Local\Temp\ccqmrS2t.s 			page 4


 164 01ec 01000000 		.word	1
 165 01f0 00000000 		.word	0
 166 01f4 01000000 		.word	1
 167 01f8 00000000 		.word	0
 168 01fc 01000000 		.word	1
 169 0200 00000000 		.word	0
 170 0204 01000000 		.word	1
 171 0208 01000000 		.word	1
 172 020c 01000000 		.word	1
 173 0210 00000000 		.word	0
 174 0214 01000000 		.word	1
 175 0218 01000000 		.word	1
 176 021c 00000000 		.word	0
 177 0220 01000000 		.word	1
 178 0224 00000000 		.word	0
 179 0228 01000000 		.word	1
 180 022c 00000000 		.word	0
 181 0230 00000000 		.word	0
 182 0234 00000000 		.word	0
 183 0238 01000000 		.word	1
 184 023c 00000000 		.word	0
 185 0240 01000000 		.word	1
 186 0244 00000000 		.word	0
 187 0248 01000000 		.word	1
 188 024c 00000000 		.word	0
 189 0250 01000000 		.word	1
 190 0254 00000000 		.word	0
 191 0258 00000000 		.word	0
 192 025c 00000000 		.word	0
 193 0260 01000000 		.word	1
 194 0264 01000000 		.word	1
 195 0268 00000000 		.word	0
 196 026c 01000000 		.word	1
 197 0270 00000000 		.word	0
 198 0274 01000000 		.word	1
 199 0278 00000000 		.word	0
 200 027c 01000000 		.word	1
 201 0280 01000000 		.word	1
 202 0284 01000000 		.word	1
 203 0288 00000000 		.word	0
 204 028c 01000000 		.word	1
 205 0290 00000000 		.word	0
 206 0294 01000000 		.word	1
 207 0298 00000000 		.word	0
 208 029c 01000000 		.word	1
 209 02a0 00000000 		.word	0
 210 02a4 01000000 		.word	1
 211 02a8 01000000 		.word	1
 212 02ac 01000000 		.word	1
 213 02b0 01000000 		.word	1
 214 02b4 00000000 		.word	0
 215 02b8 00000000 		.word	0
 216 02bc 00000000 		.word	0
 217 02c0 01000000 		.word	1
 218 02c4 00000000 		.word	0
 219 02c8 01000000 		.word	1
 220 02cc 00000000 		.word	0
ARM GAS  C:\Users\ikui753\AppData\Local\Temp\ccqmrS2t.s 			page 5


 221 02d0 00000000 		.word	0
 222 02d4 00000000 		.word	0
 223 02d8 01000000 		.word	1
 224 02dc 00000000 		.word	0
 225 02e0 00000000 		.word	0
 226 02e4 00000000 		.word	0
 227 02e8 01000000 		.word	1
 228 02ec 00000000 		.word	0
 229 02f0 00000000 		.word	0
 230 02f4 00000000 		.word	0
 231 02f8 01000000 		.word	1
 232 02fc 01000000 		.word	1
 233 0300 01000000 		.word	1
 234 0304 01000000 		.word	1
 235 0308 00000000 		.word	0
 236 030c 01000000 		.word	1
 237 0310 00000000 		.word	0
 238 0314 01000000 		.word	1
 239 0318 01000000 		.word	1
 240 031c 01000000 		.word	1
 241 0320 01000000 		.word	1
 242 0324 01000000 		.word	1
 243 0328 01000000 		.word	1
 244 032c 01000000 		.word	1
 245 0330 01000000 		.word	1
 246 0334 01000000 		.word	1
 247 0338 01000000 		.word	1
 248 033c 01000000 		.word	1
 249 0340 00000000 		.word	0
 250 0344 01000000 		.word	1
 251 0348 01000000 		.word	1
 252 034c 00000000 		.word	0
 253 0350 00000000 		.word	0
 254 0354 00000000 		.word	0
 255 0358 00000000 		.word	0
 256 035c 00000000 		.word	0
 257 0360 00000000 		.word	0
 258 0364 00000000 		.word	0
 259 0368 00000000 		.word	0
 260 036c 00000000 		.word	0
 261 0370 00000000 		.word	0
 262 0374 00000000 		.word	0
 263 0378 00000000 		.word	0
 264 037c 00000000 		.word	0
 265 0380 00000000 		.word	0
 266 0384 00000000 		.word	0
 267 0388 00000000 		.word	0
 268 038c 00000000 		.word	0
 269 0390 01000000 		.word	1
 270 0394 01000000 		.word	1
 271 0398 00000000 		.word	0
 272 039c 01000000 		.word	1
 273 03a0 01000000 		.word	1
 274 03a4 01000000 		.word	1
 275 03a8 01000000 		.word	1
 276 03ac 01000000 		.word	1
 277 03b0 01000000 		.word	1
ARM GAS  C:\Users\ikui753\AppData\Local\Temp\ccqmrS2t.s 			page 6


 278 03b4 01000000 		.word	1
 279 03b8 01000000 		.word	1
 280 03bc 01000000 		.word	1
 281 03c0 01000000 		.word	1
 282 03c4 01000000 		.word	1
 283 03c8 00000000 		.word	0
 284 03cc 01000000 		.word	1
 285 03d0 01000000 		.word	1
 286 03d4 01000000 		.word	1
 287 03d8 01000000 		.word	1
 288 03dc 01000000 		.word	1
 289 03e0 01000000 		.word	1
 290 03e4 00000000 		.word	0
 291 03e8 00000000 		.word	0
 292 03ec 00000000 		.word	0
 293 03f0 00000000 		.word	0
 294 03f4 00000000 		.word	0
 295 03f8 00000000 		.word	0
 296 03fc 00000000 		.word	0
 297 0400 01000000 		.word	1
 298 0404 00000000 		.word	0
 299 0408 00000000 		.word	0
 300 040c 00000000 		.word	0
 301 0410 00000000 		.word	0
 302 0414 00000000 		.word	0
 303 0418 00000000 		.word	0
 304 041c 00000000 		.word	0
 305 0420 00000000 		.word	0
 306 0424 00000000 		.word	0
 307 0428 01000000 		.word	1
 308 042c 01000000 		.word	1
 309 0430 01000000 		.word	1
 310 0434 01000000 		.word	1
 311 0438 01000000 		.word	1
 312 043c 01000000 		.word	1
 313 0440 01000000 		.word	1
 314 0444 01000000 		.word	1
 315 0448 01000000 		.word	1
 316 044c 01000000 		.word	1
 317 0450 01000000 		.word	1
 318 0454 01000000 		.word	1
 319 0458 01000000 		.word	1
 320 045c 01000000 		.word	1
 321 0460 01000000 		.word	1
 322 0464 01000000 		.word	1
 323 0468 01000000 		.word	1
 324 046c 01000000 		.word	1
 325 0470 01000000 		.word	1
 326 0474 01000000 		.word	1
 327              		.global	start_pos
 328              		.align	2
 329              		.type	start_pos, %object
 330              		.size	start_pos, 8
 331              	start_pos:
 332 0478 01000000 		.word	1
 333 047c 01000000 		.word	1
 334              		.global	food_list
ARM GAS  C:\Users\ikui753\AppData\Local\Temp\ccqmrS2t.s 			page 7


 335              		.align	2
 336              		.type	food_list, %object
 337              		.size	food_list, 40
 338              	food_list:
 339 0480 09000000 		.word	9
 340 0484 01000000 		.word	1
 341 0488 05000000 		.word	5
 342 048c 05000000 		.word	5
 343 0490 01000000 		.word	1
 344 0494 07000000 		.word	7
 345 0498 05000000 		.word	5
 346 049c 0D000000 		.word	13
 347 04a0 09000000 		.word	9
 348 04a4 09000000 		.word	9
 349              		.section	.rodata
 350              		.align	2
 351              	.LC0:
 352 0000 256400   		.ascii	"%d\000"
 353              		.section	.text.printMap,"ax",%progbits
 354              		.align	2
 355              		.global	printMap
 356              		.thumb
 357              		.thumb_func
 358              		.type	printMap, %function
 359              	printMap:
 360              	.LFB1:
 361              		.file 1 "pathfinding.c"
   1:pathfinding.c **** /* ========================================
   2:pathfinding.c ****  *
   3:pathfinding.c ****  * Copyright YOUR COMPANY, THE YEAR
   4:pathfinding.c ****  * All Rights Reserved
   5:pathfinding.c ****  * UNPUBLISHED, LICENSED SOFTWARE.
   6:pathfinding.c ****  *
   7:pathfinding.c ****  * CONFIDENTIAL AND PROPRIETARY INFORMATION
   8:pathfinding.c ****  * WHICH IS THE PROPERTY OF your company.
   9:pathfinding.c ****  *
  10:pathfinding.c ****  * ========================================
  11:pathfinding.c **** */
  12:pathfinding.c **** #include <stdio.h>
  13:pathfinding.c **** #include <stdlib.h>
  14:pathfinding.c **** #include <time.h>
  15:pathfinding.c **** #include <stdbool.h>
  16:pathfinding.c **** #include "map.h"
  17:pathfinding.c **** #include "pathfinding.h"
  18:pathfinding.c **** 
  19:pathfinding.c **** #define MAX_ROWS 15
  20:pathfinding.c **** #define MAX_COLS 19
  21:pathfinding.c **** #define ARRAY_LENGTH(arr) (sizeof(arr) / sizeof((arr)[0]))
  22:pathfinding.c **** enum OrientationState previousRobotOrientation, currentRobotOrientation = Down; // initialize 
  23:pathfinding.c **** 
  24:pathfinding.c **** static Instruction instructionsList[285];
  25:pathfinding.c **** static Instruction finalInstructionList[285];
  26:pathfinding.c **** static int numSteps = 0;
  27:pathfinding.c **** 
  28:pathfinding.c **** uint8_t instructionsListLength();
  29:pathfinding.c **** void checkIgnoreTurn(enum OrientationState currentRobotOrientation, int currentRow, int currentCol)
  30:pathfinding.c **** uint8_t checkPathDirection(int currentRow, int currentCol);
ARM GAS  C:\Users\ikui753\AppData\Local\Temp\ccqmrS2t.s 			page 8


  31:pathfinding.c **** uint8_t getTargetOrientation(int targetRow, int targetCol); 
  32:pathfinding.c **** Instruction * findPath(int map[MAX_ROWS][MAX_COLS], int food_list[5][2], int i);
  33:pathfinding.c **** 
  34:pathfinding.c **** 
  35:pathfinding.c **** int map[15][19] = {
  36:pathfinding.c **** {1,1,1,1,1,1,1,1,1,1,1,1,1,1,1,1,1,1,1},
  37:pathfinding.c **** {1,0,1,0,0,0,0,0,0,0,0,0,0,0,0,0,0,0,1},
  38:pathfinding.c **** {1,0,1,0,1,1,1,1,1,0,1,1,1,0,1,1,1,0,1},
  39:pathfinding.c **** {1,0,0,0,1,0,0,0,1,0,0,0,0,0,0,0,1,0,1},
  40:pathfinding.c **** {1,1,1,0,1,0,1,0,1,1,1,0,1,0,1,1,1,0,1},
  41:pathfinding.c **** {1,0,0,0,1,0,1,0,0,0,1,0,1,0,0,0,0,0,1},
  42:pathfinding.c **** {1,0,1,1,1,0,1,0,1,0,1,0,1,0,1,1,1,0,1},
  43:pathfinding.c **** {1,0,1,0,1,0,0,0,1,0,1,0,1,0,1,0,0,0,1},
  44:pathfinding.c **** {1,0,1,0,1,0,1,1,1,0,1,0,1,0,1,0,1,1,1},
  45:pathfinding.c **** {1,0,0,0,1,0,1,0,0,0,1,0,0,0,1,0,0,0,1},
  46:pathfinding.c **** {1,1,1,0,1,0,1,1,1,1,1,1,1,1,1,1,1,0,1},
  47:pathfinding.c **** {1,0,0,0,0,0,0,0,0,0,0,0,0,0,0,0,0,0,1},
  48:pathfinding.c **** {1,0,1,1,1,1,1,1,1,1,1,1,1,0,1,1,1,1,1},
  49:pathfinding.c **** {1,0,0,0,0,0,0,0,1,0,0,0,0,0,0,0,0,0,1},
  50:pathfinding.c **** {1,1,1,1,1,1,1,1,1,1,1,1,1,1,1,1,1,1,1},
  51:pathfinding.c **** };
  52:pathfinding.c **** 
  53:pathfinding.c **** /*
  54:pathfinding.c **** int map[15][19] = {
  55:pathfinding.c **** {1,1,1,1,1,1,1,1,1,1,1,1,1,1,1,1,1,1,1},
  56:pathfinding.c **** {1,0,0,0,0,0,1,0,0,0,0,0,0,0,0,0,0,0,1},
  57:pathfinding.c **** {1,1,1,1,1,0,1,0,1,1,1,1,1,1,1,0,1,0,1},
  58:pathfinding.c **** {1,0,0,0,0,0,0,0,0,0,0,0,0,0,1,0,1,0,1},
  59:pathfinding.c **** {1,0,1,0,1,1,1,1,1,0,1,0,1,1,1,0,1,0,1},
  60:pathfinding.c **** {1,0,1,0,0,0,1,0,0,0,1,0,1,0,0,0,1,0,1},
  61:pathfinding.c **** {1,0,1,1,1,0,1,0,1,0,1,0,1,0,1,1,1,0,1},
  62:pathfinding.c **** {1,0,0,0,0,0,1,0,1,0,1,0,1,0,1,0,0,0,1},
  63:pathfinding.c **** {1,0,1,1,1,1,1,0,1,0,1,1,1,0,1,0,1,1,1},
  64:pathfinding.c **** {1,0,0,0,0,0,0,0,1,0,0,0,1,0,1,0,0,0,1},
  65:pathfinding.c **** {1,1,1,1,1,1,1,0,1,1,1,0,1,0,1,1,1,0,1},
  66:pathfinding.c **** {1,0,0,0,0,0,0,0,0,0,1,0,1,0,0,0,0,0,1},
  67:pathfinding.c **** {1,0,1,1,1,1,1,1,1,0,1,0,1,1,1,1,1,0,1},
  68:pathfinding.c **** {1,0,0,0,0,0,0,0,1,0,0,0,0,0,0,0,0,0,1},
  69:pathfinding.c **** {1,1,1,1,1,1,1,1,1,1,1,1,1,1,1,1,1,1,1},
  70:pathfinding.c **** };
  71:pathfinding.c **** */
  72:pathfinding.c **** 
  73:pathfinding.c **** 
  74:pathfinding.c **** int start_pos[2] = {1,1};
  75:pathfinding.c **** int food_list[5][2]= {
  76:pathfinding.c **** {9,1},
  77:pathfinding.c **** {5,5},
  78:pathfinding.c **** {1,7},
  79:pathfinding.c **** {5,13},
  80:pathfinding.c **** {9,9}
  81:pathfinding.c **** };
  82:pathfinding.c **** /*
  83:pathfinding.c **** int food_list[5][2]= {
  84:pathfinding.c **** {1,1},
  85:pathfinding.c **** {5,5},
  86:pathfinding.c **** {7,1},
  87:pathfinding.c **** {13,5},
ARM GAS  C:\Users\ikui753\AppData\Local\Temp\ccqmrS2t.s 			page 9


  88:pathfinding.c **** {9,9}
  89:pathfinding.c **** };
  90:pathfinding.c **** */
  91:pathfinding.c **** // MAP INITIALISATION CODE
  92:pathfinding.c **** void printMap(int map[MAX_ROWS][MAX_COLS]) {
 362              		.loc 1 92 0
 363              		.cfi_startproc
 364              		@ args = 0, pretend = 0, frame = 16
 365              		@ frame_needed = 1, uses_anonymous_args = 0
 366 0000 80B5     		push	{r7, lr}
 367              		.cfi_def_cfa_offset 8
 368              		.cfi_offset 7, -8
 369              		.cfi_offset 14, -4
 370 0002 84B0     		sub	sp, sp, #16
 371              		.cfi_def_cfa_offset 24
 372 0004 00AF     		add	r7, sp, #0
 373              		.cfi_def_cfa_register 7
 374 0006 7860     		str	r0, [r7, #4]
 375              	.LBB2:
  93:pathfinding.c ****     // Print the map in a grid format
  94:pathfinding.c ****     for (int i = 0; i < MAX_ROWS; i++) {
 376              		.loc 1 94 0
 377 0008 0023     		movs	r3, #0
 378 000a FB60     		str	r3, [r7, #12]
 379 000c 1BE0     		b	.L2
 380              	.L5:
 381              	.LBB3:
  95:pathfinding.c ****         for (int j = 0; j < MAX_COLS; j++) {
 382              		.loc 1 95 0
 383 000e 0023     		movs	r3, #0
 384 0010 BB60     		str	r3, [r7, #8]
 385 0012 0FE0     		b	.L3
 386              	.L4:
  96:pathfinding.c ****             printf("%d", map[i][j]);
 387              		.loc 1 96 0 discriminator 3
 388 0014 FB68     		ldr	r3, [r7, #12]
 389 0016 4C22     		movs	r2, #76
 390 0018 02FB03F3 		mul	r3, r2, r3
 391 001c 7A68     		ldr	r2, [r7, #4]
 392 001e 1344     		add	r3, r3, r2
 393 0020 BA68     		ldr	r2, [r7, #8]
 394 0022 53F82230 		ldr	r3, [r3, r2, lsl #2]
 395 0026 1946     		mov	r1, r3
 396 0028 0A48     		ldr	r0, .L6
 397 002a FFF7FEFF 		bl	printf
  95:pathfinding.c ****         for (int j = 0; j < MAX_COLS; j++) {
 398              		.loc 1 95 0 discriminator 3
 399 002e BB68     		ldr	r3, [r7, #8]
 400 0030 0133     		adds	r3, r3, #1
 401 0032 BB60     		str	r3, [r7, #8]
 402              	.L3:
  95:pathfinding.c ****         for (int j = 0; j < MAX_COLS; j++) {
 403              		.loc 1 95 0 is_stmt 0 discriminator 1
 404 0034 BB68     		ldr	r3, [r7, #8]
 405 0036 122B     		cmp	r3, #18
 406 0038 ECDD     		ble	.L4
 407              	.LBE3:
ARM GAS  C:\Users\ikui753\AppData\Local\Temp\ccqmrS2t.s 			page 10


  97:pathfinding.c ****         }
  98:pathfinding.c ****         printf("\n");
 408              		.loc 1 98 0 is_stmt 1 discriminator 2
 409 003a 0A20     		movs	r0, #10
 410 003c FFF7FEFF 		bl	putchar
  94:pathfinding.c ****         for (int j = 0; j < MAX_COLS; j++) {
 411              		.loc 1 94 0 discriminator 2
 412 0040 FB68     		ldr	r3, [r7, #12]
 413 0042 0133     		adds	r3, r3, #1
 414 0044 FB60     		str	r3, [r7, #12]
 415              	.L2:
  94:pathfinding.c ****         for (int j = 0; j < MAX_COLS; j++) {
 416              		.loc 1 94 0 is_stmt 0 discriminator 1
 417 0046 FB68     		ldr	r3, [r7, #12]
 418 0048 0E2B     		cmp	r3, #14
 419 004a E0DD     		ble	.L5
 420              	.LBE2:
  99:pathfinding.c ****     }
 100:pathfinding.c **** }
 421              		.loc 1 100 0 is_stmt 1
 422 004c 00BF     		nop
 423 004e 1037     		adds	r7, r7, #16
 424              		.cfi_def_cfa_offset 8
 425 0050 BD46     		mov	sp, r7
 426              		.cfi_def_cfa_register 13
 427              		@ sp needed
 428 0052 80BD     		pop	{r7, pc}
 429              	.L7:
 430              		.align	2
 431              	.L6:
 432 0054 00000000 		.word	.LC0
 433              		.cfi_endproc
 434              	.LFE1:
 435              		.size	printMap, .-printMap
 436              		.section	.text.clearMap,"ax",%progbits
 437              		.align	2
 438              		.global	clearMap
 439              		.thumb
 440              		.thumb_func
 441              		.type	clearMap, %function
 442              	clearMap:
 443              	.LFB2:
 101:pathfinding.c **** void clearMap(int map[MAX_ROWS][MAX_COLS]) {
 444              		.loc 1 101 0
 445              		.cfi_startproc
 446              		@ args = 0, pretend = 0, frame = 16
 447              		@ frame_needed = 1, uses_anonymous_args = 0
 448              		@ link register save eliminated.
 449 0000 80B4     		push	{r7}
 450              		.cfi_def_cfa_offset 4
 451              		.cfi_offset 7, -4
 452 0002 85B0     		sub	sp, sp, #20
 453              		.cfi_def_cfa_offset 24
 454 0004 00AF     		add	r7, sp, #0
 455              		.cfi_def_cfa_register 7
 456 0006 7860     		str	r0, [r7, #4]
 457              	.LBB4:
ARM GAS  C:\Users\ikui753\AppData\Local\Temp\ccqmrS2t.s 			page 11


 102:pathfinding.c ****     // Print the map in a grid format
 103:pathfinding.c ****     for (int i = 0; i < MAX_ROWS; i++) {
 458              		.loc 1 103 0
 459 0008 0023     		movs	r3, #0
 460 000a FB60     		str	r3, [r7, #12]
 461 000c 20E0     		b	.L9
 462              	.L13:
 463              	.LBB5:
 104:pathfinding.c ****         for (int j = 0; j < MAX_COLS; j++) {
 464              		.loc 1 104 0
 465 000e 0023     		movs	r3, #0
 466 0010 BB60     		str	r3, [r7, #8]
 467 0012 17E0     		b	.L10
 468              	.L12:
 105:pathfinding.c ****             if(map[i][j] != 1) { map[i][j] = 0;} // clear map
 469              		.loc 1 105 0
 470 0014 FB68     		ldr	r3, [r7, #12]
 471 0016 4C22     		movs	r2, #76
 472 0018 02FB03F3 		mul	r3, r2, r3
 473 001c 7A68     		ldr	r2, [r7, #4]
 474 001e 1344     		add	r3, r3, r2
 475 0020 BA68     		ldr	r2, [r7, #8]
 476 0022 53F82230 		ldr	r3, [r3, r2, lsl #2]
 477 0026 012B     		cmp	r3, #1
 478 0028 09D0     		beq	.L11
 479              		.loc 1 105 0 is_stmt 0 discriminator 1
 480 002a FB68     		ldr	r3, [r7, #12]
 481 002c 4C22     		movs	r2, #76
 482 002e 02FB03F3 		mul	r3, r2, r3
 483 0032 7A68     		ldr	r2, [r7, #4]
 484 0034 1344     		add	r3, r3, r2
 485 0036 BA68     		ldr	r2, [r7, #8]
 486 0038 0021     		movs	r1, #0
 487 003a 43F82210 		str	r1, [r3, r2, lsl #2]
 488              	.L11:
 104:pathfinding.c ****         for (int j = 0; j < MAX_COLS; j++) {
 489              		.loc 1 104 0 is_stmt 1 discriminator 2
 490 003e BB68     		ldr	r3, [r7, #8]
 491 0040 0133     		adds	r3, r3, #1
 492 0042 BB60     		str	r3, [r7, #8]
 493              	.L10:
 104:pathfinding.c ****         for (int j = 0; j < MAX_COLS; j++) {
 494              		.loc 1 104 0 is_stmt 0 discriminator 1
 495 0044 BB68     		ldr	r3, [r7, #8]
 496 0046 122B     		cmp	r3, #18
 497 0048 E4DD     		ble	.L12
 498              	.LBE5:
 103:pathfinding.c ****         for (int j = 0; j < MAX_COLS; j++) {
 499              		.loc 1 103 0 is_stmt 1 discriminator 2
 500 004a FB68     		ldr	r3, [r7, #12]
 501 004c 0133     		adds	r3, r3, #1
 502 004e FB60     		str	r3, [r7, #12]
 503              	.L9:
 103:pathfinding.c ****         for (int j = 0; j < MAX_COLS; j++) {
 504              		.loc 1 103 0 is_stmt 0 discriminator 1
 505 0050 FB68     		ldr	r3, [r7, #12]
 506 0052 0E2B     		cmp	r3, #14
ARM GAS  C:\Users\ikui753\AppData\Local\Temp\ccqmrS2t.s 			page 12


 507 0054 DBDD     		ble	.L13
 508              	.LBE4:
 106:pathfinding.c ****         }
 107:pathfinding.c ****     }
 108:pathfinding.c **** }
 509              		.loc 1 108 0 is_stmt 1
 510 0056 00BF     		nop
 511 0058 1437     		adds	r7, r7, #20
 512              		.cfi_def_cfa_offset 4
 513 005a BD46     		mov	sp, r7
 514              		.cfi_def_cfa_register 13
 515              		@ sp needed
 516 005c 80BC     		pop	{r7}
 517              		.cfi_restore 7
 518              		.cfi_def_cfa_offset 0
 519 005e 7047     		bx	lr
 520              		.cfi_endproc
 521              	.LFE2:
 522              		.size	clearMap, .-clearMap
 523              		.comm	list_of_optimal_coordinates,2280,4
 524              		.global	moves
 525              		.data
 526              		.align	2
 527              		.type	moves, %object
 528              		.size	moves, 32
 529              	moves:
 530 04a8 00000000 		.word	0
 531 04ac 01000000 		.word	1
 532 04b0 00000000 		.word	0
 533 04b4 FFFFFFFF 		.word	-1
 534 04b8 01000000 		.word	1
 535 04bc 00000000 		.word	0
 536 04c0 FFFFFFFF 		.word	-1
 537 04c4 00000000 		.word	0
 538              		.section	.text.isValidMove,"ax",%progbits
 539              		.align	2
 540              		.global	isValidMove
 541              		.thumb
 542              		.thumb_func
 543              		.type	isValidMove, %function
 544              	isValidMove:
 545              	.LFB3:
 109:pathfinding.c **** 
 110:pathfinding.c **** 
 111:pathfinding.c **** int list_of_optimal_coordinates[285][2]; // ROW, COL
 112:pathfinding.c **** 
 113:pathfinding.c **** struct Location moves[] = { {0, 1}, {0, -1}, {1, 0}, {-1, 0} };
 114:pathfinding.c **** 
 115:pathfinding.c **** bool isValidMove(int r, int c, int rows, int cols, int map[MAX_ROWS][MAX_COLS]) {
 546              		.loc 1 115 0
 547              		.cfi_startproc
 548              		@ args = 4, pretend = 0, frame = 16
 549              		@ frame_needed = 1, uses_anonymous_args = 0
 550              		@ link register save eliminated.
 551 0000 80B4     		push	{r7}
 552              		.cfi_def_cfa_offset 4
 553              		.cfi_offset 7, -4
ARM GAS  C:\Users\ikui753\AppData\Local\Temp\ccqmrS2t.s 			page 13


 554 0002 85B0     		sub	sp, sp, #20
 555              		.cfi_def_cfa_offset 24
 556 0004 00AF     		add	r7, sp, #0
 557              		.cfi_def_cfa_register 7
 558 0006 F860     		str	r0, [r7, #12]
 559 0008 B960     		str	r1, [r7, #8]
 560 000a 7A60     		str	r2, [r7, #4]
 561 000c 3B60     		str	r3, [r7]
 116:pathfinding.c ****     return (r >= 0 && r < rows && c >= 0 && c < cols && map[r][c] == 0);
 562              		.loc 1 116 0
 563 000e FB68     		ldr	r3, [r7, #12]
 564 0010 002B     		cmp	r3, #0
 565 0012 17DB     		blt	.L15
 566              		.loc 1 116 0 is_stmt 0 discriminator 1
 567 0014 FA68     		ldr	r2, [r7, #12]
 568 0016 7B68     		ldr	r3, [r7, #4]
 569 0018 9A42     		cmp	r2, r3
 570 001a 13DA     		bge	.L15
 571              		.loc 1 116 0 discriminator 3
 572 001c BB68     		ldr	r3, [r7, #8]
 573 001e 002B     		cmp	r3, #0
 574 0020 10DB     		blt	.L15
 575              		.loc 1 116 0 discriminator 5
 576 0022 BA68     		ldr	r2, [r7, #8]
 577 0024 3B68     		ldr	r3, [r7]
 578 0026 9A42     		cmp	r2, r3
 579 0028 0CDA     		bge	.L15
 580              		.loc 1 116 0 discriminator 7
 581 002a FB68     		ldr	r3, [r7, #12]
 582 002c 4C22     		movs	r2, #76
 583 002e 02FB03F3 		mul	r3, r2, r3
 584 0032 BA69     		ldr	r2, [r7, #24]
 585 0034 1344     		add	r3, r3, r2
 586 0036 BA68     		ldr	r2, [r7, #8]
 587 0038 53F82230 		ldr	r3, [r3, r2, lsl #2]
 588 003c 002B     		cmp	r3, #0
 589 003e 01D1     		bne	.L15
 590              		.loc 1 116 0 discriminator 9
 591 0040 0123     		movs	r3, #1
 592 0042 00E0     		b	.L16
 593              	.L15:
 594              		.loc 1 116 0 discriminator 10
 595 0044 0023     		movs	r3, #0
 596              	.L16:
 597              		.loc 1 116 0 discriminator 12
 598 0046 03F00103 		and	r3, r3, #1
 599 004a DBB2     		uxtb	r3, r3
 117:pathfinding.c **** }
 600              		.loc 1 117 0 is_stmt 1 discriminator 12
 601 004c 1846     		mov	r0, r3
 602 004e 1437     		adds	r7, r7, #20
 603              		.cfi_def_cfa_offset 4
 604 0050 BD46     		mov	sp, r7
 605              		.cfi_def_cfa_register 13
 606              		@ sp needed
 607 0052 80BC     		pop	{r7}
 608              		.cfi_restore 7
ARM GAS  C:\Users\ikui753\AppData\Local\Temp\ccqmrS2t.s 			page 14


 609              		.cfi_def_cfa_offset 0
 610 0054 7047     		bx	lr
 611              		.cfi_endproc
 612              	.LFE3:
 613              		.size	isValidMove, .-isValidMove
 614 0056 00BF     		.section	.text.dijkstra,"ax",%progbits
 615              		.align	2
 616              		.global	dijkstra
 617              		.thumb
 618              		.thumb_func
 619              		.type	dijkstra, %function
 620              	dijkstra:
 621              	.LFB4:
 118:pathfinding.c **** 
 119:pathfinding.c **** void dijkstra(int map[MAX_ROWS][MAX_COLS], struct Location startlocation, struct Location targetloc
 622              		.loc 1 119 0
 623              		.cfi_startproc
 624              		@ args = 12, pretend = 8, frame = 5816
 625              		@ frame_needed = 1, uses_anonymous_args = 0
 626 0000 82B0     		sub	sp, sp, #8
 627              		.cfi_def_cfa_offset 8
 628 0002 90B5     		push	{r4, r7, lr}
 629              		.cfi_def_cfa_offset 20
 630              		.cfi_offset 4, -20
 631              		.cfi_offset 7, -16
 632              		.cfi_offset 14, -12
 633 0004 ADF5B65D 		sub	sp, sp, #5824
 634              		.cfi_def_cfa_offset 5844
 635 0008 81B0     		sub	sp, sp, #4
 636              		.cfi_def_cfa_offset 5848
 637 000a 02AF     		add	r7, sp, #8
 638              		.cfi_def_cfa 7, 5840
 639 000c 07F11804 		add	r4, r7, #24
 640 0010 0C3C     		subs	r4, r4, #12
 641 0012 2060     		str	r0, [r4]
 642 0014 07F11800 		add	r0, r7, #24
 643 0018 1438     		subs	r0, r0, #20
 644 001a 80E80600 		stmia	r0, {r1, r2}
 645 001e 07F5B652 		add	r2, r7, #5824
 646 0022 02F10C02 		add	r2, r2, #12
 647 0026 1360     		str	r3, [r2]
 648              	.LBB6:
 120:pathfinding.c **** 
 121:pathfinding.c ****     int visitedMap[MAX_ROWS][MAX_COLS];
 122:pathfinding.c ****     for (int i = 0; i < MAX_ROWS; i++) {
 649              		.loc 1 122 0
 650 0028 0023     		movs	r3, #0
 651 002a 07F5B552 		add	r2, r7, #5792
 652 002e 02F11402 		add	r2, r2, #20
 653 0032 1360     		str	r3, [r2]
 654 0034 3AE0     		b	.L19
 655              	.L22:
 656              	.LBB7:
 123:pathfinding.c ****         for (int j = 0; j < MAX_COLS; j++) {
 657              		.loc 1 123 0
 658 0036 0023     		movs	r3, #0
 659 0038 07F5B552 		add	r2, r7, #5792
ARM GAS  C:\Users\ikui753\AppData\Local\Temp\ccqmrS2t.s 			page 15


 660 003c 02F11002 		add	r2, r2, #16
 661 0040 1360     		str	r3, [r2]
 662 0042 21E0     		b	.L20
 663              	.L21:
 124:pathfinding.c ****             visitedMap[i][j] = 1; // fill visited array with 1s- mark as unvisited
 664              		.loc 1 124 0 discriminator 3
 665 0044 07F58F51 		add	r1, r7, #4576
 666 0048 01F10C01 		add	r1, r1, #12
 667 004c 07F5B553 		add	r3, r7, #5792
 668 0050 03F11403 		add	r3, r3, #20
 669 0054 1A68     		ldr	r2, [r3]
 670 0056 1346     		mov	r3, r2
 671 0058 DB00     		lsls	r3, r3, #3
 672 005a 1344     		add	r3, r3, r2
 673 005c 5B00     		lsls	r3, r3, #1
 674 005e 1344     		add	r3, r3, r2
 675 0060 07F5B552 		add	r2, r7, #5792
 676 0064 02F11002 		add	r2, r2, #16
 677 0068 1268     		ldr	r2, [r2]
 678 006a 1344     		add	r3, r3, r2
 679 006c 0122     		movs	r2, #1
 680 006e 41F82320 		str	r2, [r1, r3, lsl #2]
 123:pathfinding.c ****         for (int j = 0; j < MAX_COLS; j++) {
 681              		.loc 1 123 0 discriminator 3
 682 0072 07F5B553 		add	r3, r7, #5792
 683 0076 03F11003 		add	r3, r3, #16
 684 007a 1B68     		ldr	r3, [r3]
 685 007c 0133     		adds	r3, r3, #1
 686 007e 07F5B552 		add	r2, r7, #5792
 687 0082 02F11002 		add	r2, r2, #16
 688 0086 1360     		str	r3, [r2]
 689              	.L20:
 123:pathfinding.c ****         for (int j = 0; j < MAX_COLS; j++) {
 690              		.loc 1 123 0 is_stmt 0 discriminator 1
 691 0088 07F5B553 		add	r3, r7, #5792
 692 008c 03F11003 		add	r3, r3, #16
 693 0090 1B68     		ldr	r3, [r3]
 694 0092 122B     		cmp	r3, #18
 695 0094 D6DD     		ble	.L21
 696              	.LBE7:
 122:pathfinding.c ****         for (int j = 0; j < MAX_COLS; j++) {
 697              		.loc 1 122 0 is_stmt 1 discriminator 2
 698 0096 07F5B553 		add	r3, r7, #5792
 699 009a 03F11403 		add	r3, r3, #20
 700 009e 1B68     		ldr	r3, [r3]
 701 00a0 0133     		adds	r3, r3, #1
 702 00a2 07F5B552 		add	r2, r7, #5792
 703 00a6 02F11402 		add	r2, r2, #20
 704 00aa 1360     		str	r3, [r2]
 705              	.L19:
 122:pathfinding.c ****         for (int j = 0; j < MAX_COLS; j++) {
 706              		.loc 1 122 0 is_stmt 0 discriminator 1
 707 00ac 07F5B553 		add	r3, r7, #5792
 708 00b0 03F11403 		add	r3, r3, #20
 709 00b4 1B68     		ldr	r3, [r3]
 710 00b6 0E2B     		cmp	r3, #14
 711 00b8 BDDD     		ble	.L22
ARM GAS  C:\Users\ikui753\AppData\Local\Temp\ccqmrS2t.s 			page 16


 712              	.LBE6:
 125:pathfinding.c ****         }
 126:pathfinding.c ****     }
 127:pathfinding.c **** 
 128:pathfinding.c ****     struct PriorityQueue {
 129:pathfinding.c ****         struct Location location;
 130:pathfinding.c ****         int distance;
 131:pathfinding.c ****     };
 132:pathfinding.c **** 
 133:pathfinding.c ****     struct PriorityQueue pq[MAX_ROWS * MAX_COLS]; // initialise priority queue
 134:pathfinding.c ****     int pqSize = 0;
 713              		.loc 1 134 0 is_stmt 1
 714 00ba 0023     		movs	r3, #0
 715 00bc 07F5B552 		add	r2, r7, #5792
 716 00c0 02F10C02 		add	r2, r2, #12
 717 00c4 1360     		str	r3, [r2]
 718              	.LBB8:
 135:pathfinding.c **** 
 136:pathfinding.c ****     // Initialize distances and paths arrays
 137:pathfinding.c ****     int distances[MAX_ROWS][MAX_COLS]; // array to record distance of each location
 138:pathfinding.c ****     //struct Location paths[MAX_ROWS * MAX_COLS]; // 1d array to record path- each element is a loc
 139:pathfinding.c **** 
 140:pathfinding.c ****     for (int i = 0; i < MAX_ROWS; i++) {
 719              		.loc 1 140 0
 720 00c6 0023     		movs	r3, #0
 721 00c8 07F5B552 		add	r2, r7, #5792
 722 00cc 02F10802 		add	r2, r2, #8
 723 00d0 1360     		str	r3, [r2]
 724 00d2 3AE0     		b	.L23
 725              	.L26:
 726              	.LBB9:
 141:pathfinding.c ****         for (int j = 0; j < MAX_COLS; j++) {
 727              		.loc 1 141 0
 728 00d4 0023     		movs	r3, #0
 729 00d6 07F5B552 		add	r2, r7, #5792
 730 00da 02F10402 		add	r2, r2, #4
 731 00de 1360     		str	r3, [r2]
 732 00e0 21E0     		b	.L24
 733              	.L25:
 142:pathfinding.c ****             distances[i][j] = 1000; // initialise distances as infinity
 734              		.loc 1 142 0 discriminator 3
 735 00e2 07F13802 		add	r2, r7, #56
 736 00e6 1C3A     		subs	r2, r2, #28
 737 00e8 07F5B553 		add	r3, r7, #5792
 738 00ec 03F10803 		add	r3, r3, #8
 739 00f0 1968     		ldr	r1, [r3]
 740 00f2 0B46     		mov	r3, r1
 741 00f4 DB00     		lsls	r3, r3, #3
 742 00f6 0B44     		add	r3, r3, r1
 743 00f8 5B00     		lsls	r3, r3, #1
 744 00fa 0B44     		add	r3, r3, r1
 745 00fc 07F5B551 		add	r1, r7, #5792
 746 0100 01F10401 		add	r1, r1, #4
 747 0104 0968     		ldr	r1, [r1]
 748 0106 0B44     		add	r3, r3, r1
 749 0108 4FF47A71 		mov	r1, #1000
 750 010c 42F82310 		str	r1, [r2, r3, lsl #2]
ARM GAS  C:\Users\ikui753\AppData\Local\Temp\ccqmrS2t.s 			page 17


 141:pathfinding.c ****         for (int j = 0; j < MAX_COLS; j++) {
 751              		.loc 1 141 0 discriminator 3
 752 0110 07F5B553 		add	r3, r7, #5792
 753 0114 03F10403 		add	r3, r3, #4
 754 0118 1B68     		ldr	r3, [r3]
 755 011a 0133     		adds	r3, r3, #1
 756 011c 07F5B552 		add	r2, r7, #5792
 757 0120 02F10402 		add	r2, r2, #4
 758 0124 1360     		str	r3, [r2]
 759              	.L24:
 141:pathfinding.c ****         for (int j = 0; j < MAX_COLS; j++) {
 760              		.loc 1 141 0 is_stmt 0 discriminator 1
 761 0126 07F5B553 		add	r3, r7, #5792
 762 012a 03F10403 		add	r3, r3, #4
 763 012e 1B68     		ldr	r3, [r3]
 764 0130 122B     		cmp	r3, #18
 765 0132 D6DD     		ble	.L25
 766              	.LBE9:
 140:pathfinding.c ****         for (int j = 0; j < MAX_COLS; j++) {
 767              		.loc 1 140 0 is_stmt 1 discriminator 2
 768 0134 07F5B553 		add	r3, r7, #5792
 769 0138 03F10803 		add	r3, r3, #8
 770 013c 1B68     		ldr	r3, [r3]
 771 013e 0133     		adds	r3, r3, #1
 772 0140 07F5B552 		add	r2, r7, #5792
 773 0144 02F10802 		add	r2, r2, #8
 774 0148 1360     		str	r3, [r2]
 775              	.L23:
 140:pathfinding.c ****         for (int j = 0; j < MAX_COLS; j++) {
 776              		.loc 1 140 0 is_stmt 0 discriminator 1
 777 014a 07F5B553 		add	r3, r7, #5792
 778 014e 03F10803 		add	r3, r3, #8
 779 0152 1B68     		ldr	r3, [r3]
 780 0154 0E2B     		cmp	r3, #14
 781 0156 BDDD     		ble	.L26
 782              	.LBE8:
 143:pathfinding.c ****         }
 144:pathfinding.c ****     }
 145:pathfinding.c **** 
 146:pathfinding.c ****     int stepNum = 0;
 783              		.loc 1 146 0 is_stmt 1
 784 0158 0023     		movs	r3, #0
 785 015a 07F5B552 		add	r2, r7, #5792
 786 015e 1360     		str	r3, [r2]
 147:pathfinding.c ****     distances[startlocation.row][startlocation.col] = 0; // initialise distance of startLoc to 0
 787              		.loc 1 147 0
 788 0160 07F11803 		add	r3, r7, #24
 789 0164 143B     		subs	r3, r3, #20
 790 0166 1968     		ldr	r1, [r3]
 791 0168 07F11803 		add	r3, r7, #24
 792 016c 143B     		subs	r3, r3, #20
 793 016e 5868     		ldr	r0, [r3, #4]
 794 0170 07F13802 		add	r2, r7, #56
 795 0174 1C3A     		subs	r2, r2, #28
 796 0176 0B46     		mov	r3, r1
 797 0178 DB00     		lsls	r3, r3, #3
 798 017a 0B44     		add	r3, r3, r1
ARM GAS  C:\Users\ikui753\AppData\Local\Temp\ccqmrS2t.s 			page 18


 799 017c 5B00     		lsls	r3, r3, #1
 800 017e 0B44     		add	r3, r3, r1
 801 0180 0344     		add	r3, r3, r0
 802 0182 0021     		movs	r1, #0
 803 0184 42F82310 		str	r1, [r2, r3, lsl #2]
 148:pathfinding.c ****     //paths[stepNum] = startlocation; // add start to path array
 149:pathfinding.c ****     stepNum++; // increment stepNum
 804              		.loc 1 149 0
 805 0188 07F5B553 		add	r3, r7, #5792
 806 018c 1B68     		ldr	r3, [r3]
 807 018e 0133     		adds	r3, r3, #1
 808 0190 07F5B552 		add	r2, r7, #5792
 809 0194 1360     		str	r3, [r2]
 150:pathfinding.c **** 
 151:pathfinding.c ****     pq[pqSize].location = startlocation; // add startLocation to Priority queue
 810              		.loc 1 151 0
 811 0196 07F59362 		add	r2, r7, #1176
 812 019a 083A     		subs	r2, r2, #8
 813 019c 07F5B553 		add	r3, r7, #5792
 814 01a0 03F10C03 		add	r3, r3, #12
 815 01a4 1968     		ldr	r1, [r3]
 816 01a6 0B46     		mov	r3, r1
 817 01a8 5B00     		lsls	r3, r3, #1
 818 01aa 0B44     		add	r3, r3, r1
 819 01ac 9B00     		lsls	r3, r3, #2
 820 01ae 1A44     		add	r2, r2, r3
 821 01b0 07F11803 		add	r3, r7, #24
 822 01b4 143B     		subs	r3, r3, #20
 823 01b6 93E80300 		ldmia	r3, {r0, r1}
 824 01ba 82E80300 		stmia	r2, {r0, r1}
 152:pathfinding.c ****     pq[pqSize].distance = 0; // add startlocation distance to priority queue
 825              		.loc 1 152 0
 826 01be 07F59362 		add	r2, r7, #1176
 827 01c2 083A     		subs	r2, r2, #8
 828 01c4 07F5B553 		add	r3, r7, #5792
 829 01c8 03F10C03 		add	r3, r3, #12
 830 01cc 1968     		ldr	r1, [r3]
 831 01ce 0B46     		mov	r3, r1
 832 01d0 5B00     		lsls	r3, r3, #1
 833 01d2 0B44     		add	r3, r3, r1
 834 01d4 9B00     		lsls	r3, r3, #2
 835 01d6 1344     		add	r3, r3, r2
 836 01d8 0833     		adds	r3, r3, #8
 837 01da 0022     		movs	r2, #0
 838 01dc 1A60     		str	r2, [r3]
 153:pathfinding.c ****     pqSize++; // increment pqSize- pq is not empty
 839              		.loc 1 153 0
 840 01de 07F5B553 		add	r3, r7, #5792
 841 01e2 03F10C03 		add	r3, r3, #12
 842 01e6 1B68     		ldr	r3, [r3]
 843 01e8 0133     		adds	r3, r3, #1
 844 01ea 07F5B552 		add	r2, r7, #5792
 845 01ee 02F10C02 		add	r2, r2, #12
 846 01f2 1360     		str	r3, [r2]
 154:pathfinding.c **** 
 155:pathfinding.c ****     while (pqSize > 0) {
 847              		.loc 1 155 0
ARM GAS  C:\Users\ikui753\AppData\Local\Temp\ccqmrS2t.s 			page 19


 848 01f4 F5E1     		b	.L27
 849              	.L37:
 850              	.LBB10:
 156:pathfinding.c ****         int idx = 0;
 851              		.loc 1 156 0
 852 01f6 0023     		movs	r3, #0
 853 01f8 07F5B452 		add	r2, r7, #5760
 854 01fc 02F11C02 		add	r2, r2, #28
 855 0200 1360     		str	r3, [r2]
 856              	.LBB11:
 157:pathfinding.c ****         for (int i = 1; i < pqSize; i++) {
 857              		.loc 1 157 0
 858 0202 0123     		movs	r3, #1
 859 0204 07F5B452 		add	r2, r7, #5760
 860 0208 02F11802 		add	r2, r2, #24
 861 020c 1360     		str	r3, [r2]
 862 020e 34E0     		b	.L28
 863              	.L30:
 158:pathfinding.c ****             if (pq[i].distance < pq[idx].distance) {
 864              		.loc 1 158 0
 865 0210 07F59362 		add	r2, r7, #1176
 866 0214 083A     		subs	r2, r2, #8
 867 0216 07F5B453 		add	r3, r7, #5760
 868 021a 03F11803 		add	r3, r3, #24
 869 021e 1968     		ldr	r1, [r3]
 870 0220 0B46     		mov	r3, r1
 871 0222 5B00     		lsls	r3, r3, #1
 872 0224 0B44     		add	r3, r3, r1
 873 0226 9B00     		lsls	r3, r3, #2
 874 0228 1344     		add	r3, r3, r2
 875 022a 0833     		adds	r3, r3, #8
 876 022c 1868     		ldr	r0, [r3]
 877 022e 07F59362 		add	r2, r7, #1176
 878 0232 083A     		subs	r2, r2, #8
 879 0234 07F5B453 		add	r3, r7, #5760
 880 0238 03F11C03 		add	r3, r3, #28
 881 023c 1968     		ldr	r1, [r3]
 882 023e 0B46     		mov	r3, r1
 883 0240 5B00     		lsls	r3, r3, #1
 884 0242 0B44     		add	r3, r3, r1
 885 0244 9B00     		lsls	r3, r3, #2
 886 0246 1344     		add	r3, r3, r2
 887 0248 0833     		adds	r3, r3, #8
 888 024a 1B68     		ldr	r3, [r3]
 889 024c 9842     		cmp	r0, r3
 890 024e 09DA     		bge	.L29
 159:pathfinding.c ****                 idx = i; // find the shortest distance location 
 891              		.loc 1 159 0
 892 0250 07F5B453 		add	r3, r7, #5760
 893 0254 03F11803 		add	r3, r3, #24
 894 0258 1B68     		ldr	r3, [r3]
 895 025a 07F5B452 		add	r2, r7, #5760
 896 025e 02F11C02 		add	r2, r2, #28
 897 0262 1360     		str	r3, [r2]
 898              	.L29:
 157:pathfinding.c ****         for (int i = 1; i < pqSize; i++) {
 899              		.loc 1 157 0 discriminator 2
ARM GAS  C:\Users\ikui753\AppData\Local\Temp\ccqmrS2t.s 			page 20


 900 0264 07F5B453 		add	r3, r7, #5760
 901 0268 03F11803 		add	r3, r3, #24
 902 026c 1B68     		ldr	r3, [r3]
 903 026e 0133     		adds	r3, r3, #1
 904 0270 07F5B452 		add	r2, r7, #5760
 905 0274 02F11802 		add	r2, r2, #24
 906 0278 1360     		str	r3, [r2]
 907              	.L28:
 157:pathfinding.c ****         for (int i = 1; i < pqSize; i++) {
 908              		.loc 1 157 0 is_stmt 0 discriminator 1
 909 027a 07F5B453 		add	r3, r7, #5760
 910 027e 03F11803 		add	r3, r3, #24
 911 0282 1A68     		ldr	r2, [r3]
 912 0284 07F5B553 		add	r3, r7, #5792
 913 0288 03F10C03 		add	r3, r3, #12
 914 028c 1B68     		ldr	r3, [r3]
 915 028e 9A42     		cmp	r2, r3
 916 0290 BEDB     		blt	.L30
 917              	.LBE11:
 160:pathfinding.c ****             }
 161:pathfinding.c ****         }
 162:pathfinding.c ****         struct PriorityQueue current = pq[idx]; // record current location
 918              		.loc 1 162 0 is_stmt 1
 919 0292 07F11801 		add	r1, r7, #24
 920 0296 0839     		subs	r1, r1, #8
 921 0298 07F59362 		add	r2, r7, #1176
 922 029c 083A     		subs	r2, r2, #8
 923 029e 07F5B453 		add	r3, r7, #5760
 924 02a2 03F11C03 		add	r3, r3, #28
 925 02a6 1868     		ldr	r0, [r3]
 926 02a8 0346     		mov	r3, r0
 927 02aa 5B00     		lsls	r3, r3, #1
 928 02ac 0344     		add	r3, r3, r0
 929 02ae 9B00     		lsls	r3, r3, #2
 930 02b0 1A44     		add	r2, r2, r3
 931 02b2 0B46     		mov	r3, r1
 932 02b4 07CA     		ldmia	r2, {r0, r1, r2}
 933 02b6 83E80700 		stmia	r3, {r0, r1, r2}
 163:pathfinding.c ****         pq[idx] = pq[pqSize - 1];
 934              		.loc 1 163 0
 935 02ba 07F5B553 		add	r3, r7, #5792
 936 02be 03F10C03 		add	r3, r3, #12
 937 02c2 1B68     		ldr	r3, [r3]
 938 02c4 591E     		subs	r1, r3, #1
 939 02c6 07F59362 		add	r2, r7, #1176
 940 02ca 083A     		subs	r2, r2, #8
 941 02cc 07F5B453 		add	r3, r7, #5760
 942 02d0 03F11C03 		add	r3, r3, #28
 943 02d4 1868     		ldr	r0, [r3]
 944 02d6 0346     		mov	r3, r0
 945 02d8 5B00     		lsls	r3, r3, #1
 946 02da 0344     		add	r3, r3, r0
 947 02dc 9B00     		lsls	r3, r3, #2
 948 02de D018     		adds	r0, r2, r3
 949 02e0 07F59362 		add	r2, r7, #1176
 950 02e4 083A     		subs	r2, r2, #8
 951 02e6 0B46     		mov	r3, r1
ARM GAS  C:\Users\ikui753\AppData\Local\Temp\ccqmrS2t.s 			page 21


 952 02e8 5B00     		lsls	r3, r3, #1
 953 02ea 0B44     		add	r3, r3, r1
 954 02ec 9B00     		lsls	r3, r3, #2
 955 02ee 1A44     		add	r2, r2, r3
 956 02f0 0346     		mov	r3, r0
 957 02f2 07CA     		ldmia	r2, {r0, r1, r2}
 958 02f4 83E80700 		stmia	r3, {r0, r1, r2}
 164:pathfinding.c ****         pqSize--; // decrement pqSize
 959              		.loc 1 164 0
 960 02f8 07F5B553 		add	r3, r7, #5792
 961 02fc 03F10C03 		add	r3, r3, #12
 962 0300 1B68     		ldr	r3, [r3]
 963 0302 013B     		subs	r3, r3, #1
 964 0304 07F5B552 		add	r2, r7, #5792
 965 0308 02F10C02 		add	r2, r2, #12
 966 030c 1360     		str	r3, [r2]
 165:pathfinding.c **** 
 166:pathfinding.c ****         int row = current.location.row;
 967              		.loc 1 166 0
 968 030e 07F11803 		add	r3, r7, #24
 969 0312 083B     		subs	r3, r3, #8
 970 0314 1B68     		ldr	r3, [r3]
 971 0316 07F5B352 		add	r2, r7, #5728
 972 031a 02F11C02 		add	r2, r2, #28
 973 031e 1360     		str	r3, [r2]
 167:pathfinding.c ****         int col = current.location.col; // get current location details
 974              		.loc 1 167 0
 975 0320 07F11803 		add	r3, r7, #24
 976 0324 083B     		subs	r3, r3, #8
 977 0326 5B68     		ldr	r3, [r3, #4]
 978 0328 07F5B352 		add	r2, r7, #5728
 979 032c 02F11802 		add	r2, r2, #24
 980 0330 1360     		str	r3, [r2]
 168:pathfinding.c **** 
 169:pathfinding.c ****         if (visitedMap[row][col] == 1) {
 981              		.loc 1 169 0
 982 0332 07F58F51 		add	r1, r7, #4576
 983 0336 01F10C01 		add	r1, r1, #12
 984 033a 07F5B353 		add	r3, r7, #5728
 985 033e 03F11C03 		add	r3, r3, #28
 986 0342 1A68     		ldr	r2, [r3]
 987 0344 1346     		mov	r3, r2
 988 0346 DB00     		lsls	r3, r3, #3
 989 0348 1344     		add	r3, r3, r2
 990 034a 5B00     		lsls	r3, r3, #1
 991 034c 1344     		add	r3, r3, r2
 992 034e 07F5B352 		add	r2, r7, #5728
 993 0352 02F11802 		add	r2, r2, #24
 994 0356 1268     		ldr	r2, [r2]
 995 0358 1344     		add	r3, r3, r2
 996 035a 51F82330 		ldr	r3, [r1, r3, lsl #2]
 997 035e 012B     		cmp	r3, #1
 998 0360 40F03F81 		bne	.L27
 170:pathfinding.c ****             visitedMap[row][col] = 0; // mark as visited if unvisited
 999              		.loc 1 170 0
 1000 0364 07F58F51 		add	r1, r7, #4576
 1001 0368 01F10C01 		add	r1, r1, #12
ARM GAS  C:\Users\ikui753\AppData\Local\Temp\ccqmrS2t.s 			page 22


 1002 036c 07F5B353 		add	r3, r7, #5728
 1003 0370 03F11C03 		add	r3, r3, #28
 1004 0374 1A68     		ldr	r2, [r3]
 1005 0376 1346     		mov	r3, r2
 1006 0378 DB00     		lsls	r3, r3, #3
 1007 037a 1344     		add	r3, r3, r2
 1008 037c 5B00     		lsls	r3, r3, #1
 1009 037e 1344     		add	r3, r3, r2
 1010 0380 07F5B352 		add	r2, r7, #5728
 1011 0384 02F11802 		add	r2, r2, #24
 1012 0388 1268     		ldr	r2, [r2]
 1013 038a 1344     		add	r3, r3, r2
 1014 038c 0022     		movs	r2, #0
 1015 038e 41F82320 		str	r2, [r1, r3, lsl #2]
 171:pathfinding.c **** 
 172:pathfinding.c ****             if (row == targetlocation.row && col == targetlocation.col) {
 1016              		.loc 1 172 0
 1017 0392 07F5B653 		add	r3, r7, #5824
 1018 0396 03F10C03 		add	r3, r3, #12
 1019 039a 1A68     		ldr	r2, [r3]
 1020 039c 07F5B353 		add	r3, r7, #5728
 1021 03a0 03F11C03 		add	r3, r3, #28
 1022 03a4 1B68     		ldr	r3, [r3]
 1023 03a6 9A42     		cmp	r2, r3
 1024 03a8 0CD1     		bne	.L32
 1025              		.loc 1 172 0 is_stmt 0 discriminator 1
 1026 03aa 07F5B653 		add	r3, r7, #5824
 1027 03ae 03F11003 		add	r3, r3, #16
 1028 03b2 1A68     		ldr	r2, [r3]
 1029 03b4 07F5B353 		add	r3, r7, #5728
 1030 03b8 03F11803 		add	r3, r3, #24
 1031 03bc 1B68     		ldr	r3, [r3]
 1032 03be 9A42     		cmp	r2, r3
 1033 03c0 00F01881 		beq	.L43
 1034              	.L32:
 1035              	.LBB12:
 173:pathfinding.c ****                 break; // if reached target destination, end
 174:pathfinding.c ****             }
 175:pathfinding.c ****             // make a move, check if valid
 176:pathfinding.c ****             for (int i = 0; i < sizeof(moves) / sizeof(moves[0]); i++) {
 1036              		.loc 1 176 0 is_stmt 1
 1037 03c4 0023     		movs	r3, #0
 1038 03c6 07F5B452 		add	r2, r7, #5760
 1039 03ca 02F11402 		add	r2, r2, #20
 1040 03ce 1360     		str	r3, [r2]
 1041 03d0 FFE0     		b	.L34
 1042              	.L36:
 1043              	.LBB13:
 177:pathfinding.c ****                 int newRow = row + moves[i].row;
 1044              		.loc 1 177 0
 1045 03d2 D04A     		ldr	r2, .L44
 1046 03d4 07F5B453 		add	r3, r7, #5760
 1047 03d8 03F11403 		add	r3, r3, #20
 1048 03dc 1B68     		ldr	r3, [r3]
 1049 03de 52F83320 		ldr	r2, [r2, r3, lsl #3]
 1050 03e2 07F5B353 		add	r3, r7, #5728
 1051 03e6 03F11C03 		add	r3, r3, #28
ARM GAS  C:\Users\ikui753\AppData\Local\Temp\ccqmrS2t.s 			page 23


 1052 03ea 1B68     		ldr	r3, [r3]
 1053 03ec 1344     		add	r3, r3, r2
 1054 03ee 07F5B352 		add	r2, r7, #5728
 1055 03f2 02F11402 		add	r2, r2, #20
 1056 03f6 1360     		str	r3, [r2]
 178:pathfinding.c ****                 int newCol = col + moves[i].col;
 1057              		.loc 1 178 0
 1058 03f8 C64A     		ldr	r2, .L44
 1059 03fa 07F5B453 		add	r3, r7, #5760
 1060 03fe 03F11403 		add	r3, r3, #20
 1061 0402 1B68     		ldr	r3, [r3]
 1062 0404 DB00     		lsls	r3, r3, #3
 1063 0406 1344     		add	r3, r3, r2
 1064 0408 5A68     		ldr	r2, [r3, #4]
 1065 040a 07F5B353 		add	r3, r7, #5728
 1066 040e 03F11803 		add	r3, r3, #24
 1067 0412 1B68     		ldr	r3, [r3]
 1068 0414 1344     		add	r3, r3, r2
 1069 0416 07F5B352 		add	r2, r7, #5728
 1070 041a 02F11002 		add	r2, r2, #16
 1071 041e 1360     		str	r3, [r2]
 179:pathfinding.c **** 
 180:pathfinding.c ****                 if (isValidMove(newRow, newCol, MAX_ROWS, MAX_COLS, map) && visitedMap[newRow][newC
 1072              		.loc 1 180 0
 1073 0420 07F11803 		add	r3, r7, #24
 1074 0424 0C3B     		subs	r3, r3, #12
 1075 0426 1B68     		ldr	r3, [r3]
 1076 0428 0093     		str	r3, [sp]
 1077 042a 1323     		movs	r3, #19
 1078 042c 0F22     		movs	r2, #15
 1079 042e 07F5B351 		add	r1, r7, #5728
 1080 0432 01F11001 		add	r1, r1, #16
 1081 0436 0968     		ldr	r1, [r1]
 1082 0438 07F5B350 		add	r0, r7, #5728
 1083 043c 00F11400 		add	r0, r0, #20
 1084 0440 0068     		ldr	r0, [r0]
 1085 0442 FFF7FEFF 		bl	isValidMove
 1086 0446 0346     		mov	r3, r0
 1087 0448 002B     		cmp	r3, #0
 1088 044a 00F0B780 		beq	.L35
 1089              		.loc 1 180 0 is_stmt 0 discriminator 1
 1090 044e 07F58F51 		add	r1, r7, #4576
 1091 0452 01F10C01 		add	r1, r1, #12
 1092 0456 07F5B353 		add	r3, r7, #5728
 1093 045a 03F11403 		add	r3, r3, #20
 1094 045e 1A68     		ldr	r2, [r3]
 1095 0460 1346     		mov	r3, r2
 1096 0462 DB00     		lsls	r3, r3, #3
 1097 0464 1344     		add	r3, r3, r2
 1098 0466 5B00     		lsls	r3, r3, #1
 1099 0468 1344     		add	r3, r3, r2
 1100 046a 07F5B352 		add	r2, r7, #5728
 1101 046e 02F11002 		add	r2, r2, #16
 1102 0472 1268     		ldr	r2, [r2]
 1103 0474 1344     		add	r3, r3, r2
 1104 0476 51F82330 		ldr	r3, [r1, r3, lsl #2]
 1105 047a 012B     		cmp	r3, #1
ARM GAS  C:\Users\ikui753\AppData\Local\Temp\ccqmrS2t.s 			page 24


 1106 047c 40F09E80 		bne	.L35
 1107              	.LBB14:
 181:pathfinding.c ****                     int newDistance = distances[row][col] + 1;
 1108              		.loc 1 181 0 is_stmt 1
 1109 0480 07F13802 		add	r2, r7, #56
 1110 0484 1C3A     		subs	r2, r2, #28
 1111 0486 07F5B353 		add	r3, r7, #5728
 1112 048a 03F11C03 		add	r3, r3, #28
 1113 048e 1968     		ldr	r1, [r3]
 1114 0490 0B46     		mov	r3, r1
 1115 0492 DB00     		lsls	r3, r3, #3
 1116 0494 0B44     		add	r3, r3, r1
 1117 0496 5B00     		lsls	r3, r3, #1
 1118 0498 0B44     		add	r3, r3, r1
 1119 049a 07F5B351 		add	r1, r7, #5728
 1120 049e 01F11801 		add	r1, r1, #24
 1121 04a2 0968     		ldr	r1, [r1]
 1122 04a4 0B44     		add	r3, r3, r1
 1123 04a6 52F82330 		ldr	r3, [r2, r3, lsl #2]
 1124 04aa 0133     		adds	r3, r3, #1
 1125 04ac 07F5B352 		add	r2, r7, #5728
 1126 04b0 02F10C02 		add	r2, r2, #12
 1127 04b4 1360     		str	r3, [r2]
 182:pathfinding.c ****                     // take the shortest distance between new and existing
 183:pathfinding.c ****                     if (newDistance < distances[newRow][newCol]) {
 1128              		.loc 1 183 0
 1129 04b6 07F13802 		add	r2, r7, #56
 1130 04ba 1C3A     		subs	r2, r2, #28
 1131 04bc 07F5B353 		add	r3, r7, #5728
 1132 04c0 03F11403 		add	r3, r3, #20
 1133 04c4 1968     		ldr	r1, [r3]
 1134 04c6 0B46     		mov	r3, r1
 1135 04c8 DB00     		lsls	r3, r3, #3
 1136 04ca 0B44     		add	r3, r3, r1
 1137 04cc 5B00     		lsls	r3, r3, #1
 1138 04ce 0B44     		add	r3, r3, r1
 1139 04d0 07F5B351 		add	r1, r7, #5728
 1140 04d4 01F11001 		add	r1, r1, #16
 1141 04d8 0968     		ldr	r1, [r1]
 1142 04da 0B44     		add	r3, r3, r1
 1143 04dc 52F82320 		ldr	r2, [r2, r3, lsl #2]
 1144 04e0 07F5B353 		add	r3, r7, #5728
 1145 04e4 03F10C03 		add	r3, r3, #12
 1146 04e8 1B68     		ldr	r3, [r3]
 1147 04ea 9A42     		cmp	r2, r3
 1148 04ec 66DD     		ble	.L35
 184:pathfinding.c ****                         distances[newRow][newCol] = newDistance; // take new distance if less than 
 1149              		.loc 1 184 0
 1150 04ee 07F13802 		add	r2, r7, #56
 1151 04f2 1C3A     		subs	r2, r2, #28
 1152 04f4 07F5B353 		add	r3, r7, #5728
 1153 04f8 03F11403 		add	r3, r3, #20
 1154 04fc 1968     		ldr	r1, [r3]
 1155 04fe 0B46     		mov	r3, r1
 1156 0500 DB00     		lsls	r3, r3, #3
 1157 0502 0B44     		add	r3, r3, r1
 1158 0504 5B00     		lsls	r3, r3, #1
ARM GAS  C:\Users\ikui753\AppData\Local\Temp\ccqmrS2t.s 			page 25


 1159 0506 0B44     		add	r3, r3, r1
 1160 0508 07F5B351 		add	r1, r7, #5728
 1161 050c 01F11001 		add	r1, r1, #16
 1162 0510 0968     		ldr	r1, [r1]
 1163 0512 0B44     		add	r3, r3, r1
 1164 0514 07F5B351 		add	r1, r7, #5728
 1165 0518 01F10C01 		add	r1, r1, #12
 1166 051c 0968     		ldr	r1, [r1]
 1167 051e 42F82310 		str	r1, [r2, r3, lsl #2]
 185:pathfinding.c ****                         //paths[stepNum] = (struct Location){newRow, newCol}; // add location to pa
 186:pathfinding.c ****                         
 187:pathfinding.c ****                         pq[pqSize].location.row = newRow; // update location
 1168              		.loc 1 187 0
 1169 0522 07F59362 		add	r2, r7, #1176
 1170 0526 083A     		subs	r2, r2, #8
 1171 0528 07F5B553 		add	r3, r7, #5792
 1172 052c 03F10C03 		add	r3, r3, #12
 1173 0530 1968     		ldr	r1, [r3]
 1174 0532 0B46     		mov	r3, r1
 1175 0534 5B00     		lsls	r3, r3, #1
 1176 0536 0B44     		add	r3, r3, r1
 1177 0538 9B00     		lsls	r3, r3, #2
 1178 053a 1344     		add	r3, r3, r2
 1179 053c 07F5B352 		add	r2, r7, #5728
 1180 0540 02F11402 		add	r2, r2, #20
 1181 0544 1268     		ldr	r2, [r2]
 1182 0546 1A60     		str	r2, [r3]
 188:pathfinding.c ****                         pq[pqSize].location.col = newCol; // update location
 1183              		.loc 1 188 0
 1184 0548 07F59362 		add	r2, r7, #1176
 1185 054c 083A     		subs	r2, r2, #8
 1186 054e 07F5B553 		add	r3, r7, #5792
 1187 0552 03F10C03 		add	r3, r3, #12
 1188 0556 1968     		ldr	r1, [r3]
 1189 0558 0B46     		mov	r3, r1
 1190 055a 5B00     		lsls	r3, r3, #1
 1191 055c 0B44     		add	r3, r3, r1
 1192 055e 9B00     		lsls	r3, r3, #2
 1193 0560 1344     		add	r3, r3, r2
 1194 0562 0433     		adds	r3, r3, #4
 1195 0564 07F5B352 		add	r2, r7, #5728
 1196 0568 02F11002 		add	r2, r2, #16
 1197 056c 1268     		ldr	r2, [r2]
 1198 056e 1A60     		str	r2, [r3]
 189:pathfinding.c ****                         pq[pqSize].distance = newDistance; // update distance
 1199              		.loc 1 189 0
 1200 0570 07F59362 		add	r2, r7, #1176
 1201 0574 083A     		subs	r2, r2, #8
 1202 0576 07F5B553 		add	r3, r7, #5792
 1203 057a 03F10C03 		add	r3, r3, #12
 1204 057e 1968     		ldr	r1, [r3]
 1205 0580 0B46     		mov	r3, r1
 1206 0582 5B00     		lsls	r3, r3, #1
 1207 0584 0B44     		add	r3, r3, r1
 1208 0586 9B00     		lsls	r3, r3, #2
 1209 0588 1344     		add	r3, r3, r2
 1210 058a 0833     		adds	r3, r3, #8
ARM GAS  C:\Users\ikui753\AppData\Local\Temp\ccqmrS2t.s 			page 26


 1211 058c 07F5B352 		add	r2, r7, #5728
 1212 0590 02F10C02 		add	r2, r2, #12
 1213 0594 1268     		ldr	r2, [r2]
 1214 0596 1A60     		str	r2, [r3]
 190:pathfinding.c ****                         
 191:pathfinding.c ****                         stepNum++;
 1215              		.loc 1 191 0
 1216 0598 07F5B553 		add	r3, r7, #5792
 1217 059c 1B68     		ldr	r3, [r3]
 1218 059e 0133     		adds	r3, r3, #1
 1219 05a0 07F5B552 		add	r2, r7, #5792
 1220 05a4 1360     		str	r3, [r2]
 192:pathfinding.c ****                         pqSize++;
 1221              		.loc 1 192 0
 1222 05a6 07F5B553 		add	r3, r7, #5792
 1223 05aa 03F10C03 		add	r3, r3, #12
 1224 05ae 1B68     		ldr	r3, [r3]
 1225 05b0 0133     		adds	r3, r3, #1
 1226 05b2 07F5B552 		add	r2, r7, #5792
 1227 05b6 02F10C02 		add	r2, r2, #12
 1228 05ba 1360     		str	r3, [r2]
 1229              	.L35:
 1230              	.LBE14:
 1231              	.LBE13:
 176:pathfinding.c ****                 int newRow = row + moves[i].row;
 1232              		.loc 1 176 0 discriminator 2
 1233 05bc 07F5B453 		add	r3, r7, #5760
 1234 05c0 03F11403 		add	r3, r3, #20
 1235 05c4 1B68     		ldr	r3, [r3]
 1236 05c6 0133     		adds	r3, r3, #1
 1237 05c8 07F5B452 		add	r2, r7, #5760
 1238 05cc 02F11402 		add	r2, r2, #20
 1239 05d0 1360     		str	r3, [r2]
 1240              	.L34:
 176:pathfinding.c ****                 int newRow = row + moves[i].row;
 1241              		.loc 1 176 0 is_stmt 0 discriminator 1
 1242 05d2 07F5B453 		add	r3, r7, #5760
 1243 05d6 03F11403 		add	r3, r3, #20
 1244 05da 1B68     		ldr	r3, [r3]
 1245 05dc 032B     		cmp	r3, #3
 1246 05de 7FF6F8AE 		bls	.L36
 1247              	.L27:
 1248              	.LBE12:
 1249              	.LBE10:
 155:pathfinding.c ****         int idx = 0;
 1250              		.loc 1 155 0 is_stmt 1
 1251 05e2 07F5B553 		add	r3, r7, #5792
 1252 05e6 03F10C03 		add	r3, r3, #12
 1253 05ea 1B68     		ldr	r3, [r3]
 1254 05ec 002B     		cmp	r3, #0
 1255 05ee 3FF702AE 		bgt	.L37
 1256 05f2 00E0     		b	.L33
 1257              	.L43:
 1258              	.LBB15:
 173:pathfinding.c ****             }
 1259              		.loc 1 173 0
 1260 05f4 00BF     		nop
ARM GAS  C:\Users\ikui753\AppData\Local\Temp\ccqmrS2t.s 			page 27


 1261              	.L33:
 1262              	.LBE15:
 193:pathfinding.c ****                     }
 194:pathfinding.c ****                 }
 195:pathfinding.c ****             }
 196:pathfinding.c ****         }
 197:pathfinding.c ****     }
 198:pathfinding.c **** 
 199:pathfinding.c ****     // PATH RECONSTRUCTION
 200:pathfinding.c ****     // initialise maximum distance- will be decremented
 201:pathfinding.c ****     int shortestDist = distances[targetlocation.row][targetlocation.col];
 1263              		.loc 1 201 0
 1264 05f6 07F5B653 		add	r3, r7, #5824
 1265 05fa 03F10C03 		add	r3, r3, #12
 1266 05fe 1968     		ldr	r1, [r3]
 1267 0600 07F5B653 		add	r3, r7, #5824
 1268 0604 03F11003 		add	r3, r3, #16
 1269 0608 1868     		ldr	r0, [r3]
 1270 060a 07F13802 		add	r2, r7, #56
 1271 060e 1C3A     		subs	r2, r2, #28
 1272 0610 0B46     		mov	r3, r1
 1273 0612 DB00     		lsls	r3, r3, #3
 1274 0614 0B44     		add	r3, r3, r1
 1275 0616 5B00     		lsls	r3, r3, #1
 1276 0618 0B44     		add	r3, r3, r1
 1277 061a 0344     		add	r3, r3, r0
 1278 061c 52F82330 		ldr	r3, [r2, r3, lsl #2]
 1279 0620 07F5B452 		add	r2, r7, #5760
 1280 0624 02F11002 		add	r2, r2, #16
 1281 0628 1360     		str	r3, [r2]
 202:pathfinding.c ****     numSteps = shortestDist; // save number of steps
 1282              		.loc 1 202 0
 1283 062a 3B4A     		ldr	r2, .L44+4
 1284 062c 07F5B453 		add	r3, r7, #5760
 1285 0630 03F11003 		add	r3, r3, #16
 1286 0634 1B68     		ldr	r3, [r3]
 1287 0636 1360     		str	r3, [r2]
 203:pathfinding.c ****     // retsteps can be generated from here
 204:pathfinding.c ****     struct Location *retSteps = malloc(sizeof(struct Location) * shortestDist); // store every step
 1288              		.loc 1 204 0
 1289 0638 07F5B453 		add	r3, r7, #5760
 1290 063c 03F11003 		add	r3, r3, #16
 1291 0640 1B68     		ldr	r3, [r3]
 1292 0642 DB00     		lsls	r3, r3, #3
 1293 0644 1846     		mov	r0, r3
 1294 0646 FFF7FEFF 		bl	malloc
 1295 064a 0346     		mov	r3, r0
 1296 064c 07F5B352 		add	r2, r7, #5728
 1297 0650 02F10802 		add	r2, r2, #8
 1298 0654 1360     		str	r3, [r2]
 205:pathfinding.c ****     int currentRow = targetlocation.row;
 1299              		.loc 1 205 0
 1300 0656 07F5B653 		add	r3, r7, #5824
 1301 065a 03F10C03 		add	r3, r3, #12
 1302 065e 1B68     		ldr	r3, [r3]
 1303 0660 07F5B452 		add	r2, r7, #5760
 1304 0664 02F10C02 		add	r2, r2, #12
ARM GAS  C:\Users\ikui753\AppData\Local\Temp\ccqmrS2t.s 			page 28


 1305 0668 1360     		str	r3, [r2]
 206:pathfinding.c ****     int currentCol = targetlocation.col;
 1306              		.loc 1 206 0
 1307 066a 07F5B653 		add	r3, r7, #5824
 1308 066e 03F11003 		add	r3, r3, #16
 1309 0672 1B68     		ldr	r3, [r3]
 1310 0674 07F5B452 		add	r2, r7, #5760
 1311 0678 02F10802 		add	r2, r2, #8
 1312 067c 1360     		str	r3, [r2]
 207:pathfinding.c ****     retSteps[shortestDist-1].row = currentRow; 
 1313              		.loc 1 207 0
 1314 067e 07F5B453 		add	r3, r7, #5760
 1315 0682 03F11003 		add	r3, r3, #16
 1316 0686 1B68     		ldr	r3, [r3]
 1317 0688 03F10053 		add	r3, r3, #536870912
 1318 068c 013B     		subs	r3, r3, #1
 1319 068e DB00     		lsls	r3, r3, #3
 1320 0690 07F5B352 		add	r2, r7, #5728
 1321 0694 02F10802 		add	r2, r2, #8
 1322 0698 1268     		ldr	r2, [r2]
 1323 069a 1344     		add	r3, r3, r2
 1324 069c 07F5B452 		add	r2, r7, #5760
 1325 06a0 02F10C02 		add	r2, r2, #12
 1326 06a4 1268     		ldr	r2, [r2]
 1327 06a6 1A60     		str	r2, [r3]
 208:pathfinding.c ****     retSteps[shortestDist-1].col = currentCol; // add targetLocation to retSteps
 1328              		.loc 1 208 0
 1329 06a8 07F5B453 		add	r3, r7, #5760
 1330 06ac 03F11003 		add	r3, r3, #16
 1331 06b0 1B68     		ldr	r3, [r3]
 1332 06b2 03F10053 		add	r3, r3, #536870912
 1333 06b6 013B     		subs	r3, r3, #1
 1334 06b8 DB00     		lsls	r3, r3, #3
 1335 06ba 07F5B352 		add	r2, r7, #5728
 1336 06be 02F10802 		add	r2, r2, #8
 1337 06c2 1268     		ldr	r2, [r2]
 1338 06c4 1344     		add	r3, r3, r2
 1339 06c6 07F5B452 		add	r2, r7, #5760
 1340 06ca 02F10802 		add	r2, r2, #8
 1341 06ce 1268     		ldr	r2, [r2]
 1342 06d0 5A60     		str	r2, [r3, #4]
 209:pathfinding.c ****     map[currentRow][currentCol] = 9; // mark finish location
 1343              		.loc 1 209 0
 1344 06d2 07F5B453 		add	r3, r7, #5760
 1345 06d6 03F10C03 		add	r3, r3, #12
 1346 06da 1B68     		ldr	r3, [r3]
 1347 06dc 4C22     		movs	r2, #76
 1348 06de 02FB03F2 		mul	r2, r2, r3
 1349 06e2 07F11803 		add	r3, r7, #24
 1350 06e6 0C3B     		subs	r3, r3, #12
 1351 06e8 1B68     		ldr	r3, [r3]
 1352 06ea 1344     		add	r3, r3, r2
 1353 06ec 07F5B452 		add	r2, r7, #5760
 1354 06f0 02F10802 		add	r2, r2, #8
 1355 06f4 1268     		ldr	r2, [r2]
 1356 06f6 0921     		movs	r1, #9
 1357 06f8 43F82210 		str	r1, [r3, r2, lsl #2]
ARM GAS  C:\Users\ikui753\AppData\Local\Temp\ccqmrS2t.s 			page 29


 210:pathfinding.c ****     // reconstruct path by reversing paths array and taking shortest distance
 211:pathfinding.c ****     int pathIndex = 0;
 1358              		.loc 1 211 0
 1359 06fc 0023     		movs	r3, #0
 1360 06fe 07F5B452 		add	r2, r7, #5760
 1361 0702 02F10402 		add	r2, r2, #4
 1362 0706 1360     		str	r3, [r2]
 212:pathfinding.c **** 
 213:pathfinding.c ****     while(shortestDist > 0) {    
 1363              		.loc 1 213 0
 1364 0708 0BE1     		b	.L38
 1365              	.L42:
 1366              	.LBB16:
 214:pathfinding.c ****         // make a move, check if valid and is the next step in path
 215:pathfinding.c ****         for (int i = 0; i < sizeof(moves) / sizeof(moves[0]); i++) {
 1367              		.loc 1 215 0
 1368 070a 0023     		movs	r3, #0
 1369 070c 07F5B452 		add	r2, r7, #5760
 1370 0710 1360     		str	r3, [r2]
 1371 0712 00E1     		b	.L39
 1372              	.L45:
 1373              		.align	2
 1374              	.L44:
 1375 0714 00000000 		.word	moves
 1376 0718 882C0000 		.word	numSteps
 1377              	.L41:
 1378              	.LBB17:
 216:pathfinding.c ****             int newRow = currentRow + moves[i].row;
 1379              		.loc 1 216 0
 1380 071c 894A     		ldr	r2, .L46
 1381 071e 07F5B453 		add	r3, r7, #5760
 1382 0722 1B68     		ldr	r3, [r3]
 1383 0724 52F83320 		ldr	r2, [r2, r3, lsl #3]
 1384 0728 07F5B453 		add	r3, r7, #5760
 1385 072c 03F10C03 		add	r3, r3, #12
 1386 0730 1B68     		ldr	r3, [r3]
 1387 0732 1344     		add	r3, r3, r2
 1388 0734 07F5B352 		add	r2, r7, #5728
 1389 0738 02F10402 		add	r2, r2, #4
 1390 073c 1360     		str	r3, [r2]
 217:pathfinding.c ****             int newCol = currentCol + moves[i].col;
 1391              		.loc 1 217 0
 1392 073e 814A     		ldr	r2, .L46
 1393 0740 07F5B453 		add	r3, r7, #5760
 1394 0744 1B68     		ldr	r3, [r3]
 1395 0746 DB00     		lsls	r3, r3, #3
 1396 0748 1344     		add	r3, r3, r2
 1397 074a 5A68     		ldr	r2, [r3, #4]
 1398 074c 07F5B453 		add	r3, r7, #5760
 1399 0750 03F10803 		add	r3, r3, #8
 1400 0754 1B68     		ldr	r3, [r3]
 1401 0756 1344     		add	r3, r3, r2
 1402 0758 07F5B352 		add	r2, r7, #5728
 1403 075c 1360     		str	r3, [r2]
 218:pathfinding.c **** 
 219:pathfinding.c ****             if (isValidMove(newRow, newCol, MAX_ROWS, MAX_COLS, map) && distances[newRow][newCol] =
 1404              		.loc 1 219 0
ARM GAS  C:\Users\ikui753\AppData\Local\Temp\ccqmrS2t.s 			page 30


 1405 075e 07F11803 		add	r3, r7, #24
 1406 0762 0C3B     		subs	r3, r3, #12
 1407 0764 1B68     		ldr	r3, [r3]
 1408 0766 0093     		str	r3, [sp]
 1409 0768 1323     		movs	r3, #19
 1410 076a 0F22     		movs	r2, #15
 1411 076c 07F5B351 		add	r1, r7, #5728
 1412 0770 0968     		ldr	r1, [r1]
 1413 0772 07F5B350 		add	r0, r7, #5728
 1414 0776 00F10400 		add	r0, r0, #4
 1415 077a 0068     		ldr	r0, [r0]
 1416 077c FFF7FEFF 		bl	isValidMove
 1417 0780 0346     		mov	r3, r0
 1418 0782 002B     		cmp	r3, #0
 1419 0784 00F0C080 		beq	.L40
 1420              		.loc 1 219 0 is_stmt 0 discriminator 1
 1421 0788 07F13802 		add	r2, r7, #56
 1422 078c 1C3A     		subs	r2, r2, #28
 1423 078e 07F5B353 		add	r3, r7, #5728
 1424 0792 03F10403 		add	r3, r3, #4
 1425 0796 1968     		ldr	r1, [r3]
 1426 0798 0B46     		mov	r3, r1
 1427 079a DB00     		lsls	r3, r3, #3
 1428 079c 0B44     		add	r3, r3, r1
 1429 079e 5B00     		lsls	r3, r3, #1
 1430 07a0 0B44     		add	r3, r3, r1
 1431 07a2 07F5B351 		add	r1, r7, #5728
 1432 07a6 0968     		ldr	r1, [r1]
 1433 07a8 0B44     		add	r3, r3, r1
 1434 07aa 52F82320 		ldr	r2, [r2, r3, lsl #2]
 1435 07ae 07F5B453 		add	r3, r7, #5760
 1436 07b2 03F11003 		add	r3, r3, #16
 1437 07b6 1B68     		ldr	r3, [r3]
 1438 07b8 013B     		subs	r3, r3, #1
 1439 07ba 9A42     		cmp	r2, r3
 1440 07bc 40F0A480 		bne	.L40
 220:pathfinding.c ****                 map[newRow][newCol] = 8; // mark optimal step
 1441              		.loc 1 220 0 is_stmt 1
 1442 07c0 07F5B353 		add	r3, r7, #5728
 1443 07c4 03F10403 		add	r3, r3, #4
 1444 07c8 1B68     		ldr	r3, [r3]
 1445 07ca 4C22     		movs	r2, #76
 1446 07cc 02FB03F2 		mul	r2, r2, r3
 1447 07d0 07F11803 		add	r3, r7, #24
 1448 07d4 0C3B     		subs	r3, r3, #12
 1449 07d6 1B68     		ldr	r3, [r3]
 1450 07d8 1344     		add	r3, r3, r2
 1451 07da 07F5B352 		add	r2, r7, #5728
 1452 07de 1268     		ldr	r2, [r2]
 1453 07e0 0821     		movs	r1, #8
 1454 07e2 43F82210 		str	r1, [r3, r2, lsl #2]
 221:pathfinding.c ****                 list_of_optimal_coordinates[pathIndex][0] = newRow;
 1455              		.loc 1 221 0
 1456 07e6 5849     		ldr	r1, .L46+4
 1457 07e8 07F5B453 		add	r3, r7, #5760
 1458 07ec 03F10403 		add	r3, r3, #4
 1459 07f0 1B68     		ldr	r3, [r3]
ARM GAS  C:\Users\ikui753\AppData\Local\Temp\ccqmrS2t.s 			page 31


 1460 07f2 07F5B352 		add	r2, r7, #5728
 1461 07f6 02F10402 		add	r2, r2, #4
 1462 07fa 1268     		ldr	r2, [r2]
 1463 07fc 41F83320 		str	r2, [r1, r3, lsl #3]
 222:pathfinding.c ****                 list_of_optimal_coordinates[pathIndex][1] = newCol;
 1464              		.loc 1 222 0
 1465 0800 514A     		ldr	r2, .L46+4
 1466 0802 07F5B453 		add	r3, r7, #5760
 1467 0806 03F10403 		add	r3, r3, #4
 1468 080a 1B68     		ldr	r3, [r3]
 1469 080c DB00     		lsls	r3, r3, #3
 1470 080e 1344     		add	r3, r3, r2
 1471 0810 07F5B352 		add	r2, r7, #5728
 1472 0814 1268     		ldr	r2, [r2]
 1473 0816 5A60     		str	r2, [r3, #4]
 223:pathfinding.c ****                 pathIndex++;
 1474              		.loc 1 223 0
 1475 0818 07F5B453 		add	r3, r7, #5760
 1476 081c 03F10403 		add	r3, r3, #4
 1477 0820 1B68     		ldr	r3, [r3]
 1478 0822 0133     		adds	r3, r3, #1
 1479 0824 07F5B452 		add	r2, r7, #5760
 1480 0828 02F10402 		add	r2, r2, #4
 1481 082c 1360     		str	r3, [r2]
 224:pathfinding.c ****                 // reverse array somewhere
 225:pathfinding.c **** 
 226:pathfinding.c ****                 shortestDist--; // decrement distance
 1482              		.loc 1 226 0
 1483 082e 07F5B453 		add	r3, r7, #5760
 1484 0832 03F11003 		add	r3, r3, #16
 1485 0836 1B68     		ldr	r3, [r3]
 1486 0838 013B     		subs	r3, r3, #1
 1487 083a 07F5B452 		add	r2, r7, #5760
 1488 083e 02F11002 		add	r2, r2, #16
 1489 0842 1360     		str	r3, [r2]
 227:pathfinding.c ****                 currentRow = newRow; 
 1490              		.loc 1 227 0
 1491 0844 07F5B353 		add	r3, r7, #5728
 1492 0848 03F10403 		add	r3, r3, #4
 1493 084c 1B68     		ldr	r3, [r3]
 1494 084e 07F5B452 		add	r2, r7, #5760
 1495 0852 02F10C02 		add	r2, r2, #12
 1496 0856 1360     		str	r3, [r2]
 228:pathfinding.c ****                 currentCol = newCol; // change current location
 1497              		.loc 1 228 0
 1498 0858 07F5B353 		add	r3, r7, #5728
 1499 085c 1B68     		ldr	r3, [r3]
 1500 085e 07F5B452 		add	r2, r7, #5760
 1501 0862 02F10802 		add	r2, r2, #8
 1502 0866 1360     		str	r3, [r2]
 229:pathfinding.c ****                 retSteps[shortestDist].row = currentRow; 
 1503              		.loc 1 229 0
 1504 0868 07F5B453 		add	r3, r7, #5760
 1505 086c 03F11003 		add	r3, r3, #16
 1506 0870 1B68     		ldr	r3, [r3]
 1507 0872 DB00     		lsls	r3, r3, #3
 1508 0874 07F5B352 		add	r2, r7, #5728
ARM GAS  C:\Users\ikui753\AppData\Local\Temp\ccqmrS2t.s 			page 32


 1509 0878 02F10802 		add	r2, r2, #8
 1510 087c 1268     		ldr	r2, [r2]
 1511 087e 1344     		add	r3, r3, r2
 1512 0880 07F5B452 		add	r2, r7, #5760
 1513 0884 02F10C02 		add	r2, r2, #12
 1514 0888 1268     		ldr	r2, [r2]
 1515 088a 1A60     		str	r2, [r3]
 230:pathfinding.c ****                 retSteps[shortestDist].col = currentCol; // add currentRow and currentCol to retste
 1516              		.loc 1 230 0
 1517 088c 07F5B453 		add	r3, r7, #5760
 1518 0890 03F11003 		add	r3, r3, #16
 1519 0894 1B68     		ldr	r3, [r3]
 1520 0896 DB00     		lsls	r3, r3, #3
 1521 0898 07F5B352 		add	r2, r7, #5728
 1522 089c 02F10802 		add	r2, r2, #8
 1523 08a0 1268     		ldr	r2, [r2]
 1524 08a2 1344     		add	r3, r3, r2
 1525 08a4 07F5B452 		add	r2, r7, #5760
 1526 08a8 02F10802 		add	r2, r2, #8
 1527 08ac 1268     		ldr	r2, [r2]
 1528 08ae 5A60     		str	r2, [r3, #4]
 231:pathfinding.c ****                 if(currentRow == startlocation.row && currentCol == startlocation.col) {
 1529              		.loc 1 231 0
 1530 08b0 07F11803 		add	r3, r7, #24
 1531 08b4 143B     		subs	r3, r3, #20
 1532 08b6 1A68     		ldr	r2, [r3]
 1533 08b8 07F5B453 		add	r3, r7, #5760
 1534 08bc 03F10C03 		add	r3, r3, #12
 1535 08c0 1B68     		ldr	r3, [r3]
 1536 08c2 9A42     		cmp	r2, r3
 1537 08c4 20D1     		bne	.L40
 1538              		.loc 1 231 0 is_stmt 0 discriminator 1
 1539 08c6 07F11803 		add	r3, r7, #24
 1540 08ca 143B     		subs	r3, r3, #20
 1541 08cc 5A68     		ldr	r2, [r3, #4]
 1542 08ce 07F5B453 		add	r3, r7, #5760
 1543 08d2 03F10803 		add	r3, r3, #8
 1544 08d6 1B68     		ldr	r3, [r3]
 1545 08d8 9A42     		cmp	r2, r3
 1546 08da 15D1     		bne	.L40
 232:pathfinding.c ****                     map[currentRow][currentCol] = 2; // mark start location
 1547              		.loc 1 232 0 is_stmt 1
 1548 08dc 07F5B453 		add	r3, r7, #5760
 1549 08e0 03F10C03 		add	r3, r3, #12
 1550 08e4 1B68     		ldr	r3, [r3]
 1551 08e6 4C22     		movs	r2, #76
 1552 08e8 02FB03F2 		mul	r2, r2, r3
 1553 08ec 07F11803 		add	r3, r7, #24
 1554 08f0 0C3B     		subs	r3, r3, #12
 1555 08f2 1B68     		ldr	r3, [r3]
 1556 08f4 1344     		add	r3, r3, r2
 1557 08f6 07F5B452 		add	r2, r7, #5760
 1558 08fa 02F10802 		add	r2, r2, #8
 1559 08fe 1268     		ldr	r2, [r2]
 1560 0900 0221     		movs	r1, #2
 1561 0902 43F82210 		str	r1, [r3, r2, lsl #2]
 233:pathfinding.c ****                     break;
ARM GAS  C:\Users\ikui753\AppData\Local\Temp\ccqmrS2t.s 			page 33


 1562              		.loc 1 233 0
 1563 0906 0CE0     		b	.L38
 1564              	.L40:
 1565              	.LBE17:
 215:pathfinding.c ****             int newRow = currentRow + moves[i].row;
 1566              		.loc 1 215 0 discriminator 2
 1567 0908 07F5B453 		add	r3, r7, #5760
 1568 090c 1B68     		ldr	r3, [r3]
 1569 090e 0133     		adds	r3, r3, #1
 1570 0910 07F5B452 		add	r2, r7, #5760
 1571 0914 1360     		str	r3, [r2]
 1572              	.L39:
 215:pathfinding.c ****             int newRow = currentRow + moves[i].row;
 1573              		.loc 1 215 0 is_stmt 0 discriminator 1
 1574 0916 07F5B453 		add	r3, r7, #5760
 1575 091a 1B68     		ldr	r3, [r3]
 1576 091c 032B     		cmp	r3, #3
 1577 091e 7FF6FDAE 		bls	.L41
 1578              	.L38:
 1579              	.LBE16:
 213:pathfinding.c ****         // make a move, check if valid and is the next step in path
 1580              		.loc 1 213 0 is_stmt 1
 1581 0922 07F5B453 		add	r3, r7, #5760
 1582 0926 03F11003 		add	r3, r3, #16
 1583 092a 1B68     		ldr	r3, [r3]
 1584 092c 002B     		cmp	r3, #0
 1585 092e 3FF7ECAE 		bgt	.L42
 234:pathfinding.c ****                 }   
 235:pathfinding.c ****             }
 236:pathfinding.c ****         }
 237:pathfinding.c ****     }
 238:pathfinding.c **** }
 1586              		.loc 1 238 0
 1587 0932 00BF     		nop
 1588 0934 07F5B557 		add	r7, r7, #5792
 1589 0938 1C37     		adds	r7, r7, #28
 1590              		.cfi_def_cfa_offset 20
 1591 093a BD46     		mov	sp, r7
 1592              		.cfi_def_cfa_register 13
 1593              		@ sp needed
 1594 093c BDE89040 		pop	{r4, r7, lr}
 1595              		.cfi_restore 14
 1596              		.cfi_restore 7
 1597              		.cfi_restore 4
 1598              		.cfi_def_cfa_offset 8
 1599 0940 02B0     		add	sp, sp, #8
 1600              		.cfi_def_cfa_offset 0
 1601 0942 7047     		bx	lr
 1602              	.L47:
 1603              		.align	2
 1604              	.L46:
 1605 0944 00000000 		.word	moves
 1606 0948 00000000 		.word	list_of_optimal_coordinates
 1607              		.cfi_endproc
 1608              	.LFE4:
 1609              		.size	dijkstra, .-dijkstra
 1610              		.global	ignoreR
ARM GAS  C:\Users\ikui753\AppData\Local\Temp\ccqmrS2t.s 			page 34


 1611              		.bss
 1612              		.align	2
 1613              		.type	ignoreR, %object
 1614              		.size	ignoreR, 4
 1615              	ignoreR:
 1616 2c8c 00000000 		.space	4
 1617              		.global	ignoreL
 1618              		.align	2
 1619              		.type	ignoreL, %object
 1620              		.size	ignoreL, 4
 1621              	ignoreL:
 1622 2c90 00000000 		.space	4
 1623              		.global	distanceToTarget
 1624              		.data
 1625              		.align	2
 1626              		.type	distanceToTarget, %object
 1627              		.size	distanceToTarget, 4
 1628              	distanceToTarget:
 1629 04c8 C97D2704 		.word	69696969
 1630              		.section	.text.getPathInstructions,"ax",%progbits
 1631              		.align	2
 1632              		.global	getPathInstructions
 1633              		.thumb
 1634              		.thumb_func
 1635              		.type	getPathInstructions, %function
 1636              	getPathInstructions:
 1637              	.LFB5:
 239:pathfinding.c **** 
 240:pathfinding.c **** // PATHFINDING PROCESSING *====================
 241:pathfinding.c **** 
 242:pathfinding.c **** int ignoreR = 0, ignoreL = 0;
 243:pathfinding.c **** int distanceToTarget = 69696969;
 244:pathfinding.c **** 
 245:pathfinding.c **** // edit global instructionsList variable, fill with instructions
 246:pathfinding.c **** void getPathInstructions(int map[MAX_ROWS][MAX_COLS], int numSteps, struct Location startLocation, 
 1638              		.loc 1 246 0
 1639              		.cfi_startproc
 1640              		@ args = 8, pretend = 0, frame = 80
 1641              		@ frame_needed = 1, uses_anonymous_args = 0
 1642 0000 80B5     		push	{r7, lr}
 1643              		.cfi_def_cfa_offset 8
 1644              		.cfi_offset 7, -8
 1645              		.cfi_offset 14, -4
 1646 0002 94B0     		sub	sp, sp, #80
 1647              		.cfi_def_cfa_offset 88
 1648 0004 00AF     		add	r7, sp, #0
 1649              		.cfi_def_cfa_register 7
 1650 0006 F860     		str	r0, [r7, #12]
 1651 0008 B960     		str	r1, [r7, #8]
 1652 000a 3946     		mov	r1, r7
 1653 000c 81E80C00 		stmia	r1, {r2, r3}
 247:pathfinding.c ****     int currentRow = startLocation.row; 
 1654              		.loc 1 247 0
 1655 0010 3B68     		ldr	r3, [r7]
 1656 0012 FB64     		str	r3, [r7, #76]
 248:pathfinding.c ****     int currentCol = startLocation.col; // initialise with start
 1657              		.loc 1 248 0
ARM GAS  C:\Users\ikui753\AppData\Local\Temp\ccqmrS2t.s 			page 35


 1658 0014 7B68     		ldr	r3, [r7, #4]
 1659 0016 BB64     		str	r3, [r7, #72]
 249:pathfinding.c ****     int listIndex = 0;
 1660              		.loc 1 249 0
 1661 0018 0023     		movs	r3, #0
 1662 001a 7B64     		str	r3, [r7, #68]
 250:pathfinding.c ****     int targetOrientation = getTargetOrientation(targetLocation.row, targetLocation.col);
 1663              		.loc 1 250 0
 1664 001c BB6D     		ldr	r3, [r7, #88]
 1665 001e FA6D     		ldr	r2, [r7, #92]
 1666 0020 1146     		mov	r1, r2
 1667 0022 1846     		mov	r0, r3
 1668 0024 FFF7FEFF 		bl	getTargetOrientation
 1669 0028 0346     		mov	r3, r0
 1670 002a 3B61     		str	r3, [r7, #16]
 251:pathfinding.c ****     // given path, traverse it by calculating number of turns/ turns to skip between each junction
 252:pathfinding.c ****     while(numSteps >= 0) {
 1671              		.loc 1 252 0
 1672 002c 5FE2     		b	.L49
 1673              	.L106:
 1674              	.LBB18:
 253:pathfinding.c ****         checkIgnoreTurn(currentRobotOrientation, currentRow, currentCol); // if a 0 is adjacent to 
 1675              		.loc 1 253 0
 1676 002e 924B     		ldr	r3, .L111
 1677 0030 1B78     		ldrb	r3, [r3]	@ zero_extendqisi2
 1678 0032 BA6C     		ldr	r2, [r7, #72]
 1679 0034 F96C     		ldr	r1, [r7, #76]
 1680 0036 1846     		mov	r0, r3
 1681 0038 FFF7FEFF 		bl	checkIgnoreTurn
 254:pathfinding.c ****         map[currentRow][currentCol] = 0; // clear visited map location (for when we need to u-turn)
 1682              		.loc 1 254 0
 1683 003c FB6C     		ldr	r3, [r7, #76]
 1684 003e 4C22     		movs	r2, #76
 1685 0040 02FB03F3 		mul	r3, r2, r3
 1686 0044 FA68     		ldr	r2, [r7, #12]
 1687 0046 1344     		add	r3, r3, r2
 1688 0048 BA6C     		ldr	r2, [r7, #72]
 1689 004a 0021     		movs	r1, #0
 1690 004c 43F82210 		str	r1, [r3, r2, lsl #2]
 255:pathfinding.c ****         previousRobotOrientation = currentRobotOrientation;
 1691              		.loc 1 255 0
 1692 0050 894B     		ldr	r3, .L111
 1693 0052 1A78     		ldrb	r2, [r3]	@ zero_extendqisi2
 1694 0054 894B     		ldr	r3, .L111+4
 1695 0056 1A70     		strb	r2, [r3]
 256:pathfinding.c ****         enum InstructionDirection newDirection;
 257:pathfinding.c ****         int nextStep = checkPathDirection(currentRow,currentCol);  // check all four sides for next
 1696              		.loc 1 257 0
 1697 0058 B96C     		ldr	r1, [r7, #72]
 1698 005a F86C     		ldr	r0, [r7, #76]
 1699 005c FFF7FEFF 		bl	checkPathDirection
 1700 0060 0346     		mov	r3, r0
 1701 0062 FB63     		str	r3, [r7, #60]
 258:pathfinding.c ****         if(currentRow == targetLocation.row && currentCol == targetLocation.col) {
 1702              		.loc 1 258 0
 1703 0064 BA6D     		ldr	r2, [r7, #88]
 1704 0066 FB6C     		ldr	r3, [r7, #76]
ARM GAS  C:\Users\ikui753\AppData\Local\Temp\ccqmrS2t.s 			page 36


 1705 0068 9A42     		cmp	r2, r3
 1706 006a 08D1     		bne	.L50
 1707              		.loc 1 258 0 is_stmt 0 discriminator 1
 1708 006c FA6D     		ldr	r2, [r7, #92]
 1709 006e BB6C     		ldr	r3, [r7, #72]
 1710 0070 9A42     		cmp	r2, r3
 1711 0072 04D1     		bne	.L50
 259:pathfinding.c ****             newDirection = StopAtTarget; // if next step is the target, call forward until target
 1712              		.loc 1 259 0 is_stmt 1
 1713 0074 0523     		movs	r3, #5
 1714 0076 87F84330 		strb	r3, [r7, #67]
 260:pathfinding.c ****             nextStep = 5;
 1715              		.loc 1 260 0
 1716 007a 0523     		movs	r3, #5
 1717 007c FB63     		str	r3, [r7, #60]
 1718              	.L50:
 261:pathfinding.c ****         }
 262:pathfinding.c ****         switch (nextStep) {
 1719              		.loc 1 262 0
 1720 007e FB6B     		ldr	r3, [r7, #60]
 1721 0080 032B     		cmp	r3, #3
 1722 0082 00F2F381 		bhi	.L110
 1723 0086 01A2     		adr	r2, .L53
 1724 0088 52F823F0 		ldr	pc, [r2, r3, lsl #2]
 1725              		.p2align 2
 1726              	.L53:
 1727 008c 9D000000 		.word	.L52+1
 1728 0090 87010000 		.word	.L54+1
 1729 0094 8D020000 		.word	.L55+1
 1730 0098 7F030000 		.word	.L56+1
 1731              		.p2align 1
 1732              	.L52:
 263:pathfinding.c ****             case 0: // next step is up                
 264:pathfinding.c ****                 currentRobotOrientation = Up;
 1733              		.loc 1 264 0
 1734 009c 764B     		ldr	r3, .L111
 1735 009e 0022     		movs	r2, #0
 1736 00a0 1A70     		strb	r2, [r3]
 265:pathfinding.c ****                 if(previousRobotOrientation == Left) {
 1737              		.loc 1 265 0
 1738 00a2 764B     		ldr	r3, .L111+4
 1739 00a4 1B78     		ldrb	r3, [r3]	@ zero_extendqisi2
 1740 00a6 022B     		cmp	r3, #2
 1741 00a8 08D1     		bne	.L57
 266:pathfinding.c ****                     newDirection = waitForRightTurn;
 1742              		.loc 1 266 0
 1743 00aa 0223     		movs	r3, #2
 1744 00ac 87F84330 		strb	r3, [r7, #67]
 267:pathfinding.c ****                     ignoreL = 0;
 1745              		.loc 1 267 0
 1746 00b0 734B     		ldr	r3, .L111+8
 1747 00b2 0022     		movs	r2, #0
 1748 00b4 1A60     		str	r2, [r3]
 268:pathfinding.c ****                     ignoreR = 0; // reset ignoreL/ ignoreR
 1749              		.loc 1 268 0
 1750 00b6 734B     		ldr	r3, .L111+12
 1751 00b8 0022     		movs	r2, #0
ARM GAS  C:\Users\ikui753\AppData\Local\Temp\ccqmrS2t.s 			page 37


 1752 00ba 1A60     		str	r2, [r3]
 1753              	.L57:
 269:pathfinding.c ****                 } 
 270:pathfinding.c ****                 if(previousRobotOrientation == Right) {
 1754              		.loc 1 270 0
 1755 00bc 6F4B     		ldr	r3, .L111+4
 1756 00be 1B78     		ldrb	r3, [r3]	@ zero_extendqisi2
 1757 00c0 032B     		cmp	r3, #3
 1758 00c2 08D1     		bne	.L58
 271:pathfinding.c ****                     newDirection = waitForLeftTurn;
 1759              		.loc 1 271 0
 1760 00c4 0123     		movs	r3, #1
 1761 00c6 87F84330 		strb	r3, [r7, #67]
 272:pathfinding.c ****                     ignoreL = 0;
 1762              		.loc 1 272 0
 1763 00ca 6D4B     		ldr	r3, .L111+8
 1764 00cc 0022     		movs	r2, #0
 1765 00ce 1A60     		str	r2, [r3]
 273:pathfinding.c ****                     ignoreR = 0; // reset ignoreL/ ignoreR
 1766              		.loc 1 273 0
 1767 00d0 6C4B     		ldr	r3, .L111+12
 1768 00d2 0022     		movs	r2, #0
 1769 00d4 1A60     		str	r2, [r3]
 1770              	.L58:
 274:pathfinding.c ****                 }
 275:pathfinding.c ****                 if(previousRobotOrientation == Up) {
 1771              		.loc 1 275 0
 1772 00d6 694B     		ldr	r3, .L111+4
 1773 00d8 1B78     		ldrb	r3, [r3]	@ zero_extendqisi2
 1774 00da 002B     		cmp	r3, #0
 1775 00dc 48D1     		bne	.L59
 276:pathfinding.c ****                     // check if we only need to go forward to reach target
 277:pathfinding.c ****                     if(targetOrientation == nextStep && targetLocation.col == currentCol) {
 1776              		.loc 1 277 0
 1777 00de 3A69     		ldr	r2, [r7, #16]
 1778 00e0 FB6B     		ldr	r3, [r7, #60]
 1779 00e2 9A42     		cmp	r2, r3
 1780 00e4 41D1     		bne	.L60
 1781              		.loc 1 277 0 is_stmt 0 discriminator 1
 1782 00e6 FA6D     		ldr	r2, [r7, #92]
 1783 00e8 BB6C     		ldr	r3, [r7, #72]
 1784 00ea 9A42     		cmp	r2, r3
 1785 00ec 3DD1     		bne	.L60
 1786              	.LBB19:
 278:pathfinding.c ****                         int atTarget = 1;
 1787              		.loc 1 278 0 is_stmt 1
 1788 00ee 0123     		movs	r3, #1
 1789 00f0 BB63     		str	r3, [r7, #56]
 1790              	.LBB20:
 279:pathfinding.c ****                         // check if we only need to go forward to reach target
 280:pathfinding.c ****                         for(int i = 1; i < currentRow-targetLocation.row; i++) {
 1791              		.loc 1 280 0
 1792 00f2 0123     		movs	r3, #1
 1793 00f4 7B63     		str	r3, [r7, #52]
 1794 00f6 27E0     		b	.L61
 1795              	.L65:
 281:pathfinding.c ****                             // check columns in front to see if there are any obstacles
ARM GAS  C:\Users\ikui753\AppData\Local\Temp\ccqmrS2t.s 			page 38


 282:pathfinding.c ****                             if(map[currentRow - i][currentCol] == 1) {
 1796              		.loc 1 282 0
 1797 00f8 FA6C     		ldr	r2, [r7, #76]
 1798 00fa 7B6B     		ldr	r3, [r7, #52]
 1799 00fc D31A     		subs	r3, r2, r3
 1800 00fe 1A46     		mov	r2, r3
 1801 0100 4C23     		movs	r3, #76
 1802 0102 03FB02F3 		mul	r3, r3, r2
 1803 0106 FA68     		ldr	r2, [r7, #12]
 1804 0108 1344     		add	r3, r3, r2
 1805 010a BA6C     		ldr	r2, [r7, #72]
 1806 010c 53F82230 		ldr	r3, [r3, r2, lsl #2]
 1807 0110 012B     		cmp	r3, #1
 1808 0112 02D1     		bne	.L62
 283:pathfinding.c ****                                 atTarget = 0;
 1809              		.loc 1 283 0
 1810 0114 0023     		movs	r3, #0
 1811 0116 BB63     		str	r3, [r7, #56]
 284:pathfinding.c ****                                 break;
 1812              		.loc 1 284 0
 1813 0118 1CE0     		b	.L63
 1814              	.L62:
 285:pathfinding.c ****                             }
 286:pathfinding.c ****                             if(map[currentRow - i][currentCol] == 9) {
 1815              		.loc 1 286 0
 1816 011a FA6C     		ldr	r2, [r7, #76]
 1817 011c 7B6B     		ldr	r3, [r7, #52]
 1818 011e D31A     		subs	r3, r2, r3
 1819 0120 1A46     		mov	r2, r3
 1820 0122 4C23     		movs	r3, #76
 1821 0124 03FB02F3 		mul	r3, r3, r2
 1822 0128 FA68     		ldr	r2, [r7, #12]
 1823 012a 1344     		add	r3, r3, r2
 1824 012c BA6C     		ldr	r2, [r7, #72]
 1825 012e 53F82230 		ldr	r3, [r3, r2, lsl #2]
 1826 0132 092B     		cmp	r3, #9
 1827 0134 05D1     		bne	.L64
 287:pathfinding.c ****                                 atTarget = 1; // found target with no obstacles before it 
 1828              		.loc 1 287 0
 1829 0136 0123     		movs	r3, #1
 1830 0138 BB63     		str	r3, [r7, #56]
 288:pathfinding.c ****                                 distanceToTarget = i;
 1831              		.loc 1 288 0
 1832 013a 534A     		ldr	r2, .L111+16
 1833 013c 7B6B     		ldr	r3, [r7, #52]
 1834 013e 1360     		str	r3, [r2]
 289:pathfinding.c ****                                 break;
 1835              		.loc 1 289 0
 1836 0140 08E0     		b	.L63
 1837              	.L64:
 280:pathfinding.c ****                             // check columns in front to see if there are any obstacles
 1838              		.loc 1 280 0 discriminator 2
 1839 0142 7B6B     		ldr	r3, [r7, #52]
 1840 0144 0133     		adds	r3, r3, #1
 1841 0146 7B63     		str	r3, [r7, #52]
 1842              	.L61:
 280:pathfinding.c ****                             // check columns in front to see if there are any obstacles
ARM GAS  C:\Users\ikui753\AppData\Local\Temp\ccqmrS2t.s 			page 39


 1843              		.loc 1 280 0 is_stmt 0 discriminator 1
 1844 0148 BB6D     		ldr	r3, [r7, #88]
 1845 014a FA6C     		ldr	r2, [r7, #76]
 1846 014c D21A     		subs	r2, r2, r3
 1847 014e 7B6B     		ldr	r3, [r7, #52]
 1848 0150 9A42     		cmp	r2, r3
 1849 0152 D1DC     		bgt	.L65
 1850              	.L63:
 1851              	.LBE20:
 290:pathfinding.c ****                             }
 291:pathfinding.c ****                         }
 292:pathfinding.c ****                         if(atTarget) {
 1852              		.loc 1 292 0 is_stmt 1
 1853 0154 BB6B     		ldr	r3, [r7, #56]
 1854 0156 002B     		cmp	r3, #0
 1855 0158 03D0     		beq	.L66
 293:pathfinding.c ****                             newDirection = ForwardUntilTarget;
 1856              		.loc 1 293 0
 1857 015a 0423     		movs	r3, #4
 1858 015c 87F84330 		strb	r3, [r7, #67]
 1859              	.LBE19:
 277:pathfinding.c ****                         int atTarget = 1;
 1860              		.loc 1 277 0
 1861 0160 06E0     		b	.L59
 1862              	.L66:
 1863              	.LBB21:
 294:pathfinding.c ****                         } else {
 295:pathfinding.c ****                             newDirection = GoForward;
 1864              		.loc 1 295 0
 1865 0162 0023     		movs	r3, #0
 1866 0164 87F84330 		strb	r3, [r7, #67]
 1867              	.LBE21:
 277:pathfinding.c ****                         int atTarget = 1;
 1868              		.loc 1 277 0
 1869 0168 02E0     		b	.L59
 1870              	.L60:
 296:pathfinding.c ****                         }
 297:pathfinding.c ****                     } else {
 298:pathfinding.c ****                         newDirection = GoForward;
 1871              		.loc 1 298 0
 1872 016a 0023     		movs	r3, #0
 1873 016c 87F84330 		strb	r3, [r7, #67]
 1874              	.L59:
 299:pathfinding.c ****                     }
 300:pathfinding.c ****                 }
 301:pathfinding.c ****                 if(previousRobotOrientation == Down) {
 1875              		.loc 1 301 0
 1876 0170 424B     		ldr	r3, .L111+4
 1877 0172 1B78     		ldrb	r3, [r3]	@ zero_extendqisi2
 1878 0174 012B     		cmp	r3, #1
 1879 0176 02D1     		bne	.L68
 302:pathfinding.c ****                     newDirection = uTurn;
 1880              		.loc 1 302 0
 1881 0178 0323     		movs	r3, #3
 1882 017a 87F84330 		strb	r3, [r7, #67]
 1883              	.L68:
 303:pathfinding.c ****                 }
ARM GAS  C:\Users\ikui753\AppData\Local\Temp\ccqmrS2t.s 			page 40


 304:pathfinding.c ****                 currentRow--; // jump to new location
 1884              		.loc 1 304 0
 1885 017e FB6C     		ldr	r3, [r7, #76]
 1886 0180 013B     		subs	r3, r3, #1
 1887 0182 FB64     		str	r3, [r7, #76]
 305:pathfinding.c ****                 break;
 1888              		.loc 1 305 0
 1889 0184 73E1     		b	.L69
 1890              	.L54:
 306:pathfinding.c ****             case 1: // next step is down
 307:pathfinding.c ****                 currentRobotOrientation = Down;
 1891              		.loc 1 307 0
 1892 0186 3C4B     		ldr	r3, .L111
 1893 0188 0122     		movs	r2, #1
 1894 018a 1A70     		strb	r2, [r3]
 308:pathfinding.c ****                 if(previousRobotOrientation == Right) {
 1895              		.loc 1 308 0
 1896 018c 3B4B     		ldr	r3, .L111+4
 1897 018e 1B78     		ldrb	r3, [r3]	@ zero_extendqisi2
 1898 0190 032B     		cmp	r3, #3
 1899 0192 08D1     		bne	.L70
 309:pathfinding.c ****                     newDirection = waitForRightTurn;
 1900              		.loc 1 309 0
 1901 0194 0223     		movs	r3, #2
 1902 0196 87F84330 		strb	r3, [r7, #67]
 310:pathfinding.c ****                     ignoreL = 0;
 1903              		.loc 1 310 0
 1904 019a 394B     		ldr	r3, .L111+8
 1905 019c 0022     		movs	r2, #0
 1906 019e 1A60     		str	r2, [r3]
 311:pathfinding.c ****                     ignoreR = 0; // reset ignoreL/ ignoreR
 1907              		.loc 1 311 0
 1908 01a0 384B     		ldr	r3, .L111+12
 1909 01a2 0022     		movs	r2, #0
 1910 01a4 1A60     		str	r2, [r3]
 1911              	.L70:
 312:pathfinding.c ****                 } 
 313:pathfinding.c ****                 if(previousRobotOrientation == Left) {
 1912              		.loc 1 313 0
 1913 01a6 354B     		ldr	r3, .L111+4
 1914 01a8 1B78     		ldrb	r3, [r3]	@ zero_extendqisi2
 1915 01aa 022B     		cmp	r3, #2
 1916 01ac 08D1     		bne	.L71
 314:pathfinding.c ****                     newDirection = waitForLeftTurn;
 1917              		.loc 1 314 0
 1918 01ae 0123     		movs	r3, #1
 1919 01b0 87F84330 		strb	r3, [r7, #67]
 315:pathfinding.c ****                     ignoreL = 0;
 1920              		.loc 1 315 0
 1921 01b4 324B     		ldr	r3, .L111+8
 1922 01b6 0022     		movs	r2, #0
 1923 01b8 1A60     		str	r2, [r3]
 316:pathfinding.c ****                     ignoreR = 0; // reset ignoreL/ ignoreR
 1924              		.loc 1 316 0
 1925 01ba 324B     		ldr	r3, .L111+12
 1926 01bc 0022     		movs	r2, #0
 1927 01be 1A60     		str	r2, [r3]
ARM GAS  C:\Users\ikui753\AppData\Local\Temp\ccqmrS2t.s 			page 41


 1928              	.L71:
 317:pathfinding.c ****                 }
 318:pathfinding.c ****                 if(previousRobotOrientation == Down) {
 1929              		.loc 1 318 0
 1930 01c0 2E4B     		ldr	r3, .L111+4
 1931 01c2 1B78     		ldrb	r3, [r3]	@ zero_extendqisi2
 1932 01c4 012B     		cmp	r3, #1
 1933 01c6 46D1     		bne	.L72
 319:pathfinding.c ****                    if(targetOrientation == nextStep && targetLocation.col == currentCol) {
 1934              		.loc 1 319 0
 1935 01c8 3A69     		ldr	r2, [r7, #16]
 1936 01ca FB6B     		ldr	r3, [r7, #60]
 1937 01cc 9A42     		cmp	r2, r3
 1938 01ce 3FD1     		bne	.L73
 1939              		.loc 1 319 0 is_stmt 0 discriminator 1
 1940 01d0 FA6D     		ldr	r2, [r7, #92]
 1941 01d2 BB6C     		ldr	r3, [r7, #72]
 1942 01d4 9A42     		cmp	r2, r3
 1943 01d6 3BD1     		bne	.L73
 1944              	.LBB22:
 320:pathfinding.c ****                         int atTarget = 1;
 1945              		.loc 1 320 0 is_stmt 1
 1946 01d8 0123     		movs	r3, #1
 1947 01da 3B63     		str	r3, [r7, #48]
 1948              	.LBB23:
 321:pathfinding.c ****                         // check if we only need to go forward to reach target
 322:pathfinding.c ****                         for(int i = 1; i < targetLocation.row; i++) {
 1949              		.loc 1 322 0
 1950 01dc 0123     		movs	r3, #1
 1951 01de FB62     		str	r3, [r7, #44]
 1952 01e0 27E0     		b	.L74
 1953              	.L78:
 323:pathfinding.c ****                             // check columns in front to see if there are any obstacles
 324:pathfinding.c ****                             if(map[currentRow + i][currentCol] == 1) {
 1954              		.loc 1 324 0
 1955 01e2 FA6C     		ldr	r2, [r7, #76]
 1956 01e4 FB6A     		ldr	r3, [r7, #44]
 1957 01e6 1344     		add	r3, r3, r2
 1958 01e8 1A46     		mov	r2, r3
 1959 01ea 4C23     		movs	r3, #76
 1960 01ec 03FB02F3 		mul	r3, r3, r2
 1961 01f0 FA68     		ldr	r2, [r7, #12]
 1962 01f2 1344     		add	r3, r3, r2
 1963 01f4 BA6C     		ldr	r2, [r7, #72]
 1964 01f6 53F82230 		ldr	r3, [r3, r2, lsl #2]
 1965 01fa 012B     		cmp	r3, #1
 1966 01fc 02D1     		bne	.L75
 325:pathfinding.c ****                                 atTarget = 0;
 1967              		.loc 1 325 0
 1968 01fe 0023     		movs	r3, #0
 1969 0200 3B63     		str	r3, [r7, #48]
 326:pathfinding.c ****                                 break;
 1970              		.loc 1 326 0
 1971 0202 1AE0     		b	.L76
 1972              	.L75:
 327:pathfinding.c ****                             }
 328:pathfinding.c ****                             if(map[currentRow + i][currentCol] == 9) {
ARM GAS  C:\Users\ikui753\AppData\Local\Temp\ccqmrS2t.s 			page 42


 1973              		.loc 1 328 0
 1974 0204 FA6C     		ldr	r2, [r7, #76]
 1975 0206 FB6A     		ldr	r3, [r7, #44]
 1976 0208 1344     		add	r3, r3, r2
 1977 020a 1A46     		mov	r2, r3
 1978 020c 4C23     		movs	r3, #76
 1979 020e 03FB02F3 		mul	r3, r3, r2
 1980 0212 FA68     		ldr	r2, [r7, #12]
 1981 0214 1344     		add	r3, r3, r2
 1982 0216 BA6C     		ldr	r2, [r7, #72]
 1983 0218 53F82230 		ldr	r3, [r3, r2, lsl #2]
 1984 021c 092B     		cmp	r3, #9
 1985 021e 05D1     		bne	.L77
 329:pathfinding.c ****                                 atTarget = 1; // found target with no obstacles before it 
 1986              		.loc 1 329 0
 1987 0220 0123     		movs	r3, #1
 1988 0222 3B63     		str	r3, [r7, #48]
 330:pathfinding.c ****                                 distanceToTarget = i;
 1989              		.loc 1 330 0
 1990 0224 184A     		ldr	r2, .L111+16
 1991 0226 FB6A     		ldr	r3, [r7, #44]
 1992 0228 1360     		str	r3, [r2]
 331:pathfinding.c ****                                 break;
 1993              		.loc 1 331 0
 1994 022a 06E0     		b	.L76
 1995              	.L77:
 322:pathfinding.c ****                             // check columns in front to see if there are any obstacles
 1996              		.loc 1 322 0 discriminator 2
 1997 022c FB6A     		ldr	r3, [r7, #44]
 1998 022e 0133     		adds	r3, r3, #1
 1999 0230 FB62     		str	r3, [r7, #44]
 2000              	.L74:
 322:pathfinding.c ****                             // check columns in front to see if there are any obstacles
 2001              		.loc 1 322 0 is_stmt 0 discriminator 1
 2002 0232 BA6D     		ldr	r2, [r7, #88]
 2003 0234 FB6A     		ldr	r3, [r7, #44]
 2004 0236 9A42     		cmp	r2, r3
 2005 0238 D3DC     		bgt	.L78
 2006              	.L76:
 2007              	.LBE23:
 332:pathfinding.c ****                             }
 333:pathfinding.c ****                         }
 334:pathfinding.c ****                         if(atTarget) {
 2008              		.loc 1 334 0 is_stmt 1
 2009 023a 3B6B     		ldr	r3, [r7, #48]
 2010 023c 002B     		cmp	r3, #0
 2011 023e 03D0     		beq	.L79
 335:pathfinding.c ****                             newDirection = ForwardUntilTarget;
 2012              		.loc 1 335 0
 2013 0240 0423     		movs	r3, #4
 2014 0242 87F84330 		strb	r3, [r7, #67]
 2015              	.LBE22:
 319:pathfinding.c ****                         int atTarget = 1;
 2016              		.loc 1 319 0
 2017 0246 06E0     		b	.L72
 2018              	.L79:
 2019              	.LBB24:
ARM GAS  C:\Users\ikui753\AppData\Local\Temp\ccqmrS2t.s 			page 43


 336:pathfinding.c ****                         } else {
 337:pathfinding.c ****                             newDirection = GoForward;
 2020              		.loc 1 337 0
 2021 0248 0023     		movs	r3, #0
 2022 024a 87F84330 		strb	r3, [r7, #67]
 2023              	.LBE24:
 319:pathfinding.c ****                         int atTarget = 1;
 2024              		.loc 1 319 0
 2025 024e 02E0     		b	.L72
 2026              	.L73:
 338:pathfinding.c ****                         }
 339:pathfinding.c ****                     }      
 340:pathfinding.c ****                     else {
 341:pathfinding.c ****                         newDirection = GoForward;
 2027              		.loc 1 341 0
 2028 0250 0023     		movs	r3, #0
 2029 0252 87F84330 		strb	r3, [r7, #67]
 2030              	.L72:
 342:pathfinding.c ****                     }
 343:pathfinding.c ****                 }
 344:pathfinding.c ****                 if(previousRobotOrientation == Up) {
 2031              		.loc 1 344 0
 2032 0256 094B     		ldr	r3, .L111+4
 2033 0258 1B78     		ldrb	r3, [r3]	@ zero_extendqisi2
 2034 025a 002B     		cmp	r3, #0
 2035 025c 08D1     		bne	.L81
 345:pathfinding.c ****                     newDirection = uTurn;
 2036              		.loc 1 345 0
 2037 025e 0323     		movs	r3, #3
 2038 0260 87F84330 		strb	r3, [r7, #67]
 346:pathfinding.c ****                     ignoreL = 0;
 2039              		.loc 1 346 0
 2040 0264 064B     		ldr	r3, .L111+8
 2041 0266 0022     		movs	r2, #0
 2042 0268 1A60     		str	r2, [r3]
 347:pathfinding.c ****                     ignoreR = 0;
 2043              		.loc 1 347 0
 2044 026a 064B     		ldr	r3, .L111+12
 2045 026c 0022     		movs	r2, #0
 2046 026e 1A60     		str	r2, [r3]
 2047              	.L81:
 348:pathfinding.c ****                 }
 349:pathfinding.c ****                 currentRow++;
 2048              		.loc 1 349 0
 2049 0270 FB6C     		ldr	r3, [r7, #76]
 2050 0272 0133     		adds	r3, r3, #1
 2051 0274 FB64     		str	r3, [r7, #76]
 350:pathfinding.c ****                 break;
 2052              		.loc 1 350 0
 2053 0276 FAE0     		b	.L69
 2054              	.L112:
 2055              		.align	2
 2056              	.L111:
 2057 0278 00000000 		.word	currentRobotOrientation
 2058 027c 00000000 		.word	previousRobotOrientation
 2059 0280 00000000 		.word	ignoreL
 2060 0284 00000000 		.word	ignoreR
ARM GAS  C:\Users\ikui753\AppData\Local\Temp\ccqmrS2t.s 			page 44


 2061 0288 00000000 		.word	distanceToTarget
 2062              	.L55:
 351:pathfinding.c ****             case 2: // next step is left
 352:pathfinding.c ****                 currentRobotOrientation = Left;
 2063              		.loc 1 352 0
 2064 028c 9C4B     		ldr	r3, .L113
 2065 028e 0222     		movs	r2, #2
 2066 0290 1A70     		strb	r2, [r3]
 353:pathfinding.c ****                 if(previousRobotOrientation == Up) {
 2067              		.loc 1 353 0
 2068 0292 9C4B     		ldr	r3, .L113+4
 2069 0294 1B78     		ldrb	r3, [r3]	@ zero_extendqisi2
 2070 0296 002B     		cmp	r3, #0
 2071 0298 08D1     		bne	.L82
 354:pathfinding.c ****                     newDirection = waitForLeftTurn;
 2072              		.loc 1 354 0
 2073 029a 0123     		movs	r3, #1
 2074 029c 87F84330 		strb	r3, [r7, #67]
 355:pathfinding.c ****                     ignoreL = 0;
 2075              		.loc 1 355 0
 2076 02a0 994B     		ldr	r3, .L113+8
 2077 02a2 0022     		movs	r2, #0
 2078 02a4 1A60     		str	r2, [r3]
 356:pathfinding.c ****                     ignoreR = 0; // reset ignoreL/ ignoreR
 2079              		.loc 1 356 0
 2080 02a6 994B     		ldr	r3, .L113+12
 2081 02a8 0022     		movs	r2, #0
 2082 02aa 1A60     		str	r2, [r3]
 2083              	.L82:
 357:pathfinding.c ****                 } 
 358:pathfinding.c ****                 if(previousRobotOrientation == Down) {
 2084              		.loc 1 358 0
 2085 02ac 954B     		ldr	r3, .L113+4
 2086 02ae 1B78     		ldrb	r3, [r3]	@ zero_extendqisi2
 2087 02b0 012B     		cmp	r3, #1
 2088 02b2 08D1     		bne	.L83
 359:pathfinding.c ****                     newDirection = waitForRightTurn;
 2089              		.loc 1 359 0
 2090 02b4 0223     		movs	r3, #2
 2091 02b6 87F84330 		strb	r3, [r7, #67]
 360:pathfinding.c ****                     ignoreL = 0;
 2092              		.loc 1 360 0
 2093 02ba 934B     		ldr	r3, .L113+8
 2094 02bc 0022     		movs	r2, #0
 2095 02be 1A60     		str	r2, [r3]
 361:pathfinding.c ****                     ignoreR = 0; // reset ignoreL/ ignoreR
 2096              		.loc 1 361 0
 2097 02c0 924B     		ldr	r3, .L113+12
 2098 02c2 0022     		movs	r2, #0
 2099 02c4 1A60     		str	r2, [r3]
 2100              	.L83:
 362:pathfinding.c ****                 }
 363:pathfinding.c ****                 if(previousRobotOrientation == Left) {
 2101              		.loc 1 363 0
 2102 02c6 8F4B     		ldr	r3, .L113+4
 2103 02c8 1B78     		ldrb	r3, [r3]	@ zero_extendqisi2
 2104 02ca 022B     		cmp	r3, #2
ARM GAS  C:\Users\ikui753\AppData\Local\Temp\ccqmrS2t.s 			page 45


 2105 02cc 46D1     		bne	.L84
 364:pathfinding.c ****                     if(targetOrientation == nextStep && targetLocation.row == currentRow) {
 2106              		.loc 1 364 0
 2107 02ce 3A69     		ldr	r2, [r7, #16]
 2108 02d0 FB6B     		ldr	r3, [r7, #60]
 2109 02d2 9A42     		cmp	r2, r3
 2110 02d4 3FD1     		bne	.L85
 2111              		.loc 1 364 0 is_stmt 0 discriminator 1
 2112 02d6 BA6D     		ldr	r2, [r7, #88]
 2113 02d8 FB6C     		ldr	r3, [r7, #76]
 2114 02da 9A42     		cmp	r2, r3
 2115 02dc 3BD1     		bne	.L85
 2116              	.LBB25:
 365:pathfinding.c ****                         int atTarget = 1;
 2117              		.loc 1 365 0 is_stmt 1
 2118 02de 0123     		movs	r3, #1
 2119 02e0 BB62     		str	r3, [r7, #40]
 2120              	.LBB26:
 366:pathfinding.c ****                         // check if we only need to go forward to reach target
 367:pathfinding.c ****                         for(int i = 1; i < currentCol-targetLocation.col; i++) {
 2121              		.loc 1 367 0
 2122 02e2 0123     		movs	r3, #1
 2123 02e4 7B62     		str	r3, [r7, #36]
 2124 02e6 25E0     		b	.L86
 2125              	.L90:
 368:pathfinding.c ****                             // check columns in front to see if there are any obstacles
 369:pathfinding.c ****                             if(map[currentRow][currentCol - i] == 1) {
 2126              		.loc 1 369 0
 2127 02e8 FB6C     		ldr	r3, [r7, #76]
 2128 02ea 4C22     		movs	r2, #76
 2129 02ec 02FB03F3 		mul	r3, r2, r3
 2130 02f0 FA68     		ldr	r2, [r7, #12]
 2131 02f2 1344     		add	r3, r3, r2
 2132 02f4 B96C     		ldr	r1, [r7, #72]
 2133 02f6 7A6A     		ldr	r2, [r7, #36]
 2134 02f8 8A1A     		subs	r2, r1, r2
 2135 02fa 53F82230 		ldr	r3, [r3, r2, lsl #2]
 2136 02fe 012B     		cmp	r3, #1
 2137 0300 02D1     		bne	.L87
 370:pathfinding.c ****                                 atTarget = 0;
 2138              		.loc 1 370 0
 2139 0302 0023     		movs	r3, #0
 2140 0304 BB62     		str	r3, [r7, #40]
 371:pathfinding.c ****                                 break;
 2141              		.loc 1 371 0
 2142 0306 1BE0     		b	.L88
 2143              	.L87:
 372:pathfinding.c ****                             }
 373:pathfinding.c ****                             if(map[currentRow][currentCol - i] == 9) {
 2144              		.loc 1 373 0
 2145 0308 FB6C     		ldr	r3, [r7, #76]
 2146 030a 4C22     		movs	r2, #76
 2147 030c 02FB03F3 		mul	r3, r2, r3
 2148 0310 FA68     		ldr	r2, [r7, #12]
 2149 0312 1344     		add	r3, r3, r2
 2150 0314 B96C     		ldr	r1, [r7, #72]
 2151 0316 7A6A     		ldr	r2, [r7, #36]
ARM GAS  C:\Users\ikui753\AppData\Local\Temp\ccqmrS2t.s 			page 46


 2152 0318 8A1A     		subs	r2, r1, r2
 2153 031a 53F82230 		ldr	r3, [r3, r2, lsl #2]
 2154 031e 092B     		cmp	r3, #9
 2155 0320 05D1     		bne	.L89
 374:pathfinding.c ****                                 atTarget = 1; // found target with no obstacles before it
 2156              		.loc 1 374 0
 2157 0322 0123     		movs	r3, #1
 2158 0324 BB62     		str	r3, [r7, #40]
 375:pathfinding.c ****                                 distanceToTarget = i;
 2159              		.loc 1 375 0
 2160 0326 7A4A     		ldr	r2, .L113+16
 2161 0328 7B6A     		ldr	r3, [r7, #36]
 2162 032a 1360     		str	r3, [r2]
 376:pathfinding.c ****                                 break;
 2163              		.loc 1 376 0
 2164 032c 08E0     		b	.L88
 2165              	.L89:
 367:pathfinding.c ****                             // check columns in front to see if there are any obstacles
 2166              		.loc 1 367 0 discriminator 2
 2167 032e 7B6A     		ldr	r3, [r7, #36]
 2168 0330 0133     		adds	r3, r3, #1
 2169 0332 7B62     		str	r3, [r7, #36]
 2170              	.L86:
 367:pathfinding.c ****                             // check columns in front to see if there are any obstacles
 2171              		.loc 1 367 0 is_stmt 0 discriminator 1
 2172 0334 FB6D     		ldr	r3, [r7, #92]
 2173 0336 BA6C     		ldr	r2, [r7, #72]
 2174 0338 D21A     		subs	r2, r2, r3
 2175 033a 7B6A     		ldr	r3, [r7, #36]
 2176 033c 9A42     		cmp	r2, r3
 2177 033e D3DC     		bgt	.L90
 2178              	.L88:
 2179              	.LBE26:
 377:pathfinding.c ****                             }
 378:pathfinding.c ****                         }
 379:pathfinding.c ****                         if(atTarget) {
 2180              		.loc 1 379 0 is_stmt 1
 2181 0340 BB6A     		ldr	r3, [r7, #40]
 2182 0342 002B     		cmp	r3, #0
 2183 0344 03D0     		beq	.L91
 380:pathfinding.c ****                             newDirection = ForwardUntilTarget;
 2184              		.loc 1 380 0
 2185 0346 0423     		movs	r3, #4
 2186 0348 87F84330 		strb	r3, [r7, #67]
 2187              	.LBE25:
 364:pathfinding.c ****                         int atTarget = 1;
 2188              		.loc 1 364 0
 2189 034c 06E0     		b	.L84
 2190              	.L91:
 2191              	.LBB27:
 381:pathfinding.c ****                         } else {
 382:pathfinding.c ****                             newDirection = GoForward;
 2192              		.loc 1 382 0
 2193 034e 0023     		movs	r3, #0
 2194 0350 87F84330 		strb	r3, [r7, #67]
 2195              	.LBE27:
 364:pathfinding.c ****                         int atTarget = 1;
ARM GAS  C:\Users\ikui753\AppData\Local\Temp\ccqmrS2t.s 			page 47


 2196              		.loc 1 364 0
 2197 0354 02E0     		b	.L84
 2198              	.L85:
 383:pathfinding.c ****                         }
 384:pathfinding.c ****                     } else {
 385:pathfinding.c ****                         newDirection = GoForward;
 2199              		.loc 1 385 0
 2200 0356 0023     		movs	r3, #0
 2201 0358 87F84330 		strb	r3, [r7, #67]
 2202              	.L84:
 386:pathfinding.c ****                     }
 387:pathfinding.c ****                 }
 388:pathfinding.c ****                 if(previousRobotOrientation == Right) {
 2203              		.loc 1 388 0
 2204 035c 694B     		ldr	r3, .L113+4
 2205 035e 1B78     		ldrb	r3, [r3]	@ zero_extendqisi2
 2206 0360 032B     		cmp	r3, #3
 2207 0362 08D1     		bne	.L93
 389:pathfinding.c ****                     newDirection = uTurn;
 2208              		.loc 1 389 0
 2209 0364 0323     		movs	r3, #3
 2210 0366 87F84330 		strb	r3, [r7, #67]
 390:pathfinding.c ****                     ignoreL = 0;
 2211              		.loc 1 390 0
 2212 036a 674B     		ldr	r3, .L113+8
 2213 036c 0022     		movs	r2, #0
 2214 036e 1A60     		str	r2, [r3]
 391:pathfinding.c ****                     ignoreR = 0;
 2215              		.loc 1 391 0
 2216 0370 664B     		ldr	r3, .L113+12
 2217 0372 0022     		movs	r2, #0
 2218 0374 1A60     		str	r2, [r3]
 2219              	.L93:
 392:pathfinding.c ****                 }
 393:pathfinding.c ****                 currentCol--;
 2220              		.loc 1 393 0
 2221 0376 BB6C     		ldr	r3, [r7, #72]
 2222 0378 013B     		subs	r3, r3, #1
 2223 037a BB64     		str	r3, [r7, #72]
 394:pathfinding.c ****                 break;
 2224              		.loc 1 394 0
 2225 037c 77E0     		b	.L69
 2226              	.L56:
 395:pathfinding.c ****             case 3: // next step is right
 396:pathfinding.c ****                 currentRobotOrientation = Right;
 2227              		.loc 1 396 0
 2228 037e 604B     		ldr	r3, .L113
 2229 0380 0322     		movs	r2, #3
 2230 0382 1A70     		strb	r2, [r3]
 397:pathfinding.c ****                 if(previousRobotOrientation == Up) {
 2231              		.loc 1 397 0
 2232 0384 5F4B     		ldr	r3, .L113+4
 2233 0386 1B78     		ldrb	r3, [r3]	@ zero_extendqisi2
 2234 0388 002B     		cmp	r3, #0
 2235 038a 08D1     		bne	.L94
 398:pathfinding.c ****                     newDirection = waitForRightTurn;
 2236              		.loc 1 398 0
ARM GAS  C:\Users\ikui753\AppData\Local\Temp\ccqmrS2t.s 			page 48


 2237 038c 0223     		movs	r3, #2
 2238 038e 87F84330 		strb	r3, [r7, #67]
 399:pathfinding.c ****                     ignoreL = 0;
 2239              		.loc 1 399 0
 2240 0392 5D4B     		ldr	r3, .L113+8
 2241 0394 0022     		movs	r2, #0
 2242 0396 1A60     		str	r2, [r3]
 400:pathfinding.c ****                     ignoreR = 0; // reset ignoreL/ ignoreR
 2243              		.loc 1 400 0
 2244 0398 5C4B     		ldr	r3, .L113+12
 2245 039a 0022     		movs	r2, #0
 2246 039c 1A60     		str	r2, [r3]
 2247              	.L94:
 401:pathfinding.c ****                 }
 402:pathfinding.c ****                 if(previousRobotOrientation == Down) {
 2248              		.loc 1 402 0
 2249 039e 594B     		ldr	r3, .L113+4
 2250 03a0 1B78     		ldrb	r3, [r3]	@ zero_extendqisi2
 2251 03a2 012B     		cmp	r3, #1
 2252 03a4 08D1     		bne	.L95
 403:pathfinding.c ****                     newDirection = waitForLeftTurn;
 2253              		.loc 1 403 0
 2254 03a6 0123     		movs	r3, #1
 2255 03a8 87F84330 		strb	r3, [r7, #67]
 404:pathfinding.c ****                     ignoreL = 0;
 2256              		.loc 1 404 0
 2257 03ac 564B     		ldr	r3, .L113+8
 2258 03ae 0022     		movs	r2, #0
 2259 03b0 1A60     		str	r2, [r3]
 405:pathfinding.c ****                     ignoreR = 0; // reset ignoreL/ ignoreR
 2260              		.loc 1 405 0
 2261 03b2 564B     		ldr	r3, .L113+12
 2262 03b4 0022     		movs	r2, #0
 2263 03b6 1A60     		str	r2, [r3]
 2264              	.L95:
 406:pathfinding.c ****                 }
 407:pathfinding.c ****                 if(previousRobotOrientation == Right) {
 2265              		.loc 1 407 0
 2266 03b8 524B     		ldr	r3, .L113+4
 2267 03ba 1B78     		ldrb	r3, [r3]	@ zero_extendqisi2
 2268 03bc 032B     		cmp	r3, #3
 2269 03be 44D1     		bne	.L96
 408:pathfinding.c ****                     if(targetOrientation == nextStep && targetLocation.row == currentRow) {
 2270              		.loc 1 408 0
 2271 03c0 3A69     		ldr	r2, [r7, #16]
 2272 03c2 FB6B     		ldr	r3, [r7, #60]
 2273 03c4 9A42     		cmp	r2, r3
 2274 03c6 3DD1     		bne	.L97
 2275              		.loc 1 408 0 is_stmt 0 discriminator 1
 2276 03c8 BA6D     		ldr	r2, [r7, #88]
 2277 03ca FB6C     		ldr	r3, [r7, #76]
 2278 03cc 9A42     		cmp	r2, r3
 2279 03ce 39D1     		bne	.L97
 2280              	.LBB28:
 409:pathfinding.c ****                         int atTarget = 1;
 2281              		.loc 1 409 0 is_stmt 1
 2282 03d0 0123     		movs	r3, #1
ARM GAS  C:\Users\ikui753\AppData\Local\Temp\ccqmrS2t.s 			page 49


 2283 03d2 3B62     		str	r3, [r7, #32]
 2284              	.LBB29:
 410:pathfinding.c ****                         // check if we only need to go forward to reach target
 411:pathfinding.c ****                         for(int i = 1; i < targetLocation.col; i++) {
 2285              		.loc 1 411 0
 2286 03d4 0123     		movs	r3, #1
 2287 03d6 FB61     		str	r3, [r7, #28]
 2288 03d8 25E0     		b	.L98
 2289              	.L102:
 412:pathfinding.c ****                             // check columns in front to see if there are any obstacles
 413:pathfinding.c ****                             if(map[currentRow][currentCol + i] == 1) {
 2290              		.loc 1 413 0
 2291 03da FB6C     		ldr	r3, [r7, #76]
 2292 03dc 4C22     		movs	r2, #76
 2293 03de 02FB03F3 		mul	r3, r2, r3
 2294 03e2 FA68     		ldr	r2, [r7, #12]
 2295 03e4 1344     		add	r3, r3, r2
 2296 03e6 B96C     		ldr	r1, [r7, #72]
 2297 03e8 FA69     		ldr	r2, [r7, #28]
 2298 03ea 0A44     		add	r2, r2, r1
 2299 03ec 53F82230 		ldr	r3, [r3, r2, lsl #2]
 2300 03f0 012B     		cmp	r3, #1
 2301 03f2 02D1     		bne	.L99
 414:pathfinding.c ****                                 atTarget = 0;
 2302              		.loc 1 414 0
 2303 03f4 0023     		movs	r3, #0
 2304 03f6 3B62     		str	r3, [r7, #32]
 415:pathfinding.c ****                                 break;
 2305              		.loc 1 415 0
 2306 03f8 19E0     		b	.L100
 2307              	.L99:
 416:pathfinding.c ****                             }
 417:pathfinding.c ****                             if(map[currentRow][currentCol + i] == 9) {
 2308              		.loc 1 417 0
 2309 03fa FB6C     		ldr	r3, [r7, #76]
 2310 03fc 4C22     		movs	r2, #76
 2311 03fe 02FB03F3 		mul	r3, r2, r3
 2312 0402 FA68     		ldr	r2, [r7, #12]
 2313 0404 1344     		add	r3, r3, r2
 2314 0406 B96C     		ldr	r1, [r7, #72]
 2315 0408 FA69     		ldr	r2, [r7, #28]
 2316 040a 0A44     		add	r2, r2, r1
 2317 040c 53F82230 		ldr	r3, [r3, r2, lsl #2]
 2318 0410 092B     		cmp	r3, #9
 2319 0412 05D1     		bne	.L101
 418:pathfinding.c ****                                 atTarget = 1; // found target with no obstacles before it
 2320              		.loc 1 418 0
 2321 0414 0123     		movs	r3, #1
 2322 0416 3B62     		str	r3, [r7, #32]
 419:pathfinding.c ****                                 distanceToTarget = i;
 2323              		.loc 1 419 0
 2324 0418 3D4A     		ldr	r2, .L113+16
 2325 041a FB69     		ldr	r3, [r7, #28]
 2326 041c 1360     		str	r3, [r2]
 420:pathfinding.c ****                                 break;
 2327              		.loc 1 420 0
 2328 041e 06E0     		b	.L100
ARM GAS  C:\Users\ikui753\AppData\Local\Temp\ccqmrS2t.s 			page 50


 2329              	.L101:
 411:pathfinding.c ****                             // check columns in front to see if there are any obstacles
 2330              		.loc 1 411 0 discriminator 2
 2331 0420 FB69     		ldr	r3, [r7, #28]
 2332 0422 0133     		adds	r3, r3, #1
 2333 0424 FB61     		str	r3, [r7, #28]
 2334              	.L98:
 411:pathfinding.c ****                             // check columns in front to see if there are any obstacles
 2335              		.loc 1 411 0 is_stmt 0 discriminator 1
 2336 0426 FA6D     		ldr	r2, [r7, #92]
 2337 0428 FB69     		ldr	r3, [r7, #28]
 2338 042a 9A42     		cmp	r2, r3
 2339 042c D5DC     		bgt	.L102
 2340              	.L100:
 2341              	.LBE29:
 421:pathfinding.c ****                             }
 422:pathfinding.c ****                         }
 423:pathfinding.c ****                         if(atTarget) {
 2342              		.loc 1 423 0 is_stmt 1
 2343 042e 3B6A     		ldr	r3, [r7, #32]
 2344 0430 002B     		cmp	r3, #0
 2345 0432 03D0     		beq	.L103
 424:pathfinding.c ****                             newDirection = ForwardUntilTarget;
 2346              		.loc 1 424 0
 2347 0434 0423     		movs	r3, #4
 2348 0436 87F84330 		strb	r3, [r7, #67]
 2349              	.LBE28:
 408:pathfinding.c ****                         int atTarget = 1;
 2350              		.loc 1 408 0
 2351 043a 06E0     		b	.L96
 2352              	.L103:
 2353              	.LBB30:
 425:pathfinding.c ****                         } else {
 426:pathfinding.c ****                             newDirection = GoForward;
 2354              		.loc 1 426 0
 2355 043c 0023     		movs	r3, #0
 2356 043e 87F84330 		strb	r3, [r7, #67]
 2357              	.LBE30:
 408:pathfinding.c ****                         int atTarget = 1;
 2358              		.loc 1 408 0
 2359 0442 02E0     		b	.L96
 2360              	.L97:
 427:pathfinding.c ****                         }
 428:pathfinding.c ****                     } else {
 429:pathfinding.c ****                         newDirection = GoForward;
 2361              		.loc 1 429 0
 2362 0444 0023     		movs	r3, #0
 2363 0446 87F84330 		strb	r3, [r7, #67]
 2364              	.L96:
 430:pathfinding.c ****                     }
 431:pathfinding.c ****                 }
 432:pathfinding.c ****                 if(previousRobotOrientation == Left) {
 2365              		.loc 1 432 0
 2366 044a 2E4B     		ldr	r3, .L113+4
 2367 044c 1B78     		ldrb	r3, [r3]	@ zero_extendqisi2
 2368 044e 022B     		cmp	r3, #2
 2369 0450 08D1     		bne	.L105
ARM GAS  C:\Users\ikui753\AppData\Local\Temp\ccqmrS2t.s 			page 51


 433:pathfinding.c ****                     newDirection = uTurn;
 2370              		.loc 1 433 0
 2371 0452 0323     		movs	r3, #3
 2372 0454 87F84330 		strb	r3, [r7, #67]
 434:pathfinding.c ****                     ignoreL = 0;
 2373              		.loc 1 434 0
 2374 0458 2B4B     		ldr	r3, .L113+8
 2375 045a 0022     		movs	r2, #0
 2376 045c 1A60     		str	r2, [r3]
 435:pathfinding.c ****                     ignoreR = 0;
 2377              		.loc 1 435 0
 2378 045e 2B4B     		ldr	r3, .L113+12
 2379 0460 0022     		movs	r2, #0
 2380 0462 1A60     		str	r2, [r3]
 2381              	.L105:
 436:pathfinding.c ****                 }
 437:pathfinding.c ****                 currentCol++;
 2382              		.loc 1 437 0
 2383 0464 BB6C     		ldr	r3, [r7, #72]
 2384 0466 0133     		adds	r3, r3, #1
 2385 0468 BB64     		str	r3, [r7, #72]
 438:pathfinding.c ****                 break;
 2386              		.loc 1 438 0
 2387 046a 00E0     		b	.L69
 2388              	.L110:
 439:pathfinding.c ****             default:
 440:pathfinding.c ****                 break;
 2389              		.loc 1 440 0
 2390 046c 00BF     		nop
 2391              	.L69:
 441:pathfinding.c ****         }
 442:pathfinding.c ****         
 443:pathfinding.c ****         // add new direction to list
 444:pathfinding.c ****         instructionsList[listIndex].direction = newDirection;
 2392              		.loc 1 444 0
 2393 046e 2949     		ldr	r1, .L113+20
 2394 0470 7A6C     		ldr	r2, [r7, #68]
 2395 0472 1346     		mov	r3, r2
 2396 0474 9B00     		lsls	r3, r3, #2
 2397 0476 1344     		add	r3, r3, r2
 2398 0478 9B00     		lsls	r3, r3, #2
 2399 047a 0B44     		add	r3, r3, r1
 2400 047c 97F84320 		ldrb	r2, [r7, #67]
 2401 0480 1A70     		strb	r2, [r3]
 445:pathfinding.c ****         instructionsList[listIndex].ignoreL = ignoreL;
 2402              		.loc 1 445 0
 2403 0482 214B     		ldr	r3, .L113+8
 2404 0484 1968     		ldr	r1, [r3]
 2405 0486 2348     		ldr	r0, .L113+20
 2406 0488 7A6C     		ldr	r2, [r7, #68]
 2407 048a 1346     		mov	r3, r2
 2408 048c 9B00     		lsls	r3, r3, #2
 2409 048e 1344     		add	r3, r3, r2
 2410 0490 9B00     		lsls	r3, r3, #2
 2411 0492 0344     		add	r3, r3, r0
 2412 0494 0433     		adds	r3, r3, #4
 2413 0496 1960     		str	r1, [r3]
ARM GAS  C:\Users\ikui753\AppData\Local\Temp\ccqmrS2t.s 			page 52


 446:pathfinding.c ****         instructionsList[listIndex].ignoreR = ignoreR;
 2414              		.loc 1 446 0
 2415 0498 1C4B     		ldr	r3, .L113+12
 2416 049a 1968     		ldr	r1, [r3]
 2417 049c 1D48     		ldr	r0, .L113+20
 2418 049e 7A6C     		ldr	r2, [r7, #68]
 2419 04a0 1346     		mov	r3, r2
 2420 04a2 9B00     		lsls	r3, r3, #2
 2421 04a4 1344     		add	r3, r3, r2
 2422 04a6 9B00     		lsls	r3, r3, #2
 2423 04a8 0344     		add	r3, r3, r0
 2424 04aa 0833     		adds	r3, r3, #8
 2425 04ac 1960     		str	r1, [r3]
 447:pathfinding.c ****         instructionsList[listIndex].expectedOrientation = previousRobotOrientation;
 2426              		.loc 1 447 0
 2427 04ae 154B     		ldr	r3, .L113+4
 2428 04b0 1878     		ldrb	r0, [r3]	@ zero_extendqisi2
 2429 04b2 1849     		ldr	r1, .L113+20
 2430 04b4 7A6C     		ldr	r2, [r7, #68]
 2431 04b6 1346     		mov	r3, r2
 2432 04b8 9B00     		lsls	r3, r3, #2
 2433 04ba 1344     		add	r3, r3, r2
 2434 04bc 9B00     		lsls	r3, r3, #2
 2435 04be 0B44     		add	r3, r3, r1
 2436 04c0 1033     		adds	r3, r3, #16
 2437 04c2 0246     		mov	r2, r0
 2438 04c4 1A70     		strb	r2, [r3]
 448:pathfinding.c ****         instructionsList[listIndex].distanceToTarget = distanceToTarget;
 2439              		.loc 1 448 0
 2440 04c6 124B     		ldr	r3, .L113+16
 2441 04c8 1968     		ldr	r1, [r3]
 2442 04ca 1248     		ldr	r0, .L113+20
 2443 04cc 7A6C     		ldr	r2, [r7, #68]
 2444 04ce 1346     		mov	r3, r2
 2445 04d0 9B00     		lsls	r3, r3, #2
 2446 04d2 1344     		add	r3, r3, r2
 2447 04d4 9B00     		lsls	r3, r3, #2
 2448 04d6 0344     		add	r3, r3, r0
 2449 04d8 0C33     		adds	r3, r3, #12
 2450 04da 1960     		str	r1, [r3]
 449:pathfinding.c ****         distanceToTarget = 69;
 2451              		.loc 1 449 0
 2452 04dc 0C4B     		ldr	r3, .L113+16
 2453 04de 4522     		movs	r2, #69
 2454 04e0 1A60     		str	r2, [r3]
 450:pathfinding.c ****         listIndex++; // increment instruction list index
 2455              		.loc 1 450 0
 2456 04e2 7B6C     		ldr	r3, [r7, #68]
 2457 04e4 0133     		adds	r3, r3, #1
 2458 04e6 7B64     		str	r3, [r7, #68]
 451:pathfinding.c ****         numSteps--; // decrement numSteps
 2459              		.loc 1 451 0
 2460 04e8 BB68     		ldr	r3, [r7, #8]
 2461 04ea 013B     		subs	r3, r3, #1
 2462 04ec BB60     		str	r3, [r7, #8]
 2463              	.L49:
 2464              	.LBE18:
ARM GAS  C:\Users\ikui753\AppData\Local\Temp\ccqmrS2t.s 			page 53


 252:pathfinding.c ****         checkIgnoreTurn(currentRobotOrientation, currentRow, currentCol); // if a 0 is adjacent to 
 2465              		.loc 1 252 0
 2466 04ee BB68     		ldr	r3, [r7, #8]
 2467 04f0 002B     		cmp	r3, #0
 2468 04f2 BFF69CAD 		bge	.L106
 452:pathfinding.c ****     }
 453:pathfinding.c ****     // process list, remove repeated forward outputs
 454:pathfinding.c ****     int j = 0;
 2469              		.loc 1 454 0
 2470 04f6 0023     		movs	r3, #0
 2471 04f8 BB61     		str	r3, [r7, #24]
 2472              	.LBB31:
 455:pathfinding.c ****     // remove repeated forwards
 456:pathfinding.c ****         for(int i = 0; i < listIndex; i ++) {
 2473              		.loc 1 456 0
 2474 04fa 0023     		movs	r3, #0
 2475 04fc 7B61     		str	r3, [r7, #20]
 2476 04fe 7EE0     		b	.L107
 2477              	.L114:
 2478              		.align	2
 2479              	.L113:
 2480 0500 00000000 		.word	currentRobotOrientation
 2481 0504 00000000 		.word	previousRobotOrientation
 2482 0508 00000000 		.word	ignoreL
 2483 050c 00000000 		.word	ignoreR
 2484 0510 00000000 		.word	distanceToTarget
 2485 0514 00000000 		.word	instructionsList
 2486              	.L109:
 457:pathfinding.c ****             if(instructionsList[i].direction != instructionsList[i+1].direction) {
 2487              		.loc 1 457 0
 2488 0518 3D49     		ldr	r1, .L115
 2489 051a 7A69     		ldr	r2, [r7, #20]
 2490 051c 1346     		mov	r3, r2
 2491 051e 9B00     		lsls	r3, r3, #2
 2492 0520 1344     		add	r3, r3, r2
 2493 0522 9B00     		lsls	r3, r3, #2
 2494 0524 0B44     		add	r3, r3, r1
 2495 0526 1978     		ldrb	r1, [r3]	@ zero_extendqisi2
 2496 0528 7B69     		ldr	r3, [r7, #20]
 2497 052a 5A1C     		adds	r2, r3, #1
 2498 052c 3848     		ldr	r0, .L115
 2499 052e 1346     		mov	r3, r2
 2500 0530 9B00     		lsls	r3, r3, #2
 2501 0532 1344     		add	r3, r3, r2
 2502 0534 9B00     		lsls	r3, r3, #2
 2503 0536 0344     		add	r3, r3, r0
 2504 0538 1B78     		ldrb	r3, [r3]	@ zero_extendqisi2
 2505 053a 9942     		cmp	r1, r3
 2506 053c 5CD0     		beq	.L108
 458:pathfinding.c ****                 finalInstructionList[j].direction = instructionsList[i].direction;
 2507              		.loc 1 458 0
 2508 053e 3449     		ldr	r1, .L115
 2509 0540 7A69     		ldr	r2, [r7, #20]
 2510 0542 1346     		mov	r3, r2
 2511 0544 9B00     		lsls	r3, r3, #2
 2512 0546 1344     		add	r3, r3, r2
 2513 0548 9B00     		lsls	r3, r3, #2
ARM GAS  C:\Users\ikui753\AppData\Local\Temp\ccqmrS2t.s 			page 54


 2514 054a 0B44     		add	r3, r3, r1
 2515 054c 1878     		ldrb	r0, [r3]	@ zero_extendqisi2
 2516 054e 3149     		ldr	r1, .L115+4
 2517 0550 BA69     		ldr	r2, [r7, #24]
 2518 0552 1346     		mov	r3, r2
 2519 0554 9B00     		lsls	r3, r3, #2
 2520 0556 1344     		add	r3, r3, r2
 2521 0558 9B00     		lsls	r3, r3, #2
 2522 055a 0B44     		add	r3, r3, r1
 2523 055c 0246     		mov	r2, r0
 2524 055e 1A70     		strb	r2, [r3]
 459:pathfinding.c ****                 finalInstructionList[j].ignoreL = instructionsList[i].ignoreL;
 2525              		.loc 1 459 0
 2526 0560 2B49     		ldr	r1, .L115
 2527 0562 7A69     		ldr	r2, [r7, #20]
 2528 0564 1346     		mov	r3, r2
 2529 0566 9B00     		lsls	r3, r3, #2
 2530 0568 1344     		add	r3, r3, r2
 2531 056a 9B00     		lsls	r3, r3, #2
 2532 056c 0B44     		add	r3, r3, r1
 2533 056e 0433     		adds	r3, r3, #4
 2534 0570 1968     		ldr	r1, [r3]
 2535 0572 2848     		ldr	r0, .L115+4
 2536 0574 BA69     		ldr	r2, [r7, #24]
 2537 0576 1346     		mov	r3, r2
 2538 0578 9B00     		lsls	r3, r3, #2
 2539 057a 1344     		add	r3, r3, r2
 2540 057c 9B00     		lsls	r3, r3, #2
 2541 057e 0344     		add	r3, r3, r0
 2542 0580 0433     		adds	r3, r3, #4
 2543 0582 1960     		str	r1, [r3]
 460:pathfinding.c ****                 finalInstructionList[j].ignoreR = instructionsList[i].ignoreR; // skip all the repe
 2544              		.loc 1 460 0
 2545 0584 2249     		ldr	r1, .L115
 2546 0586 7A69     		ldr	r2, [r7, #20]
 2547 0588 1346     		mov	r3, r2
 2548 058a 9B00     		lsls	r3, r3, #2
 2549 058c 1344     		add	r3, r3, r2
 2550 058e 9B00     		lsls	r3, r3, #2
 2551 0590 0B44     		add	r3, r3, r1
 2552 0592 0833     		adds	r3, r3, #8
 2553 0594 1968     		ldr	r1, [r3]
 2554 0596 1F48     		ldr	r0, .L115+4
 2555 0598 BA69     		ldr	r2, [r7, #24]
 2556 059a 1346     		mov	r3, r2
 2557 059c 9B00     		lsls	r3, r3, #2
 2558 059e 1344     		add	r3, r3, r2
 2559 05a0 9B00     		lsls	r3, r3, #2
 2560 05a2 0344     		add	r3, r3, r0
 2561 05a4 0833     		adds	r3, r3, #8
 2562 05a6 1960     		str	r1, [r3]
 461:pathfinding.c ****                 finalInstructionList[j].expectedOrientation = instructionsList[i].expectedOrientati
 2563              		.loc 1 461 0
 2564 05a8 1949     		ldr	r1, .L115
 2565 05aa 7A69     		ldr	r2, [r7, #20]
 2566 05ac 1346     		mov	r3, r2
 2567 05ae 9B00     		lsls	r3, r3, #2
ARM GAS  C:\Users\ikui753\AppData\Local\Temp\ccqmrS2t.s 			page 55


 2568 05b0 1344     		add	r3, r3, r2
 2569 05b2 9B00     		lsls	r3, r3, #2
 2570 05b4 0B44     		add	r3, r3, r1
 2571 05b6 1033     		adds	r3, r3, #16
 2572 05b8 1878     		ldrb	r0, [r3]	@ zero_extendqisi2
 2573 05ba 1649     		ldr	r1, .L115+4
 2574 05bc BA69     		ldr	r2, [r7, #24]
 2575 05be 1346     		mov	r3, r2
 2576 05c0 9B00     		lsls	r3, r3, #2
 2577 05c2 1344     		add	r3, r3, r2
 2578 05c4 9B00     		lsls	r3, r3, #2
 2579 05c6 0B44     		add	r3, r3, r1
 2580 05c8 1033     		adds	r3, r3, #16
 2581 05ca 0246     		mov	r2, r0
 2582 05cc 1A70     		strb	r2, [r3]
 462:pathfinding.c ****                 finalInstructionList[j].distanceToTarget = instructionsList[i].distanceToTarget;
 2583              		.loc 1 462 0
 2584 05ce 1049     		ldr	r1, .L115
 2585 05d0 7A69     		ldr	r2, [r7, #20]
 2586 05d2 1346     		mov	r3, r2
 2587 05d4 9B00     		lsls	r3, r3, #2
 2588 05d6 1344     		add	r3, r3, r2
 2589 05d8 9B00     		lsls	r3, r3, #2
 2590 05da 0B44     		add	r3, r3, r1
 2591 05dc 0C33     		adds	r3, r3, #12
 2592 05de 1968     		ldr	r1, [r3]
 2593 05e0 0C48     		ldr	r0, .L115+4
 2594 05e2 BA69     		ldr	r2, [r7, #24]
 2595 05e4 1346     		mov	r3, r2
 2596 05e6 9B00     		lsls	r3, r3, #2
 2597 05e8 1344     		add	r3, r3, r2
 2598 05ea 9B00     		lsls	r3, r3, #2
 2599 05ec 0344     		add	r3, r3, r0
 2600 05ee 0C33     		adds	r3, r3, #12
 2601 05f0 1960     		str	r1, [r3]
 463:pathfinding.c ****                 j++; // move to next element in finalInstructionList
 2602              		.loc 1 463 0
 2603 05f2 BB69     		ldr	r3, [r7, #24]
 2604 05f4 0133     		adds	r3, r3, #1
 2605 05f6 BB61     		str	r3, [r7, #24]
 2606              	.L108:
 456:pathfinding.c ****             if(instructionsList[i].direction != instructionsList[i+1].direction) {
 2607              		.loc 1 456 0 discriminator 2
 2608 05f8 7B69     		ldr	r3, [r7, #20]
 2609 05fa 0133     		adds	r3, r3, #1
 2610 05fc 7B61     		str	r3, [r7, #20]
 2611              	.L107:
 456:pathfinding.c ****             if(instructionsList[i].direction != instructionsList[i+1].direction) {
 2612              		.loc 1 456 0 is_stmt 0 discriminator 1
 2613 05fe 7A69     		ldr	r2, [r7, #20]
 2614 0600 7B6C     		ldr	r3, [r7, #68]
 2615 0602 9A42     		cmp	r2, r3
 2616 0604 88DB     		blt	.L109
 2617              	.LBE31:
 464:pathfinding.c ****             }
 465:pathfinding.c ****     }
 466:pathfinding.c **** }
ARM GAS  C:\Users\ikui753\AppData\Local\Temp\ccqmrS2t.s 			page 56


 2618              		.loc 1 466 0 is_stmt 1
 2619 0606 00BF     		nop
 2620 0608 5037     		adds	r7, r7, #80
 2621              		.cfi_def_cfa_offset 8
 2622 060a BD46     		mov	sp, r7
 2623              		.cfi_def_cfa_register 13
 2624              		@ sp needed
 2625 060c 80BD     		pop	{r7, pc}
 2626              	.L116:
 2627 060e 00BF     		.align	2
 2628              	.L115:
 2629 0610 00000000 		.word	instructionsList
 2630 0614 44160000 		.word	finalInstructionList
 2631              		.cfi_endproc
 2632              	.LFE5:
 2633              		.size	getPathInstructions, .-getPathInstructions
 2634              		.section	.text.checkPathDirection,"ax",%progbits
 2635              		.align	2
 2636              		.global	checkPathDirection
 2637              		.thumb
 2638              		.thumb_func
 2639              		.type	checkPathDirection, %function
 2640              	checkPathDirection:
 2641              	.LFB6:
 467:pathfinding.c **** 
 468:pathfinding.c **** uint8_t checkPathDirection(int currentRow, int currentCol) {
 2642              		.loc 1 468 0
 2643              		.cfi_startproc
 2644              		@ args = 0, pretend = 0, frame = 8
 2645              		@ frame_needed = 1, uses_anonymous_args = 0
 2646              		@ link register save eliminated.
 2647 0000 80B4     		push	{r7}
 2648              		.cfi_def_cfa_offset 4
 2649              		.cfi_offset 7, -4
 2650 0002 83B0     		sub	sp, sp, #12
 2651              		.cfi_def_cfa_offset 16
 2652 0004 00AF     		add	r7, sp, #0
 2653              		.cfi_def_cfa_register 7
 2654 0006 7860     		str	r0, [r7, #4]
 2655 0008 3960     		str	r1, [r7]
 469:pathfinding.c ****     // map is cleared beforehand, so no need to check- this code will allow for 180deg turns
 470:pathfinding.c ****     if (map[currentRow - 1][currentCol] == 8 || map[currentRow - 1][currentCol] == 9) {
 2656              		.loc 1 470 0
 2657 000a 7B68     		ldr	r3, [r7, #4]
 2658 000c 5A1E     		subs	r2, r3, #1
 2659 000e 3E49     		ldr	r1, .L127
 2660 0010 1346     		mov	r3, r2
 2661 0012 DB00     		lsls	r3, r3, #3
 2662 0014 1344     		add	r3, r3, r2
 2663 0016 5B00     		lsls	r3, r3, #1
 2664 0018 1344     		add	r3, r3, r2
 2665 001a 3A68     		ldr	r2, [r7]
 2666 001c 1344     		add	r3, r3, r2
 2667 001e 51F82330 		ldr	r3, [r1, r3, lsl #2]
 2668 0022 082B     		cmp	r3, #8
 2669 0024 0DD0     		beq	.L118
 2670              		.loc 1 470 0 is_stmt 0 discriminator 1
ARM GAS  C:\Users\ikui753\AppData\Local\Temp\ccqmrS2t.s 			page 57


 2671 0026 7B68     		ldr	r3, [r7, #4]
 2672 0028 5A1E     		subs	r2, r3, #1
 2673 002a 3749     		ldr	r1, .L127
 2674 002c 1346     		mov	r3, r2
 2675 002e DB00     		lsls	r3, r3, #3
 2676 0030 1344     		add	r3, r3, r2
 2677 0032 5B00     		lsls	r3, r3, #1
 2678 0034 1344     		add	r3, r3, r2
 2679 0036 3A68     		ldr	r2, [r7]
 2680 0038 1344     		add	r3, r3, r2
 2681 003a 51F82330 		ldr	r3, [r1, r3, lsl #2]
 2682 003e 092B     		cmp	r3, #9
 2683 0040 01D1     		bne	.L119
 2684              	.L118:
 471:pathfinding.c ****         return 0; // up 
 2685              		.loc 1 471 0 is_stmt 1
 2686 0042 0023     		movs	r3, #0
 2687 0044 5AE0     		b	.L120
 2688              	.L119:
 472:pathfinding.c ****     }
 473:pathfinding.c ****     if (map[currentRow + 1][currentCol] == 8 || map[currentRow + 1][currentCol] == 9) {
 2689              		.loc 1 473 0
 2690 0046 7B68     		ldr	r3, [r7, #4]
 2691 0048 5A1C     		adds	r2, r3, #1
 2692 004a 2F49     		ldr	r1, .L127
 2693 004c 1346     		mov	r3, r2
 2694 004e DB00     		lsls	r3, r3, #3
 2695 0050 1344     		add	r3, r3, r2
 2696 0052 5B00     		lsls	r3, r3, #1
 2697 0054 1344     		add	r3, r3, r2
 2698 0056 3A68     		ldr	r2, [r7]
 2699 0058 1344     		add	r3, r3, r2
 2700 005a 51F82330 		ldr	r3, [r1, r3, lsl #2]
 2701 005e 082B     		cmp	r3, #8
 2702 0060 0DD0     		beq	.L121
 2703              		.loc 1 473 0 is_stmt 0 discriminator 1
 2704 0062 7B68     		ldr	r3, [r7, #4]
 2705 0064 5A1C     		adds	r2, r3, #1
 2706 0066 2849     		ldr	r1, .L127
 2707 0068 1346     		mov	r3, r2
 2708 006a DB00     		lsls	r3, r3, #3
 2709 006c 1344     		add	r3, r3, r2
 2710 006e 5B00     		lsls	r3, r3, #1
 2711 0070 1344     		add	r3, r3, r2
 2712 0072 3A68     		ldr	r2, [r7]
 2713 0074 1344     		add	r3, r3, r2
 2714 0076 51F82330 		ldr	r3, [r1, r3, lsl #2]
 2715 007a 092B     		cmp	r3, #9
 2716 007c 01D1     		bne	.L122
 2717              	.L121:
 474:pathfinding.c ****         return 1; // down
 2718              		.loc 1 474 0 is_stmt 1
 2719 007e 0123     		movs	r3, #1
 2720 0080 3CE0     		b	.L120
 2721              	.L122:
 475:pathfinding.c ****     }
 476:pathfinding.c ****     if (map[currentRow][currentCol - 1] == 8 || map[currentRow][currentCol - 1] == 9) {
ARM GAS  C:\Users\ikui753\AppData\Local\Temp\ccqmrS2t.s 			page 58


 2722              		.loc 1 476 0
 2723 0082 3B68     		ldr	r3, [r7]
 2724 0084 591E     		subs	r1, r3, #1
 2725 0086 2048     		ldr	r0, .L127
 2726 0088 7A68     		ldr	r2, [r7, #4]
 2727 008a 1346     		mov	r3, r2
 2728 008c DB00     		lsls	r3, r3, #3
 2729 008e 1344     		add	r3, r3, r2
 2730 0090 5B00     		lsls	r3, r3, #1
 2731 0092 1344     		add	r3, r3, r2
 2732 0094 0B44     		add	r3, r3, r1
 2733 0096 50F82330 		ldr	r3, [r0, r3, lsl #2]
 2734 009a 082B     		cmp	r3, #8
 2735 009c 0DD0     		beq	.L123
 2736              		.loc 1 476 0 is_stmt 0 discriminator 1
 2737 009e 3B68     		ldr	r3, [r7]
 2738 00a0 591E     		subs	r1, r3, #1
 2739 00a2 1948     		ldr	r0, .L127
 2740 00a4 7A68     		ldr	r2, [r7, #4]
 2741 00a6 1346     		mov	r3, r2
 2742 00a8 DB00     		lsls	r3, r3, #3
 2743 00aa 1344     		add	r3, r3, r2
 2744 00ac 5B00     		lsls	r3, r3, #1
 2745 00ae 1344     		add	r3, r3, r2
 2746 00b0 0B44     		add	r3, r3, r1
 2747 00b2 50F82330 		ldr	r3, [r0, r3, lsl #2]
 2748 00b6 092B     		cmp	r3, #9
 2749 00b8 01D1     		bne	.L124
 2750              	.L123:
 477:pathfinding.c ****         return 2; // left
 2751              		.loc 1 477 0 is_stmt 1
 2752 00ba 0223     		movs	r3, #2
 2753 00bc 1EE0     		b	.L120
 2754              	.L124:
 478:pathfinding.c ****     }
 479:pathfinding.c ****     if (map[currentRow][currentCol + 1] == 8 || map[currentRow][currentCol + 1] == 9) {
 2755              		.loc 1 479 0
 2756 00be 3B68     		ldr	r3, [r7]
 2757 00c0 591C     		adds	r1, r3, #1
 2758 00c2 1148     		ldr	r0, .L127
 2759 00c4 7A68     		ldr	r2, [r7, #4]
 2760 00c6 1346     		mov	r3, r2
 2761 00c8 DB00     		lsls	r3, r3, #3
 2762 00ca 1344     		add	r3, r3, r2
 2763 00cc 5B00     		lsls	r3, r3, #1
 2764 00ce 1344     		add	r3, r3, r2
 2765 00d0 0B44     		add	r3, r3, r1
 2766 00d2 50F82330 		ldr	r3, [r0, r3, lsl #2]
 2767 00d6 082B     		cmp	r3, #8
 2768 00d8 0DD0     		beq	.L125
 2769              		.loc 1 479 0 is_stmt 0 discriminator 1
 2770 00da 3B68     		ldr	r3, [r7]
 2771 00dc 591C     		adds	r1, r3, #1
 2772 00de 0A48     		ldr	r0, .L127
 2773 00e0 7A68     		ldr	r2, [r7, #4]
 2774 00e2 1346     		mov	r3, r2
 2775 00e4 DB00     		lsls	r3, r3, #3
ARM GAS  C:\Users\ikui753\AppData\Local\Temp\ccqmrS2t.s 			page 59


 2776 00e6 1344     		add	r3, r3, r2
 2777 00e8 5B00     		lsls	r3, r3, #1
 2778 00ea 1344     		add	r3, r3, r2
 2779 00ec 0B44     		add	r3, r3, r1
 2780 00ee 50F82330 		ldr	r3, [r0, r3, lsl #2]
 2781 00f2 092B     		cmp	r3, #9
 2782 00f4 01D1     		bne	.L126
 2783              	.L125:
 480:pathfinding.c ****         return 3; // right
 2784              		.loc 1 480 0 is_stmt 1
 2785 00f6 0323     		movs	r3, #3
 2786 00f8 00E0     		b	.L120
 2787              	.L126:
 481:pathfinding.c ****     }
 482:pathfinding.c ****     return 5; // default- will never reach this
 2788              		.loc 1 482 0
 2789 00fa 0523     		movs	r3, #5
 2790              	.L120:
 483:pathfinding.c **** }
 2791              		.loc 1 483 0
 2792 00fc 1846     		mov	r0, r3
 2793 00fe 0C37     		adds	r7, r7, #12
 2794              		.cfi_def_cfa_offset 4
 2795 0100 BD46     		mov	sp, r7
 2796              		.cfi_def_cfa_register 13
 2797              		@ sp needed
 2798 0102 80BC     		pop	{r7}
 2799              		.cfi_restore 7
 2800              		.cfi_def_cfa_offset 0
 2801 0104 7047     		bx	lr
 2802              	.L128:
 2803 0106 00BF     		.align	2
 2804              	.L127:
 2805 0108 00000000 		.word	map
 2806              		.cfi_endproc
 2807              	.LFE6:
 2808              		.size	checkPathDirection, .-checkPathDirection
 2809              		.section	.text.checkIgnoreTurn,"ax",%progbits
 2810              		.align	2
 2811              		.global	checkIgnoreTurn
 2812              		.thumb
 2813              		.thumb_func
 2814              		.type	checkIgnoreTurn, %function
 2815              	checkIgnoreTurn:
 2816              	.LFB7:
 484:pathfinding.c **** 
 485:pathfinding.c **** void checkIgnoreTurn(enum OrientationState robotOrientation, int currentRow, int currentCol) {
 2817              		.loc 1 485 0
 2818              		.cfi_startproc
 2819              		@ args = 0, pretend = 0, frame = 16
 2820              		@ frame_needed = 1, uses_anonymous_args = 0
 2821              		@ link register save eliminated.
 2822 0000 80B4     		push	{r7}
 2823              		.cfi_def_cfa_offset 4
 2824              		.cfi_offset 7, -4
 2825 0002 85B0     		sub	sp, sp, #20
 2826              		.cfi_def_cfa_offset 24
ARM GAS  C:\Users\ikui753\AppData\Local\Temp\ccqmrS2t.s 			page 60


 2827 0004 00AF     		add	r7, sp, #0
 2828              		.cfi_def_cfa_register 7
 2829 0006 0346     		mov	r3, r0
 2830 0008 B960     		str	r1, [r7, #8]
 2831 000a 7A60     		str	r2, [r7, #4]
 2832 000c FB73     		strb	r3, [r7, #15]
 486:pathfinding.c ****     // UP - 0 DOWN - 1 LEFT - 2 RIGHT - 3
 487:pathfinding.c ****     if (map[currentRow - 1][currentCol] == 0) { // if the row above is a 0
 2833              		.loc 1 487 0
 2834 000e BB68     		ldr	r3, [r7, #8]
 2835 0010 5A1E     		subs	r2, r3, #1
 2836 0012 4149     		ldr	r1, .L147
 2837 0014 1346     		mov	r3, r2
 2838 0016 DB00     		lsls	r3, r3, #3
 2839 0018 1344     		add	r3, r3, r2
 2840 001a 5B00     		lsls	r3, r3, #1
 2841 001c 1344     		add	r3, r3, r2
 2842 001e 7A68     		ldr	r2, [r7, #4]
 2843 0020 1344     		add	r3, r3, r2
 2844 0022 51F82330 		ldr	r3, [r1, r3, lsl #2]
 2845 0026 002B     		cmp	r3, #0
 2846 0028 11D1     		bne	.L130
 488:pathfinding.c ****         switch (robotOrientation) {
 2847              		.loc 1 488 0
 2848 002a FB7B     		ldrb	r3, [r7, #15]	@ zero_extendqisi2
 2849 002c 022B     		cmp	r3, #2
 2850 002e 02D0     		beq	.L132
 2851 0030 032B     		cmp	r3, #3
 2852 0032 06D0     		beq	.L133
 489:pathfinding.c ****             case Left:
 490:pathfinding.c ****                 ignoreR++;
 491:pathfinding.c ****                 break;
 492:pathfinding.c ****             case Right:
 493:pathfinding.c ****                 ignoreL++;
 494:pathfinding.c ****                 break;
 495:pathfinding.c ****             default:
 496:pathfinding.c ****                 break; // ignore when going up and down
 2853              		.loc 1 496 0
 2854 0034 0BE0     		b	.L130
 2855              	.L132:
 490:pathfinding.c ****                 break;
 2856              		.loc 1 490 0
 2857 0036 394B     		ldr	r3, .L147+4
 2858 0038 1B68     		ldr	r3, [r3]
 2859 003a 0133     		adds	r3, r3, #1
 2860 003c 374A     		ldr	r2, .L147+4
 2861 003e 1360     		str	r3, [r2]
 491:pathfinding.c ****             case Right:
 2862              		.loc 1 491 0
 2863 0040 05E0     		b	.L130
 2864              	.L133:
 493:pathfinding.c ****                 break;
 2865              		.loc 1 493 0
 2866 0042 374B     		ldr	r3, .L147+8
 2867 0044 1B68     		ldr	r3, [r3]
 2868 0046 0133     		adds	r3, r3, #1
 2869 0048 354A     		ldr	r2, .L147+8
ARM GAS  C:\Users\ikui753\AppData\Local\Temp\ccqmrS2t.s 			page 61


 2870 004a 1360     		str	r3, [r2]
 494:pathfinding.c ****             default:
 2871              		.loc 1 494 0
 2872 004c 00BF     		nop
 2873              	.L130:
 497:pathfinding.c ****         }
 498:pathfinding.c ****     }
 499:pathfinding.c ****     if (map[currentRow + 1][currentCol] == 0) { // if row below is a 0
 2874              		.loc 1 499 0
 2875 004e BB68     		ldr	r3, [r7, #8]
 2876 0050 5A1C     		adds	r2, r3, #1
 2877 0052 3149     		ldr	r1, .L147
 2878 0054 1346     		mov	r3, r2
 2879 0056 DB00     		lsls	r3, r3, #3
 2880 0058 1344     		add	r3, r3, r2
 2881 005a 5B00     		lsls	r3, r3, #1
 2882 005c 1344     		add	r3, r3, r2
 2883 005e 7A68     		ldr	r2, [r7, #4]
 2884 0060 1344     		add	r3, r3, r2
 2885 0062 51F82330 		ldr	r3, [r1, r3, lsl #2]
 2886 0066 002B     		cmp	r3, #0
 2887 0068 11D1     		bne	.L134
 500:pathfinding.c ****         switch (robotOrientation) {
 2888              		.loc 1 500 0
 2889 006a FB7B     		ldrb	r3, [r7, #15]	@ zero_extendqisi2
 2890 006c 022B     		cmp	r3, #2
 2891 006e 02D0     		beq	.L136
 2892 0070 032B     		cmp	r3, #3
 2893 0072 06D0     		beq	.L137
 501:pathfinding.c ****             case Left:
 502:pathfinding.c ****                 ignoreL++;
 503:pathfinding.c ****                 break;
 504:pathfinding.c ****             case Right:
 505:pathfinding.c ****                 ignoreR++;
 506:pathfinding.c ****                 break;
 507:pathfinding.c ****             default:
 508:pathfinding.c ****                 break;
 2894              		.loc 1 508 0
 2895 0074 0BE0     		b	.L134
 2896              	.L136:
 502:pathfinding.c ****                 break;
 2897              		.loc 1 502 0
 2898 0076 2A4B     		ldr	r3, .L147+8
 2899 0078 1B68     		ldr	r3, [r3]
 2900 007a 0133     		adds	r3, r3, #1
 2901 007c 284A     		ldr	r2, .L147+8
 2902 007e 1360     		str	r3, [r2]
 503:pathfinding.c ****             case Right:
 2903              		.loc 1 503 0
 2904 0080 05E0     		b	.L134
 2905              	.L137:
 505:pathfinding.c ****                 break;
 2906              		.loc 1 505 0
 2907 0082 264B     		ldr	r3, .L147+4
 2908 0084 1B68     		ldr	r3, [r3]
 2909 0086 0133     		adds	r3, r3, #1
 2910 0088 244A     		ldr	r2, .L147+4
ARM GAS  C:\Users\ikui753\AppData\Local\Temp\ccqmrS2t.s 			page 62


 2911 008a 1360     		str	r3, [r2]
 506:pathfinding.c ****             default:
 2912              		.loc 1 506 0
 2913 008c 00BF     		nop
 2914              	.L134:
 509:pathfinding.c ****         }
 510:pathfinding.c ****     }
 511:pathfinding.c ****     if (map[currentRow][currentCol - 1] == 0) { 
 2915              		.loc 1 511 0
 2916 008e 7B68     		ldr	r3, [r7, #4]
 2917 0090 591E     		subs	r1, r3, #1
 2918 0092 2148     		ldr	r0, .L147
 2919 0094 BA68     		ldr	r2, [r7, #8]
 2920 0096 1346     		mov	r3, r2
 2921 0098 DB00     		lsls	r3, r3, #3
 2922 009a 1344     		add	r3, r3, r2
 2923 009c 5B00     		lsls	r3, r3, #1
 2924 009e 1344     		add	r3, r3, r2
 2925 00a0 0B44     		add	r3, r3, r1
 2926 00a2 50F82330 		ldr	r3, [r0, r3, lsl #2]
 2927 00a6 002B     		cmp	r3, #0
 2928 00a8 11D1     		bne	.L138
 512:pathfinding.c ****         switch (robotOrientation) {
 2929              		.loc 1 512 0
 2930 00aa FB7B     		ldrb	r3, [r7, #15]	@ zero_extendqisi2
 2931 00ac 002B     		cmp	r3, #0
 2932 00ae 02D0     		beq	.L140
 2933 00b0 012B     		cmp	r3, #1
 2934 00b2 06D0     		beq	.L141
 513:pathfinding.c ****             case Up:
 514:pathfinding.c ****                 ignoreL++;
 515:pathfinding.c ****                 break;
 516:pathfinding.c ****             case Down:
 517:pathfinding.c ****                 ignoreR++;
 518:pathfinding.c ****                 break;
 519:pathfinding.c ****             default:
 520:pathfinding.c ****                 break;
 2935              		.loc 1 520 0
 2936 00b4 0BE0     		b	.L138
 2937              	.L140:
 514:pathfinding.c ****                 break;
 2938              		.loc 1 514 0
 2939 00b6 1A4B     		ldr	r3, .L147+8
 2940 00b8 1B68     		ldr	r3, [r3]
 2941 00ba 0133     		adds	r3, r3, #1
 2942 00bc 184A     		ldr	r2, .L147+8
 2943 00be 1360     		str	r3, [r2]
 515:pathfinding.c ****             case Down:
 2944              		.loc 1 515 0
 2945 00c0 05E0     		b	.L138
 2946              	.L141:
 517:pathfinding.c ****                 break;
 2947              		.loc 1 517 0
 2948 00c2 164B     		ldr	r3, .L147+4
 2949 00c4 1B68     		ldr	r3, [r3]
 2950 00c6 0133     		adds	r3, r3, #1
 2951 00c8 144A     		ldr	r2, .L147+4
ARM GAS  C:\Users\ikui753\AppData\Local\Temp\ccqmrS2t.s 			page 63


 2952 00ca 1360     		str	r3, [r2]
 518:pathfinding.c ****             default:
 2953              		.loc 1 518 0
 2954 00cc 00BF     		nop
 2955              	.L138:
 521:pathfinding.c ****         }
 522:pathfinding.c ****     }
 523:pathfinding.c ****     if (map[currentRow][currentCol + 1] == 0) {
 2956              		.loc 1 523 0
 2957 00ce 7B68     		ldr	r3, [r7, #4]
 2958 00d0 591C     		adds	r1, r3, #1
 2959 00d2 1148     		ldr	r0, .L147
 2960 00d4 BA68     		ldr	r2, [r7, #8]
 2961 00d6 1346     		mov	r3, r2
 2962 00d8 DB00     		lsls	r3, r3, #3
 2963 00da 1344     		add	r3, r3, r2
 2964 00dc 5B00     		lsls	r3, r3, #1
 2965 00de 1344     		add	r3, r3, r2
 2966 00e0 0B44     		add	r3, r3, r1
 2967 00e2 50F82330 		ldr	r3, [r0, r3, lsl #2]
 2968 00e6 002B     		cmp	r3, #0
 2969 00e8 11D1     		bne	.L146
 524:pathfinding.c ****         switch (robotOrientation) {
 2970              		.loc 1 524 0
 2971 00ea FB7B     		ldrb	r3, [r7, #15]	@ zero_extendqisi2
 2972 00ec 002B     		cmp	r3, #0
 2973 00ee 02D0     		beq	.L144
 2974 00f0 012B     		cmp	r3, #1
 2975 00f2 06D0     		beq	.L145
 525:pathfinding.c ****             case Up:
 526:pathfinding.c ****                 ignoreR++;
 527:pathfinding.c ****                 break;
 528:pathfinding.c ****             case Down:
 529:pathfinding.c ****                 ignoreL++;
 530:pathfinding.c ****                 break;
 531:pathfinding.c ****             default:
 532:pathfinding.c ****                 break;
 2976              		.loc 1 532 0
 2977 00f4 0BE0     		b	.L142
 2978              	.L144:
 526:pathfinding.c ****                 break;
 2979              		.loc 1 526 0
 2980 00f6 094B     		ldr	r3, .L147+4
 2981 00f8 1B68     		ldr	r3, [r3]
 2982 00fa 0133     		adds	r3, r3, #1
 2983 00fc 074A     		ldr	r2, .L147+4
 2984 00fe 1360     		str	r3, [r2]
 527:pathfinding.c ****             case Down:
 2985              		.loc 1 527 0
 2986 0100 05E0     		b	.L142
 2987              	.L145:
 529:pathfinding.c ****                 break;
 2988              		.loc 1 529 0
 2989 0102 074B     		ldr	r3, .L147+8
 2990 0104 1B68     		ldr	r3, [r3]
 2991 0106 0133     		adds	r3, r3, #1
 2992 0108 054A     		ldr	r2, .L147+8
ARM GAS  C:\Users\ikui753\AppData\Local\Temp\ccqmrS2t.s 			page 64


 2993 010a 1360     		str	r3, [r2]
 530:pathfinding.c ****             default:
 2994              		.loc 1 530 0
 2995 010c 00BF     		nop
 2996              	.L142:
 2997              	.L146:
 533:pathfinding.c ****         }
 534:pathfinding.c ****     }
 535:pathfinding.c **** }
 2998              		.loc 1 535 0
 2999 010e 00BF     		nop
 3000 0110 1437     		adds	r7, r7, #20
 3001              		.cfi_def_cfa_offset 4
 3002 0112 BD46     		mov	sp, r7
 3003              		.cfi_def_cfa_register 13
 3004              		@ sp needed
 3005 0114 80BC     		pop	{r7}
 3006              		.cfi_restore 7
 3007              		.cfi_def_cfa_offset 0
 3008 0116 7047     		bx	lr
 3009              	.L148:
 3010              		.align	2
 3011              	.L147:
 3012 0118 00000000 		.word	map
 3013 011c 00000000 		.word	ignoreR
 3014 0120 00000000 		.word	ignoreL
 3015              		.cfi_endproc
 3016              	.LFE7:
 3017              		.size	checkIgnoreTurn, .-checkIgnoreTurn
 3018              		.section	.text.getTargetOrientation,"ax",%progbits
 3019              		.align	2
 3020              		.global	getTargetOrientation
 3021              		.thumb
 3022              		.thumb_func
 3023              		.type	getTargetOrientation, %function
 3024              	getTargetOrientation:
 3025              	.LFB8:
 536:pathfinding.c **** 
 537:pathfinding.c **** uint8_t getTargetOrientation(int targetRow, int targetCol) {
 3026              		.loc 1 537 0
 3027              		.cfi_startproc
 3028              		@ args = 0, pretend = 0, frame = 8
 3029              		@ frame_needed = 1, uses_anonymous_args = 0
 3030              		@ link register save eliminated.
 3031 0000 80B4     		push	{r7}
 3032              		.cfi_def_cfa_offset 4
 3033              		.cfi_offset 7, -4
 3034 0002 83B0     		sub	sp, sp, #12
 3035              		.cfi_def_cfa_offset 16
 3036 0004 00AF     		add	r7, sp, #0
 3037              		.cfi_def_cfa_register 7
 3038 0006 7860     		str	r0, [r7, #4]
 3039 0008 3960     		str	r1, [r7]
 538:pathfinding.c ****     if(map[targetRow + 1][targetCol] == 8) {
 3040              		.loc 1 538 0
 3041 000a 7B68     		ldr	r3, [r7, #4]
 3042 000c 5A1C     		adds	r2, r3, #1
ARM GAS  C:\Users\ikui753\AppData\Local\Temp\ccqmrS2t.s 			page 65


 3043 000e 2249     		ldr	r1, .L155
 3044 0010 1346     		mov	r3, r2
 3045 0012 DB00     		lsls	r3, r3, #3
 3046 0014 1344     		add	r3, r3, r2
 3047 0016 5B00     		lsls	r3, r3, #1
 3048 0018 1344     		add	r3, r3, r2
 3049 001a 3A68     		ldr	r2, [r7]
 3050 001c 1344     		add	r3, r3, r2
 3051 001e 51F82330 		ldr	r3, [r1, r3, lsl #2]
 3052 0022 082B     		cmp	r3, #8
 3053 0024 01D1     		bne	.L150
 539:pathfinding.c ****         return 0; // robot will be travelling up
 3054              		.loc 1 539 0
 3055 0026 0023     		movs	r3, #0
 3056 0028 30E0     		b	.L151
 3057              	.L150:
 540:pathfinding.c ****     }
 541:pathfinding.c ****     if(map[targetRow - 1][targetCol] == 8) {
 3058              		.loc 1 541 0
 3059 002a 7B68     		ldr	r3, [r7, #4]
 3060 002c 5A1E     		subs	r2, r3, #1
 3061 002e 1A49     		ldr	r1, .L155
 3062 0030 1346     		mov	r3, r2
 3063 0032 DB00     		lsls	r3, r3, #3
 3064 0034 1344     		add	r3, r3, r2
 3065 0036 5B00     		lsls	r3, r3, #1
 3066 0038 1344     		add	r3, r3, r2
 3067 003a 3A68     		ldr	r2, [r7]
 3068 003c 1344     		add	r3, r3, r2
 3069 003e 51F82330 		ldr	r3, [r1, r3, lsl #2]
 3070 0042 082B     		cmp	r3, #8
 3071 0044 01D1     		bne	.L152
 542:pathfinding.c ****         return 1; // robot will be travelling down
 3072              		.loc 1 542 0
 3073 0046 0123     		movs	r3, #1
 3074 0048 20E0     		b	.L151
 3075              	.L152:
 543:pathfinding.c ****     }
 544:pathfinding.c ****     if(map[targetRow][targetCol + 1] == 8) {
 3076              		.loc 1 544 0
 3077 004a 3B68     		ldr	r3, [r7]
 3078 004c 591C     		adds	r1, r3, #1
 3079 004e 1248     		ldr	r0, .L155
 3080 0050 7A68     		ldr	r2, [r7, #4]
 3081 0052 1346     		mov	r3, r2
 3082 0054 DB00     		lsls	r3, r3, #3
 3083 0056 1344     		add	r3, r3, r2
 3084 0058 5B00     		lsls	r3, r3, #1
 3085 005a 1344     		add	r3, r3, r2
 3086 005c 0B44     		add	r3, r3, r1
 3087 005e 50F82330 		ldr	r3, [r0, r3, lsl #2]
 3088 0062 082B     		cmp	r3, #8
 3089 0064 01D1     		bne	.L153
 545:pathfinding.c ****         return 2; // robot will be travelling left
 3090              		.loc 1 545 0
 3091 0066 0223     		movs	r3, #2
 3092 0068 10E0     		b	.L151
ARM GAS  C:\Users\ikui753\AppData\Local\Temp\ccqmrS2t.s 			page 66


 3093              	.L153:
 546:pathfinding.c ****     }
 547:pathfinding.c ****     if(map[targetRow][targetCol - 1] == 8) {
 3094              		.loc 1 547 0
 3095 006a 3B68     		ldr	r3, [r7]
 3096 006c 591E     		subs	r1, r3, #1
 3097 006e 0A48     		ldr	r0, .L155
 3098 0070 7A68     		ldr	r2, [r7, #4]
 3099 0072 1346     		mov	r3, r2
 3100 0074 DB00     		lsls	r3, r3, #3
 3101 0076 1344     		add	r3, r3, r2
 3102 0078 5B00     		lsls	r3, r3, #1
 3103 007a 1344     		add	r3, r3, r2
 3104 007c 0B44     		add	r3, r3, r1
 3105 007e 50F82330 		ldr	r3, [r0, r3, lsl #2]
 3106 0082 082B     		cmp	r3, #8
 3107 0084 01D1     		bne	.L154
 548:pathfinding.c ****         return 3; // robot will be travelling right
 3108              		.loc 1 548 0
 3109 0086 0323     		movs	r3, #3
 3110 0088 00E0     		b	.L151
 3111              	.L154:
 549:pathfinding.c ****     }
 550:pathfinding.c ****     return 5; // placeholder
 3112              		.loc 1 550 0
 3113 008a 0523     		movs	r3, #5
 3114              	.L151:
 551:pathfinding.c **** }
 3115              		.loc 1 551 0
 3116 008c 1846     		mov	r0, r3
 3117 008e 0C37     		adds	r7, r7, #12
 3118              		.cfi_def_cfa_offset 4
 3119 0090 BD46     		mov	sp, r7
 3120              		.cfi_def_cfa_register 13
 3121              		@ sp needed
 3122 0092 80BC     		pop	{r7}
 3123              		.cfi_restore 7
 3124              		.cfi_def_cfa_offset 0
 3125 0094 7047     		bx	lr
 3126              	.L156:
 3127 0096 00BF     		.align	2
 3128              	.L155:
 3129 0098 00000000 		.word	map
 3130              		.cfi_endproc
 3131              	.LFE8:
 3132              		.size	getTargetOrientation, .-getTargetOrientation
 3133              		.section	.text.instructionsListLength,"ax",%progbits
 3134              		.align	2
 3135              		.global	instructionsListLength
 3136              		.thumb
 3137              		.thumb_func
 3138              		.type	instructionsListLength, %function
 3139              	instructionsListLength:
 3140              	.LFB9:
 552:pathfinding.c **** uint8_t instructionsListLength() {
 3141              		.loc 1 552 0
 3142              		.cfi_startproc
ARM GAS  C:\Users\ikui753\AppData\Local\Temp\ccqmrS2t.s 			page 67


 3143              		@ args = 0, pretend = 0, frame = 0
 3144              		@ frame_needed = 1, uses_anonymous_args = 0
 3145              		@ link register save eliminated.
 3146 0000 80B4     		push	{r7}
 3147              		.cfi_def_cfa_offset 4
 3148              		.cfi_offset 7, -4
 3149 0002 00AF     		add	r7, sp, #0
 3150              		.cfi_def_cfa_register 7
 553:pathfinding.c ****     return numSteps;
 3151              		.loc 1 553 0
 3152 0004 034B     		ldr	r3, .L159
 3153 0006 1B68     		ldr	r3, [r3]
 3154 0008 DBB2     		uxtb	r3, r3
 554:pathfinding.c **** }
 3155              		.loc 1 554 0
 3156 000a 1846     		mov	r0, r3
 3157 000c BD46     		mov	sp, r7
 3158              		.cfi_def_cfa_register 13
 3159              		@ sp needed
 3160 000e 80BC     		pop	{r7}
 3161              		.cfi_restore 7
 3162              		.cfi_def_cfa_offset 0
 3163 0010 7047     		bx	lr
 3164              	.L160:
 3165 0012 00BF     		.align	2
 3166              	.L159:
 3167 0014 882C0000 		.word	numSteps
 3168              		.cfi_endproc
 3169              	.LFE9:
 3170              		.size	instructionsListLength, .-instructionsListLength
 3171              		.section	.text.findPath,"ax",%progbits
 3172              		.align	2
 3173              		.global	findPath
 3174              		.thumb
 3175              		.thumb_func
 3176              		.type	findPath, %function
 3177              	findPath:
 3178              	.LFB10:
 555:pathfinding.c **** 
 556:pathfinding.c **** Instruction * findPath(int map[MAX_ROWS][MAX_COLS], int food_list[5][2], int i) {
 3179              		.loc 1 556 0
 3180              		.cfi_startproc
 3181              		@ args = 0, pretend = 0, frame = 32
 3182              		@ frame_needed = 1, uses_anonymous_args = 0
 3183 0000 90B5     		push	{r4, r7, lr}
 3184              		.cfi_def_cfa_offset 12
 3185              		.cfi_offset 4, -12
 3186              		.cfi_offset 7, -8
 3187              		.cfi_offset 14, -4
 3188 0002 8BB0     		sub	sp, sp, #44
 3189              		.cfi_def_cfa_offset 56
 3190 0004 02AF     		add	r7, sp, #8
 3191              		.cfi_def_cfa 7, 48
 3192 0006 F860     		str	r0, [r7, #12]
 3193 0008 B960     		str	r1, [r7, #8]
 3194 000a 7A60     		str	r2, [r7, #4]
 557:pathfinding.c ****     //clearMap(map); // clear map between each pass
ARM GAS  C:\Users\ikui753\AppData\Local\Temp\ccqmrS2t.s 			page 68


 558:pathfinding.c ****     struct Location startLocation, targetLocation;
 559:pathfinding.c ****     startLocation.row = start_pos[0];
 3195              		.loc 1 559 0
 3196 000c 174B     		ldr	r3, .L163
 3197 000e 1B68     		ldr	r3, [r3]
 3198 0010 BB61     		str	r3, [r7, #24]
 560:pathfinding.c ****     startLocation.col = start_pos[1]; // need to change every pass
 3199              		.loc 1 560 0
 3200 0012 164B     		ldr	r3, .L163
 3201 0014 5B68     		ldr	r3, [r3, #4]
 3202 0016 FB61     		str	r3, [r7, #28]
 561:pathfinding.c ****     targetLocation.row = food_list[i][0];
 3203              		.loc 1 561 0
 3204 0018 7B68     		ldr	r3, [r7, #4]
 3205 001a DB00     		lsls	r3, r3, #3
 3206 001c BA68     		ldr	r2, [r7, #8]
 3207 001e 1344     		add	r3, r3, r2
 3208 0020 1B68     		ldr	r3, [r3]
 3209 0022 3B61     		str	r3, [r7, #16]
 562:pathfinding.c ****     targetLocation.col = food_list[i][1];
 3210              		.loc 1 562 0
 3211 0024 7B68     		ldr	r3, [r7, #4]
 3212 0026 DB00     		lsls	r3, r3, #3
 3213 0028 BA68     		ldr	r2, [r7, #8]
 3214 002a 1344     		add	r3, r3, r2
 3215 002c 5B68     		ldr	r3, [r3, #4]
 3216 002e 7B61     		str	r3, [r7, #20]
 563:pathfinding.c ****     dijkstra(map, startLocation, targetLocation); // find shortest path
 3217              		.loc 1 563 0
 3218 0030 7B69     		ldr	r3, [r7, #20]
 3219 0032 0093     		str	r3, [sp]
 3220 0034 3B69     		ldr	r3, [r7, #16]
 3221 0036 07F11802 		add	r2, r7, #24
 3222 003a 06CA     		ldmia	r2, {r1, r2}
 3223 003c F868     		ldr	r0, [r7, #12]
 3224 003e FFF7FEFF 		bl	dijkstra
 564:pathfinding.c ****     getPathInstructions(map,numSteps,startLocation,targetLocation); // populate global instructions
 3225              		.loc 1 564 0
 3226 0042 0B4B     		ldr	r3, .L163+4
 3227 0044 1C68     		ldr	r4, [r3]
 3228 0046 6A46     		mov	r2, sp
 3229 0048 07F11003 		add	r3, r7, #16
 3230 004c 93E80300 		ldmia	r3, {r0, r1}
 3231 0050 82E80300 		stmia	r2, {r0, r1}
 3232 0054 07F11803 		add	r3, r7, #24
 3233 0058 0CCB     		ldmia	r3, {r2, r3}
 3234 005a 2146     		mov	r1, r4
 3235 005c F868     		ldr	r0, [r7, #12]
 3236 005e FFF7FEFF 		bl	getPathInstructions
 565:pathfinding.c ****     return finalInstructionList;
 3237              		.loc 1 565 0
 3238 0062 044B     		ldr	r3, .L163+8
 566:pathfinding.c **** }
 3239              		.loc 1 566 0
 3240 0064 1846     		mov	r0, r3
 3241 0066 2437     		adds	r7, r7, #36
 3242              		.cfi_def_cfa_offset 12
ARM GAS  C:\Users\ikui753\AppData\Local\Temp\ccqmrS2t.s 			page 69


 3243 0068 BD46     		mov	sp, r7
 3244              		.cfi_def_cfa_register 13
 3245              		@ sp needed
 3246 006a 90BD     		pop	{r4, r7, pc}
 3247              	.L164:
 3248              		.align	2
 3249              	.L163:
 3250 006c 00000000 		.word	start_pos
 3251 0070 882C0000 		.word	numSteps
 3252 0074 44160000 		.word	finalInstructionList
 3253              		.cfi_endproc
 3254              	.LFE10:
 3255              		.size	findPath, .-findPath
 3256              		.section	.text.findPathNewOrientation,"ax",%progbits
 3257              		.align	2
 3258              		.global	findPathNewOrientation
 3259              		.thumb
 3260              		.thumb_func
 3261              		.type	findPathNewOrientation, %function
 3262              	findPathNewOrientation:
 3263              	.LFB11:
 567:pathfinding.c **** 
 568:pathfinding.c **** Instruction * findPathNewOrientation(int map[MAX_ROWS][MAX_COLS], int food_list[5][2], int i, enum 
 3264              		.loc 1 568 0
 3265              		.cfi_startproc
 3266              		@ args = 0, pretend = 0, frame = 32
 3267              		@ frame_needed = 1, uses_anonymous_args = 0
 3268 0000 90B5     		push	{r4, r7, lr}
 3269              		.cfi_def_cfa_offset 12
 3270              		.cfi_offset 4, -12
 3271              		.cfi_offset 7, -8
 3272              		.cfi_offset 14, -4
 3273 0002 8BB0     		sub	sp, sp, #44
 3274              		.cfi_def_cfa_offset 56
 3275 0004 02AF     		add	r7, sp, #8
 3276              		.cfi_def_cfa 7, 48
 3277 0006 F860     		str	r0, [r7, #12]
 3278 0008 B960     		str	r1, [r7, #8]
 3279 000a 7A60     		str	r2, [r7, #4]
 3280 000c FB70     		strb	r3, [r7, #3]
 569:pathfinding.c ****     //clearMap(map); // clear map between each pass
 570:pathfinding.c ****     // update pathfinding orientation with current robot orientation
 571:pathfinding.c ****     currentRobotOrientation = orientation;
 3281              		.loc 1 571 0
 3282 000e 1F4A     		ldr	r2, .L167
 3283 0010 FB78     		ldrb	r3, [r7, #3]
 3284 0012 1370     		strb	r3, [r2]
 572:pathfinding.c ****     struct Location startLocation, targetLocation;
 573:pathfinding.c ****     startLocation.row = food_list[i - 1][0];
 3285              		.loc 1 573 0
 3286 0014 7B68     		ldr	r3, [r7, #4]
 3287 0016 03F10053 		add	r3, r3, #536870912
 3288 001a 013B     		subs	r3, r3, #1
 3289 001c DB00     		lsls	r3, r3, #3
 3290 001e BA68     		ldr	r2, [r7, #8]
 3291 0020 1344     		add	r3, r3, r2
 3292 0022 1B68     		ldr	r3, [r3]
ARM GAS  C:\Users\ikui753\AppData\Local\Temp\ccqmrS2t.s 			page 70


 3293 0024 BB61     		str	r3, [r7, #24]
 574:pathfinding.c ****     startLocation.col = food_list[i - 1][1]; // need to change every pass
 3294              		.loc 1 574 0
 3295 0026 7B68     		ldr	r3, [r7, #4]
 3296 0028 03F10053 		add	r3, r3, #536870912
 3297 002c 013B     		subs	r3, r3, #1
 3298 002e DB00     		lsls	r3, r3, #3
 3299 0030 BA68     		ldr	r2, [r7, #8]
 3300 0032 1344     		add	r3, r3, r2
 3301 0034 5B68     		ldr	r3, [r3, #4]
 3302 0036 FB61     		str	r3, [r7, #28]
 575:pathfinding.c ****     targetLocation.row = food_list[i][0];
 3303              		.loc 1 575 0
 3304 0038 7B68     		ldr	r3, [r7, #4]
 3305 003a DB00     		lsls	r3, r3, #3
 3306 003c BA68     		ldr	r2, [r7, #8]
 3307 003e 1344     		add	r3, r3, r2
 3308 0040 1B68     		ldr	r3, [r3]
 3309 0042 3B61     		str	r3, [r7, #16]
 576:pathfinding.c ****     targetLocation.col = food_list[i][1];
 3310              		.loc 1 576 0
 3311 0044 7B68     		ldr	r3, [r7, #4]
 3312 0046 DB00     		lsls	r3, r3, #3
 3313 0048 BA68     		ldr	r2, [r7, #8]
 3314 004a 1344     		add	r3, r3, r2
 3315 004c 5B68     		ldr	r3, [r3, #4]
 3316 004e 7B61     		str	r3, [r7, #20]
 577:pathfinding.c ****     dijkstra(map, startLocation, targetLocation); // find shortest path
 3317              		.loc 1 577 0
 3318 0050 7B69     		ldr	r3, [r7, #20]
 3319 0052 0093     		str	r3, [sp]
 3320 0054 3B69     		ldr	r3, [r7, #16]
 3321 0056 07F11802 		add	r2, r7, #24
 3322 005a 06CA     		ldmia	r2, {r1, r2}
 3323 005c F868     		ldr	r0, [r7, #12]
 3324 005e FFF7FEFF 		bl	dijkstra
 578:pathfinding.c ****     getPathInstructions(map,numSteps,startLocation,targetLocation); // populate global instructions
 3325              		.loc 1 578 0
 3326 0062 0B4B     		ldr	r3, .L167+4
 3327 0064 1C68     		ldr	r4, [r3]
 3328 0066 6A46     		mov	r2, sp
 3329 0068 07F11003 		add	r3, r7, #16
 3330 006c 93E80300 		ldmia	r3, {r0, r1}
 3331 0070 82E80300 		stmia	r2, {r0, r1}
 3332 0074 07F11803 		add	r3, r7, #24
 3333 0078 0CCB     		ldmia	r3, {r2, r3}
 3334 007a 2146     		mov	r1, r4
 3335 007c F868     		ldr	r0, [r7, #12]
 3336 007e FFF7FEFF 		bl	getPathInstructions
 579:pathfinding.c ****     return finalInstructionList;
 3337              		.loc 1 579 0
 3338 0082 044B     		ldr	r3, .L167+8
 580:pathfinding.c **** }
 3339              		.loc 1 580 0
 3340 0084 1846     		mov	r0, r3
 3341 0086 2437     		adds	r7, r7, #36
 3342              		.cfi_def_cfa_offset 12
ARM GAS  C:\Users\ikui753\AppData\Local\Temp\ccqmrS2t.s 			page 71


 3343 0088 BD46     		mov	sp, r7
 3344              		.cfi_def_cfa_register 13
 3345              		@ sp needed
 3346 008a 90BD     		pop	{r4, r7, pc}
 3347              	.L168:
 3348              		.align	2
 3349              	.L167:
 3350 008c 00000000 		.word	currentRobotOrientation
 3351 0090 882C0000 		.word	numSteps
 3352 0094 44160000 		.word	finalInstructionList
 3353              		.cfi_endproc
 3354              	.LFE11:
 3355              		.size	findPathNewOrientation, .-findPathNewOrientation
 3356              		.text
 3357              	.Letext0:
 3358              		.file 2 "c:\\program files (x86)\\cypress\\psoc creator\\4.2\\psoc creator\\import\\gnu\\arm\\5.4.
 3359              		.file 3 "c:\\program files (x86)\\cypress\\psoc creator\\4.2\\psoc creator\\import\\gnu\\arm\\5.4.
 3360              		.file 4 "pathfinding.h"