ARM GAS  C:\Users\ikui753\AppData\Local\Temp\cckqKceo.s 			page 1


   1              		.syntax unified
   2              		.cpu cortex-m3
   3              		.fpu softvfp
   4              		.eabi_attribute 20, 1
   5              		.eabi_attribute 21, 1
   6              		.eabi_attribute 23, 3
   7              		.eabi_attribute 24, 1
   8              		.eabi_attribute 25, 1
   9              		.eabi_attribute 26, 1
  10              		.eabi_attribute 30, 6
  11              		.eabi_attribute 34, 1
  12              		.eabi_attribute 18, 4
  13              		.thumb
  14              		.syntax unified
  15              		.file	"pathfinding.c"
  16              		.text
  17              	.Ltext0:
  18              		.cfi_sections	.debug_frame
  19              		.global	map
  20              		.data
  21              		.align	2
  22              		.type	map, %object
  23              		.size	map, 1140
  24              	map:
  25 0000 01000000 		.word	1
  26 0004 01000000 		.word	1
  27 0008 01000000 		.word	1
  28 000c 01000000 		.word	1
  29 0010 01000000 		.word	1
  30 0014 01000000 		.word	1
  31 0018 01000000 		.word	1
  32 001c 01000000 		.word	1
  33 0020 01000000 		.word	1
  34 0024 01000000 		.word	1
  35 0028 01000000 		.word	1
  36 002c 01000000 		.word	1
  37 0030 01000000 		.word	1
  38 0034 01000000 		.word	1
  39 0038 01000000 		.word	1
  40 003c 01000000 		.word	1
  41 0040 01000000 		.word	1
  42 0044 01000000 		.word	1
  43 0048 01000000 		.word	1
  44 004c 01000000 		.word	1
  45 0050 00000000 		.word	0
  46 0054 01000000 		.word	1
  47 0058 00000000 		.word	0
  48 005c 00000000 		.word	0
  49 0060 00000000 		.word	0
  50 0064 00000000 		.word	0
  51 0068 00000000 		.word	0
  52 006c 00000000 		.word	0
  53 0070 00000000 		.word	0
  54 0074 00000000 		.word	0
  55 0078 00000000 		.word	0
  56 007c 00000000 		.word	0
  57 0080 00000000 		.word	0
ARM GAS  C:\Users\ikui753\AppData\Local\Temp\cckqKceo.s 			page 2


  58 0084 00000000 		.word	0
  59 0088 00000000 		.word	0
  60 008c 00000000 		.word	0
  61 0090 00000000 		.word	0
  62 0094 01000000 		.word	1
  63 0098 01000000 		.word	1
  64 009c 00000000 		.word	0
  65 00a0 01000000 		.word	1
  66 00a4 00000000 		.word	0
  67 00a8 01000000 		.word	1
  68 00ac 01000000 		.word	1
  69 00b0 01000000 		.word	1
  70 00b4 01000000 		.word	1
  71 00b8 01000000 		.word	1
  72 00bc 00000000 		.word	0
  73 00c0 01000000 		.word	1
  74 00c4 01000000 		.word	1
  75 00c8 01000000 		.word	1
  76 00cc 00000000 		.word	0
  77 00d0 01000000 		.word	1
  78 00d4 01000000 		.word	1
  79 00d8 01000000 		.word	1
  80 00dc 00000000 		.word	0
  81 00e0 01000000 		.word	1
  82 00e4 01000000 		.word	1
  83 00e8 00000000 		.word	0
  84 00ec 00000000 		.word	0
  85 00f0 00000000 		.word	0
  86 00f4 01000000 		.word	1
  87 00f8 00000000 		.word	0
  88 00fc 00000000 		.word	0
  89 0100 00000000 		.word	0
  90 0104 01000000 		.word	1
  91 0108 00000000 		.word	0
  92 010c 00000000 		.word	0
  93 0110 00000000 		.word	0
  94 0114 00000000 		.word	0
  95 0118 00000000 		.word	0
  96 011c 00000000 		.word	0
  97 0120 00000000 		.word	0
  98 0124 01000000 		.word	1
  99 0128 00000000 		.word	0
 100 012c 01000000 		.word	1
 101 0130 01000000 		.word	1
 102 0134 01000000 		.word	1
 103 0138 01000000 		.word	1
 104 013c 00000000 		.word	0
 105 0140 01000000 		.word	1
 106 0144 00000000 		.word	0
 107 0148 01000000 		.word	1
 108 014c 00000000 		.word	0
 109 0150 01000000 		.word	1
 110 0154 01000000 		.word	1
 111 0158 01000000 		.word	1
 112 015c 00000000 		.word	0
 113 0160 01000000 		.word	1
 114 0164 00000000 		.word	0
ARM GAS  C:\Users\ikui753\AppData\Local\Temp\cckqKceo.s 			page 3


 115 0168 01000000 		.word	1
 116 016c 01000000 		.word	1
 117 0170 01000000 		.word	1
 118 0174 00000000 		.word	0
 119 0178 01000000 		.word	1
 120 017c 01000000 		.word	1
 121 0180 00000000 		.word	0
 122 0184 00000000 		.word	0
 123 0188 00000000 		.word	0
 124 018c 01000000 		.word	1
 125 0190 00000000 		.word	0
 126 0194 01000000 		.word	1
 127 0198 00000000 		.word	0
 128 019c 00000000 		.word	0
 129 01a0 00000000 		.word	0
 130 01a4 01000000 		.word	1
 131 01a8 00000000 		.word	0
 132 01ac 01000000 		.word	1
 133 01b0 00000000 		.word	0
 134 01b4 00000000 		.word	0
 135 01b8 00000000 		.word	0
 136 01bc 00000000 		.word	0
 137 01c0 00000000 		.word	0
 138 01c4 01000000 		.word	1
 139 01c8 01000000 		.word	1
 140 01cc 00000000 		.word	0
 141 01d0 01000000 		.word	1
 142 01d4 01000000 		.word	1
 143 01d8 01000000 		.word	1
 144 01dc 00000000 		.word	0
 145 01e0 01000000 		.word	1
 146 01e4 00000000 		.word	0
 147 01e8 01000000 		.word	1
 148 01ec 00000000 		.word	0
 149 01f0 01000000 		.word	1
 150 01f4 00000000 		.word	0
 151 01f8 01000000 		.word	1
 152 01fc 00000000 		.word	0
 153 0200 01000000 		.word	1
 154 0204 01000000 		.word	1
 155 0208 01000000 		.word	1
 156 020c 00000000 		.word	0
 157 0210 01000000 		.word	1
 158 0214 01000000 		.word	1
 159 0218 00000000 		.word	0
 160 021c 01000000 		.word	1
 161 0220 00000000 		.word	0
 162 0224 01000000 		.word	1
 163 0228 00000000 		.word	0
 164 022c 00000000 		.word	0
 165 0230 00000000 		.word	0
 166 0234 01000000 		.word	1
 167 0238 00000000 		.word	0
 168 023c 01000000 		.word	1
 169 0240 00000000 		.word	0
 170 0244 01000000 		.word	1
 171 0248 00000000 		.word	0
ARM GAS  C:\Users\ikui753\AppData\Local\Temp\cckqKceo.s 			page 4


 172 024c 01000000 		.word	1
 173 0250 00000000 		.word	0
 174 0254 00000000 		.word	0
 175 0258 00000000 		.word	0
 176 025c 01000000 		.word	1
 177 0260 01000000 		.word	1
 178 0264 00000000 		.word	0
 179 0268 01000000 		.word	1
 180 026c 00000000 		.word	0
 181 0270 01000000 		.word	1
 182 0274 00000000 		.word	0
 183 0278 01000000 		.word	1
 184 027c 01000000 		.word	1
 185 0280 01000000 		.word	1
 186 0284 00000000 		.word	0
 187 0288 01000000 		.word	1
 188 028c 00000000 		.word	0
 189 0290 01000000 		.word	1
 190 0294 00000000 		.word	0
 191 0298 01000000 		.word	1
 192 029c 00000000 		.word	0
 193 02a0 01000000 		.word	1
 194 02a4 01000000 		.word	1
 195 02a8 01000000 		.word	1
 196 02ac 01000000 		.word	1
 197 02b0 00000000 		.word	0
 198 02b4 00000000 		.word	0
 199 02b8 00000000 		.word	0
 200 02bc 01000000 		.word	1
 201 02c0 00000000 		.word	0
 202 02c4 01000000 		.word	1
 203 02c8 00000000 		.word	0
 204 02cc 00000000 		.word	0
 205 02d0 00000000 		.word	0
 206 02d4 01000000 		.word	1
 207 02d8 00000000 		.word	0
 208 02dc 00000000 		.word	0
 209 02e0 00000000 		.word	0
 210 02e4 01000000 		.word	1
 211 02e8 00000000 		.word	0
 212 02ec 00000000 		.word	0
 213 02f0 00000000 		.word	0
 214 02f4 01000000 		.word	1
 215 02f8 01000000 		.word	1
 216 02fc 01000000 		.word	1
 217 0300 01000000 		.word	1
 218 0304 00000000 		.word	0
 219 0308 01000000 		.word	1
 220 030c 00000000 		.word	0
 221 0310 01000000 		.word	1
 222 0314 01000000 		.word	1
 223 0318 01000000 		.word	1
 224 031c 01000000 		.word	1
 225 0320 01000000 		.word	1
 226 0324 01000000 		.word	1
 227 0328 01000000 		.word	1
 228 032c 01000000 		.word	1
ARM GAS  C:\Users\ikui753\AppData\Local\Temp\cckqKceo.s 			page 5


 229 0330 01000000 		.word	1
 230 0334 01000000 		.word	1
 231 0338 01000000 		.word	1
 232 033c 00000000 		.word	0
 233 0340 01000000 		.word	1
 234 0344 01000000 		.word	1
 235 0348 00000000 		.word	0
 236 034c 00000000 		.word	0
 237 0350 00000000 		.word	0
 238 0354 00000000 		.word	0
 239 0358 00000000 		.word	0
 240 035c 00000000 		.word	0
 241 0360 00000000 		.word	0
 242 0364 00000000 		.word	0
 243 0368 00000000 		.word	0
 244 036c 00000000 		.word	0
 245 0370 00000000 		.word	0
 246 0374 00000000 		.word	0
 247 0378 00000000 		.word	0
 248 037c 00000000 		.word	0
 249 0380 00000000 		.word	0
 250 0384 00000000 		.word	0
 251 0388 00000000 		.word	0
 252 038c 01000000 		.word	1
 253 0390 01000000 		.word	1
 254 0394 00000000 		.word	0
 255 0398 01000000 		.word	1
 256 039c 01000000 		.word	1
 257 03a0 01000000 		.word	1
 258 03a4 01000000 		.word	1
 259 03a8 01000000 		.word	1
 260 03ac 01000000 		.word	1
 261 03b0 01000000 		.word	1
 262 03b4 01000000 		.word	1
 263 03b8 01000000 		.word	1
 264 03bc 01000000 		.word	1
 265 03c0 01000000 		.word	1
 266 03c4 00000000 		.word	0
 267 03c8 01000000 		.word	1
 268 03cc 01000000 		.word	1
 269 03d0 01000000 		.word	1
 270 03d4 01000000 		.word	1
 271 03d8 01000000 		.word	1
 272 03dc 01000000 		.word	1
 273 03e0 00000000 		.word	0
 274 03e4 00000000 		.word	0
 275 03e8 00000000 		.word	0
 276 03ec 00000000 		.word	0
 277 03f0 00000000 		.word	0
 278 03f4 00000000 		.word	0
 279 03f8 00000000 		.word	0
 280 03fc 01000000 		.word	1
 281 0400 00000000 		.word	0
 282 0404 00000000 		.word	0
 283 0408 00000000 		.word	0
 284 040c 00000000 		.word	0
 285 0410 00000000 		.word	0
ARM GAS  C:\Users\ikui753\AppData\Local\Temp\cckqKceo.s 			page 6


 286 0414 00000000 		.word	0
 287 0418 00000000 		.word	0
 288 041c 00000000 		.word	0
 289 0420 00000000 		.word	0
 290 0424 01000000 		.word	1
 291 0428 01000000 		.word	1
 292 042c 01000000 		.word	1
 293 0430 01000000 		.word	1
 294 0434 01000000 		.word	1
 295 0438 01000000 		.word	1
 296 043c 01000000 		.word	1
 297 0440 01000000 		.word	1
 298 0444 01000000 		.word	1
 299 0448 01000000 		.word	1
 300 044c 01000000 		.word	1
 301 0450 01000000 		.word	1
 302 0454 01000000 		.word	1
 303 0458 01000000 		.word	1
 304 045c 01000000 		.word	1
 305 0460 01000000 		.word	1
 306 0464 01000000 		.word	1
 307 0468 01000000 		.word	1
 308 046c 01000000 		.word	1
 309 0470 01000000 		.word	1
 310              		.global	start_pos
 311              		.align	2
 312              		.type	start_pos, %object
 313              		.size	start_pos, 8
 314              	start_pos:
 315 0474 01000000 		.word	1
 316 0478 01000000 		.word	1
 317              		.global	food_list
 318              		.align	2
 319              		.type	food_list, %object
 320              		.size	food_list, 40
 321              	food_list:
 322 047c 01000000 		.word	1
 323 0480 09000000 		.word	9
 324 0484 05000000 		.word	5
 325 0488 05000000 		.word	5
 326 048c 07000000 		.word	7
 327 0490 01000000 		.word	1
 328 0494 0D000000 		.word	13
 329 0498 05000000 		.word	5
 330 049c 09000000 		.word	9
 331 04a0 09000000 		.word	9
 332              		.global	moves
 333              		.align	2
 334              		.type	moves, %object
 335              		.size	moves, 32
 336              	moves:
 337 04a4 00000000 		.word	0
 338 04a8 01000000 		.word	1
 339 04ac 00000000 		.word	0
 340 04b0 FFFFFFFF 		.word	-1
 341 04b4 01000000 		.word	1
 342 04b8 00000000 		.word	0
ARM GAS  C:\Users\ikui753\AppData\Local\Temp\cckqKceo.s 			page 7


 343 04bc FFFFFFFF 		.word	-1
 344 04c0 00000000 		.word	0
 345              		.section	.text.isValidMove,"ax",%progbits
 346              		.align	2
 347              		.global	isValidMove
 348              		.thumb
 349              		.thumb_func
 350              		.type	isValidMove, %function
 351              	isValidMove:
 352              	.LFB1:
 353              		.file 1 "pathfinding.c"
   1:pathfinding.c **** /* ========================================
   2:pathfinding.c ****  *
   3:pathfinding.c ****  * Copyright YOUR COMPANY, THE YEAR
   4:pathfinding.c ****  * All Rights Reserved
   5:pathfinding.c ****  * UNPUBLISHED, LICENSED SOFTWARE.
   6:pathfinding.c ****  *
   7:pathfinding.c ****  * CONFIDENTIAL AND PROPRIETARY INFORMATION
   8:pathfinding.c ****  * WHICH IS THE PROPERTY OF your company.
   9:pathfinding.c ****  *
  10:pathfinding.c ****  * ========================================
  11:pathfinding.c **** */
  12:pathfinding.c **** #include <stdio.h>
  13:pathfinding.c **** #include <stdlib.h>
  14:pathfinding.c **** #include <time.h>
  15:pathfinding.c **** #include <stdbool.h>
  16:pathfinding.c **** #include "map.h"
  17:pathfinding.c **** 
  18:pathfinding.c **** #define MAX_ROWS 15
  19:pathfinding.c **** #define MAX_COLS 19
  20:pathfinding.c **** #define ARRAY_LENGTH(arr) (sizeof(arr) / sizeof((arr)[0]))
  21:pathfinding.c **** 
  22:pathfinding.c **** int map[15][19] = {
  23:pathfinding.c **** {1,1,1,1,1,1,1,1,1,1,1,1,1,1,1,1,1,1,1},
  24:pathfinding.c **** {1,0,1,0,0,0,0,0,0,0,0,0,0,0,0,0,0,0,1},
  25:pathfinding.c **** {1,0,1,0,1,1,1,1,1,0,1,1,1,0,1,1,1,0,1},
  26:pathfinding.c **** {1,0,0,0,1,0,0,0,1,0,0,0,0,0,0,0,1,0,1},
  27:pathfinding.c **** {1,1,1,0,1,0,1,0,1,1,1,0,1,0,1,1,1,0,1},
  28:pathfinding.c **** {1,0,0,0,1,0,1,0,0,0,1,0,1,0,0,0,0,0,1},
  29:pathfinding.c **** {1,0,1,1,1,0,1,0,1,0,1,0,1,0,1,1,1,0,1},
  30:pathfinding.c **** {1,0,1,0,1,0,0,0,1,0,1,0,1,0,1,0,0,0,1},
  31:pathfinding.c **** {1,0,1,0,1,0,1,1,1,0,1,0,1,0,1,0,1,1,1},
  32:pathfinding.c **** {1,0,0,0,1,0,1,0,0,0,1,0,0,0,1,0,0,0,1},
  33:pathfinding.c **** {1,1,1,0,1,0,1,1,1,1,1,1,1,1,1,1,1,0,1},
  34:pathfinding.c **** {1,0,0,0,0,0,0,0,0,0,0,0,0,0,0,0,0,0,1},
  35:pathfinding.c **** {1,0,1,1,1,1,1,1,1,1,1,1,1,0,1,1,1,1,1},
  36:pathfinding.c **** {1,0,0,0,0,0,0,0,1,0,0,0,0,0,0,0,0,0,1},
  37:pathfinding.c **** {1,1,1,1,1,1,1,1,1,1,1,1,1,1,1,1,1,1,1},
  38:pathfinding.c **** };
  39:pathfinding.c **** 
  40:pathfinding.c **** int start_pos[2] = {1,1};
  41:pathfinding.c **** 
  42:pathfinding.c **** int food_list[5][2]= {
  43:pathfinding.c **** {1,9},
  44:pathfinding.c **** {5,5},
  45:pathfinding.c **** {7,1},
  46:pathfinding.c **** {13,5},
ARM GAS  C:\Users\ikui753\AppData\Local\Temp\cckqKceo.s 			page 8


  47:pathfinding.c **** {9,9}
  48:pathfinding.c **** };
  49:pathfinding.c **** 
  50:pathfinding.c **** 
  51:pathfinding.c **** // MAP INITIALISATION CODE
  52:pathfinding.c **** 
  53:pathfinding.c **** /*void printMap(char map[MAX_ROWS][MAX_COLS]) {
  54:pathfinding.c ****     // Print the map in a grid format
  55:pathfinding.c ****     for (int i = 0; i < MAX_ROWS; i++) {
  56:pathfinding.c ****         for (int j = 0; j < MAX_COLS; j++) {
  57:pathfinding.c ****             printf("%c", map[i][j]);
  58:pathfinding.c ****         }
  59:pathfinding.c ****         printf("\n");
  60:pathfinding.c ****     }
  61:pathfinding.c **** }*/
  62:pathfinding.c **** 
  63:pathfinding.c **** struct Location {
  64:pathfinding.c ****     int row;
  65:pathfinding.c ****     int col;
  66:pathfinding.c **** };
  67:pathfinding.c **** 
  68:pathfinding.c **** // pathfinding 
  69:pathfinding.c **** struct Location moves[] = { {0, 1}, {0, -1}, {1, 0}, {-1, 0} };
  70:pathfinding.c **** 
  71:pathfinding.c **** bool isValidMove(int r, int c, int rows, int cols, int map[MAX_ROWS][MAX_COLS]) {
 354              		.loc 1 71 0
 355              		.cfi_startproc
 356              		@ args = 4, pretend = 0, frame = 16
 357              		@ frame_needed = 1, uses_anonymous_args = 0
 358              		@ link register save eliminated.
 359 0000 80B4     		push	{r7}
 360              		.cfi_def_cfa_offset 4
 361              		.cfi_offset 7, -4
 362 0002 85B0     		sub	sp, sp, #20
 363              		.cfi_def_cfa_offset 24
 364 0004 00AF     		add	r7, sp, #0
 365              		.cfi_def_cfa_register 7
 366 0006 F860     		str	r0, [r7, #12]
 367 0008 B960     		str	r1, [r7, #8]
 368 000a 7A60     		str	r2, [r7, #4]
 369 000c 3B60     		str	r3, [r7]
  72:pathfinding.c ****     return (r >= 0 && r < rows && c >= 0 && c < cols && map[r][c] == 0);
 370              		.loc 1 72 0
 371 000e FB68     		ldr	r3, [r7, #12]
 372 0010 002B     		cmp	r3, #0
 373 0012 17DB     		blt	.L2
 374              		.loc 1 72 0 is_stmt 0 discriminator 1
 375 0014 FA68     		ldr	r2, [r7, #12]
 376 0016 7B68     		ldr	r3, [r7, #4]
 377 0018 9A42     		cmp	r2, r3
 378 001a 13DA     		bge	.L2
 379              		.loc 1 72 0 discriminator 3
 380 001c BB68     		ldr	r3, [r7, #8]
 381 001e 002B     		cmp	r3, #0
 382 0020 10DB     		blt	.L2
 383              		.loc 1 72 0 discriminator 5
 384 0022 BA68     		ldr	r2, [r7, #8]
ARM GAS  C:\Users\ikui753\AppData\Local\Temp\cckqKceo.s 			page 9


 385 0024 3B68     		ldr	r3, [r7]
 386 0026 9A42     		cmp	r2, r3
 387 0028 0CDA     		bge	.L2
 388              		.loc 1 72 0 discriminator 7
 389 002a FB68     		ldr	r3, [r7, #12]
 390 002c 4C22     		movs	r2, #76
 391 002e 02FB03F3 		mul	r3, r2, r3
 392 0032 BA69     		ldr	r2, [r7, #24]
 393 0034 1344     		add	r3, r3, r2
 394 0036 BA68     		ldr	r2, [r7, #8]
 395 0038 53F82230 		ldr	r3, [r3, r2, lsl #2]
 396 003c 002B     		cmp	r3, #0
 397 003e 01D1     		bne	.L2
 398              		.loc 1 72 0 discriminator 9
 399 0040 0123     		movs	r3, #1
 400 0042 00E0     		b	.L3
 401              	.L2:
 402              		.loc 1 72 0 discriminator 10
 403 0044 0023     		movs	r3, #0
 404              	.L3:
 405              		.loc 1 72 0 discriminator 12
 406 0046 03F00103 		and	r3, r3, #1
 407 004a DBB2     		uxtb	r3, r3
  73:pathfinding.c **** }
 408              		.loc 1 73 0 is_stmt 1 discriminator 12
 409 004c 1846     		mov	r0, r3
 410 004e 1437     		adds	r7, r7, #20
 411              		.cfi_def_cfa_offset 4
 412 0050 BD46     		mov	sp, r7
 413              		.cfi_def_cfa_register 13
 414              		@ sp needed
 415 0052 80BC     		pop	{r7}
 416              		.cfi_restore 7
 417              		.cfi_def_cfa_offset 0
 418 0054 7047     		bx	lr
 419              		.cfi_endproc
 420              	.LFE1:
 421              		.size	isValidMove, .-isValidMove
 422 0056 00BF     		.section	.text.dijkstra,"ax",%progbits
 423              		.align	2
 424              		.global	dijkstra
 425              		.thumb
 426              		.thumb_func
 427              		.type	dijkstra, %function
 428              	dijkstra:
 429              	.LFB2:
  74:pathfinding.c **** 
  75:pathfinding.c **** void dijkstra(int map[MAX_ROWS][MAX_COLS], struct Location startlocation, struct Location targetloc
 430              		.loc 1 75 0
 431              		.cfi_startproc
 432              		@ args = 12, pretend = 8, frame = 5816
 433              		@ frame_needed = 1, uses_anonymous_args = 0
 434 0000 82B0     		sub	sp, sp, #8
 435              		.cfi_def_cfa_offset 8
 436 0002 90B5     		push	{r4, r7, lr}
 437              		.cfi_def_cfa_offset 20
 438              		.cfi_offset 4, -20
ARM GAS  C:\Users\ikui753\AppData\Local\Temp\cckqKceo.s 			page 10


 439              		.cfi_offset 7, -16
 440              		.cfi_offset 14, -12
 441 0004 ADF5B65D 		sub	sp, sp, #5824
 442              		.cfi_def_cfa_offset 5844
 443 0008 81B0     		sub	sp, sp, #4
 444              		.cfi_def_cfa_offset 5848
 445 000a 02AF     		add	r7, sp, #8
 446              		.cfi_def_cfa 7, 5840
 447 000c 07F11804 		add	r4, r7, #24
 448 0010 0C3C     		subs	r4, r4, #12
 449 0012 2060     		str	r0, [r4]
 450 0014 07F11800 		add	r0, r7, #24
 451 0018 1438     		subs	r0, r0, #20
 452 001a 80E80600 		stmia	r0, {r1, r2}
 453 001e 07F5B652 		add	r2, r7, #5824
 454 0022 02F10C02 		add	r2, r2, #12
 455 0026 1360     		str	r3, [r2]
 456              	.LBB2:
  76:pathfinding.c **** 
  77:pathfinding.c ****     int visitedMap[MAX_ROWS][MAX_COLS];
  78:pathfinding.c ****     for (int i = 0; i < MAX_ROWS; i++) {
 457              		.loc 1 78 0
 458 0028 0023     		movs	r3, #0
 459 002a 07F5B552 		add	r2, r7, #5792
 460 002e 02F11402 		add	r2, r2, #20
 461 0032 1360     		str	r3, [r2]
 462 0034 3AE0     		b	.L6
 463              	.L9:
 464              	.LBB3:
  79:pathfinding.c ****         for (int j = 0; j < MAX_COLS; j++) {
 465              		.loc 1 79 0
 466 0036 0023     		movs	r3, #0
 467 0038 07F5B552 		add	r2, r7, #5792
 468 003c 02F11002 		add	r2, r2, #16
 469 0040 1360     		str	r3, [r2]
 470 0042 21E0     		b	.L7
 471              	.L8:
  80:pathfinding.c ****             visitedMap[i][j] = 1; // fill visited array with 1s- mark as unvisited
 472              		.loc 1 80 0 discriminator 3
 473 0044 07F58F51 		add	r1, r7, #4576
 474 0048 01F11001 		add	r1, r1, #16
 475 004c 07F5B553 		add	r3, r7, #5792
 476 0050 03F11403 		add	r3, r3, #20
 477 0054 1A68     		ldr	r2, [r3]
 478 0056 1346     		mov	r3, r2
 479 0058 DB00     		lsls	r3, r3, #3
 480 005a 1344     		add	r3, r3, r2
 481 005c 5B00     		lsls	r3, r3, #1
 482 005e 1344     		add	r3, r3, r2
 483 0060 07F5B552 		add	r2, r7, #5792
 484 0064 02F11002 		add	r2, r2, #16
 485 0068 1268     		ldr	r2, [r2]
 486 006a 1344     		add	r3, r3, r2
 487 006c 0122     		movs	r2, #1
 488 006e 41F82320 		str	r2, [r1, r3, lsl #2]
  79:pathfinding.c ****         for (int j = 0; j < MAX_COLS; j++) {
 489              		.loc 1 79 0 discriminator 3
ARM GAS  C:\Users\ikui753\AppData\Local\Temp\cckqKceo.s 			page 11


 490 0072 07F5B553 		add	r3, r7, #5792
 491 0076 03F11003 		add	r3, r3, #16
 492 007a 1B68     		ldr	r3, [r3]
 493 007c 0133     		adds	r3, r3, #1
 494 007e 07F5B552 		add	r2, r7, #5792
 495 0082 02F11002 		add	r2, r2, #16
 496 0086 1360     		str	r3, [r2]
 497              	.L7:
  79:pathfinding.c ****         for (int j = 0; j < MAX_COLS; j++) {
 498              		.loc 1 79 0 is_stmt 0 discriminator 1
 499 0088 07F5B553 		add	r3, r7, #5792
 500 008c 03F11003 		add	r3, r3, #16
 501 0090 1B68     		ldr	r3, [r3]
 502 0092 122B     		cmp	r3, #18
 503 0094 D6DD     		ble	.L8
 504              	.LBE3:
  78:pathfinding.c ****         for (int j = 0; j < MAX_COLS; j++) {
 505              		.loc 1 78 0 is_stmt 1 discriminator 2
 506 0096 07F5B553 		add	r3, r7, #5792
 507 009a 03F11403 		add	r3, r3, #20
 508 009e 1B68     		ldr	r3, [r3]
 509 00a0 0133     		adds	r3, r3, #1
 510 00a2 07F5B552 		add	r2, r7, #5792
 511 00a6 02F11402 		add	r2, r2, #20
 512 00aa 1360     		str	r3, [r2]
 513              	.L6:
  78:pathfinding.c ****         for (int j = 0; j < MAX_COLS; j++) {
 514              		.loc 1 78 0 is_stmt 0 discriminator 1
 515 00ac 07F5B553 		add	r3, r7, #5792
 516 00b0 03F11403 		add	r3, r3, #20
 517 00b4 1B68     		ldr	r3, [r3]
 518 00b6 0E2B     		cmp	r3, #14
 519 00b8 BDDD     		ble	.L9
 520              	.LBE2:
  81:pathfinding.c ****         }
  82:pathfinding.c ****     }
  83:pathfinding.c **** 
  84:pathfinding.c ****     struct PriorityQueue {
  85:pathfinding.c ****         struct Location location;
  86:pathfinding.c ****         int distance;
  87:pathfinding.c ****     };
  88:pathfinding.c **** 
  89:pathfinding.c ****     struct PriorityQueue pq[MAX_ROWS * MAX_COLS]; // initialise priority queue
  90:pathfinding.c ****     int pqSize = 0;
 521              		.loc 1 90 0 is_stmt 1
 522 00ba 0023     		movs	r3, #0
 523 00bc 07F5B552 		add	r2, r7, #5792
 524 00c0 02F10C02 		add	r2, r2, #12
 525 00c4 1360     		str	r3, [r2]
 526              	.LBB4:
  91:pathfinding.c **** 
  92:pathfinding.c ****     // Initialize distances and paths arrays
  93:pathfinding.c ****     int distances[MAX_ROWS][MAX_COLS]; // array to record distance of each location
  94:pathfinding.c ****     //struct Location paths[MAX_ROWS * MAX_COLS]; // 1d array to record path- each element is a loc
  95:pathfinding.c **** 
  96:pathfinding.c ****     for (int i = 0; i < MAX_ROWS; i++) {
 527              		.loc 1 96 0
ARM GAS  C:\Users\ikui753\AppData\Local\Temp\cckqKceo.s 			page 12


 528 00c6 0023     		movs	r3, #0
 529 00c8 07F5B552 		add	r2, r7, #5792
 530 00cc 02F10802 		add	r2, r2, #8
 531 00d0 1360     		str	r3, [r2]
 532 00d2 3AE0     		b	.L10
 533              	.L13:
 534              	.LBB5:
  97:pathfinding.c ****         for (int j = 0; j < MAX_COLS; j++) {
 535              		.loc 1 97 0
 536 00d4 0023     		movs	r3, #0
 537 00d6 07F5B552 		add	r2, r7, #5792
 538 00da 02F10402 		add	r2, r2, #4
 539 00de 1360     		str	r3, [r2]
 540 00e0 21E0     		b	.L11
 541              	.L12:
  98:pathfinding.c ****             distances[i][j] = 1000; // initialise distances as infinity
 542              		.loc 1 98 0 discriminator 3
 543 00e2 07F13802 		add	r2, r7, #56
 544 00e6 183A     		subs	r2, r2, #24
 545 00e8 07F5B553 		add	r3, r7, #5792
 546 00ec 03F10803 		add	r3, r3, #8
 547 00f0 1968     		ldr	r1, [r3]
 548 00f2 0B46     		mov	r3, r1
 549 00f4 DB00     		lsls	r3, r3, #3
 550 00f6 0B44     		add	r3, r3, r1
 551 00f8 5B00     		lsls	r3, r3, #1
 552 00fa 0B44     		add	r3, r3, r1
 553 00fc 07F5B551 		add	r1, r7, #5792
 554 0100 01F10401 		add	r1, r1, #4
 555 0104 0968     		ldr	r1, [r1]
 556 0106 0B44     		add	r3, r3, r1
 557 0108 4FF47A71 		mov	r1, #1000
 558 010c 42F82310 		str	r1, [r2, r3, lsl #2]
  97:pathfinding.c ****         for (int j = 0; j < MAX_COLS; j++) {
 559              		.loc 1 97 0 discriminator 3
 560 0110 07F5B553 		add	r3, r7, #5792
 561 0114 03F10403 		add	r3, r3, #4
 562 0118 1B68     		ldr	r3, [r3]
 563 011a 0133     		adds	r3, r3, #1
 564 011c 07F5B552 		add	r2, r7, #5792
 565 0120 02F10402 		add	r2, r2, #4
 566 0124 1360     		str	r3, [r2]
 567              	.L11:
  97:pathfinding.c ****         for (int j = 0; j < MAX_COLS; j++) {
 568              		.loc 1 97 0 is_stmt 0 discriminator 1
 569 0126 07F5B553 		add	r3, r7, #5792
 570 012a 03F10403 		add	r3, r3, #4
 571 012e 1B68     		ldr	r3, [r3]
 572 0130 122B     		cmp	r3, #18
 573 0132 D6DD     		ble	.L12
 574              	.LBE5:
  96:pathfinding.c ****         for (int j = 0; j < MAX_COLS; j++) {
 575              		.loc 1 96 0 is_stmt 1 discriminator 2
 576 0134 07F5B553 		add	r3, r7, #5792
 577 0138 03F10803 		add	r3, r3, #8
 578 013c 1B68     		ldr	r3, [r3]
 579 013e 0133     		adds	r3, r3, #1
ARM GAS  C:\Users\ikui753\AppData\Local\Temp\cckqKceo.s 			page 13


 580 0140 07F5B552 		add	r2, r7, #5792
 581 0144 02F10802 		add	r2, r2, #8
 582 0148 1360     		str	r3, [r2]
 583              	.L10:
  96:pathfinding.c ****         for (int j = 0; j < MAX_COLS; j++) {
 584              		.loc 1 96 0 is_stmt 0 discriminator 1
 585 014a 07F5B553 		add	r3, r7, #5792
 586 014e 03F10803 		add	r3, r3, #8
 587 0152 1B68     		ldr	r3, [r3]
 588 0154 0E2B     		cmp	r3, #14
 589 0156 BDDD     		ble	.L13
 590              	.LBE4:
  99:pathfinding.c ****         }
 100:pathfinding.c ****     }
 101:pathfinding.c **** 
 102:pathfinding.c ****     int stepNum = 0;
 591              		.loc 1 102 0 is_stmt 1
 592 0158 0023     		movs	r3, #0
 593 015a 07F5B552 		add	r2, r7, #5792
 594 015e 1360     		str	r3, [r2]
 103:pathfinding.c ****     distances[startlocation.row][startlocation.col] = 0; // initialise distance of startLoc to 0
 595              		.loc 1 103 0
 596 0160 07F11803 		add	r3, r7, #24
 597 0164 143B     		subs	r3, r3, #20
 598 0166 1968     		ldr	r1, [r3]
 599 0168 07F11803 		add	r3, r7, #24
 600 016c 143B     		subs	r3, r3, #20
 601 016e 5868     		ldr	r0, [r3, #4]
 602 0170 07F13802 		add	r2, r7, #56
 603 0174 183A     		subs	r2, r2, #24
 604 0176 0B46     		mov	r3, r1
 605 0178 DB00     		lsls	r3, r3, #3
 606 017a 0B44     		add	r3, r3, r1
 607 017c 5B00     		lsls	r3, r3, #1
 608 017e 0B44     		add	r3, r3, r1
 609 0180 0344     		add	r3, r3, r0
 610 0182 0021     		movs	r1, #0
 611 0184 42F82310 		str	r1, [r2, r3, lsl #2]
 104:pathfinding.c ****     //paths[stepNum] = startlocation; // add start to path array
 105:pathfinding.c ****     stepNum++; // increment stepNum
 612              		.loc 1 105 0
 613 0188 07F5B553 		add	r3, r7, #5792
 614 018c 1B68     		ldr	r3, [r3]
 615 018e 0133     		adds	r3, r3, #1
 616 0190 07F5B552 		add	r2, r7, #5792
 617 0194 1360     		str	r3, [r2]
 106:pathfinding.c **** 
 107:pathfinding.c ****     pq[pqSize].location = startlocation; // add startLocation to Priority queue
 618              		.loc 1 107 0
 619 0196 07F59362 		add	r2, r7, #1176
 620 019a 043A     		subs	r2, r2, #4
 621 019c 07F5B553 		add	r3, r7, #5792
 622 01a0 03F10C03 		add	r3, r3, #12
 623 01a4 1968     		ldr	r1, [r3]
 624 01a6 0B46     		mov	r3, r1
 625 01a8 5B00     		lsls	r3, r3, #1
 626 01aa 0B44     		add	r3, r3, r1
ARM GAS  C:\Users\ikui753\AppData\Local\Temp\cckqKceo.s 			page 14


 627 01ac 9B00     		lsls	r3, r3, #2
 628 01ae 1A44     		add	r2, r2, r3
 629 01b0 07F11803 		add	r3, r7, #24
 630 01b4 143B     		subs	r3, r3, #20
 631 01b6 93E80300 		ldmia	r3, {r0, r1}
 632 01ba 82E80300 		stmia	r2, {r0, r1}
 108:pathfinding.c ****     pq[pqSize].distance = 0; // add startlocation distance to priority queue
 633              		.loc 1 108 0
 634 01be 07F59362 		add	r2, r7, #1176
 635 01c2 043A     		subs	r2, r2, #4
 636 01c4 07F5B553 		add	r3, r7, #5792
 637 01c8 03F10C03 		add	r3, r3, #12
 638 01cc 1968     		ldr	r1, [r3]
 639 01ce 0B46     		mov	r3, r1
 640 01d0 5B00     		lsls	r3, r3, #1
 641 01d2 0B44     		add	r3, r3, r1
 642 01d4 9B00     		lsls	r3, r3, #2
 643 01d6 1344     		add	r3, r3, r2
 644 01d8 0833     		adds	r3, r3, #8
 645 01da 0022     		movs	r2, #0
 646 01dc 1A60     		str	r2, [r3]
 109:pathfinding.c ****     pqSize++; // increment pqSize- pq is not empty
 647              		.loc 1 109 0
 648 01de 07F5B553 		add	r3, r7, #5792
 649 01e2 03F10C03 		add	r3, r3, #12
 650 01e6 1B68     		ldr	r3, [r3]
 651 01e8 0133     		adds	r3, r3, #1
 652 01ea 07F5B552 		add	r2, r7, #5792
 653 01ee 02F10C02 		add	r2, r2, #12
 654 01f2 1360     		str	r3, [r2]
 110:pathfinding.c **** 
 111:pathfinding.c ****     while (pqSize > 0) {
 655              		.loc 1 111 0
 656 01f4 E9E1     		b	.L14
 657              	.L24:
 658              	.LBB6:
 112:pathfinding.c ****         int idx = 0;
 659              		.loc 1 112 0
 660 01f6 0023     		movs	r3, #0
 661 01f8 07F5B452 		add	r2, r7, #5760
 662 01fc 02F11C02 		add	r2, r2, #28
 663 0200 1360     		str	r3, [r2]
 664              	.LBB7:
 113:pathfinding.c ****         for (int i = 1; i < pqSize; i++) {
 665              		.loc 1 113 0
 666 0202 0123     		movs	r3, #1
 667 0204 07F5B452 		add	r2, r7, #5760
 668 0208 02F11802 		add	r2, r2, #24
 669 020c 1360     		str	r3, [r2]
 670 020e 34E0     		b	.L15
 671              	.L17:
 114:pathfinding.c ****             if (pq[i].distance < pq[idx].distance) {
 672              		.loc 1 114 0
 673 0210 07F59362 		add	r2, r7, #1176
 674 0214 043A     		subs	r2, r2, #4
 675 0216 07F5B453 		add	r3, r7, #5760
 676 021a 03F11803 		add	r3, r3, #24
ARM GAS  C:\Users\ikui753\AppData\Local\Temp\cckqKceo.s 			page 15


 677 021e 1968     		ldr	r1, [r3]
 678 0220 0B46     		mov	r3, r1
 679 0222 5B00     		lsls	r3, r3, #1
 680 0224 0B44     		add	r3, r3, r1
 681 0226 9B00     		lsls	r3, r3, #2
 682 0228 1344     		add	r3, r3, r2
 683 022a 0833     		adds	r3, r3, #8
 684 022c 1868     		ldr	r0, [r3]
 685 022e 07F59362 		add	r2, r7, #1176
 686 0232 043A     		subs	r2, r2, #4
 687 0234 07F5B453 		add	r3, r7, #5760
 688 0238 03F11C03 		add	r3, r3, #28
 689 023c 1968     		ldr	r1, [r3]
 690 023e 0B46     		mov	r3, r1
 691 0240 5B00     		lsls	r3, r3, #1
 692 0242 0B44     		add	r3, r3, r1
 693 0244 9B00     		lsls	r3, r3, #2
 694 0246 1344     		add	r3, r3, r2
 695 0248 0833     		adds	r3, r3, #8
 696 024a 1B68     		ldr	r3, [r3]
 697 024c 9842     		cmp	r0, r3
 698 024e 09DA     		bge	.L16
 115:pathfinding.c ****                 idx = i; // find the shortest distance location 
 699              		.loc 1 115 0
 700 0250 07F5B453 		add	r3, r7, #5760
 701 0254 03F11803 		add	r3, r3, #24
 702 0258 1B68     		ldr	r3, [r3]
 703 025a 07F5B452 		add	r2, r7, #5760
 704 025e 02F11C02 		add	r2, r2, #28
 705 0262 1360     		str	r3, [r2]
 706              	.L16:
 113:pathfinding.c ****         for (int i = 1; i < pqSize; i++) {
 707              		.loc 1 113 0 discriminator 2
 708 0264 07F5B453 		add	r3, r7, #5760
 709 0268 03F11803 		add	r3, r3, #24
 710 026c 1B68     		ldr	r3, [r3]
 711 026e 0133     		adds	r3, r3, #1
 712 0270 07F5B452 		add	r2, r7, #5760
 713 0274 02F11802 		add	r2, r2, #24
 714 0278 1360     		str	r3, [r2]
 715              	.L15:
 113:pathfinding.c ****         for (int i = 1; i < pqSize; i++) {
 716              		.loc 1 113 0 is_stmt 0 discriminator 1
 717 027a 07F5B453 		add	r3, r7, #5760
 718 027e 03F11803 		add	r3, r3, #24
 719 0282 1A68     		ldr	r2, [r3]
 720 0284 07F5B553 		add	r3, r7, #5792
 721 0288 03F10C03 		add	r3, r3, #12
 722 028c 1B68     		ldr	r3, [r3]
 723 028e 9A42     		cmp	r2, r3
 724 0290 BEDB     		blt	.L17
 725              	.LBE7:
 116:pathfinding.c ****             }
 117:pathfinding.c ****         }
 118:pathfinding.c ****         struct PriorityQueue current = pq[idx]; // record current location
 726              		.loc 1 118 0 is_stmt 1
 727 0292 07F11801 		add	r1, r7, #24
ARM GAS  C:\Users\ikui753\AppData\Local\Temp\cckqKceo.s 			page 16


 728 0296 0439     		subs	r1, r1, #4
 729 0298 07F59362 		add	r2, r7, #1176
 730 029c 043A     		subs	r2, r2, #4
 731 029e 07F5B453 		add	r3, r7, #5760
 732 02a2 03F11C03 		add	r3, r3, #28
 733 02a6 1868     		ldr	r0, [r3]
 734 02a8 0346     		mov	r3, r0
 735 02aa 5B00     		lsls	r3, r3, #1
 736 02ac 0344     		add	r3, r3, r0
 737 02ae 9B00     		lsls	r3, r3, #2
 738 02b0 1A44     		add	r2, r2, r3
 739 02b2 0B46     		mov	r3, r1
 740 02b4 07CA     		ldmia	r2, {r0, r1, r2}
 741 02b6 83E80700 		stmia	r3, {r0, r1, r2}
 119:pathfinding.c ****         pq[idx] = pq[pqSize - 1];
 742              		.loc 1 119 0
 743 02ba 07F5B553 		add	r3, r7, #5792
 744 02be 03F10C03 		add	r3, r3, #12
 745 02c2 1B68     		ldr	r3, [r3]
 746 02c4 591E     		subs	r1, r3, #1
 747 02c6 07F59362 		add	r2, r7, #1176
 748 02ca 043A     		subs	r2, r2, #4
 749 02cc 07F5B453 		add	r3, r7, #5760
 750 02d0 03F11C03 		add	r3, r3, #28
 751 02d4 1868     		ldr	r0, [r3]
 752 02d6 0346     		mov	r3, r0
 753 02d8 5B00     		lsls	r3, r3, #1
 754 02da 0344     		add	r3, r3, r0
 755 02dc 9B00     		lsls	r3, r3, #2
 756 02de D018     		adds	r0, r2, r3
 757 02e0 07F59362 		add	r2, r7, #1176
 758 02e4 043A     		subs	r2, r2, #4
 759 02e6 0B46     		mov	r3, r1
 760 02e8 5B00     		lsls	r3, r3, #1
 761 02ea 0B44     		add	r3, r3, r1
 762 02ec 9B00     		lsls	r3, r3, #2
 763 02ee 1A44     		add	r2, r2, r3
 764 02f0 0346     		mov	r3, r0
 765 02f2 07CA     		ldmia	r2, {r0, r1, r2}
 766 02f4 83E80700 		stmia	r3, {r0, r1, r2}
 120:pathfinding.c ****         pqSize--; // decrement pqSize
 767              		.loc 1 120 0
 768 02f8 07F5B553 		add	r3, r7, #5792
 769 02fc 03F10C03 		add	r3, r3, #12
 770 0300 1B68     		ldr	r3, [r3]
 771 0302 013B     		subs	r3, r3, #1
 772 0304 07F5B552 		add	r2, r7, #5792
 773 0308 02F10C02 		add	r2, r2, #12
 774 030c 1360     		str	r3, [r2]
 121:pathfinding.c **** 
 122:pathfinding.c ****         int row = current.location.row;
 775              		.loc 1 122 0
 776 030e 07F11803 		add	r3, r7, #24
 777 0312 043B     		subs	r3, r3, #4
 778 0314 1B68     		ldr	r3, [r3]
 779 0316 07F5B452 		add	r2, r7, #5760
 780 031a 1360     		str	r3, [r2]
ARM GAS  C:\Users\ikui753\AppData\Local\Temp\cckqKceo.s 			page 17


 123:pathfinding.c ****         int col = current.location.col; // get current location details
 781              		.loc 1 123 0
 782 031c 07F11803 		add	r3, r7, #24
 783 0320 043B     		subs	r3, r3, #4
 784 0322 5B68     		ldr	r3, [r3, #4]
 785 0324 07F5B352 		add	r2, r7, #5728
 786 0328 02F11C02 		add	r2, r2, #28
 787 032c 1360     		str	r3, [r2]
 124:pathfinding.c **** 
 125:pathfinding.c ****         if (visitedMap[row][col] == 1) {
 788              		.loc 1 125 0
 789 032e 07F58F51 		add	r1, r7, #4576
 790 0332 01F11001 		add	r1, r1, #16
 791 0336 07F5B453 		add	r3, r7, #5760
 792 033a 1A68     		ldr	r2, [r3]
 793 033c 1346     		mov	r3, r2
 794 033e DB00     		lsls	r3, r3, #3
 795 0340 1344     		add	r3, r3, r2
 796 0342 5B00     		lsls	r3, r3, #1
 797 0344 1344     		add	r3, r3, r2
 798 0346 07F5B352 		add	r2, r7, #5728
 799 034a 02F11C02 		add	r2, r2, #28
 800 034e 1268     		ldr	r2, [r2]
 801 0350 1344     		add	r3, r3, r2
 802 0352 51F82330 		ldr	r3, [r1, r3, lsl #2]
 803 0356 012B     		cmp	r3, #1
 804 0358 40F03781 		bne	.L14
 126:pathfinding.c ****             visitedMap[row][col] = 0; // mark as visited if unvisited
 805              		.loc 1 126 0
 806 035c 07F58F51 		add	r1, r7, #4576
 807 0360 01F11001 		add	r1, r1, #16
 808 0364 07F5B453 		add	r3, r7, #5760
 809 0368 1A68     		ldr	r2, [r3]
 810 036a 1346     		mov	r3, r2
 811 036c DB00     		lsls	r3, r3, #3
 812 036e 1344     		add	r3, r3, r2
 813 0370 5B00     		lsls	r3, r3, #1
 814 0372 1344     		add	r3, r3, r2
 815 0374 07F5B352 		add	r2, r7, #5728
 816 0378 02F11C02 		add	r2, r2, #28
 817 037c 1268     		ldr	r2, [r2]
 818 037e 1344     		add	r3, r3, r2
 819 0380 0022     		movs	r2, #0
 820 0382 41F82320 		str	r2, [r1, r3, lsl #2]
 127:pathfinding.c **** 
 128:pathfinding.c ****             if (row == targetlocation.row && col == targetlocation.col) {
 821              		.loc 1 128 0
 822 0386 07F5B653 		add	r3, r7, #5824
 823 038a 03F10C03 		add	r3, r3, #12
 824 038e 1A68     		ldr	r2, [r3]
 825 0390 07F5B453 		add	r3, r7, #5760
 826 0394 1B68     		ldr	r3, [r3]
 827 0396 9A42     		cmp	r2, r3
 828 0398 0CD1     		bne	.L19
 829              		.loc 1 128 0 is_stmt 0 discriminator 1
 830 039a 07F5B653 		add	r3, r7, #5824
 831 039e 03F11003 		add	r3, r3, #16
ARM GAS  C:\Users\ikui753\AppData\Local\Temp\cckqKceo.s 			page 18


 832 03a2 1A68     		ldr	r2, [r3]
 833 03a4 07F5B353 		add	r3, r7, #5728
 834 03a8 03F11C03 		add	r3, r3, #28
 835 03ac 1B68     		ldr	r3, [r3]
 836 03ae 9A42     		cmp	r2, r3
 837 03b0 00F01481 		beq	.L30
 838              	.L19:
 839              	.LBB8:
 129:pathfinding.c ****                 break; // if reached target destination, end
 130:pathfinding.c ****             }
 131:pathfinding.c ****             // make a move, check if valid
 132:pathfinding.c ****             for (int i = 0; i < sizeof(moves) / sizeof(moves[0]); i++) {
 840              		.loc 1 132 0 is_stmt 1
 841 03b4 0023     		movs	r3, #0
 842 03b6 07F5B452 		add	r2, r7, #5760
 843 03ba 02F11402 		add	r2, r2, #20
 844 03be 1360     		str	r3, [r2]
 845 03c0 FBE0     		b	.L21
 846              	.L23:
 847              	.LBB9:
 133:pathfinding.c ****                 int newRow = row + moves[i].row;
 848              		.loc 1 133 0
 849 03c2 C94A     		ldr	r2, .L31
 850 03c4 07F5B453 		add	r3, r7, #5760
 851 03c8 03F11403 		add	r3, r3, #20
 852 03cc 1B68     		ldr	r3, [r3]
 853 03ce 52F83320 		ldr	r2, [r2, r3, lsl #3]
 854 03d2 07F5B453 		add	r3, r7, #5760
 855 03d6 1B68     		ldr	r3, [r3]
 856 03d8 1344     		add	r3, r3, r2
 857 03da 07F5B352 		add	r2, r7, #5728
 858 03de 02F11802 		add	r2, r2, #24
 859 03e2 1360     		str	r3, [r2]
 134:pathfinding.c ****                 int newCol = col + moves[i].col;
 860              		.loc 1 134 0
 861 03e4 C04A     		ldr	r2, .L31
 862 03e6 07F5B453 		add	r3, r7, #5760
 863 03ea 03F11403 		add	r3, r3, #20
 864 03ee 1B68     		ldr	r3, [r3]
 865 03f0 DB00     		lsls	r3, r3, #3
 866 03f2 1344     		add	r3, r3, r2
 867 03f4 5A68     		ldr	r2, [r3, #4]
 868 03f6 07F5B353 		add	r3, r7, #5728
 869 03fa 03F11C03 		add	r3, r3, #28
 870 03fe 1B68     		ldr	r3, [r3]
 871 0400 1344     		add	r3, r3, r2
 872 0402 07F5B352 		add	r2, r7, #5728
 873 0406 02F11402 		add	r2, r2, #20
 874 040a 1360     		str	r3, [r2]
 135:pathfinding.c **** 
 136:pathfinding.c ****                 if (isValidMove(newRow, newCol, MAX_ROWS, MAX_COLS, map) && visitedMap[newRow][newC
 875              		.loc 1 136 0
 876 040c 07F11803 		add	r3, r7, #24
 877 0410 0C3B     		subs	r3, r3, #12
 878 0412 1B68     		ldr	r3, [r3]
 879 0414 0093     		str	r3, [sp]
 880 0416 1323     		movs	r3, #19
ARM GAS  C:\Users\ikui753\AppData\Local\Temp\cckqKceo.s 			page 19


 881 0418 0F22     		movs	r2, #15
 882 041a 07F5B351 		add	r1, r7, #5728
 883 041e 01F11401 		add	r1, r1, #20
 884 0422 0968     		ldr	r1, [r1]
 885 0424 07F5B350 		add	r0, r7, #5728
 886 0428 00F11800 		add	r0, r0, #24
 887 042c 0068     		ldr	r0, [r0]
 888 042e FFF7FEFF 		bl	isValidMove
 889 0432 0346     		mov	r3, r0
 890 0434 002B     		cmp	r3, #0
 891 0436 00F0B580 		beq	.L22
 892              		.loc 1 136 0 is_stmt 0 discriminator 1
 893 043a 07F58F51 		add	r1, r7, #4576
 894 043e 01F11001 		add	r1, r1, #16
 895 0442 07F5B353 		add	r3, r7, #5728
 896 0446 03F11803 		add	r3, r3, #24
 897 044a 1A68     		ldr	r2, [r3]
 898 044c 1346     		mov	r3, r2
 899 044e DB00     		lsls	r3, r3, #3
 900 0450 1344     		add	r3, r3, r2
 901 0452 5B00     		lsls	r3, r3, #1
 902 0454 1344     		add	r3, r3, r2
 903 0456 07F5B352 		add	r2, r7, #5728
 904 045a 02F11402 		add	r2, r2, #20
 905 045e 1268     		ldr	r2, [r2]
 906 0460 1344     		add	r3, r3, r2
 907 0462 51F82330 		ldr	r3, [r1, r3, lsl #2]
 908 0466 012B     		cmp	r3, #1
 909 0468 40F09C80 		bne	.L22
 910              	.LBB10:
 137:pathfinding.c ****                     int newDistance = distances[row][col] + 1;
 911              		.loc 1 137 0 is_stmt 1
 912 046c 07F13802 		add	r2, r7, #56
 913 0470 183A     		subs	r2, r2, #24
 914 0472 07F5B453 		add	r3, r7, #5760
 915 0476 1968     		ldr	r1, [r3]
 916 0478 0B46     		mov	r3, r1
 917 047a DB00     		lsls	r3, r3, #3
 918 047c 0B44     		add	r3, r3, r1
 919 047e 5B00     		lsls	r3, r3, #1
 920 0480 0B44     		add	r3, r3, r1
 921 0482 07F5B351 		add	r1, r7, #5728
 922 0486 01F11C01 		add	r1, r1, #28
 923 048a 0968     		ldr	r1, [r1]
 924 048c 0B44     		add	r3, r3, r1
 925 048e 52F82330 		ldr	r3, [r2, r3, lsl #2]
 926 0492 0133     		adds	r3, r3, #1
 927 0494 07F5B352 		add	r2, r7, #5728
 928 0498 02F11002 		add	r2, r2, #16
 929 049c 1360     		str	r3, [r2]
 138:pathfinding.c ****                     // take the shortest distance between new and existing
 139:pathfinding.c ****                     if (newDistance < distances[newRow][newCol]) {
 930              		.loc 1 139 0
 931 049e 07F13802 		add	r2, r7, #56
 932 04a2 183A     		subs	r2, r2, #24
 933 04a4 07F5B353 		add	r3, r7, #5728
 934 04a8 03F11803 		add	r3, r3, #24
ARM GAS  C:\Users\ikui753\AppData\Local\Temp\cckqKceo.s 			page 20


 935 04ac 1968     		ldr	r1, [r3]
 936 04ae 0B46     		mov	r3, r1
 937 04b0 DB00     		lsls	r3, r3, #3
 938 04b2 0B44     		add	r3, r3, r1
 939 04b4 5B00     		lsls	r3, r3, #1
 940 04b6 0B44     		add	r3, r3, r1
 941 04b8 07F5B351 		add	r1, r7, #5728
 942 04bc 01F11401 		add	r1, r1, #20
 943 04c0 0968     		ldr	r1, [r1]
 944 04c2 0B44     		add	r3, r3, r1
 945 04c4 52F82320 		ldr	r2, [r2, r3, lsl #2]
 946 04c8 07F5B353 		add	r3, r7, #5728
 947 04cc 03F11003 		add	r3, r3, #16
 948 04d0 1B68     		ldr	r3, [r3]
 949 04d2 9A42     		cmp	r2, r3
 950 04d4 66DD     		ble	.L22
 140:pathfinding.c ****                         distances[newRow][newCol] = newDistance; // take new distance if less than 
 951              		.loc 1 140 0
 952 04d6 07F13802 		add	r2, r7, #56
 953 04da 183A     		subs	r2, r2, #24
 954 04dc 07F5B353 		add	r3, r7, #5728
 955 04e0 03F11803 		add	r3, r3, #24
 956 04e4 1968     		ldr	r1, [r3]
 957 04e6 0B46     		mov	r3, r1
 958 04e8 DB00     		lsls	r3, r3, #3
 959 04ea 0B44     		add	r3, r3, r1
 960 04ec 5B00     		lsls	r3, r3, #1
 961 04ee 0B44     		add	r3, r3, r1
 962 04f0 07F5B351 		add	r1, r7, #5728
 963 04f4 01F11401 		add	r1, r1, #20
 964 04f8 0968     		ldr	r1, [r1]
 965 04fa 0B44     		add	r3, r3, r1
 966 04fc 07F5B351 		add	r1, r7, #5728
 967 0500 01F11001 		add	r1, r1, #16
 968 0504 0968     		ldr	r1, [r1]
 969 0506 42F82310 		str	r1, [r2, r3, lsl #2]
 141:pathfinding.c ****                         //paths[stepNum] = (struct Location){newRow, newCol}; // add location to pa
 142:pathfinding.c ****                         
 143:pathfinding.c ****                         pq[pqSize].location.row = newRow; // update location
 970              		.loc 1 143 0
 971 050a 07F59362 		add	r2, r7, #1176
 972 050e 043A     		subs	r2, r2, #4
 973 0510 07F5B553 		add	r3, r7, #5792
 974 0514 03F10C03 		add	r3, r3, #12
 975 0518 1968     		ldr	r1, [r3]
 976 051a 0B46     		mov	r3, r1
 977 051c 5B00     		lsls	r3, r3, #1
 978 051e 0B44     		add	r3, r3, r1
 979 0520 9B00     		lsls	r3, r3, #2
 980 0522 1344     		add	r3, r3, r2
 981 0524 07F5B352 		add	r2, r7, #5728
 982 0528 02F11802 		add	r2, r2, #24
 983 052c 1268     		ldr	r2, [r2]
 984 052e 1A60     		str	r2, [r3]
 144:pathfinding.c ****                         pq[pqSize].location.col = newCol; // update location
 985              		.loc 1 144 0
 986 0530 07F59362 		add	r2, r7, #1176
ARM GAS  C:\Users\ikui753\AppData\Local\Temp\cckqKceo.s 			page 21


 987 0534 043A     		subs	r2, r2, #4
 988 0536 07F5B553 		add	r3, r7, #5792
 989 053a 03F10C03 		add	r3, r3, #12
 990 053e 1968     		ldr	r1, [r3]
 991 0540 0B46     		mov	r3, r1
 992 0542 5B00     		lsls	r3, r3, #1
 993 0544 0B44     		add	r3, r3, r1
 994 0546 9B00     		lsls	r3, r3, #2
 995 0548 1344     		add	r3, r3, r2
 996 054a 0433     		adds	r3, r3, #4
 997 054c 07F5B352 		add	r2, r7, #5728
 998 0550 02F11402 		add	r2, r2, #20
 999 0554 1268     		ldr	r2, [r2]
 1000 0556 1A60     		str	r2, [r3]
 145:pathfinding.c ****                         pq[pqSize].distance = newDistance; // update distance
 1001              		.loc 1 145 0
 1002 0558 07F59362 		add	r2, r7, #1176
 1003 055c 043A     		subs	r2, r2, #4
 1004 055e 07F5B553 		add	r3, r7, #5792
 1005 0562 03F10C03 		add	r3, r3, #12
 1006 0566 1968     		ldr	r1, [r3]
 1007 0568 0B46     		mov	r3, r1
 1008 056a 5B00     		lsls	r3, r3, #1
 1009 056c 0B44     		add	r3, r3, r1
 1010 056e 9B00     		lsls	r3, r3, #2
 1011 0570 1344     		add	r3, r3, r2
 1012 0572 0833     		adds	r3, r3, #8
 1013 0574 07F5B352 		add	r2, r7, #5728
 1014 0578 02F11002 		add	r2, r2, #16
 1015 057c 1268     		ldr	r2, [r2]
 1016 057e 1A60     		str	r2, [r3]
 146:pathfinding.c ****                         
 147:pathfinding.c ****                         stepNum++;
 1017              		.loc 1 147 0
 1018 0580 07F5B553 		add	r3, r7, #5792
 1019 0584 1B68     		ldr	r3, [r3]
 1020 0586 0133     		adds	r3, r3, #1
 1021 0588 07F5B552 		add	r2, r7, #5792
 1022 058c 1360     		str	r3, [r2]
 148:pathfinding.c ****                         pqSize++;
 1023              		.loc 1 148 0
 1024 058e 07F5B553 		add	r3, r7, #5792
 1025 0592 03F10C03 		add	r3, r3, #12
 1026 0596 1B68     		ldr	r3, [r3]
 1027 0598 0133     		adds	r3, r3, #1
 1028 059a 07F5B552 		add	r2, r7, #5792
 1029 059e 02F10C02 		add	r2, r2, #12
 1030 05a2 1360     		str	r3, [r2]
 1031              	.L22:
 1032              	.LBE10:
 1033              	.LBE9:
 132:pathfinding.c ****                 int newRow = row + moves[i].row;
 1034              		.loc 1 132 0 discriminator 2
 1035 05a4 07F5B453 		add	r3, r7, #5760
 1036 05a8 03F11403 		add	r3, r3, #20
 1037 05ac 1B68     		ldr	r3, [r3]
 1038 05ae 0133     		adds	r3, r3, #1
ARM GAS  C:\Users\ikui753\AppData\Local\Temp\cckqKceo.s 			page 22


 1039 05b0 07F5B452 		add	r2, r7, #5760
 1040 05b4 02F11402 		add	r2, r2, #20
 1041 05b8 1360     		str	r3, [r2]
 1042              	.L21:
 132:pathfinding.c ****                 int newRow = row + moves[i].row;
 1043              		.loc 1 132 0 is_stmt 0 discriminator 1
 1044 05ba 07F5B453 		add	r3, r7, #5760
 1045 05be 03F11403 		add	r3, r3, #20
 1046 05c2 1B68     		ldr	r3, [r3]
 1047 05c4 032B     		cmp	r3, #3
 1048 05c6 7FF6FCAE 		bls	.L23
 1049              	.L14:
 1050              	.LBE8:
 1051              	.LBE6:
 111:pathfinding.c ****         int idx = 0;
 1052              		.loc 1 111 0 is_stmt 1
 1053 05ca 07F5B553 		add	r3, r7, #5792
 1054 05ce 03F10C03 		add	r3, r3, #12
 1055 05d2 1B68     		ldr	r3, [r3]
 1056 05d4 002B     		cmp	r3, #0
 1057 05d6 3FF70EAE 		bgt	.L24
 1058 05da 00E0     		b	.L20
 1059              	.L30:
 1060              	.LBB11:
 129:pathfinding.c ****             }
 1061              		.loc 1 129 0
 1062 05dc 00BF     		nop
 1063              	.L20:
 1064              	.LBE11:
 149:pathfinding.c ****                     }
 150:pathfinding.c ****                 }
 151:pathfinding.c ****             }
 152:pathfinding.c ****         }
 153:pathfinding.c ****     }
 154:pathfinding.c **** 
 155:pathfinding.c ****     // PATH RECONSTRUCTION
 156:pathfinding.c ****     // initialise maximum distance- will be decremented
 157:pathfinding.c ****     int shortestDist = distances[targetlocation.row][targetlocation.col];
 1065              		.loc 1 157 0
 1066 05de 07F5B653 		add	r3, r7, #5824
 1067 05e2 03F10C03 		add	r3, r3, #12
 1068 05e6 1968     		ldr	r1, [r3]
 1069 05e8 07F5B653 		add	r3, r7, #5824
 1070 05ec 03F11003 		add	r3, r3, #16
 1071 05f0 1868     		ldr	r0, [r3]
 1072 05f2 07F13802 		add	r2, r7, #56
 1073 05f6 183A     		subs	r2, r2, #24
 1074 05f8 0B46     		mov	r3, r1
 1075 05fa DB00     		lsls	r3, r3, #3
 1076 05fc 0B44     		add	r3, r3, r1
 1077 05fe 5B00     		lsls	r3, r3, #1
 1078 0600 0B44     		add	r3, r3, r1
 1079 0602 0344     		add	r3, r3, r0
 1080 0604 52F82330 		ldr	r3, [r2, r3, lsl #2]
 1081 0608 07F5B452 		add	r2, r7, #5760
 1082 060c 02F11002 		add	r2, r2, #16
 1083 0610 1360     		str	r3, [r2]
ARM GAS  C:\Users\ikui753\AppData\Local\Temp\cckqKceo.s 			page 23


 158:pathfinding.c ****     // retsteps can be generated from here
 159:pathfinding.c ****     struct Location *retSteps = malloc(sizeof(struct Location) * shortestDist); // store every step
 1084              		.loc 1 159 0
 1085 0612 07F5B453 		add	r3, r7, #5760
 1086 0616 03F11003 		add	r3, r3, #16
 1087 061a 1B68     		ldr	r3, [r3]
 1088 061c DB00     		lsls	r3, r3, #3
 1089 061e 1846     		mov	r0, r3
 1090 0620 FFF7FEFF 		bl	malloc
 1091 0624 0346     		mov	r3, r0
 1092 0626 07F5B352 		add	r2, r7, #5728
 1093 062a 02F10C02 		add	r2, r2, #12
 1094 062e 1360     		str	r3, [r2]
 160:pathfinding.c ****     int currentRow = targetlocation.row;
 1095              		.loc 1 160 0
 1096 0630 07F5B653 		add	r3, r7, #5824
 1097 0634 03F10C03 		add	r3, r3, #12
 1098 0638 1B68     		ldr	r3, [r3]
 1099 063a 07F5B452 		add	r2, r7, #5760
 1100 063e 02F10C02 		add	r2, r2, #12
 1101 0642 1360     		str	r3, [r2]
 161:pathfinding.c ****     int currentCol = targetlocation.col;
 1102              		.loc 1 161 0
 1103 0644 07F5B653 		add	r3, r7, #5824
 1104 0648 03F11003 		add	r3, r3, #16
 1105 064c 1B68     		ldr	r3, [r3]
 1106 064e 07F5B452 		add	r2, r7, #5760
 1107 0652 02F10802 		add	r2, r2, #8
 1108 0656 1360     		str	r3, [r2]
 162:pathfinding.c ****     retSteps[shortestDist-1].row = currentRow; 
 1109              		.loc 1 162 0
 1110 0658 07F5B453 		add	r3, r7, #5760
 1111 065c 03F11003 		add	r3, r3, #16
 1112 0660 1B68     		ldr	r3, [r3]
 1113 0662 03F10053 		add	r3, r3, #536870912
 1114 0666 013B     		subs	r3, r3, #1
 1115 0668 DB00     		lsls	r3, r3, #3
 1116 066a 07F5B352 		add	r2, r7, #5728
 1117 066e 02F10C02 		add	r2, r2, #12
 1118 0672 1268     		ldr	r2, [r2]
 1119 0674 1344     		add	r3, r3, r2
 1120 0676 07F5B452 		add	r2, r7, #5760
 1121 067a 02F10C02 		add	r2, r2, #12
 1122 067e 1268     		ldr	r2, [r2]
 1123 0680 1A60     		str	r2, [r3]
 163:pathfinding.c ****     retSteps[shortestDist-1].col = currentCol; // add targetLocation to retSteps
 1124              		.loc 1 163 0
 1125 0682 07F5B453 		add	r3, r7, #5760
 1126 0686 03F11003 		add	r3, r3, #16
 1127 068a 1B68     		ldr	r3, [r3]
 1128 068c 03F10053 		add	r3, r3, #536870912
 1129 0690 013B     		subs	r3, r3, #1
 1130 0692 DB00     		lsls	r3, r3, #3
 1131 0694 07F5B352 		add	r2, r7, #5728
 1132 0698 02F10C02 		add	r2, r2, #12
 1133 069c 1268     		ldr	r2, [r2]
 1134 069e 1344     		add	r3, r3, r2
ARM GAS  C:\Users\ikui753\AppData\Local\Temp\cckqKceo.s 			page 24


 1135 06a0 07F5B452 		add	r2, r7, #5760
 1136 06a4 02F10802 		add	r2, r2, #8
 1137 06a8 1268     		ldr	r2, [r2]
 1138 06aa 5A60     		str	r2, [r3, #4]
 164:pathfinding.c ****     //printf("retSteps[%d]: %d,%d\n", shortestDist-1, currentRow, currentCol);
 165:pathfinding.c ****     map[currentRow][currentCol] = 9; // mark finish location
 1139              		.loc 1 165 0
 1140 06ac 07F5B453 		add	r3, r7, #5760
 1141 06b0 03F10C03 		add	r3, r3, #12
 1142 06b4 1B68     		ldr	r3, [r3]
 1143 06b6 4C22     		movs	r2, #76
 1144 06b8 02FB03F2 		mul	r2, r2, r3
 1145 06bc 07F11803 		add	r3, r7, #24
 1146 06c0 0C3B     		subs	r3, r3, #12
 1147 06c2 1B68     		ldr	r3, [r3]
 1148 06c4 1344     		add	r3, r3, r2
 1149 06c6 07F5B452 		add	r2, r7, #5760
 1150 06ca 02F10802 		add	r2, r2, #8
 1151 06ce 1268     		ldr	r2, [r2]
 1152 06d0 0921     		movs	r1, #9
 1153 06d2 43F82210 		str	r1, [r3, r2, lsl #2]
 166:pathfinding.c ****     //printf("%d,%d\n", currentRow, currentCol); // print optimal step
 167:pathfinding.c ****     // reconstruct path by reversing paths array and taking shortest distance
 168:pathfinding.c ****     while(shortestDist > 0) {    
 1154              		.loc 1 168 0
 1155 06d6 FCE0     		b	.L25
 1156              	.L29:
 1157              	.LBB12:
 169:pathfinding.c ****         // make a move, check if valid and is the next step in path
 170:pathfinding.c ****         for (int i = 0; i < sizeof(moves) / sizeof(moves[0]); i++) {
 1158              		.loc 1 170 0
 1159 06d8 0023     		movs	r3, #0
 1160 06da 07F5B452 		add	r2, r7, #5760
 1161 06de 02F10402 		add	r2, r2, #4
 1162 06e2 1360     		str	r3, [r2]
 1163 06e4 EDE0     		b	.L26
 1164              	.L32:
 1165 06e6 00BF     		.align	2
 1166              	.L31:
 1167 06e8 00000000 		.word	moves
 1168              	.L28:
 1169              	.LBB13:
 171:pathfinding.c ****             int newRow = currentRow + moves[i].row;
 1170              		.loc 1 171 0
 1171 06ec 814A     		ldr	r2, .L33
 1172 06ee 07F5B453 		add	r3, r7, #5760
 1173 06f2 03F10403 		add	r3, r3, #4
 1174 06f6 1B68     		ldr	r3, [r3]
 1175 06f8 52F83320 		ldr	r2, [r2, r3, lsl #3]
 1176 06fc 07F5B453 		add	r3, r7, #5760
 1177 0700 03F10C03 		add	r3, r3, #12
 1178 0704 1B68     		ldr	r3, [r3]
 1179 0706 1344     		add	r3, r3, r2
 1180 0708 07F5B352 		add	r2, r7, #5728
 1181 070c 02F10802 		add	r2, r2, #8
 1182 0710 1360     		str	r3, [r2]
 172:pathfinding.c ****             int newCol = currentCol + moves[i].col;
ARM GAS  C:\Users\ikui753\AppData\Local\Temp\cckqKceo.s 			page 25


 1183              		.loc 1 172 0
 1184 0712 784A     		ldr	r2, .L33
 1185 0714 07F5B453 		add	r3, r7, #5760
 1186 0718 03F10403 		add	r3, r3, #4
 1187 071c 1B68     		ldr	r3, [r3]
 1188 071e DB00     		lsls	r3, r3, #3
 1189 0720 1344     		add	r3, r3, r2
 1190 0722 5A68     		ldr	r2, [r3, #4]
 1191 0724 07F5B453 		add	r3, r7, #5760
 1192 0728 03F10803 		add	r3, r3, #8
 1193 072c 1B68     		ldr	r3, [r3]
 1194 072e 1344     		add	r3, r3, r2
 1195 0730 07F5B352 		add	r2, r7, #5728
 1196 0734 02F10402 		add	r2, r2, #4
 1197 0738 1360     		str	r3, [r2]
 173:pathfinding.c **** 
 174:pathfinding.c ****             if (isValidMove(newRow, newCol, MAX_ROWS, MAX_COLS, map) && distances[newRow][newCol] =
 1198              		.loc 1 174 0
 1199 073a 07F11803 		add	r3, r7, #24
 1200 073e 0C3B     		subs	r3, r3, #12
 1201 0740 1B68     		ldr	r3, [r3]
 1202 0742 0093     		str	r3, [sp]
 1203 0744 1323     		movs	r3, #19
 1204 0746 0F22     		movs	r2, #15
 1205 0748 07F5B351 		add	r1, r7, #5728
 1206 074c 01F10401 		add	r1, r1, #4
 1207 0750 0968     		ldr	r1, [r1]
 1208 0752 07F5B350 		add	r0, r7, #5728
 1209 0756 00F10800 		add	r0, r0, #8
 1210 075a 0068     		ldr	r0, [r0]
 1211 075c FFF7FEFF 		bl	isValidMove
 1212 0760 0346     		mov	r3, r0
 1213 0762 002B     		cmp	r3, #0
 1214 0764 00F0A280 		beq	.L27
 1215              		.loc 1 174 0 is_stmt 0 discriminator 1
 1216 0768 07F13802 		add	r2, r7, #56
 1217 076c 183A     		subs	r2, r2, #24
 1218 076e 07F5B353 		add	r3, r7, #5728
 1219 0772 03F10803 		add	r3, r3, #8
 1220 0776 1968     		ldr	r1, [r3]
 1221 0778 0B46     		mov	r3, r1
 1222 077a DB00     		lsls	r3, r3, #3
 1223 077c 0B44     		add	r3, r3, r1
 1224 077e 5B00     		lsls	r3, r3, #1
 1225 0780 0B44     		add	r3, r3, r1
 1226 0782 07F5B351 		add	r1, r7, #5728
 1227 0786 01F10401 		add	r1, r1, #4
 1228 078a 0968     		ldr	r1, [r1]
 1229 078c 0B44     		add	r3, r3, r1
 1230 078e 52F82320 		ldr	r2, [r2, r3, lsl #2]
 1231 0792 07F5B453 		add	r3, r7, #5760
 1232 0796 03F11003 		add	r3, r3, #16
 1233 079a 1B68     		ldr	r3, [r3]
 1234 079c 013B     		subs	r3, r3, #1
 1235 079e 9A42     		cmp	r2, r3
 1236 07a0 40F08480 		bne	.L27
 175:pathfinding.c ****                 map[newRow][newCol] = 8; // mark optimal step
ARM GAS  C:\Users\ikui753\AppData\Local\Temp\cckqKceo.s 			page 26


 1237              		.loc 1 175 0 is_stmt 1
 1238 07a4 07F5B353 		add	r3, r7, #5728
 1239 07a8 03F10803 		add	r3, r3, #8
 1240 07ac 1B68     		ldr	r3, [r3]
 1241 07ae 4C22     		movs	r2, #76
 1242 07b0 02FB03F2 		mul	r2, r2, r3
 1243 07b4 07F11803 		add	r3, r7, #24
 1244 07b8 0C3B     		subs	r3, r3, #12
 1245 07ba 1B68     		ldr	r3, [r3]
 1246 07bc 1344     		add	r3, r3, r2
 1247 07be 07F5B352 		add	r2, r7, #5728
 1248 07c2 02F10402 		add	r2, r2, #4
 1249 07c6 1268     		ldr	r2, [r2]
 1250 07c8 0821     		movs	r1, #8
 1251 07ca 43F82210 		str	r1, [r3, r2, lsl #2]
 176:pathfinding.c ****                 shortestDist--; // decrement distance
 1252              		.loc 1 176 0
 1253 07ce 07F5B453 		add	r3, r7, #5760
 1254 07d2 03F11003 		add	r3, r3, #16
 1255 07d6 1B68     		ldr	r3, [r3]
 1256 07d8 013B     		subs	r3, r3, #1
 1257 07da 07F5B452 		add	r2, r7, #5760
 1258 07de 02F11002 		add	r2, r2, #16
 1259 07e2 1360     		str	r3, [r2]
 177:pathfinding.c ****                 currentRow = newRow; 
 1260              		.loc 1 177 0
 1261 07e4 07F5B353 		add	r3, r7, #5728
 1262 07e8 03F10803 		add	r3, r3, #8
 1263 07ec 1B68     		ldr	r3, [r3]
 1264 07ee 07F5B452 		add	r2, r7, #5760
 1265 07f2 02F10C02 		add	r2, r2, #12
 1266 07f6 1360     		str	r3, [r2]
 178:pathfinding.c ****                 currentCol = newCol; // change current location
 1267              		.loc 1 178 0
 1268 07f8 07F5B353 		add	r3, r7, #5728
 1269 07fc 03F10403 		add	r3, r3, #4
 1270 0800 1B68     		ldr	r3, [r3]
 1271 0802 07F5B452 		add	r2, r7, #5760
 1272 0806 02F10802 		add	r2, r2, #8
 1273 080a 1360     		str	r3, [r2]
 179:pathfinding.c ****                 //printf("retSteps[%d]: %d,%d\n", shortestDist,currentRow,currentCol); // print vis
 180:pathfinding.c ****                 retSteps[shortestDist].row = currentRow; 
 1274              		.loc 1 180 0
 1275 080c 07F5B453 		add	r3, r7, #5760
 1276 0810 03F11003 		add	r3, r3, #16
 1277 0814 1B68     		ldr	r3, [r3]
 1278 0816 DB00     		lsls	r3, r3, #3
 1279 0818 07F5B352 		add	r2, r7, #5728
 1280 081c 02F10C02 		add	r2, r2, #12
 1281 0820 1268     		ldr	r2, [r2]
 1282 0822 1344     		add	r3, r3, r2
 1283 0824 07F5B452 		add	r2, r7, #5760
 1284 0828 02F10C02 		add	r2, r2, #12
 1285 082c 1268     		ldr	r2, [r2]
 1286 082e 1A60     		str	r2, [r3]
 181:pathfinding.c ****                 retSteps[shortestDist].col = currentCol; // add currentRow and currentCol to retste
 1287              		.loc 1 181 0
ARM GAS  C:\Users\ikui753\AppData\Local\Temp\cckqKceo.s 			page 27


 1288 0830 07F5B453 		add	r3, r7, #5760
 1289 0834 03F11003 		add	r3, r3, #16
 1290 0838 1B68     		ldr	r3, [r3]
 1291 083a DB00     		lsls	r3, r3, #3
 1292 083c 07F5B352 		add	r2, r7, #5728
 1293 0840 02F10C02 		add	r2, r2, #12
 1294 0844 1268     		ldr	r2, [r2]
 1295 0846 1344     		add	r3, r3, r2
 1296 0848 07F5B452 		add	r2, r7, #5760
 1297 084c 02F10802 		add	r2, r2, #8
 1298 0850 1268     		ldr	r2, [r2]
 1299 0852 5A60     		str	r2, [r3, #4]
 182:pathfinding.c ****                 if(currentRow == startlocation.row && currentCol == startlocation.col) {
 1300              		.loc 1 182 0
 1301 0854 07F11803 		add	r3, r7, #24
 1302 0858 143B     		subs	r3, r3, #20
 1303 085a 1A68     		ldr	r2, [r3]
 1304 085c 07F5B453 		add	r3, r7, #5760
 1305 0860 03F10C03 		add	r3, r3, #12
 1306 0864 1B68     		ldr	r3, [r3]
 1307 0866 9A42     		cmp	r2, r3
 1308 0868 20D1     		bne	.L27
 1309              		.loc 1 182 0 is_stmt 0 discriminator 1
 1310 086a 07F11803 		add	r3, r7, #24
 1311 086e 143B     		subs	r3, r3, #20
 1312 0870 5A68     		ldr	r2, [r3, #4]
 1313 0872 07F5B453 		add	r3, r7, #5760
 1314 0876 03F10803 		add	r3, r3, #8
 1315 087a 1B68     		ldr	r3, [r3]
 1316 087c 9A42     		cmp	r2, r3
 1317 087e 15D1     		bne	.L27
 183:pathfinding.c ****                     map[currentRow][currentCol] = 2; // mark start location
 1318              		.loc 1 183 0 is_stmt 1
 1319 0880 07F5B453 		add	r3, r7, #5760
 1320 0884 03F10C03 		add	r3, r3, #12
 1321 0888 1B68     		ldr	r3, [r3]
 1322 088a 4C22     		movs	r2, #76
 1323 088c 02FB03F2 		mul	r2, r2, r3
 1324 0890 07F11803 		add	r3, r7, #24
 1325 0894 0C3B     		subs	r3, r3, #12
 1326 0896 1B68     		ldr	r3, [r3]
 1327 0898 1344     		add	r3, r3, r2
 1328 089a 07F5B452 		add	r2, r7, #5760
 1329 089e 02F10802 		add	r2, r2, #8
 1330 08a2 1268     		ldr	r2, [r2]
 1331 08a4 0221     		movs	r1, #2
 1332 08a6 43F82210 		str	r1, [r3, r2, lsl #2]
 184:pathfinding.c ****                     break;
 1333              		.loc 1 184 0
 1334 08aa 12E0     		b	.L25
 1335              	.L27:
 1336              	.LBE13:
 170:pathfinding.c ****             int newRow = currentRow + moves[i].row;
 1337              		.loc 1 170 0 discriminator 2
 1338 08ac 07F5B453 		add	r3, r7, #5760
 1339 08b0 03F10403 		add	r3, r3, #4
 1340 08b4 1B68     		ldr	r3, [r3]
ARM GAS  C:\Users\ikui753\AppData\Local\Temp\cckqKceo.s 			page 28


 1341 08b6 0133     		adds	r3, r3, #1
 1342 08b8 07F5B452 		add	r2, r7, #5760
 1343 08bc 02F10402 		add	r2, r2, #4
 1344 08c0 1360     		str	r3, [r2]
 1345              	.L26:
 170:pathfinding.c ****             int newRow = currentRow + moves[i].row;
 1346              		.loc 1 170 0 is_stmt 0 discriminator 1
 1347 08c2 07F5B453 		add	r3, r7, #5760
 1348 08c6 03F10403 		add	r3, r3, #4
 1349 08ca 1B68     		ldr	r3, [r3]
 1350 08cc 032B     		cmp	r3, #3
 1351 08ce 7FF60DAF 		bls	.L28
 1352              	.L25:
 1353              	.LBE12:
 168:pathfinding.c ****         // make a move, check if valid and is the next step in path
 1354              		.loc 1 168 0 is_stmt 1
 1355 08d2 07F5B453 		add	r3, r7, #5760
 1356 08d6 03F11003 		add	r3, r3, #16
 1357 08da 1B68     		ldr	r3, [r3]
 1358 08dc 002B     		cmp	r3, #0
 1359 08de 3FF7FBAE 		bgt	.L29
 185:pathfinding.c ****                 }   
 186:pathfinding.c ****             }
 187:pathfinding.c ****         }
 188:pathfinding.c ****     }
 189:pathfinding.c ****     // printMap(map);
 190:pathfinding.c **** }
 1360              		.loc 1 190 0
 1361 08e2 00BF     		nop
 1362 08e4 07F5B557 		add	r7, r7, #5792
 1363 08e8 1C37     		adds	r7, r7, #28
 1364              		.cfi_def_cfa_offset 20
 1365 08ea BD46     		mov	sp, r7
 1366              		.cfi_def_cfa_register 13
 1367              		@ sp needed
 1368 08ec BDE89040 		pop	{r4, r7, lr}
 1369              		.cfi_restore 14
 1370              		.cfi_restore 7
 1371              		.cfi_restore 4
 1372              		.cfi_def_cfa_offset 8
 1373 08f0 02B0     		add	sp, sp, #8
 1374              		.cfi_def_cfa_offset 0
 1375 08f2 7047     		bx	lr
 1376              	.L34:
 1377              		.align	2
 1378              	.L33:
 1379 08f4 00000000 		.word	moves
 1380              		.cfi_endproc
 1381              	.LFE2:
 1382              		.size	dijkstra, .-dijkstra
 1383              		.section	.rodata
 1384              		.align	2
 1385              	.LC0:
 1386 0000 01000000 		.word	1
 1387 0004 01000000 		.word	1
 1388              		.align	2
 1389              	.LC1:
ARM GAS  C:\Users\ikui753\AppData\Local\Temp\cckqKceo.s 			page 29


 1390 0008 01000000 		.word	1
 1391 000c 03000000 		.word	3
 1392              		.section	.text.findPath,"ax",%progbits
 1393              		.align	2
 1394              		.global	findPath
 1395              		.thumb
 1396              		.thumb_func
 1397              		.type	findPath, %function
 1398              	findPath:
 1399              	.LFB3:
 191:pathfinding.c **** 
 192:pathfinding.c **** void findPath(int map[MAX_ROWS][MAX_COLS]) {
 1400              		.loc 1 192 0
 1401              		.cfi_startproc
 1402              		@ args = 0, pretend = 0, frame = 24
 1403              		@ frame_needed = 1, uses_anonymous_args = 0
 1404 0000 80B5     		push	{r7, lr}
 1405              		.cfi_def_cfa_offset 8
 1406              		.cfi_offset 7, -8
 1407              		.cfi_offset 14, -4
 1408 0002 88B0     		sub	sp, sp, #32
 1409              		.cfi_def_cfa_offset 40
 1410 0004 02AF     		add	r7, sp, #8
 1411              		.cfi_def_cfa 7, 32
 1412 0006 7860     		str	r0, [r7, #4]
 193:pathfinding.c ****     struct Location startLocation = {1,1};
 1413              		.loc 1 193 0
 1414 0008 0E4A     		ldr	r2, .L36
 1415 000a 07F11003 		add	r3, r7, #16
 1416 000e 92E80300 		ldmia	r2, {r0, r1}
 1417 0012 83E80300 		stmia	r3, {r0, r1}
 194:pathfinding.c ****     struct Location targetLocation = {1,3};
 1418              		.loc 1 194 0
 1419 0016 0C4A     		ldr	r2, .L36+4
 1420 0018 07F10803 		add	r3, r7, #8
 1421 001c 92E80300 		ldmia	r2, {r0, r1}
 1422 0020 83E80300 		stmia	r3, {r0, r1}
 195:pathfinding.c ****     dijkstra(map, startLocation, targetLocation); // find shortest path
 1423              		.loc 1 195 0
 1424 0024 FB68     		ldr	r3, [r7, #12]
 1425 0026 0093     		str	r3, [sp]
 1426 0028 BB68     		ldr	r3, [r7, #8]
 1427 002a 07F11002 		add	r2, r7, #16
 1428 002e 06CA     		ldmia	r2, {r1, r2}
 1429 0030 7868     		ldr	r0, [r7, #4]
 1430 0032 FFF7FEFF 		bl	dijkstra
 196:pathfinding.c ****     map[0][0] = 7;
 1431              		.loc 1 196 0
 1432 0036 7B68     		ldr	r3, [r7, #4]
 1433 0038 0722     		movs	r2, #7
 1434 003a 1A60     		str	r2, [r3]
 197:pathfinding.c **** }
 1435              		.loc 1 197 0
 1436 003c 00BF     		nop
 1437 003e 1837     		adds	r7, r7, #24
 1438              		.cfi_def_cfa_offset 8
 1439 0040 BD46     		mov	sp, r7
ARM GAS  C:\Users\ikui753\AppData\Local\Temp\cckqKceo.s 			page 30


 1440              		.cfi_def_cfa_register 13
 1441              		@ sp needed
 1442 0042 80BD     		pop	{r7, pc}
 1443              	.L37:
 1444              		.align	2
 1445              	.L36:
 1446 0044 00000000 		.word	.LC0
 1447 0048 08000000 		.word	.LC1
 1448              		.cfi_endproc
 1449              	.LFE3:
 1450              		.size	findPath, .-findPath
 1451              		.text
 1452              	.Letext0:
 1453              		.section	.debug_info,"",%progbits
 1454              	.Ldebug_info0:
 1455 0000 41040000 		.4byte	0x441
 1456 0004 0400     		.2byte	0x4
 1457 0006 00000000 		.4byte	.Ldebug_abbrev0
 1458 000a 04       		.byte	0x4
 1459 000b 01       		.uleb128 0x1
 1460 000c 1A020000 		.4byte	.LASF40
 1461 0010 0C       		.byte	0xc
 1462 0011 7F000000 		.4byte	.LASF41
 1463 0015 D1000000 		.4byte	.LASF42
 1464 0019 18000000 		.4byte	.Ldebug_ranges0+0x18
 1465 001d 00000000 		.4byte	0
 1466 0021 00000000 		.4byte	.Ldebug_line0
 1467 0025 02       		.uleb128 0x2
 1468 0026 01       		.byte	0x1
 1469 0027 06       		.byte	0x6
 1470 0028 E6010000 		.4byte	.LASF0
 1471 002c 02       		.uleb128 0x2
 1472 002d 01       		.byte	0x1
 1473 002e 08       		.byte	0x8
 1474 002f 71000000 		.4byte	.LASF1
 1475 0033 02       		.uleb128 0x2
 1476 0034 02       		.byte	0x2
 1477 0035 05       		.byte	0x5
 1478 0036 AF010000 		.4byte	.LASF2
 1479 003a 02       		.uleb128 0x2
 1480 003b 02       		.byte	0x2
 1481 003c 07       		.byte	0x7
 1482 003d 9C000000 		.4byte	.LASF3
 1483 0041 02       		.uleb128 0x2
 1484 0042 04       		.byte	0x4
 1485 0043 05       		.byte	0x5
 1486 0044 D1010000 		.4byte	.LASF4
 1487 0048 02       		.uleb128 0x2
 1488 0049 04       		.byte	0x4
 1489 004a 07       		.byte	0x7
 1490 004b BF000000 		.4byte	.LASF5
 1491 004f 02       		.uleb128 0x2
 1492 0050 08       		.byte	0x8
 1493 0051 05       		.byte	0x5
 1494 0052 92010000 		.4byte	.LASF6
 1495 0056 02       		.uleb128 0x2
 1496 0057 08       		.byte	0x8
ARM GAS  C:\Users\ikui753\AppData\Local\Temp\cckqKceo.s 			page 31


 1497 0058 07       		.byte	0x7
 1498 0059 45010000 		.4byte	.LASF7
 1499 005d 03       		.uleb128 0x3
 1500 005e 04       		.byte	0x4
 1501 005f 05       		.byte	0x5
 1502 0060 696E7400 		.ascii	"int\000"
 1503 0064 02       		.uleb128 0x2
 1504 0065 04       		.byte	0x4
 1505 0066 07       		.byte	0x7
 1506 0067 38010000 		.4byte	.LASF8
 1507 006b 02       		.uleb128 0x2
 1508 006c 08       		.byte	0x8
 1509 006d 04       		.byte	0x4
 1510 006e DA010000 		.4byte	.LASF9
 1511 0072 02       		.uleb128 0x2
 1512 0073 04       		.byte	0x4
 1513 0074 07       		.byte	0x7
 1514 0075 84010000 		.4byte	.LASF10
 1515 0079 02       		.uleb128 0x2
 1516 007a 01       		.byte	0x1
 1517 007b 08       		.byte	0x8
 1518 007c A0010000 		.4byte	.LASF11
 1519 0080 04       		.uleb128 0x4
 1520 0081 B6000000 		.4byte	.LASF17
 1521 0085 08       		.byte	0x8
 1522 0086 01       		.byte	0x1
 1523 0087 3F       		.byte	0x3f
 1524 0088 A5000000 		.4byte	0xa5
 1525 008c 05       		.uleb128 0x5
 1526 008d 726F7700 		.ascii	"row\000"
 1527 0091 01       		.byte	0x1
 1528 0092 40       		.byte	0x40
 1529 0093 5D000000 		.4byte	0x5d
 1530 0097 00       		.byte	0
 1531 0098 05       		.uleb128 0x5
 1532 0099 636F6C00 		.ascii	"col\000"
 1533 009d 01       		.byte	0x1
 1534 009e 41       		.byte	0x41
 1535 009f 5D000000 		.4byte	0x5d
 1536 00a3 04       		.byte	0x4
 1537 00a4 00       		.byte	0
 1538 00a5 06       		.uleb128 0x6
 1539 00a6 F2010000 		.4byte	.LASF43
 1540 00aa 01       		.byte	0x1
 1541 00ab 47       		.byte	0x47
 1542 00ac 01010000 		.4byte	0x101
 1543 00b0 00000000 		.4byte	.LFB1
 1544 00b4 56000000 		.4byte	.LFE1-.LFB1
 1545 00b8 01       		.uleb128 0x1
 1546 00b9 9C       		.byte	0x9c
 1547 00ba 01010000 		.4byte	0x101
 1548 00be 07       		.uleb128 0x7
 1549 00bf 7200     		.ascii	"r\000"
 1550 00c1 01       		.byte	0x1
 1551 00c2 47       		.byte	0x47
 1552 00c3 5D000000 		.4byte	0x5d
 1553 00c7 02       		.uleb128 0x2
ARM GAS  C:\Users\ikui753\AppData\Local\Temp\cckqKceo.s 			page 32


 1554 00c8 91       		.byte	0x91
 1555 00c9 74       		.sleb128 -12
 1556 00ca 07       		.uleb128 0x7
 1557 00cb 6300     		.ascii	"c\000"
 1558 00cd 01       		.byte	0x1
 1559 00ce 47       		.byte	0x47
 1560 00cf 5D000000 		.4byte	0x5d
 1561 00d3 02       		.uleb128 0x2
 1562 00d4 91       		.byte	0x91
 1563 00d5 70       		.sleb128 -16
 1564 00d6 08       		.uleb128 0x8
 1565 00d7 8D010000 		.4byte	.LASF12
 1566 00db 01       		.byte	0x1
 1567 00dc 47       		.byte	0x47
 1568 00dd 5D000000 		.4byte	0x5d
 1569 00e1 02       		.uleb128 0x2
 1570 00e2 91       		.byte	0x91
 1571 00e3 6C       		.sleb128 -20
 1572 00e4 08       		.uleb128 0x8
 1573 00e5 5C000000 		.4byte	.LASF13
 1574 00e9 01       		.byte	0x1
 1575 00ea 47       		.byte	0x47
 1576 00eb 5D000000 		.4byte	0x5d
 1577 00ef 02       		.uleb128 0x2
 1578 00f0 91       		.byte	0x91
 1579 00f1 68       		.sleb128 -24
 1580 00f2 07       		.uleb128 0x7
 1581 00f3 6D617000 		.ascii	"map\000"
 1582 00f7 01       		.byte	0x1
 1583 00f8 47       		.byte	0x47
 1584 00f9 18010000 		.4byte	0x118
 1585 00fd 02       		.uleb128 0x2
 1586 00fe 91       		.byte	0x91
 1587 00ff 00       		.sleb128 0
 1588 0100 00       		.byte	0
 1589 0101 02       		.uleb128 0x2
 1590 0102 01       		.byte	0x1
 1591 0103 02       		.byte	0x2
 1592 0104 06020000 		.4byte	.LASF14
 1593 0108 09       		.uleb128 0x9
 1594 0109 5D000000 		.4byte	0x5d
 1595 010d 18010000 		.4byte	0x118
 1596 0111 0A       		.uleb128 0xa
 1597 0112 72000000 		.4byte	0x72
 1598 0116 12       		.byte	0x12
 1599 0117 00       		.byte	0
 1600 0118 0B       		.uleb128 0xb
 1601 0119 04       		.byte	0x4
 1602 011a 08010000 		.4byte	0x108
 1603 011e 0C       		.uleb128 0xc
 1604 011f 00000000 		.4byte	.LASF33
 1605 0123 01       		.byte	0x1
 1606 0124 4B       		.byte	0x4b
 1607 0125 00000000 		.4byte	.LFB2
 1608 0129 F8080000 		.4byte	.LFE2-.LFB2
 1609 012d 01       		.uleb128 0x1
 1610 012e 9C       		.byte	0x9c
ARM GAS  C:\Users\ikui753\AppData\Local\Temp\cckqKceo.s 			page 33


 1611 012f 5D030000 		.4byte	0x35d
 1612 0133 07       		.uleb128 0x7
 1613 0134 6D617000 		.ascii	"map\000"
 1614 0138 01       		.byte	0x1
 1615 0139 4B       		.byte	0x4b
 1616 013a 18010000 		.4byte	0x118
 1617 013e 03       		.uleb128 0x3
 1618 013f 91       		.byte	0x91
 1619 0140 BC52     		.sleb128 -5828
 1620 0142 08       		.uleb128 0x8
 1621 0143 0C020000 		.4byte	.LASF15
 1622 0147 01       		.byte	0x1
 1623 0148 4B       		.byte	0x4b
 1624 0149 80000000 		.4byte	0x80
 1625 014d 03       		.uleb128 0x3
 1626 014e 91       		.byte	0x91
 1627 014f B452     		.sleb128 -5836
 1628 0151 08       		.uleb128 0x8
 1629 0152 8D000000 		.4byte	.LASF16
 1630 0156 01       		.byte	0x1
 1631 0157 4B       		.byte	0x4b
 1632 0158 80000000 		.4byte	0x80
 1633 015c 02       		.uleb128 0x2
 1634 015d 91       		.byte	0x91
 1635 015e 7C       		.sleb128 -4
 1636 015f 0D       		.uleb128 0xd
 1637 0160 22010000 		.4byte	.LASF21
 1638 0164 01       		.byte	0x1
 1639 0165 4D       		.byte	0x4d
 1640 0166 5D030000 		.4byte	0x35d
 1641 016a 03       		.uleb128 0x3
 1642 016b 91       		.byte	0x91
 1643 016c A076     		.sleb128 -1248
 1644 016e 04       		.uleb128 0x4
 1645 016f 2F000000 		.4byte	.LASF18
 1646 0173 0C       		.byte	0xc
 1647 0174 01       		.byte	0x1
 1648 0175 54       		.byte	0x54
 1649 0176 93010000 		.4byte	0x193
 1650 017a 0E       		.uleb128 0xe
 1651 017b 11000000 		.4byte	.LASF19
 1652 017f 01       		.byte	0x1
 1653 0180 55       		.byte	0x55
 1654 0181 80000000 		.4byte	0x80
 1655 0185 00       		.byte	0
 1656 0186 0E       		.uleb128 0xe
 1657 0187 61000000 		.4byte	.LASF20
 1658 018b 01       		.byte	0x1
 1659 018c 56       		.byte	0x56
 1660 018d 5D000000 		.4byte	0x5d
 1661 0191 08       		.byte	0x8
 1662 0192 00       		.byte	0
 1663 0193 0F       		.uleb128 0xf
 1664 0194 707100   		.ascii	"pq\000"
 1665 0197 01       		.byte	0x1
 1666 0198 59       		.byte	0x59
 1667 0199 73030000 		.4byte	0x373
ARM GAS  C:\Users\ikui753\AppData\Local\Temp\cckqKceo.s 			page 34


 1668 019d 03       		.uleb128 0x3
 1669 019e 91       		.byte	0x91
 1670 019f C45B     		.sleb128 -4668
 1671 01a1 0D       		.uleb128 0xd
 1672 01a2 6A000000 		.4byte	.LASF22
 1673 01a6 01       		.byte	0x1
 1674 01a7 5A       		.byte	0x5a
 1675 01a8 5D000000 		.4byte	0x5d
 1676 01ac 02       		.uleb128 0x2
 1677 01ad 91       		.byte	0x91
 1678 01ae 5C       		.sleb128 -36
 1679 01af 0D       		.uleb128 0xd
 1680 01b0 7A010000 		.4byte	.LASF23
 1681 01b4 01       		.byte	0x1
 1682 01b5 5D       		.byte	0x5d
 1683 01b6 5D030000 		.4byte	0x35d
 1684 01ba 03       		.uleb128 0x3
 1685 01bb 91       		.byte	0x91
 1686 01bc D052     		.sleb128 -5808
 1687 01be 0D       		.uleb128 0xd
 1688 01bf FE010000 		.4byte	.LASF24
 1689 01c3 01       		.byte	0x1
 1690 01c4 66       		.byte	0x66
 1691 01c5 5D000000 		.4byte	0x5d
 1692 01c9 02       		.uleb128 0x2
 1693 01ca 91       		.byte	0x91
 1694 01cb 50       		.sleb128 -48
 1695 01cc 0D       		.uleb128 0xd
 1696 01cd B9010000 		.4byte	.LASF25
 1697 01d1 01       		.byte	0x1
 1698 01d2 9D       		.byte	0x9d
 1699 01d3 5D000000 		.4byte	0x5d
 1700 01d7 02       		.uleb128 0x2
 1701 01d8 91       		.byte	0x91
 1702 01d9 40       		.sleb128 -64
 1703 01da 0D       		.uleb128 0xd
 1704 01db 6A010000 		.4byte	.LASF26
 1705 01df 01       		.byte	0x1
 1706 01e0 9F       		.byte	0x9f
 1707 01e1 84030000 		.4byte	0x384
 1708 01e5 03       		.uleb128 0x3
 1709 01e6 91       		.byte	0x91
 1710 01e7 9C7F     		.sleb128 -100
 1711 01e9 0D       		.uleb128 0xd
 1712 01ea C6010000 		.4byte	.LASF27
 1713 01ee 01       		.byte	0x1
 1714 01ef A0       		.byte	0xa0
 1715 01f0 5D000000 		.4byte	0x5d
 1716 01f4 03       		.uleb128 0x3
 1717 01f5 91       		.byte	0x91
 1718 01f6 BC7F     		.sleb128 -68
 1719 01f8 0D       		.uleb128 0xd
 1720 01f9 2D010000 		.4byte	.LASF28
 1721 01fd 01       		.byte	0x1
 1722 01fe A1       		.byte	0xa1
 1723 01ff 5D000000 		.4byte	0x5d
 1724 0203 03       		.uleb128 0x3
ARM GAS  C:\Users\ikui753\AppData\Local\Temp\cckqKceo.s 			page 35


 1725 0204 91       		.byte	0x91
 1726 0205 B87F     		.sleb128 -72
 1727 0207 10       		.uleb128 0x10
 1728 0208 28000000 		.4byte	.LBB2
 1729 020c 92000000 		.4byte	.LBE2-.LBB2
 1730 0210 37020000 		.4byte	0x237
 1731 0214 0F       		.uleb128 0xf
 1732 0215 6900     		.ascii	"i\000"
 1733 0217 01       		.byte	0x1
 1734 0218 4E       		.byte	0x4e
 1735 0219 5D000000 		.4byte	0x5d
 1736 021d 02       		.uleb128 0x2
 1737 021e 91       		.byte	0x91
 1738 021f 64       		.sleb128 -28
 1739 0220 11       		.uleb128 0x11
 1740 0221 36000000 		.4byte	.LBB3
 1741 0225 60000000 		.4byte	.LBE3-.LBB3
 1742 0229 0F       		.uleb128 0xf
 1743 022a 6A00     		.ascii	"j\000"
 1744 022c 01       		.byte	0x1
 1745 022d 4F       		.byte	0x4f
 1746 022e 5D000000 		.4byte	0x5d
 1747 0232 02       		.uleb128 0x2
 1748 0233 91       		.byte	0x91
 1749 0234 60       		.sleb128 -32
 1750 0235 00       		.byte	0
 1751 0236 00       		.byte	0
 1752 0237 10       		.uleb128 0x10
 1753 0238 C6000000 		.4byte	.LBB4
 1754 023c 92000000 		.4byte	.LBE4-.LBB4
 1755 0240 67020000 		.4byte	0x267
 1756 0244 0F       		.uleb128 0xf
 1757 0245 6900     		.ascii	"i\000"
 1758 0247 01       		.byte	0x1
 1759 0248 60       		.byte	0x60
 1760 0249 5D000000 		.4byte	0x5d
 1761 024d 02       		.uleb128 0x2
 1762 024e 91       		.byte	0x91
 1763 024f 58       		.sleb128 -40
 1764 0250 11       		.uleb128 0x11
 1765 0251 D4000000 		.4byte	.LBB5
 1766 0255 60000000 		.4byte	.LBE5-.LBB5
 1767 0259 0F       		.uleb128 0xf
 1768 025a 6A00     		.ascii	"j\000"
 1769 025c 01       		.byte	0x1
 1770 025d 61       		.byte	0x61
 1771 025e 5D000000 		.4byte	0x5d
 1772 0262 02       		.uleb128 0x2
 1773 0263 91       		.byte	0x91
 1774 0264 54       		.sleb128 -44
 1775 0265 00       		.byte	0
 1776 0266 00       		.byte	0
 1777 0267 12       		.uleb128 0x12
 1778 0268 00000000 		.4byte	.Ldebug_ranges0+0
 1779 026c 1D030000 		.4byte	0x31d
 1780 0270 0F       		.uleb128 0xf
 1781 0271 69647800 		.ascii	"idx\000"
ARM GAS  C:\Users\ikui753\AppData\Local\Temp\cckqKceo.s 			page 36


 1782 0275 01       		.byte	0x1
 1783 0276 70       		.byte	0x70
 1784 0277 5D000000 		.4byte	0x5d
 1785 027b 02       		.uleb128 0x2
 1786 027c 91       		.byte	0x91
 1787 027d 4C       		.sleb128 -52
 1788 027e 0D       		.uleb128 0xd
 1789 027f 09000000 		.4byte	.LASF29
 1790 0283 01       		.byte	0x1
 1791 0284 76       		.byte	0x76
 1792 0285 6E010000 		.4byte	0x16e
 1793 0289 03       		.uleb128 0x3
 1794 028a 91       		.byte	0x91
 1795 028b C452     		.sleb128 -5820
 1796 028d 0F       		.uleb128 0xf
 1797 028e 726F7700 		.ascii	"row\000"
 1798 0292 01       		.byte	0x1
 1799 0293 7A       		.byte	0x7a
 1800 0294 5D000000 		.4byte	0x5d
 1801 0298 03       		.uleb128 0x3
 1802 0299 91       		.byte	0x91
 1803 029a B07F     		.sleb128 -80
 1804 029c 0F       		.uleb128 0xf
 1805 029d 636F6C00 		.ascii	"col\000"
 1806 02a1 01       		.byte	0x1
 1807 02a2 7B       		.byte	0x7b
 1808 02a3 5D000000 		.4byte	0x5d
 1809 02a7 03       		.uleb128 0x3
 1810 02a8 91       		.byte	0x91
 1811 02a9 AC7F     		.sleb128 -84
 1812 02ab 10       		.uleb128 0x10
 1813 02ac 02020000 		.4byte	.LBB7
 1814 02b0 90000000 		.4byte	.LBE7-.LBB7
 1815 02b4 C5020000 		.4byte	0x2c5
 1816 02b8 0F       		.uleb128 0xf
 1817 02b9 6900     		.ascii	"i\000"
 1818 02bb 01       		.byte	0x1
 1819 02bc 71       		.byte	0x71
 1820 02bd 5D000000 		.4byte	0x5d
 1821 02c1 02       		.uleb128 0x2
 1822 02c2 91       		.byte	0x91
 1823 02c3 48       		.sleb128 -56
 1824 02c4 00       		.byte	0
 1825 02c5 11       		.uleb128 0x11
 1826 02c6 B4030000 		.4byte	.LBB8
 1827 02ca 16020000 		.4byte	.LBE8-.LBB8
 1828 02ce 0F       		.uleb128 0xf
 1829 02cf 6900     		.ascii	"i\000"
 1830 02d1 01       		.byte	0x1
 1831 02d2 84       		.byte	0x84
 1832 02d3 5D000000 		.4byte	0x5d
 1833 02d7 02       		.uleb128 0x2
 1834 02d8 91       		.byte	0x91
 1835 02d9 44       		.sleb128 -60
 1836 02da 11       		.uleb128 0x11
 1837 02db C2030000 		.4byte	.LBB9
 1838 02df E2010000 		.4byte	.LBE9-.LBB9
ARM GAS  C:\Users\ikui753\AppData\Local\Temp\cckqKceo.s 			page 37


 1839 02e3 0D       		.uleb128 0xd
 1840 02e4 73010000 		.4byte	.LASF30
 1841 02e8 01       		.byte	0x1
 1842 02e9 85       		.byte	0x85
 1843 02ea 5D000000 		.4byte	0x5d
 1844 02ee 03       		.uleb128 0x3
 1845 02ef 91       		.byte	0x91
 1846 02f0 A87F     		.sleb128 -88
 1847 02f2 0D       		.uleb128 0xd
 1848 02f3 AF000000 		.4byte	.LASF31
 1849 02f7 01       		.byte	0x1
 1850 02f8 86       		.byte	0x86
 1851 02f9 5D000000 		.4byte	0x5d
 1852 02fd 03       		.uleb128 0x3
 1853 02fe 91       		.byte	0x91
 1854 02ff A47F     		.sleb128 -92
 1855 0301 11       		.uleb128 0x11
 1856 0302 6C040000 		.4byte	.LBB10
 1857 0306 38010000 		.4byte	.LBE10-.LBB10
 1858 030a 0D       		.uleb128 0xd
 1859 030b 47000000 		.4byte	.LASF32
 1860 030f 01       		.byte	0x1
 1861 0310 89       		.byte	0x89
 1862 0311 5D000000 		.4byte	0x5d
 1863 0315 03       		.uleb128 0x3
 1864 0316 91       		.byte	0x91
 1865 0317 A07F     		.sleb128 -96
 1866 0319 00       		.byte	0
 1867 031a 00       		.byte	0
 1868 031b 00       		.byte	0
 1869 031c 00       		.byte	0
 1870 031d 11       		.uleb128 0x11
 1871 031e D8060000 		.4byte	.LBB12
 1872 0322 FA010000 		.4byte	.LBE12-.LBB12
 1873 0326 0F       		.uleb128 0xf
 1874 0327 6900     		.ascii	"i\000"
 1875 0329 01       		.byte	0x1
 1876 032a AA       		.byte	0xaa
 1877 032b 5D000000 		.4byte	0x5d
 1878 032f 03       		.uleb128 0x3
 1879 0330 91       		.byte	0x91
 1880 0331 B47F     		.sleb128 -76
 1881 0333 11       		.uleb128 0x11
 1882 0334 EC060000 		.4byte	.LBB13
 1883 0338 C0010000 		.4byte	.LBE13-.LBB13
 1884 033c 0D       		.uleb128 0xd
 1885 033d 73010000 		.4byte	.LASF30
 1886 0341 01       		.byte	0x1
 1887 0342 AB       		.byte	0xab
 1888 0343 5D000000 		.4byte	0x5d
 1889 0347 03       		.uleb128 0x3
 1890 0348 91       		.byte	0x91
 1891 0349 987F     		.sleb128 -104
 1892 034b 0D       		.uleb128 0xd
 1893 034c AF000000 		.4byte	.LASF31
 1894 0350 01       		.byte	0x1
 1895 0351 AC       		.byte	0xac
ARM GAS  C:\Users\ikui753\AppData\Local\Temp\cckqKceo.s 			page 38


 1896 0352 5D000000 		.4byte	0x5d
 1897 0356 03       		.uleb128 0x3
 1898 0357 91       		.byte	0x91
 1899 0358 947F     		.sleb128 -108
 1900 035a 00       		.byte	0
 1901 035b 00       		.byte	0
 1902 035c 00       		.byte	0
 1903 035d 09       		.uleb128 0x9
 1904 035e 5D000000 		.4byte	0x5d
 1905 0362 73030000 		.4byte	0x373
 1906 0366 0A       		.uleb128 0xa
 1907 0367 72000000 		.4byte	0x72
 1908 036b 0E       		.byte	0xe
 1909 036c 0A       		.uleb128 0xa
 1910 036d 72000000 		.4byte	0x72
 1911 0371 12       		.byte	0x12
 1912 0372 00       		.byte	0
 1913 0373 09       		.uleb128 0x9
 1914 0374 6E010000 		.4byte	0x16e
 1915 0378 84030000 		.4byte	0x384
 1916 037c 13       		.uleb128 0x13
 1917 037d 72000000 		.4byte	0x72
 1918 0381 1C01     		.2byte	0x11c
 1919 0383 00       		.byte	0
 1920 0384 0B       		.uleb128 0xb
 1921 0385 04       		.byte	0x4
 1922 0386 80000000 		.4byte	0x80
 1923 038a 0C       		.uleb128 0xc
 1924 038b 53000000 		.4byte	.LASF34
 1925 038f 01       		.byte	0x1
 1926 0390 C0       		.byte	0xc0
 1927 0391 00000000 		.4byte	.LFB3
 1928 0395 4C000000 		.4byte	.LFE3-.LFB3
 1929 0399 01       		.uleb128 0x1
 1930 039a 9C       		.byte	0x9c
 1931 039b CA030000 		.4byte	0x3ca
 1932 039f 07       		.uleb128 0x7
 1933 03a0 6D617000 		.ascii	"map\000"
 1934 03a4 01       		.byte	0x1
 1935 03a5 C0       		.byte	0xc0
 1936 03a6 18010000 		.4byte	0x118
 1937 03aa 02       		.uleb128 0x2
 1938 03ab 91       		.byte	0x91
 1939 03ac 64       		.sleb128 -28
 1940 03ad 0D       		.uleb128 0xd
 1941 03ae 5C010000 		.4byte	.LASF35
 1942 03b2 01       		.byte	0x1
 1943 03b3 C1       		.byte	0xc1
 1944 03b4 80000000 		.4byte	0x80
 1945 03b8 02       		.uleb128 0x2
 1946 03b9 91       		.byte	0x91
 1947 03ba 70       		.sleb128 -16
 1948 03bb 0D       		.uleb128 0xd
 1949 03bc 20000000 		.4byte	.LASF36
 1950 03c0 01       		.byte	0x1
 1951 03c1 C2       		.byte	0xc2
 1952 03c2 80000000 		.4byte	0x80
ARM GAS  C:\Users\ikui753\AppData\Local\Temp\cckqKceo.s 			page 39


 1953 03c6 02       		.uleb128 0x2
 1954 03c7 91       		.byte	0x91
 1955 03c8 68       		.sleb128 -24
 1956 03c9 00       		.byte	0
 1957 03ca 14       		.uleb128 0x14
 1958 03cb 6D617000 		.ascii	"map\000"
 1959 03cf 01       		.byte	0x1
 1960 03d0 16       		.byte	0x16
 1961 03d1 5D030000 		.4byte	0x35d
 1962 03d5 05       		.uleb128 0x5
 1963 03d6 03       		.byte	0x3
 1964 03d7 00000000 		.4byte	map
 1965 03db 09       		.uleb128 0x9
 1966 03dc 5D000000 		.4byte	0x5d
 1967 03e0 F1030000 		.4byte	0x3f1
 1968 03e4 0A       		.uleb128 0xa
 1969 03e5 72000000 		.4byte	0x72
 1970 03e9 04       		.byte	0x4
 1971 03ea 0A       		.uleb128 0xa
 1972 03eb 72000000 		.4byte	0x72
 1973 03ef 01       		.byte	0x1
 1974 03f0 00       		.byte	0
 1975 03f1 15       		.uleb128 0x15
 1976 03f2 A5010000 		.4byte	.LASF37
 1977 03f6 01       		.byte	0x1
 1978 03f7 2A       		.byte	0x2a
 1979 03f8 DB030000 		.4byte	0x3db
 1980 03fc 05       		.uleb128 0x5
 1981 03fd 03       		.byte	0x3
 1982 03fe 00000000 		.4byte	food_list
 1983 0402 09       		.uleb128 0x9
 1984 0403 5D000000 		.4byte	0x5d
 1985 0407 12040000 		.4byte	0x412
 1986 040b 0A       		.uleb128 0xa
 1987 040c 72000000 		.4byte	0x72
 1988 0410 01       		.byte	0x1
 1989 0411 00       		.byte	0
 1990 0412 15       		.uleb128 0x15
 1991 0413 3D000000 		.4byte	.LASF38
 1992 0417 01       		.byte	0x1
 1993 0418 28       		.byte	0x28
 1994 0419 02040000 		.4byte	0x402
 1995 041d 05       		.uleb128 0x5
 1996 041e 03       		.byte	0x3
 1997 041f 00000000 		.4byte	start_pos
 1998 0423 09       		.uleb128 0x9
 1999 0424 80000000 		.4byte	0x80
 2000 0428 33040000 		.4byte	0x433
 2001 042c 0A       		.uleb128 0xa
 2002 042d 72000000 		.4byte	0x72
 2003 0431 03       		.byte	0x3
 2004 0432 00       		.byte	0
 2005 0433 15       		.uleb128 0x15
 2006 0434 1A000000 		.4byte	.LASF39
 2007 0438 01       		.byte	0x1
 2008 0439 45       		.byte	0x45
 2009 043a 23040000 		.4byte	0x423
ARM GAS  C:\Users\ikui753\AppData\Local\Temp\cckqKceo.s 			page 40


 2010 043e 05       		.uleb128 0x5
 2011 043f 03       		.byte	0x3
 2012 0440 00000000 		.4byte	moves
 2013 0444 00       		.byte	0
 2014              		.section	.debug_abbrev,"",%progbits
 2015              	.Ldebug_abbrev0:
 2016 0000 01       		.uleb128 0x1
 2017 0001 11       		.uleb128 0x11
 2018 0002 01       		.byte	0x1
 2019 0003 25       		.uleb128 0x25
 2020 0004 0E       		.uleb128 0xe
 2021 0005 13       		.uleb128 0x13
 2022 0006 0B       		.uleb128 0xb
 2023 0007 03       		.uleb128 0x3
 2024 0008 0E       		.uleb128 0xe
 2025 0009 1B       		.uleb128 0x1b
 2026 000a 0E       		.uleb128 0xe
 2027 000b 55       		.uleb128 0x55
 2028 000c 17       		.uleb128 0x17
 2029 000d 11       		.uleb128 0x11
 2030 000e 01       		.uleb128 0x1
 2031 000f 10       		.uleb128 0x10
 2032 0010 17       		.uleb128 0x17
 2033 0011 00       		.byte	0
 2034 0012 00       		.byte	0
 2035 0013 02       		.uleb128 0x2
 2036 0014 24       		.uleb128 0x24
 2037 0015 00       		.byte	0
 2038 0016 0B       		.uleb128 0xb
 2039 0017 0B       		.uleb128 0xb
 2040 0018 3E       		.uleb128 0x3e
 2041 0019 0B       		.uleb128 0xb
 2042 001a 03       		.uleb128 0x3
 2043 001b 0E       		.uleb128 0xe
 2044 001c 00       		.byte	0
 2045 001d 00       		.byte	0
 2046 001e 03       		.uleb128 0x3
 2047 001f 24       		.uleb128 0x24
 2048 0020 00       		.byte	0
 2049 0021 0B       		.uleb128 0xb
 2050 0022 0B       		.uleb128 0xb
 2051 0023 3E       		.uleb128 0x3e
 2052 0024 0B       		.uleb128 0xb
 2053 0025 03       		.uleb128 0x3
 2054 0026 08       		.uleb128 0x8
 2055 0027 00       		.byte	0
 2056 0028 00       		.byte	0
 2057 0029 04       		.uleb128 0x4
 2058 002a 13       		.uleb128 0x13
 2059 002b 01       		.byte	0x1
 2060 002c 03       		.uleb128 0x3
 2061 002d 0E       		.uleb128 0xe
 2062 002e 0B       		.uleb128 0xb
 2063 002f 0B       		.uleb128 0xb
 2064 0030 3A       		.uleb128 0x3a
 2065 0031 0B       		.uleb128 0xb
 2066 0032 3B       		.uleb128 0x3b
ARM GAS  C:\Users\ikui753\AppData\Local\Temp\cckqKceo.s 			page 41


 2067 0033 0B       		.uleb128 0xb
 2068 0034 01       		.uleb128 0x1
 2069 0035 13       		.uleb128 0x13
 2070 0036 00       		.byte	0
 2071 0037 00       		.byte	0
 2072 0038 05       		.uleb128 0x5
 2073 0039 0D       		.uleb128 0xd
 2074 003a 00       		.byte	0
 2075 003b 03       		.uleb128 0x3
 2076 003c 08       		.uleb128 0x8
 2077 003d 3A       		.uleb128 0x3a
 2078 003e 0B       		.uleb128 0xb
 2079 003f 3B       		.uleb128 0x3b
 2080 0040 0B       		.uleb128 0xb
 2081 0041 49       		.uleb128 0x49
 2082 0042 13       		.uleb128 0x13
 2083 0043 38       		.uleb128 0x38
 2084 0044 0B       		.uleb128 0xb
 2085 0045 00       		.byte	0
 2086 0046 00       		.byte	0
 2087 0047 06       		.uleb128 0x6
 2088 0048 2E       		.uleb128 0x2e
 2089 0049 01       		.byte	0x1
 2090 004a 3F       		.uleb128 0x3f
 2091 004b 19       		.uleb128 0x19
 2092 004c 03       		.uleb128 0x3
 2093 004d 0E       		.uleb128 0xe
 2094 004e 3A       		.uleb128 0x3a
 2095 004f 0B       		.uleb128 0xb
 2096 0050 3B       		.uleb128 0x3b
 2097 0051 0B       		.uleb128 0xb
 2098 0052 27       		.uleb128 0x27
 2099 0053 19       		.uleb128 0x19
 2100 0054 49       		.uleb128 0x49
 2101 0055 13       		.uleb128 0x13
 2102 0056 11       		.uleb128 0x11
 2103 0057 01       		.uleb128 0x1
 2104 0058 12       		.uleb128 0x12
 2105 0059 06       		.uleb128 0x6
 2106 005a 40       		.uleb128 0x40
 2107 005b 18       		.uleb128 0x18
 2108 005c 9742     		.uleb128 0x2117
 2109 005e 19       		.uleb128 0x19
 2110 005f 01       		.uleb128 0x1
 2111 0060 13       		.uleb128 0x13
 2112 0061 00       		.byte	0
 2113 0062 00       		.byte	0
 2114 0063 07       		.uleb128 0x7
 2115 0064 05       		.uleb128 0x5
 2116 0065 00       		.byte	0
 2117 0066 03       		.uleb128 0x3
 2118 0067 08       		.uleb128 0x8
 2119 0068 3A       		.uleb128 0x3a
 2120 0069 0B       		.uleb128 0xb
 2121 006a 3B       		.uleb128 0x3b
 2122 006b 0B       		.uleb128 0xb
 2123 006c 49       		.uleb128 0x49
ARM GAS  C:\Users\ikui753\AppData\Local\Temp\cckqKceo.s 			page 42


 2124 006d 13       		.uleb128 0x13
 2125 006e 02       		.uleb128 0x2
 2126 006f 18       		.uleb128 0x18
 2127 0070 00       		.byte	0
 2128 0071 00       		.byte	0
 2129 0072 08       		.uleb128 0x8
 2130 0073 05       		.uleb128 0x5
 2131 0074 00       		.byte	0
 2132 0075 03       		.uleb128 0x3
 2133 0076 0E       		.uleb128 0xe
 2134 0077 3A       		.uleb128 0x3a
 2135 0078 0B       		.uleb128 0xb
 2136 0079 3B       		.uleb128 0x3b
 2137 007a 0B       		.uleb128 0xb
 2138 007b 49       		.uleb128 0x49
 2139 007c 13       		.uleb128 0x13
 2140 007d 02       		.uleb128 0x2
 2141 007e 18       		.uleb128 0x18
 2142 007f 00       		.byte	0
 2143 0080 00       		.byte	0
 2144 0081 09       		.uleb128 0x9
 2145 0082 01       		.uleb128 0x1
 2146 0083 01       		.byte	0x1
 2147 0084 49       		.uleb128 0x49
 2148 0085 13       		.uleb128 0x13
 2149 0086 01       		.uleb128 0x1
 2150 0087 13       		.uleb128 0x13
 2151 0088 00       		.byte	0
 2152 0089 00       		.byte	0
 2153 008a 0A       		.uleb128 0xa
 2154 008b 21       		.uleb128 0x21
 2155 008c 00       		.byte	0
 2156 008d 49       		.uleb128 0x49
 2157 008e 13       		.uleb128 0x13
 2158 008f 2F       		.uleb128 0x2f
 2159 0090 0B       		.uleb128 0xb
 2160 0091 00       		.byte	0
 2161 0092 00       		.byte	0
 2162 0093 0B       		.uleb128 0xb
 2163 0094 0F       		.uleb128 0xf
 2164 0095 00       		.byte	0
 2165 0096 0B       		.uleb128 0xb
 2166 0097 0B       		.uleb128 0xb
 2167 0098 49       		.uleb128 0x49
 2168 0099 13       		.uleb128 0x13
 2169 009a 00       		.byte	0
 2170 009b 00       		.byte	0
 2171 009c 0C       		.uleb128 0xc
 2172 009d 2E       		.uleb128 0x2e
 2173 009e 01       		.byte	0x1
 2174 009f 3F       		.uleb128 0x3f
 2175 00a0 19       		.uleb128 0x19
 2176 00a1 03       		.uleb128 0x3
 2177 00a2 0E       		.uleb128 0xe
 2178 00a3 3A       		.uleb128 0x3a
 2179 00a4 0B       		.uleb128 0xb
 2180 00a5 3B       		.uleb128 0x3b
ARM GAS  C:\Users\ikui753\AppData\Local\Temp\cckqKceo.s 			page 43


 2181 00a6 0B       		.uleb128 0xb
 2182 00a7 27       		.uleb128 0x27
 2183 00a8 19       		.uleb128 0x19
 2184 00a9 11       		.uleb128 0x11
 2185 00aa 01       		.uleb128 0x1
 2186 00ab 12       		.uleb128 0x12
 2187 00ac 06       		.uleb128 0x6
 2188 00ad 40       		.uleb128 0x40
 2189 00ae 18       		.uleb128 0x18
 2190 00af 9642     		.uleb128 0x2116
 2191 00b1 19       		.uleb128 0x19
 2192 00b2 01       		.uleb128 0x1
 2193 00b3 13       		.uleb128 0x13
 2194 00b4 00       		.byte	0
 2195 00b5 00       		.byte	0
 2196 00b6 0D       		.uleb128 0xd
 2197 00b7 34       		.uleb128 0x34
 2198 00b8 00       		.byte	0
 2199 00b9 03       		.uleb128 0x3
 2200 00ba 0E       		.uleb128 0xe
 2201 00bb 3A       		.uleb128 0x3a
 2202 00bc 0B       		.uleb128 0xb
 2203 00bd 3B       		.uleb128 0x3b
 2204 00be 0B       		.uleb128 0xb
 2205 00bf 49       		.uleb128 0x49
 2206 00c0 13       		.uleb128 0x13
 2207 00c1 02       		.uleb128 0x2
 2208 00c2 18       		.uleb128 0x18
 2209 00c3 00       		.byte	0
 2210 00c4 00       		.byte	0
 2211 00c5 0E       		.uleb128 0xe
 2212 00c6 0D       		.uleb128 0xd
 2213 00c7 00       		.byte	0
 2214 00c8 03       		.uleb128 0x3
 2215 00c9 0E       		.uleb128 0xe
 2216 00ca 3A       		.uleb128 0x3a
 2217 00cb 0B       		.uleb128 0xb
 2218 00cc 3B       		.uleb128 0x3b
 2219 00cd 0B       		.uleb128 0xb
 2220 00ce 49       		.uleb128 0x49
 2221 00cf 13       		.uleb128 0x13
 2222 00d0 38       		.uleb128 0x38
 2223 00d1 0B       		.uleb128 0xb
 2224 00d2 00       		.byte	0
 2225 00d3 00       		.byte	0
 2226 00d4 0F       		.uleb128 0xf
 2227 00d5 34       		.uleb128 0x34
 2228 00d6 00       		.byte	0
 2229 00d7 03       		.uleb128 0x3
 2230 00d8 08       		.uleb128 0x8
 2231 00d9 3A       		.uleb128 0x3a
 2232 00da 0B       		.uleb128 0xb
 2233 00db 3B       		.uleb128 0x3b
 2234 00dc 0B       		.uleb128 0xb
 2235 00dd 49       		.uleb128 0x49
 2236 00de 13       		.uleb128 0x13
 2237 00df 02       		.uleb128 0x2
ARM GAS  C:\Users\ikui753\AppData\Local\Temp\cckqKceo.s 			page 44


 2238 00e0 18       		.uleb128 0x18
 2239 00e1 00       		.byte	0
 2240 00e2 00       		.byte	0
 2241 00e3 10       		.uleb128 0x10
 2242 00e4 0B       		.uleb128 0xb
 2243 00e5 01       		.byte	0x1
 2244 00e6 11       		.uleb128 0x11
 2245 00e7 01       		.uleb128 0x1
 2246 00e8 12       		.uleb128 0x12
 2247 00e9 06       		.uleb128 0x6
 2248 00ea 01       		.uleb128 0x1
 2249 00eb 13       		.uleb128 0x13
 2250 00ec 00       		.byte	0
 2251 00ed 00       		.byte	0
 2252 00ee 11       		.uleb128 0x11
 2253 00ef 0B       		.uleb128 0xb
 2254 00f0 01       		.byte	0x1
 2255 00f1 11       		.uleb128 0x11
 2256 00f2 01       		.uleb128 0x1
 2257 00f3 12       		.uleb128 0x12
 2258 00f4 06       		.uleb128 0x6
 2259 00f5 00       		.byte	0
 2260 00f6 00       		.byte	0
 2261 00f7 12       		.uleb128 0x12
 2262 00f8 0B       		.uleb128 0xb
 2263 00f9 01       		.byte	0x1
 2264 00fa 55       		.uleb128 0x55
 2265 00fb 17       		.uleb128 0x17
 2266 00fc 01       		.uleb128 0x1
 2267 00fd 13       		.uleb128 0x13
 2268 00fe 00       		.byte	0
 2269 00ff 00       		.byte	0
 2270 0100 13       		.uleb128 0x13
 2271 0101 21       		.uleb128 0x21
 2272 0102 00       		.byte	0
 2273 0103 49       		.uleb128 0x49
 2274 0104 13       		.uleb128 0x13
 2275 0105 2F       		.uleb128 0x2f
 2276 0106 05       		.uleb128 0x5
 2277 0107 00       		.byte	0
 2278 0108 00       		.byte	0
 2279 0109 14       		.uleb128 0x14
 2280 010a 34       		.uleb128 0x34
 2281 010b 00       		.byte	0
 2282 010c 03       		.uleb128 0x3
 2283 010d 08       		.uleb128 0x8
 2284 010e 3A       		.uleb128 0x3a
 2285 010f 0B       		.uleb128 0xb
 2286 0110 3B       		.uleb128 0x3b
 2287 0111 0B       		.uleb128 0xb
 2288 0112 49       		.uleb128 0x49
 2289 0113 13       		.uleb128 0x13
 2290 0114 3F       		.uleb128 0x3f
 2291 0115 19       		.uleb128 0x19
 2292 0116 02       		.uleb128 0x2
 2293 0117 18       		.uleb128 0x18
 2294 0118 00       		.byte	0
ARM GAS  C:\Users\ikui753\AppData\Local\Temp\cckqKceo.s 			page 45


 2295 0119 00       		.byte	0
 2296 011a 15       		.uleb128 0x15
 2297 011b 34       		.uleb128 0x34
 2298 011c 00       		.byte	0
 2299 011d 03       		.uleb128 0x3
 2300 011e 0E       		.uleb128 0xe
 2301 011f 3A       		.uleb128 0x3a
 2302 0120 0B       		.uleb128 0xb
 2303 0121 3B       		.uleb128 0x3b
 2304 0122 0B       		.uleb128 0xb
 2305 0123 49       		.uleb128 0x49
 2306 0124 13       		.uleb128 0x13
 2307 0125 3F       		.uleb128 0x3f
 2308 0126 19       		.uleb128 0x19
 2309 0127 02       		.uleb128 0x2
 2310 0128 18       		.uleb128 0x18
 2311 0129 00       		.byte	0
 2312 012a 00       		.byte	0
 2313 012b 00       		.byte	0
 2314              		.section	.debug_aranges,"",%progbits
 2315 0000 2C000000 		.4byte	0x2c
 2316 0004 0200     		.2byte	0x2
 2317 0006 00000000 		.4byte	.Ldebug_info0
 2318 000a 04       		.byte	0x4
 2319 000b 00       		.byte	0
 2320 000c 0000     		.2byte	0
 2321 000e 0000     		.2byte	0
 2322 0010 00000000 		.4byte	.LFB1
 2323 0014 56000000 		.4byte	.LFE1-.LFB1
 2324 0018 00000000 		.4byte	.LFB2
 2325 001c F8080000 		.4byte	.LFE2-.LFB2
 2326 0020 00000000 		.4byte	.LFB3
 2327 0024 4C000000 		.4byte	.LFE3-.LFB3
 2328 0028 00000000 		.4byte	0
 2329 002c 00000000 		.4byte	0
 2330              		.section	.debug_ranges,"",%progbits
 2331              	.Ldebug_ranges0:
 2332 0000 F6010000 		.4byte	.LBB6
 2333 0004 CA050000 		.4byte	.LBE6
 2334 0008 DC050000 		.4byte	.LBB11
 2335 000c DE050000 		.4byte	.LBE11
 2336 0010 00000000 		.4byte	0
 2337 0014 00000000 		.4byte	0
 2338 0018 00000000 		.4byte	.LFB1
 2339 001c 56000000 		.4byte	.LFE1
 2340 0020 00000000 		.4byte	.LFB2
 2341 0024 F8080000 		.4byte	.LFE2
 2342 0028 00000000 		.4byte	.LFB3
 2343 002c 4C000000 		.4byte	.LFE3
 2344 0030 00000000 		.4byte	0
 2345 0034 00000000 		.4byte	0
 2346              		.section	.debug_line,"",%progbits
 2347              	.Ldebug_line0:
 2348 0000 6F010000 		.section	.debug_str,"MS",%progbits,1
 2348      02002400 
 2348      00000201 
 2348      FB0E0D00 
ARM GAS  C:\Users\ikui753\AppData\Local\Temp\cckqKceo.s 			page 46


 2348      01010101 
 2349              	.LASF33:
 2350 0000 64696A6B 		.ascii	"dijkstra\000"
 2350      73747261 
 2350      00
 2351              	.LASF29:
 2352 0009 63757272 		.ascii	"current\000"
 2352      656E7400 
 2353              	.LASF19:
 2354 0011 6C6F6361 		.ascii	"location\000"
 2354      74696F6E 
 2354      00
 2355              	.LASF39:
 2356 001a 6D6F7665 		.ascii	"moves\000"
 2356      7300
 2357              	.LASF36:
 2358 0020 74617267 		.ascii	"targetLocation\000"
 2358      65744C6F 
 2358      63617469 
 2358      6F6E00
 2359              	.LASF18:
 2360 002f 5072696F 		.ascii	"PriorityQueue\000"
 2360      72697479 
 2360      51756575 
 2360      6500
 2361              	.LASF38:
 2362 003d 73746172 		.ascii	"start_pos\000"
 2362      745F706F 
 2362      7300
 2363              	.LASF32:
 2364 0047 6E657744 		.ascii	"newDistance\000"
 2364      69737461 
 2364      6E636500 
 2365              	.LASF34:
 2366 0053 66696E64 		.ascii	"findPath\000"
 2366      50617468 
 2366      00
 2367              	.LASF13:
 2368 005c 636F6C73 		.ascii	"cols\000"
 2368      00
 2369              	.LASF20:
 2370 0061 64697374 		.ascii	"distance\000"
 2370      616E6365 
 2370      00
 2371              	.LASF22:
 2372 006a 70715369 		.ascii	"pqSize\000"
 2372      7A6500
 2373              	.LASF1:
 2374 0071 756E7369 		.ascii	"unsigned char\000"
 2374      676E6564 
 2374      20636861 
 2374      7200
 2375              	.LASF41:
 2376 007f 70617468 		.ascii	"pathfinding.c\000"
 2376      66696E64 
 2376      696E672E 
 2376      6300
ARM GAS  C:\Users\ikui753\AppData\Local\Temp\cckqKceo.s 			page 47


 2377              	.LASF16:
 2378 008d 74617267 		.ascii	"targetlocation\000"
 2378      65746C6F 
 2378      63617469 
 2378      6F6E00
 2379              	.LASF3:
 2380 009c 73686F72 		.ascii	"short unsigned int\000"
 2380      7420756E 
 2380      7369676E 
 2380      65642069 
 2380      6E7400
 2381              	.LASF31:
 2382 00af 6E657743 		.ascii	"newCol\000"
 2382      6F6C00
 2383              	.LASF17:
 2384 00b6 4C6F6361 		.ascii	"Location\000"
 2384      74696F6E 
 2384      00
 2385              	.LASF5:
 2386 00bf 6C6F6E67 		.ascii	"long unsigned int\000"
 2386      20756E73 
 2386      69676E65 
 2386      6420696E 
 2386      7400
 2387              	.LASF42:
 2388 00d1 483A5C44 		.ascii	"H:\\Documents\\GitHub\\301-Robot\\psoc student pack"
 2388      6F63756D 
 2388      656E7473 
 2388      5C476974 
 2388      4875625C 
 2389 0100 5C70736F 		.ascii	"\\psoc_code_base\\CS301_Class.cydsn\000"
 2389      635F636F 
 2389      64655F62 
 2389      6173655C 
 2389      43533330 
 2390              	.LASF21:
 2391 0122 76697369 		.ascii	"visitedMap\000"
 2391      7465644D 
 2391      617000
 2392              	.LASF28:
 2393 012d 63757272 		.ascii	"currentCol\000"
 2393      656E7443 
 2393      6F6C00
 2394              	.LASF8:
 2395 0138 756E7369 		.ascii	"unsigned int\000"
 2395      676E6564 
 2395      20696E74 
 2395      00
 2396              	.LASF7:
 2397 0145 6C6F6E67 		.ascii	"long long unsigned int\000"
 2397      206C6F6E 
 2397      6720756E 
 2397      7369676E 
 2397      65642069 
 2398              	.LASF35:
 2399 015c 73746172 		.ascii	"startLocation\000"
 2399      744C6F63 
ARM GAS  C:\Users\ikui753\AppData\Local\Temp\cckqKceo.s 			page 48


 2399      6174696F 
 2399      6E00
 2400              	.LASF26:
 2401 016a 72657453 		.ascii	"retSteps\000"
 2401      74657073 
 2401      00
 2402              	.LASF30:
 2403 0173 6E657752 		.ascii	"newRow\000"
 2403      6F7700
 2404              	.LASF23:
 2405 017a 64697374 		.ascii	"distances\000"
 2405      616E6365 
 2405      7300
 2406              	.LASF10:
 2407 0184 73697A65 		.ascii	"sizetype\000"
 2407      74797065 
 2407      00
 2408              	.LASF12:
 2409 018d 726F7773 		.ascii	"rows\000"
 2409      00
 2410              	.LASF6:
 2411 0192 6C6F6E67 		.ascii	"long long int\000"
 2411      206C6F6E 
 2411      6720696E 
 2411      7400
 2412              	.LASF11:
 2413 01a0 63686172 		.ascii	"char\000"
 2413      00
 2414              	.LASF37:
 2415 01a5 666F6F64 		.ascii	"food_list\000"
 2415      5F6C6973 
 2415      7400
 2416              	.LASF2:
 2417 01af 73686F72 		.ascii	"short int\000"
 2417      7420696E 
 2417      7400
 2418              	.LASF25:
 2419 01b9 73686F72 		.ascii	"shortestDist\000"
 2419      74657374 
 2419      44697374 
 2419      00
 2420              	.LASF27:
 2421 01c6 63757272 		.ascii	"currentRow\000"
 2421      656E7452 
 2421      6F7700
 2422              	.LASF4:
 2423 01d1 6C6F6E67 		.ascii	"long int\000"
 2423      20696E74 
 2423      00
 2424              	.LASF9:
 2425 01da 6C6F6E67 		.ascii	"long double\000"
 2425      20646F75 
 2425      626C6500 
 2426              	.LASF0:
 2427 01e6 7369676E 		.ascii	"signed char\000"
 2427      65642063 
 2427      68617200 
ARM GAS  C:\Users\ikui753\AppData\Local\Temp\cckqKceo.s 			page 49


 2428              	.LASF43:
 2429 01f2 69735661 		.ascii	"isValidMove\000"
 2429      6C69644D 
 2429      6F766500 
 2430              	.LASF24:
 2431 01fe 73746570 		.ascii	"stepNum\000"
 2431      4E756D00 
 2432              	.LASF14:
 2433 0206 5F426F6F 		.ascii	"_Bool\000"
 2433      6C00
 2434              	.LASF15:
 2435 020c 73746172 		.ascii	"startlocation\000"
 2435      746C6F63 
 2435      6174696F 
 2435      6E00
 2436              	.LASF40:
 2437 021a 474E5520 		.ascii	"GNU C11 5.4.1 20160609 (release) [ARM/embedded-5-br"
 2437      43313120 
 2437      352E342E 
 2437      31203230 
 2437      31363036 
 2438 024d 616E6368 		.ascii	"anch revision 237715] -mcpu=cortex-m3 -mthumb -g -O"
 2438      20726576 
 2438      6973696F 
 2438      6E203233 
 2438      37373135 
 2439 0280 30202D66 		.ascii	"0 -ffunction-sections -ffat-lto-objects\000"
 2439      66756E63 
 2439      74696F6E 
 2439      2D736563 
 2439      74696F6E 
 2440              		.ident	"GCC: (GNU Tools for ARM Embedded Processors) 5.4.1 20160609 (release) [ARM/embedded-5-bran
