ARM GAS  C:\Users\ikui753\AppData\Local\Temp\ccBIWTvl.s 			page 1


   1              		.syntax unified
   2              		.cpu cortex-m3
   3              		.fpu softvfp
   4              		.eabi_attribute 20, 1
   5              		.eabi_attribute 21, 1
   6              		.eabi_attribute 23, 3
   7              		.eabi_attribute 24, 1
   8              		.eabi_attribute 25, 1
   9              		.eabi_attribute 26, 1
  10              		.eabi_attribute 30, 6
  11              		.eabi_attribute 34, 1
  12              		.eabi_attribute 18, 4
  13              		.thumb
  14              		.syntax unified
  15              		.file	"tacho.c"
  16              		.text
  17              	.Ltext0:
  18              		.cfi_sections	.debug_frame
  19              		.section	.text.get_position,"ax",%progbits
  20              		.align	2
  21              		.global	get_position
  22              		.thumb
  23              		.thumb_func
  24              		.type	get_position, %function
  25              	get_position:
  26              	.LFB63:
  27              		.file 1 "tacho.c"
   1:tacho.c       **** /* ========================================
   2:tacho.c       ****  *
   3:tacho.c       ****  * Copyright YOUR COMPANY, THE YEAR
   4:tacho.c       ****  * All Rights Reserved
   5:tacho.c       ****  * UNPUBLISHED, LICENSED SOFTWARE.
   6:tacho.c       ****  *
   7:tacho.c       ****  * CONFIDENTIAL AND PROPRIETARY INFORMATION
   8:tacho.c       ****  * WHICH IS THE PROPERTY OF your company.
   9:tacho.c       ****  *
  10:tacho.c       ****  * ========================================
  11:tacho.c       ****  */
  12:tacho.c       **** 
  13:tacho.c       **** #include <project.h>
  14:tacho.c       **** #include "defines.h"
  15:tacho.c       **** 
  16:tacho.c       **** extern int16 speedL, speedR;
  17:tacho.c       **** extern int16 posL, posR;
  18:tacho.c       **** 
  19:tacho.c       **** void get_position(void);
  20:tacho.c       **** void get_speed(void);
  21:tacho.c       **** 
  22:tacho.c       **** //------------------------------------------------------
  23:tacho.c       **** void get_position()
  24:tacho.c       **** {
  28              		.loc 1 24 0
  29              		.cfi_startproc
  30              		@ args = 0, pretend = 0, frame = 8
  31              		@ frame_needed = 1, uses_anonymous_args = 0
  32 0000 80B5     		push	{r7, lr}
  33              		.cfi_def_cfa_offset 8
ARM GAS  C:\Users\ikui753\AppData\Local\Temp\ccBIWTvl.s 			page 2


  34              		.cfi_offset 7, -8
  35              		.cfi_offset 14, -4
  36 0002 82B0     		sub	sp, sp, #8
  37              		.cfi_def_cfa_offset 16
  38 0004 00AF     		add	r7, sp, #0
  39              		.cfi_def_cfa_register 7
  25:tacho.c       ****     int pl, pr;
  26:tacho.c       **** 
  27:tacho.c       ****     pl = QuadDec_M1_GetCounter();
  40              		.loc 1 27 0
  41 0006 FFF7FEFF 		bl	QuadDec_M1_GetCounter
  42 000a 0346     		mov	r3, r0
  43 000c 7B60     		str	r3, [r7, #4]
  28:tacho.c       ****     pr = QuadDec_M2_GetCounter();
  44              		.loc 1 28 0
  45 000e FFF7FEFF 		bl	QuadDec_M2_GetCounter
  46 0012 0346     		mov	r3, r0
  47 0014 3B60     		str	r3, [r7]
  29:tacho.c       **** 
  30:tacho.c       ****     posL = pl;
  48              		.loc 1 30 0
  49 0016 7B68     		ldr	r3, [r7, #4]
  50 0018 1AB2     		sxth	r2, r3
  51 001a 054B     		ldr	r3, .L2
  52 001c 1A80     		strh	r2, [r3]	@ movhi
  31:tacho.c       ****     posR = pr;
  53              		.loc 1 31 0
  54 001e 3B68     		ldr	r3, [r7]
  55 0020 1AB2     		sxth	r2, r3
  56 0022 044B     		ldr	r3, .L2+4
  57 0024 1A80     		strh	r2, [r3]	@ movhi
  32:tacho.c       **** }
  58              		.loc 1 32 0
  59 0026 00BF     		nop
  60 0028 0837     		adds	r7, r7, #8
  61              		.cfi_def_cfa_offset 8
  62 002a BD46     		mov	sp, r7
  63              		.cfi_def_cfa_register 13
  64              		@ sp needed
  65 002c 80BD     		pop	{r7, pc}
  66              	.L3:
  67 002e 00BF     		.align	2
  68              	.L2:
  69 0030 00000000 		.word	posL
  70 0034 00000000 		.word	posR
  71              		.cfi_endproc
  72              	.LFE63:
  73              		.size	get_position, .-get_position
  74              		.section	.text.get_speed,"ax",%progbits
  75              		.align	2
  76              		.global	get_speed
  77              		.thumb
  78              		.thumb_func
  79              		.type	get_speed, %function
  80              	get_speed:
  81              	.LFB64:
  33:tacho.c       **** //------------------------------------------------------
ARM GAS  C:\Users\ikui753\AppData\Local\Temp\ccBIWTvl.s 			page 3


  34:tacho.c       **** void get_speed()
  35:tacho.c       **** {
  82              		.loc 1 35 0
  83              		.cfi_startproc
  84              		@ args = 0, pretend = 0, frame = 8
  85              		@ frame_needed = 1, uses_anonymous_args = 0
  86 0000 80B5     		push	{r7, lr}
  87              		.cfi_def_cfa_offset 8
  88              		.cfi_offset 7, -8
  89              		.cfi_offset 14, -4
  90 0002 82B0     		sub	sp, sp, #8
  91              		.cfi_def_cfa_offset 16
  92 0004 00AF     		add	r7, sp, #0
  93              		.cfi_def_cfa_register 7
  36:tacho.c       ****     int16 pl, pr;
  37:tacho.c       **** 
  38:tacho.c       ****     // get current position.
  39:tacho.c       ****     pl = QuadDec_M1_GetCounter();
  94              		.loc 1 39 0
  95 0006 FFF7FEFF 		bl	QuadDec_M1_GetCounter
  96 000a 0346     		mov	r3, r0
  97 000c FB80     		strh	r3, [r7, #6]	@ movhi
  40:tacho.c       ****     pr = QuadDec_M2_GetCounter();
  98              		.loc 1 40 0
  99 000e FFF7FEFF 		bl	QuadDec_M2_GetCounter
 100 0012 0346     		mov	r3, r0
 101 0014 BB80     		strh	r3, [r7, #4]	@ movhi
  41:tacho.c       **** 
  42:tacho.c       ****     speedL = pl - posL;
 102              		.loc 1 42 0
 103 0016 FA88     		ldrh	r2, [r7, #6]
 104 0018 0E4B     		ldr	r3, .L5
 105 001a B3F90030 		ldrsh	r3, [r3]
 106 001e 9BB2     		uxth	r3, r3
 107 0020 D31A     		subs	r3, r2, r3
 108 0022 9BB2     		uxth	r3, r3
 109 0024 1AB2     		sxth	r2, r3
 110 0026 0C4B     		ldr	r3, .L5+4
 111 0028 1A80     		strh	r2, [r3]	@ movhi
  43:tacho.c       ****     speedR = pr - posR;
 112              		.loc 1 43 0
 113 002a BA88     		ldrh	r2, [r7, #4]
 114 002c 0B4B     		ldr	r3, .L5+8
 115 002e B3F90030 		ldrsh	r3, [r3]
 116 0032 9BB2     		uxth	r3, r3
 117 0034 D31A     		subs	r3, r2, r3
 118 0036 9BB2     		uxth	r3, r3
 119 0038 1AB2     		sxth	r2, r3
 120 003a 094B     		ldr	r3, .L5+12
 121 003c 1A80     		strh	r2, [r3]	@ movhi
  44:tacho.c       ****     posL = pl;
 122              		.loc 1 44 0
 123 003e 054A     		ldr	r2, .L5
 124 0040 FB88     		ldrh	r3, [r7, #6]	@ movhi
 125 0042 1380     		strh	r3, [r2]	@ movhi
  45:tacho.c       ****     posR = pr;
 126              		.loc 1 45 0
ARM GAS  C:\Users\ikui753\AppData\Local\Temp\ccBIWTvl.s 			page 4


 127 0044 054A     		ldr	r2, .L5+8
 128 0046 BB88     		ldrh	r3, [r7, #4]	@ movhi
 129 0048 1380     		strh	r3, [r2]	@ movhi
  46:tacho.c       **** 
  47:tacho.c       ****     //    // Speed of Motor 1
  48:tacho.c       ****     //    state = QuadDec_M1_GetEvents();
  49:tacho.c       ****     //    speed = pl - posL;
  50:tacho.c       ****     //    if ((state & QuadDec_M1_COUNTER_OVERFLOW) != 0x00)
  51:tacho.c       ****     //        speed += 32767;
  52:tacho.c       ****     //
  53:tacho.c       ****     //    if ((state & QuadDec_M1_COUNTER_UNDERFLOW) != 0x00)
  54:tacho.c       ****     //        speed += -32768;
  55:tacho.c       ****     //    speedL = speed;
  56:tacho.c       ****     //    posL = pl;
  57:tacho.c       ****     //
  58:tacho.c       ****     //    // Speed of Motor 2
  59:tacho.c       ****     //    state = QuadDec_M2_GetEvents();
  60:tacho.c       ****     //    speed = pr - posR;
  61:tacho.c       ****     //    if ((state & QuadDec_M2_COUNTER_OVERFLOW) != 0x00)
  62:tacho.c       ****     //        speed += 32767;
  63:tacho.c       ****     //
  64:tacho.c       ****     //    if ((state & QuadDec_M2_COUNTER_UNDERFLOW) != 0x00)
  65:tacho.c       ****     //        speed += -32768;
  66:tacho.c       ****     //    speedR = speed;
  67:tacho.c       ****     //    posR = pr;
  68:tacho.c       **** }
 130              		.loc 1 68 0
 131 004a 00BF     		nop
 132 004c 0837     		adds	r7, r7, #8
 133              		.cfi_def_cfa_offset 8
 134 004e BD46     		mov	sp, r7
 135              		.cfi_def_cfa_register 13
 136              		@ sp needed
 137 0050 80BD     		pop	{r7, pc}
 138              	.L6:
 139 0052 00BF     		.align	2
 140              	.L5:
 141 0054 00000000 		.word	posL
 142 0058 00000000 		.word	speedL
 143 005c 00000000 		.word	posR
 144 0060 00000000 		.word	speedR
 145              		.cfi_endproc
 146              	.LFE64:
 147              		.size	get_speed, .-get_speed
 148              		.text
 149              	.Letext0:
 150              		.file 2 "c:\\program files (x86)\\cypress\\psoc creator\\4.2\\psoc creator\\import\\gnu\\arm\\5.4.
 151              		.file 3 "c:\\program files (x86)\\cypress\\psoc creator\\4.2\\psoc creator\\import\\gnu\\arm\\5.4.
 152              		.file 4 "Generated_Source\\PSoC5/cytypes.h"
 153              		.file 5 "Generated_Source\\PSoC5/core_cm3.h"