ARM GAS  C:\Users\ikui753\AppData\Local\Temp\ccP3FQgi.s 			page 1


   1              		.syntax unified
   2              		.cpu cortex-m3
   3              		.fpu softvfp
   4              		.eabi_attribute 20, 1
   5              		.eabi_attribute 21, 1
   6              		.eabi_attribute 23, 3
   7              		.eabi_attribute 24, 1
   8              		.eabi_attribute 25, 1
   9              		.eabi_attribute 26, 1
  10              		.eabi_attribute 30, 1
  11              		.eabi_attribute 34, 1
  12              		.eabi_attribute 18, 4
  13              		.thumb
  14              		.syntax unified
  15              		.file	"main.c"
  16              		.text
  17              	.Ltext0:
  18              		.cfi_sections	.debug_frame
  19              		.section	.text.InterruptHandler,"ax",%progbits
  20              		.align	2
  21              		.global	InterruptHandler
  22              		.thumb
  23              		.thumb_func
  24              		.type	InterruptHandler, %function
  25              	InterruptHandler:
  26              	.LFB63:
  27              		.file 1 "main.c"
   1:main.c        **** 
   2:main.c        **** /* ========================================
   3:main.c        ****  * Laboratory Exercise 3
   4:main.c        ****  *
   5:main.c        ****  * Program timer to flash LED at 1Hz, use interrupts
   6:main.c        ****  *
   7:main.c        ****  * Copyright Univ of Auckland, 2016
   8:main.c        ****  * All Rights Reserved
   9:main.c        ****  * UNPUBLISHED, LICENSED SOFTWARE.
  10:main.c        ****  *
  11:main.c        ****  * CONFIDENTIAL AND PROPRIETARY INFORMATION
  12:main.c        ****  * WHICH IS THE PROPERTY OF Univ of Auckland.
  13:main.c        ****  *
  14:main.c        ****  * ========================================
  15:main.c        **** */
  16:main.c        **** #include <project.h>
  17:main.c        **** 
  18:main.c        **** CY_ISR(InterruptHandler) {
  28              		.loc 1 18 0
  29              		.cfi_startproc
  30              		@ args = 0, pretend = 0, frame = 0
  31              		@ frame_needed = 0, uses_anonymous_args = 0
  32 0000 08B5     		push	{r3, lr}
  33              		.cfi_def_cfa_offset 8
  34              		.cfi_offset 3, -8
  35              		.cfi_offset 14, -4
  19:main.c        ****     LED_Write(~LED_Read()); // toggle LED
  36              		.loc 1 19 0
  37 0002 FFF7FEFF 		bl	LED_Read
  38              	.LVL0:
ARM GAS  C:\Users\ikui753\AppData\Local\Temp\ccP3FQgi.s 			page 2


  39 0006 C043     		mvns	r0, r0
  40 0008 C0B2     		uxtb	r0, r0
  41 000a FFF7FEFF 		bl	LED_Write
  42              	.LVL1:
  20:main.c        ****     Timer_1_ReadStatusRegister(); // clear interrupt
  43              		.loc 1 20 0
  44 000e FFF7FEFF 		bl	Timer_1_ReadStatusRegister
  45              	.LVL2:
  46 0012 08BD     		pop	{r3, pc}
  47              		.cfi_endproc
  48              	.LFE63:
  49              		.size	InterruptHandler, .-InterruptHandler
  50              		.section	.text.main,"ax",%progbits
  51              		.align	2
  52              		.global	main
  53              		.thumb
  54              		.thumb_func
  55              		.type	main, %function
  56              	main:
  57              	.LFB64:
  21:main.c        **** }
  22:main.c        **** 
  23:main.c        **** int main()
  24:main.c        **** {
  58              		.loc 1 24 0
  59              		.cfi_startproc
  60              		@ Volatile: function does not return.
  61              		@ args = 0, pretend = 0, frame = 0
  62              		@ frame_needed = 0, uses_anonymous_args = 0
  63 0000 08B5     		push	{r3, lr}
  64              		.cfi_def_cfa_offset 8
  65              		.cfi_offset 3, -8
  66              		.cfi_offset 14, -4
  25:main.c        ****     CyGlobalIntEnable; /* Enable global interrupts. */
  67              		.loc 1 25 0
  68              		.syntax unified
  69              	@ 25 "main.c" 1
  70 0002 62B6     		CPSIE   i
  71              	@ 0 "" 2
  26:main.c        **** 
  27:main.c        ****     /* Place your initialization/startup code here (e.g. MyInst_Start()) */
  28:main.c        ****     timer_clock_Start(); // start clock
  72              		.loc 1 28 0
  73              		.thumb
  74              		.syntax unified
  75 0004 FFF7FEFF 		bl	timer_clock_Start
  76              	.LVL3:
  29:main.c        ****     Timer_1_Start(); // start timer
  77              		.loc 1 29 0
  78 0008 FFF7FEFF 		bl	Timer_1_Start
  79              	.LVL4:
  30:main.c        ****     isr_TC_StartEx(InterruptHandler); // start and enable interrupt
  80              		.loc 1 30 0
  81 000c 0148     		ldr	r0, .L6
  82 000e FFF7FEFF 		bl	isr_TC_StartEx
  83              	.LVL5:
  84              	.L4:
ARM GAS  C:\Users\ikui753\AppData\Local\Temp\ccP3FQgi.s 			page 3


  85 0012 FEE7     		b	.L4
  86              	.L7:
  87              		.align	2
  88              	.L6:
  89 0014 00000000 		.word	InterruptHandler
  90              		.cfi_endproc
  91              	.LFE64:
  92              		.size	main, .-main
  93              		.text
  94              	.Letext0:
  95              		.file 2 "c:\\program files (x86)\\cypress\\psoc creator\\4.2\\psoc creator\\import\\gnu\\arm\\5.4.
  96              		.file 3 "c:\\program files (x86)\\cypress\\psoc creator\\4.2\\psoc creator\\import\\gnu\\arm\\5.4.
  97              		.file 4 "Generated_Source\\PSoC5/LED.h"
  98              		.file 5 "Generated_Source\\PSoC5/Timer_1.h"
  99              		.file 6 "Generated_Source\\PSoC5/timer_clock.h"
 100              		.file 7 "Generated_Source\\PSoC5/isr_TC.h"
 101              		.file 8 "Generated_Source\\PSoC5/core_cm3.h"